GAS LISTING C:\Users\Vipuls\AppData\Local\Temp\ccRPm3ys.s 			page 1


   1              		.file	"AEK_POW_BMS63EN_id.c"
   2              		.section	".text","axv"
   3              	.Ltext0:
   4              		.cfi_sections	.debug_frame
   5              		.section	.text.AEK_POW_BMS63EN_ConfigISOFreq,"axv",@progbits
   6              		.align 1
   7              		.p2align 4,,15
   8              		.globl AEK_POW_BMS63EN_ConfigISOFreq
   9              		.type	AEK_POW_BMS63EN_ConfigISOFreq, @function
  10              	AEK_POW_BMS63EN_ConfigISOFreq:
  11              	.LFB5:
  12              		.file 1 "./components/aek_pow_bms63en_component_rla/lib/src/AEK_POW_BMS63EN_id.c"
  13              		.loc 1 271 0
  14              		.cfi_startproc
  15              	.LVL0:
  16 0000 182106F0 		e_stwu %r1,-16(%r1)
  17              	.LCFI0:
  18              		.cfi_def_cfa_offset 16
  19 0004 0080     		se_mflr %r0
  20 0006 1BC10908 		e_stmw %r30,8(%r1)
  21 000a D501     		se_stw %r0,20(%r1)
  22              		.cfi_offset 65, 4
  23              		.cfi_offset 30, -8
  24              		.cfi_offset 31, -4
  25              		.loc 1 271 0
  26 000c 013E     		se_mr %r30,%r3
  27              		.loc 1 275 0
  28 000e 4814     		se_li %r4,1
  29 0010 4815     		se_li %r5,1
  30 0012 73E0E000 		e_lis %r31,AEK_POW_BMS63EN_Drv@ha
  31 0016 1FFF0000 		e_la %r31,AEK_POW_BMS63EN_Drv@l(%r31)
  32 001a 01F3     		se_mr %r3,%r31
  33              	.LVL1:
  34 001c 78000001 		e_bl AEK_POW_BMS63EN_SPIReadRegister
  35              	.LVL2:
  36              		.loc 1 276 0
  37 0020 4815     		se_li %r5,1
  38 0022 01F3     		se_mr %r3,%r31
  39 0024 4814     		se_li %r4,1
  40 0026 78000001 		e_bl AEK_POW_BMS63EN_SPIReadRegister
  41              	.LVL3:
  42              		.loc 1 279 0
  43 002a 2A0E     		se_cmpi %r30,0
  44              		.loc 1 276 0
  45 002c 0135     		se_mr %r5,%r3
  46              	.LVL4:
  47              		.loc 1 279 0
  48 002e 7A12002C 		e_beq %cr0,.L3
  49 0032 220E     		se_cmpli %r30,1
  50 0034 7A02001A 		e_bne %cr0,.L9
  51              	.LVL5:
  52              		.loc 1 296 0
  53 0038 C501     		se_lwz %r0,20(%r1)
  54              		.loc 1 288 0
  55 003a 01F3     		se_mr %r3,%r31
  56              	.LVL6:
  57 003c 4814     		se_li %r4,1
GAS LISTING C:\Users\Vipuls\AppData\Local\Temp\ccRPm3ys.s 			page 2


  58              		.loc 1 296 0
  59 003e 1BC10808 		e_lmw %r30,8(%r1)
  60              	.LVL7:
  61              		.loc 1 288 0
  62 0042 18A5D103 		e_ori %r5,%r5,768
  63              	.LVL8:
  64              		.loc 1 296 0
  65 0046 0090     		se_mtlr %r0
  66              		.cfi_remember_state
  67              		.cfi_restore 65
  68 0048 20F1     		se_addi %r1,16
  69              	.LCFI1:
  70              		.cfi_restore 31
  71              		.cfi_restore 30
  72              		.cfi_def_cfa_offset 0
  73              		.loc 1 288 0
  74 004a 78000000 		e_b AEK_POW_BMS63EN_SPIBroadcastAccess
  75              	.LVL9:
  76              	.L9:
  77              	.LCFI2:
  78              		.cfi_restore_state
  79              		.loc 1 296 0
  80 004e C501     		se_lwz %r0,20(%r1)
  81 0050 0090     		se_mtlr %r0
  82              		.cfi_remember_state
  83              		.cfi_restore 65
  84 0052 1BC10808 		e_lmw %r30,8(%r1)
  85              	.LVL10:
  86 0056 20F1     		se_addi %r1,16
  87              	.LCFI3:
  88              		.cfi_restore 31
  89              		.cfi_restore 30
  90              		.cfi_def_cfa_offset 0
  91 0058 0004     		se_blr
  92              	.LVL11:
  93              	.L3:
  94              	.LCFI4:
  95              		.cfi_restore_state
  96 005a C501     		se_lwz %r0,20(%r1)
  97              		.loc 1 283 0
  98 005c 01F3     		se_mr %r3,%r31
  99              	.LVL12:
 100 005e 4814     		se_li %r4,1
 101              		.loc 1 296 0
 102 0060 1BC10808 		e_lmw %r30,8(%r1)
 103              	.LVL13:
 104              		.loc 1 283 0
 105 0064 18A5C5FC 		e_andi %r5,%r5,-769
 106              	.LVL14:
 107              		.loc 1 296 0
 108 0068 0090     		se_mtlr %r0
 109              		.cfi_restore 65
 110 006a 20F1     		se_addi %r1,16
 111              	.LCFI5:
 112              		.cfi_restore 30
 113              		.cfi_restore 31
 114              		.cfi_def_cfa_offset 0
GAS LISTING C:\Users\Vipuls\AppData\Local\Temp\ccRPm3ys.s 			page 3


 115              		.loc 1 288 0
 116 006c 78000000 		e_b AEK_POW_BMS63EN_SPIBroadcastAccess
 117              	.LVL15:
 118              		.cfi_endproc
 119              	.LFE5:
 120              		.size	AEK_POW_BMS63EN_ConfigISOFreq, .-AEK_POW_BMS63EN_ConfigISOFreq
 121              		.section	.text.AEK_POW_BMS63EN_DisableCommTimeout,"axv",@progbits
 122              		.align 1
 123              		.p2align 4,,15
 124              		.globl AEK_POW_BMS63EN_DisableCommTimeout
 125              		.type	AEK_POW_BMS63EN_DisableCommTimeout, @function
 126              	AEK_POW_BMS63EN_DisableCommTimeout:
 127              	.LFB6:
 128              		.loc 1 302 0
 129              		.cfi_startproc
 130              	.LVL16:
 131 0000 182106F0 		e_stwu %r1,-16(%r1)
 132              	.LCFI6:
 133              		.cfi_def_cfa_offset 16
 134 0004 0080     		se_mflr %r0
 135 0006 1BC10908 		e_stmw %r30,8(%r1)
 136 000a D501     		se_stw %r0,20(%r1)
 137              		.cfi_offset 65, 4
 138              		.cfi_offset 30, -8
 139              		.cfi_offset 31, -4
 140              		.loc 1 302 0
 141 000c 013E     		se_mr %r30,%r3
 142              		.loc 1 306 0
 143 000e 0134     		se_mr %r4,%r3
 144 0010 4835     		se_li %r5,3
 145 0012 73E0E000 		e_lis %r31,AEK_POW_BMS63EN_Drv@ha
 146 0016 1FFF0000 		e_la %r31,AEK_POW_BMS63EN_Drv@l(%r31)
 147 001a 01F3     		se_mr %r3,%r31
 148              	.LVL17:
 149 001c 78000001 		e_bl AEK_POW_BMS63EN_SPIReadRegister
 150              	.LVL18:
 151              		.loc 1 307 0
 152 0020 01E4     		se_mr %r4,%r30
 153 0022 01F3     		se_mr %r3,%r31
 154 0024 4835     		se_li %r5,3
 155 0026 78000001 		e_bl AEK_POW_BMS63EN_SPIReadRegister
 156              	.LVL19:
 157              		.loc 1 313 0
 158 002a C501     		se_lwz %r0,20(%r1)
 159              		.loc 1 311 0
 160 002c 01E4     		se_mr %r4,%r30
 161              		.loc 1 309 0
 162 002e 1866D202 		e_ori %r6,%r3,131072
 163              	.LVL20:
 164              		.loc 1 311 0
 165 0032 4835     		se_li %r5,3
 166 0034 01F3     		se_mr %r3,%r31
 167              		.loc 1 313 0
 168 0036 0090     		se_mtlr %r0
 169              		.cfi_restore 65
 170 0038 1BC10808 		e_lmw %r30,8(%r1)
 171              	.LVL21:
GAS LISTING C:\Users\Vipuls\AppData\Local\Temp\ccRPm3ys.s 			page 4


 172 003c 20F1     		se_addi %r1,16
 173              	.LCFI7:
 174              		.cfi_restore 31
 175              		.cfi_restore 30
 176              		.cfi_def_cfa_offset 0
 177              		.loc 1 311 0
 178 003e 78000000 		e_b AEK_POW_BMS63EN_SPIWriteRegister
 179              	.LVL22:
 180              		.cfi_endproc
 181              	.LFE6:
 182              		.size	AEK_POW_BMS63EN_DisableCommTimeout, .-AEK_POW_BMS63EN_DisableCommTimeout
 183              		.section	.text.AEK_POW_BMS63EN_EnableCommTimeout,"axv",@progbits
 184              		.align 1
 185              		.p2align 4,,15
 186              		.globl AEK_POW_BMS63EN_EnableCommTimeout
 187              		.type	AEK_POW_BMS63EN_EnableCommTimeout, @function
 188              	AEK_POW_BMS63EN_EnableCommTimeout:
 189              	.LFB7:
 190              		.loc 1 319 0
 191              		.cfi_startproc
 192              	.LVL23:
 193 0000 182106F0 		e_stwu %r1,-16(%r1)
 194              	.LCFI8:
 195              		.cfi_def_cfa_offset 16
 196 0004 0080     		se_mflr %r0
 197 0006 1BC10908 		e_stmw %r30,8(%r1)
 198 000a D501     		se_stw %r0,20(%r1)
 199              		.cfi_offset 65, 4
 200              		.cfi_offset 30, -8
 201              		.cfi_offset 31, -4
 202              		.loc 1 319 0
 203 000c 013E     		se_mr %r30,%r3
 204              		.loc 1 323 0
 205 000e 0134     		se_mr %r4,%r3
 206 0010 4835     		se_li %r5,3
 207 0012 73E0E000 		e_lis %r31,AEK_POW_BMS63EN_Drv@ha
 208 0016 1FFF0000 		e_la %r31,AEK_POW_BMS63EN_Drv@l(%r31)
 209 001a 01F3     		se_mr %r3,%r31
 210              	.LVL24:
 211 001c 78000001 		e_bl AEK_POW_BMS63EN_SPIReadRegister
 212              	.LVL25:
 213              		.loc 1 324 0
 214 0020 01E4     		se_mr %r4,%r30
 215 0022 01F3     		se_mr %r3,%r31
 216 0024 4835     		se_li %r5,3
 217 0026 78000001 		e_bl AEK_POW_BMS63EN_SPIReadRegister
 218              	.LVL26:
 219              		.loc 1 330 0
 220 002a C501     		se_lwz %r0,20(%r1)
 221              		.loc 1 328 0
 222 002c 01E4     		se_mr %r4,%r30
 223              		.loc 1 326 0
 224 002e 1866C6FD 		e_andi %r6,%r3,-131073
 225              	.LVL27:
 226              		.loc 1 328 0
 227 0032 4835     		se_li %r5,3
 228 0034 01F3     		se_mr %r3,%r31
GAS LISTING C:\Users\Vipuls\AppData\Local\Temp\ccRPm3ys.s 			page 5


 229              		.loc 1 330 0
 230 0036 0090     		se_mtlr %r0
 231              		.cfi_restore 65
 232 0038 1BC10808 		e_lmw %r30,8(%r1)
 233              	.LVL28:
 234 003c 20F1     		se_addi %r1,16
 235              	.LCFI9:
 236              		.cfi_restore 31
 237              		.cfi_restore 30
 238              		.cfi_def_cfa_offset 0
 239              		.loc 1 328 0
 240 003e 78000000 		e_b AEK_POW_BMS63EN_SPIWriteRegister
 241              	.LVL29:
 242              		.cfi_endproc
 243              	.LFE7:
 244              		.size	AEK_POW_BMS63EN_EnableCommTimeout, .-AEK_POW_BMS63EN_EnableCommTimeout
 245              		.section	.text.AEK_POW_BMS63EN_EnterSleepMode,"axv",@progbits
 246              		.align 1
 247              		.p2align 4,,15
 248              		.globl AEK_POW_BMS63EN_EnterSleepMode
 249              		.type	AEK_POW_BMS63EN_EnterSleepMode, @function
 250              	AEK_POW_BMS63EN_EnterSleepMode:
 251              	.LFB8:
 252              		.loc 1 336 0
 253              		.cfi_startproc
 254              	.LVL30:
 255 0000 182106E8 		e_stwu %r1,-24(%r1)
 256              	.LCFI10:
 257              		.cfi_def_cfa_offset 24
 258 0004 0080     		se_mflr %r0
 259 0006 1B810908 		e_stmw %r28,8(%r1)
 260 000a D701     		se_stw %r0,28(%r1)
 261              		.cfi_offset 65, 4
 262              		.cfi_offset 28, -16
 263              		.cfi_offset 29, -12
 264              		.cfi_offset 30, -8
 265              		.cfi_offset 31, -4
 266              		.loc 1 336 0
 267 000c 013F     		se_mr %r31,%r3
 268              		.loc 1 340 0
 269 000e 0134     		se_mr %r4,%r3
 270 0010 4835     		se_li %r5,3
 271 0012 7380E000 		e_lis %r28,AEK_POW_BMS63EN_Drv@ha
 272 0016 1FDC0000 		e_la %r30,AEK_POW_BMS63EN_Drv@l(%r28)
 273 001a 01E3     		se_mr %r3,%r30
 274              	.LVL31:
 275 001c 78000001 		e_bl AEK_POW_BMS63EN_SPIReadRegister
 276              	.LVL32:
 277              		.loc 1 341 0
 278 0020 01F4     		se_mr %r4,%r31
 279 0022 4835     		se_li %r5,3
 280 0024 01E3     		se_mr %r3,%r30
 281 0026 78000001 		e_bl AEK_POW_BMS63EN_SPIReadRegister
 282              	.LVL33:
 283              		.loc 1 343 0
 284 002a 01F4     		se_mr %r4,%r31
 285              		.loc 1 341 0
GAS LISTING C:\Users\Vipuls\AppData\Local\Temp\ccRPm3ys.s 			page 6


 286 002c 013D     		se_mr %r29,%r3
 287              	.LVL34:
 288              		.loc 1 343 0
 289 002e 4925     		se_li %r5,18
 290 0030 01E3     		se_mr %r3,%r30
 291              	.LVL35:
 292 0032 78000001 		e_bl AEK_POW_BMS63EN_SPIReadRegister
 293              	.LVL36:
 294              		.loc 1 344 0
 295 0036 01F4     		se_mr %r4,%r31
 296 0038 4925     		se_li %r5,18
 297 003a 01E3     		se_mr %r3,%r30
 298 003c 78000001 		e_bl AEK_POW_BMS63EN_SPIReadRegister
 299              	.LVL37:
 300              		.loc 1 348 0
 301 0040 50BC0000 		e_lwz %r5,AEK_POW_BMS63EN_Drv@l(%r28)
 302 0044 7FE71070 		e_slwi %r7,%r31,2
 303 0048 C155     		se_lwz %r5,4(%r5)
 304 004a 7FE42070 		e_slwi %r4,%r31,4
 305              		.loc 1 347 0
 306 004e 66FD     		se_btsti %r29,15
 307              		.loc 1 348 0
 308 0050 0747     		se_subf %r7, %r4
 309              		.loc 1 345 0
 310 0052 1866D120 		e_ori %r6,%r3,8192
 311              	.LVL38:
 312              		.loc 1 348 0
 313 0056 7CE53A14 		add %r7,%r5,%r7
 314              		.loc 1 347 0
 315 005a 7A120024 		e_beq %cr0,.L15
 316              		.loc 1 355 0
 317 005e C701     		se_lwz %r0,28(%r1)
 318              		.loc 1 350 0
 319 0060 4835     		se_li %r5,3
 320              		.loc 1 353 0
 321 0062 01F4     		se_mr %r4,%r31
 322              		.loc 1 350 0
 323 0064 54A7FFF8 		e_stw %r5,-8(%r7)
 324              		.loc 1 355 0
 325 0068 1B810808 		e_lmw %r28,8(%r1)
 326              	.LVL39:
 327              		.loc 1 353 0
 328 006c 7060E000 		e_lis %r3,AEK_POW_BMS63EN_Drv@ha
 329              		.loc 1 355 0
 330              		.loc 1 353 0
 331 0070 1C630000 		e_la %r3,AEK_POW_BMS63EN_Drv@l(%r3)
 332 0074 4925     		se_li %r5,18
 333              		.loc 1 355 0
 334 0076 0090     		se_mtlr %r0
 335              		.cfi_remember_state
 336              		.cfi_restore 65
 337 0078 2171     		se_addi %r1,24
 338              	.LCFI11:
 339              		.cfi_restore 31
 340              		.cfi_restore 30
 341              		.cfi_restore 29
 342              		.cfi_restore 28
GAS LISTING C:\Users\Vipuls\AppData\Local\Temp\ccRPm3ys.s 			page 7


 343              		.cfi_def_cfa_offset 0
 344              		.loc 1 353 0
 345 007a 78000000 		e_b AEK_POW_BMS63EN_SPIWriteRegister
 346              	.LVL40:
 347              	.L15:
 348              	.LCFI12:
 349              		.cfi_restore_state
 350              		.loc 1 355 0
 351 007e C701     		se_lwz %r0,28(%r1)
 352              		.loc 1 348 0
 353 0080 4825     		se_li %r5,2
 354              		.loc 1 353 0
 355 0082 01F4     		se_mr %r4,%r31
 356              		.loc 1 348 0
 357 0084 54A7FFF8 		e_stw %r5,-8(%r7)
 358              		.loc 1 355 0
 359 0088 1B810808 		e_lmw %r28,8(%r1)
 360              	.LVL41:
 361              		.loc 1 353 0
 362 008c 7060E000 		e_lis %r3,AEK_POW_BMS63EN_Drv@ha
 363              		.loc 1 355 0
 364              		.loc 1 353 0
 365 0090 1C630000 		e_la %r3,AEK_POW_BMS63EN_Drv@l(%r3)
 366 0094 4925     		se_li %r5,18
 367              		.loc 1 355 0
 368 0096 0090     		se_mtlr %r0
 369              		.cfi_restore 65
 370 0098 2171     		se_addi %r1,24
 371              	.LCFI13:
 372              		.cfi_restore 28
 373              		.cfi_restore 29
 374              		.cfi_restore 30
 375              		.cfi_restore 31
 376              		.cfi_def_cfa_offset 0
 377              		.loc 1 353 0
 378 009a 78000000 		e_b AEK_POW_BMS63EN_SPIWriteRegister
 379              	.LVL42:
 380              		.cfi_endproc
 381              	.LFE8:
 382              		.size	AEK_POW_BMS63EN_EnterSleepMode, .-AEK_POW_BMS63EN_EnterSleepMode
 383              		.section	.text.AEK_POW_BMS63EN_SWReset,"axv",@progbits
 384              		.align 1
 385              		.p2align 4,,15
 386              		.globl AEK_POW_BMS63EN_SWReset
 387              		.type	AEK_POW_BMS63EN_SWReset, @function
 388              	AEK_POW_BMS63EN_SWReset:
 389              	.LFB9:
 390              		.loc 1 361 0
 391              		.cfi_startproc
 392              	.LVL43:
 393              		.loc 1 368 0
 394 0000 0134     		se_mr %r4,%r3
 395              		.loc 1 369 0
 396 0002 7060E000 		e_lis %r3,AEK_POW_BMS63EN_Drv@ha
 397              	.LVL44:
 398              		.loc 1 368 0
 399 0006 2A04     		se_cmpi %r4,0
GAS LISTING C:\Users\Vipuls\AppData\Local\Temp\ccRPm3ys.s 			page 8


 400 0008 7A02001E 		e_bne %cr0,.L17
 401              	.LVL45:
 402              		.loc 1 373 0 discriminator 1
 403 000c 50E30000 		e_lwz %r7,AEK_POW_BMS63EN_Drv@l(%r3)
 404 0010 4826     		se_li %r6,2
 405 0012 C177     		se_lwz %r7,4(%r7)
 406              		.loc 1 375 0 discriminator 1
 407 0014 1C630000 		e_la %r3,AEK_POW_BMS63EN_Drv@l(%r3)
 408              		.loc 1 373 0 discriminator 1
 409 0018 54C7FFF8 		e_stw %r6,-8(%r7)
 410              	.LVL46:
 411              		.loc 1 375 0 discriminator 1
 412 001c 4924     		se_li %r4,18
 413              	.LVL47:
 414 001e 70B40000 		e_li %r5,40960
 415              		.loc 1 378 0 discriminator 1
 416              		.loc 1 375 0 discriminator 1
 417 0022 78000000 		e_b AEK_POW_BMS63EN_SPIBroadcastAccess
 418              	.LVL48:
 419              	.L17:
 420              		.loc 1 369 0
 421 0026 7C851070 		e_slwi %r5,%r4,2
 422 002a 50C30000 		e_lwz %r6,AEK_POW_BMS63EN_Drv@l(%r3)
 423 002e 7C872070 		e_slwi %r7,%r4,4
 424 0032 C166     		se_lwz %r6,4(%r6)
 425 0034 0657     		se_sub %r7, %r5
 426              		.loc 1 370 0
 427 0036 1C630000 		e_la %r3,AEK_POW_BMS63EN_Drv@l(%r3)
 428              		.loc 1 369 0
 429 003a 7CE63A14 		add %r7,%r6,%r7
 430              		.loc 1 370 0
 431 003e 4925     		se_li %r5,18
 432              		.loc 1 369 0
 433 0040 4826     		se_li %r6,2
 434 0042 54C7FFF8 		e_stw %r6,-8(%r7)
 435              		.loc 1 370 0
 436 0046 70D40000 		e_li %r6,40960
 437              		.loc 1 378 0
 438              		.loc 1 370 0
 439 004a 78000000 		e_b AEK_POW_BMS63EN_SPIWriteRegister
 440              	.LVL49:
 441              		.cfi_endproc
 442              	.LFE9:
 443              		.size	AEK_POW_BMS63EN_SWReset, .-AEK_POW_BMS63EN_SWReset
 444              		.section	.text.AEK_POW_BMS63EN_GetState,"axv",@progbits
 445              		.align 1
 446              		.p2align 4,,15
 447              		.globl AEK_POW_BMS63EN_GetState
 448              		.type	AEK_POW_BMS63EN_GetState, @function
 449              	AEK_POW_BMS63EN_GetState:
 450              	.LFB11:
 451              		.loc 1 485 0
 452              		.cfi_startproc
 453              	.LVL50:
 454 0000 182106F0 		e_stwu %r1,-16(%r1)
 455              	.LCFI14:
 456              		.cfi_def_cfa_offset 16
GAS LISTING C:\Users\Vipuls\AppData\Local\Temp\ccRPm3ys.s 			page 9


 457 0004 0080     		se_mflr %r0
 458 0006 1BC10908 		e_stmw %r30,8(%r1)
 459              		.loc 1 490 0
 460 000a 0134     		se_mr %r4,%r3
 461              		.loc 1 485 0
 462 000c D501     		se_stw %r0,20(%r1)
 463              		.cfi_offset 65, 4
 464              		.cfi_offset 30, -8
 465              		.cfi_offset 31, -4
 466              		.loc 1 485 0
 467 000e 013F     		se_mr %r31,%r3
 468              		.loc 1 490 0
 469 0010 4925     		se_li %r5,18
 470 0012 73C0E000 		e_lis %r30,AEK_POW_BMS63EN_Drv@ha
 471 0016 1FDE0000 		e_la %r30,AEK_POW_BMS63EN_Drv@l(%r30)
 472 001a 01E3     		se_mr %r3,%r30
 473              	.LVL51:
 474 001c 78000001 		e_bl AEK_POW_BMS63EN_SPIReadRegister
 475              	.LVL52:
 476              		.loc 1 491 0
 477 0020 01E3     		se_mr %r3,%r30
 478 0022 01F4     		se_mr %r4,%r31
 479 0024 4925     		se_li %r5,18
 480 0026 78000001 		e_bl AEK_POW_BMS63EN_SPIReadRegister
 481              	.LVL53:
 482              		.loc 1 493 0
 483 002a 1863C10F 		e_andi %r3,%r3,3840
 484              	.LVL54:
 485              		.loc 1 495 0
 486 002e 7003AA00 		e_cmpl16i %r3,512
 487 0032 7A120078 		e_beq %cr0,.L20
 488 0036 7A010040 		e_ble %cr0,.L26
 489              		.loc 1 505 0
 490 003a 4876     		se_li %r6,7
 491              		.loc 1 495 0
 492 003c 7003AC00 		e_cmpl16i %r3,1024
 493 0040 7A12000E 		e_beq %cr0,.L19
 494              		.loc 1 509 0
 495 0044 4846     		se_li %r6,4
 496              		.loc 1 495 0
 497 0046 7023A800 		e_cmpl16i %r3,2048
 498 004a 7A020036 		e_bne %cr0,.L25
 499              	.L19:
 500              	.LVL55:
 501              		.loc 1 521 0
 502 004e C501     		se_lwz %r0,20(%r1)
 503 0050 0090     		se_mtlr %r0
 504              		.cfi_remember_state
 505              		.cfi_restore 65
 506              		.loc 1 517 0
 507 0052 7FE51070 		e_slwi %r5,%r31,2
 508 0056 70E0E000 		e_lis %r7,AEK_POW_BMS63EN_Drv@ha
 509 005a 6C4F     		se_slwi %r31, 4
 510              	.LVL56:
 511 005c 50E70000 		e_lwz %r7,AEK_POW_BMS63EN_Drv@l(%r7)
 512 0060 065F     		se_sub %r31, %r5
 513 0062 C177     		se_lwz %r7,4(%r7)
GAS LISTING C:\Users\Vipuls\AppData\Local\Temp\ccRPm3ys.s 			page 10


 514              		.loc 1 521 0
 515 0064 0163     		se_mr %r3,%r6
 516              	.LVL57:
 517              		.loc 1 517 0
 518 0066 7FE7FA14 		add %r31,%r7,%r31
 519 006a 54DFFFF8 		e_stw %r6,-8(%r31)
 520              		.loc 1 521 0
 521 006e 1BC10808 		e_lmw %r30,8(%r1)
 522 0072 20F1     		se_addi %r1,16
 523              	.LCFI15:
 524              		.cfi_restore 31
 525              		.cfi_restore 30
 526              		.cfi_def_cfa_offset 0
 527 0074 0004     		se_blr
 528              	.LVL58:
 529              	.L26:
 530              	.LCFI16:
 531              		.cfi_restore_state
 532              		.loc 1 497 0
 533 0076 4826     		se_li %r6,2
 534              		.loc 1 495 0
 535 0078 7003A900 		e_cmpl16i %r3,256
 536 007c 7A12FFD2 		e_beq %cr0,.L19
 537              	.L25:
 538              		.loc 1 521 0
 539 0080 C501     		se_lwz %r0,20(%r1)
 540 0082 0090     		se_mtlr %r0
 541              		.cfi_remember_state
 542              		.cfi_restore 65
 543              		.loc 1 488 0
 544 0084 4806     		se_li %r6,0
 545              	.LVL59:
 546              		.loc 1 517 0
 547 0086 7FE51070 		e_slwi %r5,%r31,2
 548 008a 70E0E000 		e_lis %r7,AEK_POW_BMS63EN_Drv@ha
 549 008e 6C4F     		se_slwi %r31, 4
 550              	.LVL60:
 551 0090 50E70000 		e_lwz %r7,AEK_POW_BMS63EN_Drv@l(%r7)
 552 0094 065F     		se_sub %r31, %r5
 553 0096 C177     		se_lwz %r7,4(%r7)
 554              		.loc 1 521 0
 555 0098 0163     		se_mr %r3,%r6
 556              	.LVL61:
 557              		.loc 1 517 0
 558 009a 7FE7FA14 		add %r31,%r7,%r31
 559 009e 54DFFFF8 		e_stw %r6,-8(%r31)
 560              		.loc 1 521 0
 561 00a2 1BC10808 		e_lmw %r30,8(%r1)
 562 00a6 20F1     		se_addi %r1,16
 563              	.LCFI17:
 564              		.cfi_restore 30
 565              		.cfi_restore 31
 566              		.cfi_def_cfa_offset 0
 567 00a8 0004     		se_blr
 568              	.LVL62:
 569              	.L20:
 570              	.LCFI18:
GAS LISTING C:\Users\Vipuls\AppData\Local\Temp\ccRPm3ys.s 			page 11


 571              		.cfi_restore_state
 572 00aa C501     		se_lwz %r0,20(%r1)
 573 00ac 0090     		se_mtlr %r0
 574              		.cfi_restore 65
 575              		.loc 1 501 0
 576 00ae 4866     		se_li %r6,6
 577              	.LVL63:
 578              		.loc 1 517 0
 579 00b0 7FE51070 		e_slwi %r5,%r31,2
 580 00b4 70E0E000 		e_lis %r7,AEK_POW_BMS63EN_Drv@ha
 581 00b8 6C4F     		se_slwi %r31, 4
 582              	.LVL64:
 583 00ba 50E70000 		e_lwz %r7,AEK_POW_BMS63EN_Drv@l(%r7)
 584 00be 065F     		se_sub %r31, %r5
 585 00c0 C177     		se_lwz %r7,4(%r7)
 586              		.loc 1 521 0
 587 00c2 0163     		se_mr %r3,%r6
 588              	.LVL65:
 589              		.loc 1 517 0
 590 00c4 7FE7FA14 		add %r31,%r7,%r31
 591 00c8 54DFFFF8 		e_stw %r6,-8(%r31)
 592              		.loc 1 521 0
 593 00cc 1BC10808 		e_lmw %r30,8(%r1)
 594 00d0 20F1     		se_addi %r1,16
 595              	.LCFI19:
 596              		.cfi_restore 30
 597              		.cfi_restore 31
 598              		.cfi_def_cfa_offset 0
 599 00d2 0004     		se_blr
 600              		.cfi_endproc
 601              	.LFE11:
 602              		.size	AEK_POW_BMS63EN_GetState, .-AEK_POW_BMS63EN_GetState
 603              		.section	.text.AEK_POW_BMS63EN_CoulombCounterReset,"axv",@progbits
 604              		.align 1
 605              		.p2align 4,,15
 606              		.globl AEK_POW_BMS63EN_CoulombCounterReset
 607              		.type	AEK_POW_BMS63EN_CoulombCounterReset, @function
 608              	AEK_POW_BMS63EN_CoulombCounterReset:
 609              	.LFB12:
 610              		.loc 1 532 0
 611              		.cfi_startproc
 612              	.LVL66:
 613 0000 182106A8 		e_stwu %r1,-88(%r1)
 614              	.LCFI20:
 615              		.cfi_def_cfa_offset 88
 616 0004 0080     		se_mflr %r0
 617 0006 0134     		se_mr %r4,%r3
 618 0008 5401005C 		e_stw %r0,92(%r1)
 619              		.cfi_offset 65, 4
 620              		.loc 1 535 0
 621 000c 18C18008 		e_addi %r6,%r1,8
 622 0010 7060E000 		e_lis %r3,AEK_POW_BMS63EN_Drv@ha
 623              	.LVL67:
 624 0014 4FB5     		se_li %r5,123
 625 0016 1C630000 		e_la %r3,AEK_POW_BMS63EN_Drv@l(%r3)
 626 001a 78000001 		e_bl AEK_POW_BMS63EN_SPIBurstAccess
 627              	.LVL68:
GAS LISTING C:\Users\Vipuls\AppData\Local\Temp\ccRPm3ys.s 			page 12


 628              		.loc 1 536 0
 629 001e 5001005C 		e_lwz %r0,92(%r1)
 630 0022 0090     		se_mtlr %r0
 631              		.cfi_restore 65
 632 0024 18218058 		e_addi %r1,%r1,88
 633              	.LCFI21:
 634              		.cfi_def_cfa_offset 0
 635 0028 0004     		se_blr
 636              		.cfi_endproc
 637              	.LFE12:
 638              		.size	AEK_POW_BMS63EN_CoulombCounterReset, .-AEK_POW_BMS63EN_CoulombCounterReset
 639              		.globl __floatunsisf
 640              		.globl __mulsf3
 641              		.globl __divsf3
 642              		.globl __addsf3
 643              		.globl __gtsf2
 644              		.section	.text.AEK_POW_BMS63EN_CoulombCounting,"axv",@progbits
 645              		.align 1
 646              		.p2align 4,,15
 647              		.globl AEK_POW_BMS63EN_CoulombCounting
 648              		.type	AEK_POW_BMS63EN_CoulombCounting, @function
 649              	AEK_POW_BMS63EN_CoulombCounting:
 650              	.LFB13:
 651              		.loc 1 540 0
 652              		.cfi_startproc
 653              	.LVL69:
 654 0000 182106A0 		e_stwu %r1,-96(%r1)
 655              	.LCFI22:
 656              		.cfi_def_cfa_offset 96
 657 0004 0080     		se_mflr %r0
 658 0006 1BC10958 		e_stmw %r30,88(%r1)
 659 000a 54010064 		e_stw %r0,100(%r1)
 660              		.cfi_offset 65, 4
 661              		.cfi_offset 30, -8
 662              		.cfi_offset 31, -4
 663              		.loc 1 540 0
 664 000e 014E     		se_mr %r30,%r4
 665 0010 015F     		se_mr %r31,%r5
 666              		.loc 1 548 0
 667 0012 0134     		se_mr %r4,%r3
 668              	.LVL70:
 669 0014 4FB5     		se_li %r5,123
 670              	.LVL71:
 671 0016 7060E000 		e_lis %r3,AEK_POW_BMS63EN_Drv@ha
 672              	.LVL72:
 673 001a 18C18008 		e_addi %r6,%r1,8
 674 001e 1C630000 		e_la %r3,AEK_POW_BMS63EN_Drv@l(%r3)
 675 0022 78000001 		e_bl AEK_POW_BMS63EN_SPIBurstAccess
 676              	.LVL73:
 677              		.loc 1 550 0
 678 0026 A971     		se_lhz %r7,18(%r1)
 679 0028 C331     		se_lwz %r3,12(%r1)
 680 002a 6D03     		se_slwi %r3, 16
 681              	.LVL74:
 682              		.loc 1 552 0
 683 002c 7CE71B79 		or. %r7,%r7,%r3
 684              	.LVL75:
GAS LISTING C:\Users\Vipuls\AppData\Local\Temp\ccRPm3ys.s 			page 13


 685 0030 7A10005E 		e_blt %cr0,.L35
 686              		.loc 1 556 0
 687 0034 70C00532 		e_li %r6,1330
 688 0038 7C6731D6 		mullw %r3,%r7,%r6
 689 003c 78000001 		e_bl __floatunsisf
 690              	.LVL76:
 691 0040 7088E47A 		e_lis %r4,0x447a
 692 0044 78000001 		e_bl __divsf3
 693              	.LVL77:
 694              		.loc 1 562 0
 695 0048 7088E3A4 		e_lis %r4,0x43a4
 696 004c 6524     		se_bseti %r4,18
 697 004e 78000001 		e_bl __mulsf3
 698              	.LVL78:
 699 0052 01E4     		se_mr %r4,%r30
 700              		.loc 1 566 0
 701 0054 480E     		se_li %r30,0
 702              	.LVL79:
 703              		.loc 1 562 0
 704 0056 78000001 		e_bl __divsf3
 705              	.LVL80:
 706              		.loc 1 564 0
 707 005a 7089E756 		e_lis %r4,0x4f56
 708 005e 7092C3A4 		e_or2i %r4,37796
 709 0062 78000001 		e_bl __divsf3
 710              	.LVL81:
 711 0066 01F4     		se_mr %r4,%r31
 712 0068 78000001 		e_bl __addsf3
 713              	.LVL82:
 714              		.loc 1 566 0
 715 006c 01E4     		se_mr %r4,%r30
 716              		.loc 1 564 0
 717 006e 013F     		se_mr %r31,%r3
 718              	.LVL83:
 719              		.loc 1 566 0
 720 0070 78000001 		e_bl __gtsf2
 721              	.LVL84:
 722              		.loc 1 567 0
 723 0074 01F7     		se_mr %r7,%r31
 724              		.loc 1 566 0
 725 0076 2A03     		se_cmpi %r3,0
 726 0078 7A010068 		e_ble %cr0,.L36
 727              	.LVL85:
 728              	.L31:
 729              		.loc 1 572 0
 730 007c 50010064 		e_lwz %r0,100(%r1)
 731 0080 0090     		se_mtlr %r0
 732              		.cfi_remember_state
 733              		.cfi_restore 65
 734 0082 1BC10858 		e_lmw %r30,88(%r1)
 735 0086 0173     		se_mr %r3,%r7
 736 0088 18218060 		e_addi %r1,%r1,96
 737              	.LCFI23:
 738              		.cfi_restore 31
 739              		.cfi_restore 30
 740              		.cfi_def_cfa_offset 0
 741 008c 0004     		se_blr
GAS LISTING C:\Users\Vipuls\AppData\Local\Temp\ccRPm3ys.s 			page 14


 742              	.LVL86:
 743              	.L35:
 744              	.LCFI24:
 745              		.cfi_restore_state
 746              		.loc 1 554 0
 747 008e 1867B4FE 		e_subfic %r3, %r7, -2
 748 0092 78000001 		e_bl __floatunsisf
 749              	.LVL87:
 750 0096 7088E4A6 		e_lis %r4,0x44a6
 751 009a 6514     		se_bseti %r4,17
 752 009c 78000001 		e_bl __mulsf3
 753              	.LVL88:
 754 00a0 7088E47A 		e_lis %r4,0x447a
 755 00a4 78000001 		e_bl __divsf3
 756              	.LVL89:
 757              		.loc 1 562 0
 758 00a8 7088E3A4 		e_lis %r4,0x43a4
 759              		.loc 1 554 0
 760 00ac 18638380 		e_addi %r3,%r3,-2147483648
 761              	.LVL90:
 762              		.loc 1 562 0
 763 00b0 6524     		se_bseti %r4,18
 764 00b2 78000001 		e_bl __mulsf3
 765              	.LVL91:
 766 00b6 01E4     		se_mr %r4,%r30
 767              		.loc 1 566 0
 768 00b8 480E     		se_li %r30,0
 769              	.LVL92:
 770              		.loc 1 562 0
 771 00ba 78000001 		e_bl __divsf3
 772              	.LVL93:
 773              		.loc 1 564 0
 774 00be 7089E756 		e_lis %r4,0x4f56
 775 00c2 7092C3A4 		e_or2i %r4,37796
 776 00c6 78000001 		e_bl __divsf3
 777              	.LVL94:
 778 00ca 01F4     		se_mr %r4,%r31
 779 00cc 78000001 		e_bl __addsf3
 780              	.LVL95:
 781              		.loc 1 566 0
 782 00d0 01E4     		se_mr %r4,%r30
 783              		.loc 1 564 0
 784 00d2 013F     		se_mr %r31,%r3
 785              	.LVL96:
 786              		.loc 1 566 0
 787 00d4 78000001 		e_bl __gtsf2
 788              	.LVL97:
 789              		.loc 1 567 0
 790 00d8 01F7     		se_mr %r7,%r31
 791              		.loc 1 566 0
 792 00da 2A03     		se_cmpi %r3,0
 793 00dc 7A11FFA0 		e_bgt %cr0,.L31
 794              	.LVL98:
 795              	.L36:
 796              		.loc 1 572 0
 797 00e0 50010064 		e_lwz %r0,100(%r1)
 798 00e4 0090     		se_mtlr %r0
GAS LISTING C:\Users\Vipuls\AppData\Local\Temp\ccRPm3ys.s 			page 15


 799              		.cfi_restore 65
 800              		.loc 1 569 0
 801 00e6 01E7     		se_mr %r7,%r30
 802              	.LVL99:
 803              		.loc 1 572 0
 804 00e8 1BC10858 		e_lmw %r30,88(%r1)
 805              	.LVL100:
 806 00ec 0173     		se_mr %r3,%r7
 807 00ee 18218060 		e_addi %r1,%r1,96
 808              	.LCFI25:
 809              		.cfi_restore 30
 810              		.cfi_restore 31
 811              		.cfi_def_cfa_offset 0
 812 00f2 0004     		se_blr
 813              		.cfi_endproc
 814              	.LFE13:
 815              		.size	AEK_POW_BMS63EN_CoulombCounting, .-AEK_POW_BMS63EN_CoulombCounting
 816              		.section	.text.AEK_POW_BMS63EN_Get_Conf_OVL,"axv",@progbits
 817              		.align 1
 818              		.p2align 4,,15
 819              		.globl AEK_POW_BMS63EN_Get_Conf_OVL
 820              		.type	AEK_POW_BMS63EN_Get_Conf_OVL, @function
 821              	AEK_POW_BMS63EN_Get_Conf_OVL:
 822              	.LFB14:
 823              		.loc 1 577 0
 824              		.cfi_startproc
 825              	.LVL101:
 826 0000 182106F0 		e_stwu %r1,-16(%r1)
 827              	.LCFI26:
 828              		.cfi_def_cfa_offset 16
 829 0004 0080     		se_mflr %r0
 830 0006 1BC10908 		e_stmw %r30,8(%r1)
 831 000a D501     		se_stw %r0,20(%r1)
 832              		.cfi_offset 65, 4
 833              		.cfi_offset 30, -8
 834              		.cfi_offset 31, -4
 835              		.loc 1 577 0
 836 000c 013E     		se_mr %r30,%r3
 837              		.loc 1 580 0
 838 000e 0134     		se_mr %r4,%r3
 839 0010 48D5     		se_li %r5,13
 840 0012 73E0E000 		e_lis %r31,AEK_POW_BMS63EN_Drv@ha
 841 0016 1FFF0000 		e_la %r31,AEK_POW_BMS63EN_Drv@l(%r31)
 842 001a 01F3     		se_mr %r3,%r31
 843              	.LVL102:
 844 001c 78000001 		e_bl AEK_POW_BMS63EN_SPIReadRegister
 845              	.LVL103:
 846              		.loc 1 581 0
 847 0020 01F3     		se_mr %r3,%r31
 848 0022 01E4     		se_mr %r4,%r30
 849 0024 48D5     		se_li %r5,13
 850 0026 78000001 		e_bl AEK_POW_BMS63EN_SPIReadRegister
 851              	.LVL104:
 852              		.loc 1 584 0
 853 002a C501     		se_lwz %r0,20(%r1)
 854 002c 0090     		se_mtlr %r0
 855              		.cfi_restore 65
GAS LISTING C:\Users\Vipuls\AppData\Local\Temp\ccRPm3ys.s 			page 16


 856 002e 1BC10808 		e_lmw %r30,8(%r1)
 857              	.LVL105:
 858 0032 746397FF 		e_rlwinm %r3,%r3,18,31,31
 859              	.LVL106:
 860 0036 20F1     		se_addi %r1,16
 861              	.LCFI27:
 862              		.cfi_restore 31
 863              		.cfi_restore 30
 864              		.cfi_def_cfa_offset 0
 865 0038 0004     		se_blr
 866              		.cfi_endproc
 867              	.LFE14:
 868              		.size	AEK_POW_BMS63EN_Get_Conf_OVL, .-AEK_POW_BMS63EN_Get_Conf_OVL
 869              		.section	.text.AEK_POW_BMS63EN_DisableCoulombCounting,"axv",@progbits
 870              		.align 1
 871              		.p2align 4,,15
 872              		.globl AEK_POW_BMS63EN_DisableCoulombCounting
 873              		.type	AEK_POW_BMS63EN_DisableCoulombCounting, @function
 874              	AEK_POW_BMS63EN_DisableCoulombCounting:
 875              	.LFB15:
 876              		.loc 1 589 0
 877              		.cfi_startproc
 878              	.LVL107:
 879 0000 182106F0 		e_stwu %r1,-16(%r1)
 880              	.LCFI28:
 881              		.cfi_def_cfa_offset 16
 882 0004 0080     		se_mflr %r0
 883 0006 1BC10908 		e_stmw %r30,8(%r1)
 884 000a D501     		se_stw %r0,20(%r1)
 885              		.cfi_offset 65, 4
 886              		.cfi_offset 30, -8
 887              		.cfi_offset 31, -4
 888              		.loc 1 589 0
 889 000c 013E     		se_mr %r30,%r3
 890              		.loc 1 593 0
 891 000e 0134     		se_mr %r4,%r3
 892 0010 4A05     		se_li %r5,32
 893 0012 73E0E000 		e_lis %r31,AEK_POW_BMS63EN_Drv@ha
 894 0016 1FFF0000 		e_la %r31,AEK_POW_BMS63EN_Drv@l(%r31)
 895 001a 01F3     		se_mr %r3,%r31
 896              	.LVL108:
 897 001c 78000001 		e_bl AEK_POW_BMS63EN_SPIReadRegister
 898              	.LVL109:
 899              		.loc 1 594 0
 900 0020 01E4     		se_mr %r4,%r30
 901 0022 01F3     		se_mr %r3,%r31
 902 0024 4A05     		se_li %r5,32
 903 0026 78000001 		e_bl AEK_POW_BMS63EN_SPIReadRegister
 904              	.LVL110:
 905              		.loc 1 600 0
 906 002a C501     		se_lwz %r0,20(%r1)
 907              		.loc 1 598 0
 908 002c 01E4     		se_mr %r4,%r30
 909              		.loc 1 596 0
 910 002e 1866C5EF 		e_andi %r6,%r3,-4097
 911              	.LVL111:
 912              		.loc 1 598 0
GAS LISTING C:\Users\Vipuls\AppData\Local\Temp\ccRPm3ys.s 			page 17


 913 0032 4A05     		se_li %r5,32
 914 0034 01F3     		se_mr %r3,%r31
 915              		.loc 1 600 0
 916 0036 0090     		se_mtlr %r0
 917              		.cfi_restore 65
 918 0038 1BC10808 		e_lmw %r30,8(%r1)
 919              	.LVL112:
 920 003c 20F1     		se_addi %r1,16
 921              	.LCFI29:
 922              		.cfi_restore 31
 923              		.cfi_restore 30
 924              		.cfi_def_cfa_offset 0
 925              		.loc 1 598 0
 926 003e 78000000 		e_b AEK_POW_BMS63EN_SPIWriteRegister
 927              	.LVL113:
 928              		.cfi_endproc
 929              	.LFE15:
 930              		.size	AEK_POW_BMS63EN_DisableCoulombCounting, .-AEK_POW_BMS63EN_DisableCoulombCounting
 931              		.section	.text.AEK_POW_BMS63EN_EnableCoulombCounting,"axv",@progbits
 932              		.align 1
 933              		.p2align 4,,15
 934              		.globl AEK_POW_BMS63EN_EnableCoulombCounting
 935              		.type	AEK_POW_BMS63EN_EnableCoulombCounting, @function
 936              	AEK_POW_BMS63EN_EnableCoulombCounting:
 937              	.LFB16:
 938              		.loc 1 606 0
 939              		.cfi_startproc
 940              	.LVL114:
 941 0000 182106F0 		e_stwu %r1,-16(%r1)
 942              	.LCFI30:
 943              		.cfi_def_cfa_offset 16
 944 0004 0080     		se_mflr %r0
 945 0006 1BC10908 		e_stmw %r30,8(%r1)
 946 000a D501     		se_stw %r0,20(%r1)
 947              		.cfi_offset 65, 4
 948              		.cfi_offset 30, -8
 949              		.cfi_offset 31, -4
 950              		.loc 1 606 0
 951 000c 013E     		se_mr %r30,%r3
 952              		.loc 1 610 0
 953 000e 0134     		se_mr %r4,%r3
 954 0010 4A05     		se_li %r5,32
 955 0012 73E0E000 		e_lis %r31,AEK_POW_BMS63EN_Drv@ha
 956 0016 1FFF0000 		e_la %r31,AEK_POW_BMS63EN_Drv@l(%r31)
 957 001a 01F3     		se_mr %r3,%r31
 958              	.LVL115:
 959 001c 78000001 		e_bl AEK_POW_BMS63EN_SPIReadRegister
 960              	.LVL116:
 961              		.loc 1 611 0
 962 0020 01E4     		se_mr %r4,%r30
 963 0022 01F3     		se_mr %r3,%r31
 964 0024 4A05     		se_li %r5,32
 965 0026 78000001 		e_bl AEK_POW_BMS63EN_SPIReadRegister
 966              	.LVL117:
 967              		.loc 1 617 0
 968 002a C501     		se_lwz %r0,20(%r1)
 969              		.loc 1 615 0
GAS LISTING C:\Users\Vipuls\AppData\Local\Temp\ccRPm3ys.s 			page 18


 970 002c 01E4     		se_mr %r4,%r30
 971              		.loc 1 613 0
 972 002e 1866D110 		e_ori %r6,%r3,4096
 973              	.LVL118:
 974              		.loc 1 615 0
 975 0032 4A05     		se_li %r5,32
 976 0034 01F3     		se_mr %r3,%r31
 977              		.loc 1 617 0
 978 0036 0090     		se_mtlr %r0
 979              		.cfi_restore 65
 980 0038 1BC10808 		e_lmw %r30,8(%r1)
 981              	.LVL119:
 982 003c 20F1     		se_addi %r1,16
 983              	.LCFI31:
 984              		.cfi_restore 31
 985              		.cfi_restore 30
 986              		.cfi_def_cfa_offset 0
 987              		.loc 1 615 0
 988 003e 78000000 		e_b AEK_POW_BMS63EN_SPIWriteRegister
 989              	.LVL120:
 990              		.cfi_endproc
 991              	.LFE16:
 992              		.size	AEK_POW_BMS63EN_EnableCoulombCounting, .-AEK_POW_BMS63EN_EnableCoulombCounting
 993              		.section	.text.AEK_POW_BMS63EN_GPIO7_OT_UT_Mask,"axv",@progbits
 994              		.align 1
 995              		.p2align 4,,15
 996              		.globl AEK_POW_BMS63EN_GPIO7_OT_UT_Mask
 997              		.type	AEK_POW_BMS63EN_GPIO7_OT_UT_Mask, @function
 998              	AEK_POW_BMS63EN_GPIO7_OT_UT_Mask:
 999              	.LFB17:
 1000              		.loc 1 624 0
 1001              		.cfi_startproc
 1002              	.LVL121:
 1003 0000 182106F0 		e_stwu %r1,-16(%r1)
 1004              	.LCFI32:
 1005              		.cfi_def_cfa_offset 16
 1006 0004 0080     		se_mflr %r0
 1007 0006 1BC10908 		e_stmw %r30,8(%r1)
 1008 000a D501     		se_stw %r0,20(%r1)
 1009              		.cfi_offset 65, 4
 1010              		.cfi_offset 30, -8
 1011              		.cfi_offset 31, -4
 1012              		.loc 1 624 0
 1013 000c 013E     		se_mr %r30,%r3
 1014              		.loc 1 628 0
 1015 000e 0134     		se_mr %r4,%r3
 1016 0010 4A05     		se_li %r5,32
 1017 0012 73E0E000 		e_lis %r31,AEK_POW_BMS63EN_Drv@ha
 1018 0016 1FFF0000 		e_la %r31,AEK_POW_BMS63EN_Drv@l(%r31)
 1019 001a 01F3     		se_mr %r3,%r31
 1020              	.LVL122:
 1021 001c 78000001 		e_bl AEK_POW_BMS63EN_SPIReadRegister
 1022              	.LVL123:
 1023              		.loc 1 629 0
 1024 0020 01E4     		se_mr %r4,%r30
 1025 0022 01F3     		se_mr %r3,%r31
 1026 0024 4A05     		se_li %r5,32
GAS LISTING C:\Users\Vipuls\AppData\Local\Temp\ccRPm3ys.s 			page 19


 1027 0026 78000001 		e_bl AEK_POW_BMS63EN_SPIReadRegister
 1028              	.LVL124:
 1029              		.loc 1 635 0
 1030 002a C501     		se_lwz %r0,20(%r1)
 1031              		.loc 1 633 0
 1032 002c 01E4     		se_mr %r4,%r30
 1033              		.loc 1 631 0
 1034 002e 1866D010 		e_ori %r6,%r3,16
 1035              	.LVL125:
 1036              		.loc 1 633 0
 1037 0032 4A05     		se_li %r5,32
 1038 0034 01F3     		se_mr %r3,%r31
 1039              		.loc 1 635 0
 1040 0036 0090     		se_mtlr %r0
 1041              		.cfi_restore 65
 1042 0038 1BC10808 		e_lmw %r30,8(%r1)
 1043              	.LVL126:
 1044 003c 20F1     		se_addi %r1,16
 1045              	.LCFI33:
 1046              		.cfi_restore 31
 1047              		.cfi_restore 30
 1048              		.cfi_def_cfa_offset 0
 1049              		.loc 1 633 0
 1050 003e 78000000 		e_b AEK_POW_BMS63EN_SPIWriteRegister
 1051              	.LVL127:
 1052              		.cfi_endproc
 1053              	.LFE17:
 1054              		.size	AEK_POW_BMS63EN_GPIO7_OT_UT_Mask, .-AEK_POW_BMS63EN_GPIO7_OT_UT_Mask
 1055              		.section	.text.AEK_POW_BMS63EN_GPIO_OT_UT_Mask,"axv",@progbits
 1056              		.align 1
 1057              		.p2align 4,,15
 1058              		.globl AEK_POW_BMS63EN_GPIO_OT_UT_Mask
 1059              		.type	AEK_POW_BMS63EN_GPIO_OT_UT_Mask, @function
 1060              	AEK_POW_BMS63EN_GPIO_OT_UT_Mask:
 1061              	.LFB18:
 1062              		.loc 1 640 0
 1063              		.cfi_startproc
 1064              	.LVL128:
 1065 0000 182106F0 		e_stwu %r1,-16(%r1)
 1066              	.LCFI34:
 1067              		.cfi_def_cfa_offset 16
 1068 0004 0080     		se_mflr %r0
 1069 0006 1BC10908 		e_stmw %r30,8(%r1)
 1070 000a D501     		se_stw %r0,20(%r1)
 1071              		.cfi_offset 65, 4
 1072              		.cfi_offset 30, -8
 1073              		.cfi_offset 31, -4
 1074              		.loc 1 640 0
 1075 000c 013E     		se_mr %r30,%r3
 1076              		.loc 1 644 0
 1077 000e 0134     		se_mr %r4,%r3
 1078 0010 4A05     		se_li %r5,32
 1079 0012 73E0E000 		e_lis %r31,AEK_POW_BMS63EN_Drv@ha
 1080 0016 1FFF0000 		e_la %r31,AEK_POW_BMS63EN_Drv@l(%r31)
 1081 001a 01F3     		se_mr %r3,%r31
 1082              	.LVL129:
 1083 001c 78000001 		e_bl AEK_POW_BMS63EN_SPIReadRegister
GAS LISTING C:\Users\Vipuls\AppData\Local\Temp\ccRPm3ys.s 			page 20


 1084              	.LVL130:
 1085              		.loc 1 645 0
 1086 0020 01E4     		se_mr %r4,%r30
 1087 0022 01F3     		se_mr %r3,%r31
 1088 0024 4A05     		se_li %r5,32
 1089 0026 78000001 		e_bl AEK_POW_BMS63EN_SPIReadRegister
 1090              	.LVL131:
 1091              		.loc 1 651 0
 1092 002a C501     		se_lwz %r0,20(%r1)
 1093              		.loc 1 649 0
 1094 002c 01E4     		se_mr %r4,%r30
 1095              		.loc 1 647 0
 1096 002e 1866D07F 		e_ori %r6,%r3,127
 1097              	.LVL132:
 1098              		.loc 1 649 0
 1099 0032 4A05     		se_li %r5,32
 1100 0034 01F3     		se_mr %r3,%r31
 1101              		.loc 1 651 0
 1102 0036 0090     		se_mtlr %r0
 1103              		.cfi_restore 65
 1104 0038 1BC10808 		e_lmw %r30,8(%r1)
 1105              	.LVL133:
 1106 003c 20F1     		se_addi %r1,16
 1107              	.LCFI35:
 1108              		.cfi_restore 31
 1109              		.cfi_restore 30
 1110              		.cfi_def_cfa_offset 0
 1111              		.loc 1 649 0
 1112 003e 78000000 		e_b AEK_POW_BMS63EN_SPIWriteRegister
 1113              	.LVL134:
 1114              		.cfi_endproc
 1115              	.LFE18:
 1116              		.size	AEK_POW_BMS63EN_GPIO_OT_UT_Mask, .-AEK_POW_BMS63EN_GPIO_OT_UT_Mask
 1117              		.section	.text.AEK_POW_BMS63EN_GPIO_CSA_Mask,"axv",@progbits
 1118              		.align 1
 1119              		.p2align 4,,15
 1120              		.globl AEK_POW_BMS63EN_GPIO_CSA_Mask
 1121              		.type	AEK_POW_BMS63EN_GPIO_CSA_Mask, @function
 1122              	AEK_POW_BMS63EN_GPIO_CSA_Mask:
 1123              	.LFB19:
 1124              		.loc 1 656 0
 1125              		.cfi_startproc
 1126              	.LVL135:
 1127 0000 182106F0 		e_stwu %r1,-16(%r1)
 1128              	.LCFI36:
 1129              		.cfi_def_cfa_offset 16
 1130 0004 0080     		se_mflr %r0
 1131 0006 1BC10908 		e_stmw %r30,8(%r1)
 1132 000a D501     		se_stw %r0,20(%r1)
 1133              		.cfi_offset 65, 4
 1134              		.cfi_offset 30, -8
 1135              		.cfi_offset 31, -4
 1136              		.loc 1 656 0
 1137 000c 013E     		se_mr %r30,%r3
 1138              		.loc 1 660 0
 1139 000e 0134     		se_mr %r4,%r3
 1140 0010 4A05     		se_li %r5,32
GAS LISTING C:\Users\Vipuls\AppData\Local\Temp\ccRPm3ys.s 			page 21


 1141 0012 73E0E000 		e_lis %r31,AEK_POW_BMS63EN_Drv@ha
 1142 0016 1FFF0000 		e_la %r31,AEK_POW_BMS63EN_Drv@l(%r31)
 1143 001a 01F3     		se_mr %r3,%r31
 1144              	.LVL136:
 1145 001c 78000001 		e_bl AEK_POW_BMS63EN_SPIReadRegister
 1146              	.LVL137:
 1147              		.loc 1 661 0
 1148 0020 01E4     		se_mr %r4,%r30
 1149 0022 01F3     		se_mr %r3,%r31
 1150 0024 4A05     		se_li %r5,32
 1151 0026 78000001 		e_bl AEK_POW_BMS63EN_SPIReadRegister
 1152              	.LVL138:
 1153              		.loc 1 665 0
 1154 002a 01E4     		se_mr %r4,%r30
 1155              		.loc 1 663 0
 1156 002c 0136     		se_mr %r6,%r3
 1157              		.loc 1 665 0
 1158 002e 4A05     		se_li %r5,32
 1159 0030 01F3     		se_mr %r3,%r31
 1160              	.LVL139:
 1161              		.loc 1 663 0
 1162 0032 70C1C7FF 		e_or2i %r6,4095
 1163              	.LVL140:
 1164              		.loc 1 665 0
 1165 0036 78000001 		e_bl AEK_POW_BMS63EN_SPIWriteRegister
 1166              	.LVL141:
 1167              		.loc 1 667 0
 1168 003a 01E4     		se_mr %r4,%r30
 1169 003c 01F3     		se_mr %r3,%r31
 1170 003e 4A05     		se_li %r5,32
 1171 0040 78000001 		e_bl AEK_POW_BMS63EN_SPIReadRegister
 1172              	.LVL142:
 1173              		.loc 1 669 0
 1174 0044 C501     		se_lwz %r0,20(%r1)
 1175              		.loc 1 668 0
 1176 0046 01F3     		se_mr %r3,%r31
 1177 0048 01E4     		se_mr %r4,%r30
 1178 004a 4A05     		se_li %r5,32
 1179              		.loc 1 669 0
 1180 004c 1BC10808 		e_lmw %r30,8(%r1)
 1181              	.LVL143:
 1182 0050 0090     		se_mtlr %r0
 1183              		.cfi_restore 65
 1184 0052 20F1     		se_addi %r1,16
 1185              	.LCFI37:
 1186              		.cfi_restore 31
 1187              		.cfi_restore 30
 1188              		.cfi_def_cfa_offset 0
 1189              		.loc 1 668 0
 1190 0054 78000000 		e_b AEK_POW_BMS63EN_SPIReadRegister
 1191              	.LVL144:
 1192              		.cfi_endproc
 1193              	.LFE19:
 1194              		.size	AEK_POW_BMS63EN_GPIO_CSA_Mask, .-AEK_POW_BMS63EN_GPIO_CSA_Mask
 1195              		.section	.text.AEK_POW_BMS63EN_SetADCContinuousMode,"axv",@progbits
 1196              		.align 1
 1197              		.p2align 4,,15
GAS LISTING C:\Users\Vipuls\AppData\Local\Temp\ccRPm3ys.s 			page 22


 1198              		.globl AEK_POW_BMS63EN_SetADCContinuousMode
 1199              		.type	AEK_POW_BMS63EN_SetADCContinuousMode, @function
 1200              	AEK_POW_BMS63EN_SetADCContinuousMode:
 1201              	.LFB20:
 1202              		.loc 1 684 0
 1203              		.cfi_startproc
 1204              	.LVL145:
 1205 0000 182106F0 		e_stwu %r1,-16(%r1)
 1206              	.LCFI38:
 1207              		.cfi_def_cfa_offset 16
 1208 0004 0080     		se_mflr %r0
 1209 0006 1BC10908 		e_stmw %r30,8(%r1)
 1210 000a D501     		se_stw %r0,20(%r1)
 1211              		.cfi_offset 65, 4
 1212              		.cfi_offset 30, -8
 1213              		.cfi_offset 31, -4
 1214              		.loc 1 684 0
 1215 000c 013E     		se_mr %r30,%r3
 1216              		.loc 1 688 0
 1217 000e 0134     		se_mr %r4,%r3
 1218 0010 48D5     		se_li %r5,13
 1219 0012 73E0E000 		e_lis %r31,AEK_POW_BMS63EN_Drv@ha
 1220 0016 1FFF0000 		e_la %r31,AEK_POW_BMS63EN_Drv@l(%r31)
 1221 001a 01F3     		se_mr %r3,%r31
 1222              	.LVL146:
 1223 001c 78000001 		e_bl AEK_POW_BMS63EN_SPIReadRegister
 1224              	.LVL147:
 1225              		.loc 1 689 0
 1226 0020 01E4     		se_mr %r4,%r30
 1227 0022 01F3     		se_mr %r3,%r31
 1228 0024 48D5     		se_li %r5,13
 1229 0026 78000001 		e_bl AEK_POW_BMS63EN_SPIReadRegister
 1230              	.LVL148:
 1231              		.loc 1 695 0
 1232 002a C501     		se_lwz %r0,20(%r1)
 1233              		.loc 1 693 0
 1234 002c 01E4     		se_mr %r4,%r30
 1235              		.loc 1 691 0
 1236 002e 1866D001 		e_ori %r6,%r3,1
 1237              	.LVL149:
 1238              		.loc 1 693 0
 1239 0032 48D5     		se_li %r5,13
 1240 0034 01F3     		se_mr %r3,%r31
 1241              		.loc 1 695 0
 1242 0036 0090     		se_mtlr %r0
 1243              		.cfi_restore 65
 1244 0038 1BC10808 		e_lmw %r30,8(%r1)
 1245              	.LVL150:
 1246 003c 20F1     		se_addi %r1,16
 1247              	.LCFI39:
 1248              		.cfi_restore 31
 1249              		.cfi_restore 30
 1250              		.cfi_def_cfa_offset 0
 1251              		.loc 1 693 0
 1252 003e 78000000 		e_b AEK_POW_BMS63EN_SPIWriteRegister
 1253              	.LVL151:
 1254              		.cfi_endproc
GAS LISTING C:\Users\Vipuls\AppData\Local\Temp\ccRPm3ys.s 			page 23


 1255              	.LFE20:
 1256              		.size	AEK_POW_BMS63EN_SetADCContinuousMode, .-AEK_POW_BMS63EN_SetADCContinuousMode
 1257              		.section	.text.AEK_POW_BMS63EN_SetADCFilterSOC,"axv",@progbits
 1258              		.align 1
 1259              		.p2align 4,,15
 1260              		.globl AEK_POW_BMS63EN_SetADCFilterSOC
 1261              		.type	AEK_POW_BMS63EN_SetADCFilterSOC, @function
 1262              	AEK_POW_BMS63EN_SetADCFilterSOC:
 1263              	.LFB21:
 1264              		.loc 1 701 0
 1265              		.cfi_startproc
 1266              	.LVL152:
 1267 0000 182106E8 		e_stwu %r1,-24(%r1)
 1268              	.LCFI40:
 1269              		.cfi_def_cfa_offset 24
 1270 0004 0080     		se_mflr %r0
 1271 0006 1BA1090C 		e_stmw %r29,12(%r1)
 1272 000a D701     		se_stw %r0,28(%r1)
 1273              		.cfi_offset 65, 4
 1274              		.cfi_offset 29, -12
 1275              		.cfi_offset 30, -8
 1276              		.cfi_offset 31, -4
 1277              		.loc 1 701 0
 1278 000c 013D     		se_mr %r29,%r3
 1279 000e 014E     		se_mr %r30,%r4
 1280              		.loc 1 705 0
 1281 0010 48D5     		se_li %r5,13
 1282 0012 0134     		se_mr %r4,%r3
 1283              	.LVL153:
 1284              		.loc 1 710 0
 1285 0014 6C9E     		se_slwi %r30, 9
 1286              	.LVL154:
 1287              		.loc 1 705 0
 1288 0016 73E0E000 		e_lis %r31,AEK_POW_BMS63EN_Drv@ha
 1289 001a 1FFF0000 		e_la %r31,AEK_POW_BMS63EN_Drv@l(%r31)
 1290 001e 01F3     		se_mr %r3,%r31
 1291              	.LVL155:
 1292 0020 78000001 		e_bl AEK_POW_BMS63EN_SPIReadRegister
 1293              	.LVL156:
 1294              		.loc 1 706 0
 1295 0024 01D4     		se_mr %r4,%r29
 1296 0026 01F3     		se_mr %r3,%r31
 1297 0028 48D5     		se_li %r5,13
 1298 002a 78000001 		e_bl AEK_POW_BMS63EN_SPIReadRegister
 1299              	.LVL157:
 1300              		.loc 1 714 0
 1301 002e C701     		se_lwz %r0,28(%r1)
 1302              		.loc 1 708 0
 1303 0030 1866C5F1 		e_andi %r6,%r3,-3585
 1304              	.LVL158:
 1305              		.loc 1 712 0
 1306 0034 01D4     		se_mr %r4,%r29
 1307 0036 01F3     		se_mr %r3,%r31
 1308 0038 44E6     		se_or %r6,%r30
 1309 003a 48D5     		se_li %r5,13
 1310              		.loc 1 714 0
 1311 003c 1BA1080C 		e_lmw %r29,12(%r1)
GAS LISTING C:\Users\Vipuls\AppData\Local\Temp\ccRPm3ys.s 			page 24


 1312              	.LVL159:
 1313 0040 0090     		se_mtlr %r0
 1314              		.cfi_restore 65
 1315 0042 2171     		se_addi %r1,24
 1316              	.LCFI41:
 1317              		.cfi_restore 31
 1318              		.cfi_restore 30
 1319              		.cfi_restore 29
 1320              		.cfi_def_cfa_offset 0
 1321              		.loc 1 712 0
 1322 0044 78000000 		e_b AEK_POW_BMS63EN_SPIWriteRegister
 1323              	.LVL160:
 1324              		.cfi_endproc
 1325              	.LFE21:
 1326              		.size	AEK_POW_BMS63EN_SetADCFilterSOC, .-AEK_POW_BMS63EN_SetADCFilterSOC
 1327              		.section	.text.AEK_POW_BMS63EN_SetADCTcycle,"axv",@progbits
 1328              		.align 1
 1329              		.p2align 4,,15
 1330              		.globl AEK_POW_BMS63EN_SetADCTcycle
 1331              		.type	AEK_POW_BMS63EN_SetADCTcycle, @function
 1332              	AEK_POW_BMS63EN_SetADCTcycle:
 1333              	.LFB22:
 1334              		.loc 1 720 0
 1335              		.cfi_startproc
 1336              	.LVL161:
 1337 0000 182106E8 		e_stwu %r1,-24(%r1)
 1338              	.LCFI42:
 1339              		.cfi_def_cfa_offset 24
 1340 0004 0080     		se_mflr %r0
 1341 0006 1BA1090C 		e_stmw %r29,12(%r1)
 1342 000a D701     		se_stw %r0,28(%r1)
 1343              		.cfi_offset 65, 4
 1344              		.cfi_offset 29, -12
 1345              		.cfi_offset 30, -8
 1346              		.cfi_offset 31, -4
 1347              		.loc 1 720 0
 1348 000c 013D     		se_mr %r29,%r3
 1349 000e 014E     		se_mr %r30,%r4
 1350              		.loc 1 724 0
 1351 0010 48D5     		se_li %r5,13
 1352 0012 0134     		se_mr %r4,%r3
 1353              	.LVL162:
 1354 0014 73E0E000 		e_lis %r31,AEK_POW_BMS63EN_Drv@ha
 1355 0018 1FFF0000 		e_la %r31,AEK_POW_BMS63EN_Drv@l(%r31)
 1356 001c 01F3     		se_mr %r3,%r31
 1357              	.LVL163:
 1358 001e 78000001 		e_bl AEK_POW_BMS63EN_SPIReadRegister
 1359              	.LVL164:
 1360              		.loc 1 725 0
 1361 0022 01F3     		se_mr %r3,%r31
 1362 0024 01D4     		se_mr %r4,%r29
 1363 0026 48D5     		se_li %r5,13
 1364 0028 78000001 		e_bl AEK_POW_BMS63EN_SPIReadRegister
 1365              	.LVL165:
 1366              		.loc 1 729 0
 1367 002c 226E     		se_cmpli %r30,7
 1368              		.loc 1 727 0
GAS LISTING C:\Users\Vipuls\AppData\Local\Temp\ccRPm3ys.s 			page 25


 1369 002e 1866C4F1 		e_andi %r6,%r3,-15
 1370              	.LVL166:
 1371              		.loc 1 729 0
 1372 0032 7A11001E 		e_bgt %cr0,.L46
 1373 0036 6C2E     		se_slwi %r30, 2
 1374              	.LVL167:
 1375 0038 70E0E000 		e_lis %r7,.L48@ha
 1376 003c 1CE70000 		e_la %r7,.L48@l(%r7)
 1377 0040 7CA7F02E 		lwzx %r5,%r7,%r30
 1378 0044 7CE53A14 		add %r7,%r5,%r7
 1379 0048 00B7     		se_mtctr %r7
 1380 004a 0006     		se_bctr
 1381              		.section	.rodata.AEK_POW_BMS63EN_SetADCTcycle,"a",@progbits
 1382              		.align 2
 1383              		.align 2
 1384              	.L48:
 1385 0000 00000000 		.long .L46-.L48
 1386 0004 00000000 		.long .L47-.L48
 1387 0008 00000000 		.long .L49-.L48
 1388 000c 00000000 		.long .L50-.L48
 1389 0010 00000000 		.long .L51-.L48
 1390 0014 00000000 		.long .L52-.L48
 1391 0018 00000000 		.long .L53-.L48
 1392 001c 00000000 		.long .L54-.L48
 1393              		.section	.text.AEK_POW_BMS63EN_SetADCTcycle
 1394              	.L54:
 1395              		.loc 1 758 0
 1396 004c 18C6D00E 		e_ori %r6,%r6,14
 1397              	.LVL168:
 1398              	.L46:
 1399              		.loc 1 764 0
 1400 0050 C701     		se_lwz %r0,28(%r1)
 1401              		.loc 1 762 0
 1402 0052 01D4     		se_mr %r4,%r29
 1403 0054 7060E000 		e_lis %r3,AEK_POW_BMS63EN_Drv@ha
 1404              		.loc 1 764 0
 1405 0058 1BA1080C 		e_lmw %r29,12(%r1)
 1406              	.LVL169:
 1407              		.loc 1 762 0
 1408 005c 1C630000 		e_la %r3,AEK_POW_BMS63EN_Drv@l(%r3)
 1409              		.loc 1 764 0
 1410              		.loc 1 762 0
 1411 0060 48D5     		se_li %r5,13
 1412              		.loc 1 764 0
 1413 0062 0090     		se_mtlr %r0
 1414              		.cfi_remember_state
 1415              		.cfi_restore 65
 1416 0064 2171     		se_addi %r1,24
 1417              	.LCFI43:
 1418              		.cfi_restore 31
 1419              		.cfi_restore 30
 1420              		.cfi_restore 29
 1421              		.cfi_def_cfa_offset 0
 1422              		.loc 1 762 0
 1423 0066 78000000 		e_b AEK_POW_BMS63EN_SPIWriteRegister
 1424              	.LVL170:
 1425              	.L53:
GAS LISTING C:\Users\Vipuls\AppData\Local\Temp\ccRPm3ys.s 			page 26


 1426              	.LCFI44:
 1427              		.cfi_restore_state
 1428              		.loc 1 764 0
 1429 006a C701     		se_lwz %r0,28(%r1)
 1430              		.loc 1 762 0
 1431 006c 01D4     		se_mr %r4,%r29
 1432 006e 7060E000 		e_lis %r3,AEK_POW_BMS63EN_Drv@ha
 1433              		.loc 1 764 0
 1434 0072 1BA1080C 		e_lmw %r29,12(%r1)
 1435              	.LVL171:
 1436              		.loc 1 754 0
 1437 0076 18C6D00C 		e_ori %r6,%r6,12
 1438              	.LVL172:
 1439              		.loc 1 764 0
 1440              		.loc 1 762 0
 1441 007a 1C630000 		e_la %r3,AEK_POW_BMS63EN_Drv@l(%r3)
 1442 007e 48D5     		se_li %r5,13
 1443              		.loc 1 764 0
 1444 0080 0090     		se_mtlr %r0
 1445              		.cfi_remember_state
 1446              		.cfi_restore 65
 1447 0082 2171     		se_addi %r1,24
 1448              	.LCFI45:
 1449              		.cfi_restore 29
 1450              		.cfi_restore 30
 1451              		.cfi_restore 31
 1452              		.cfi_def_cfa_offset 0
 1453              		.loc 1 762 0
 1454 0084 78000000 		e_b AEK_POW_BMS63EN_SPIWriteRegister
 1455              	.LVL173:
 1456              	.L47:
 1457              	.LCFI46:
 1458              		.cfi_restore_state
 1459              		.loc 1 764 0
 1460 0088 C701     		se_lwz %r0,28(%r1)
 1461              		.loc 1 762 0
 1462 008a 01D4     		se_mr %r4,%r29
 1463 008c 7060E000 		e_lis %r3,AEK_POW_BMS63EN_Drv@ha
 1464              		.loc 1 764 0
 1465 0090 1BA1080C 		e_lmw %r29,12(%r1)
 1466              	.LVL174:
 1467              		.loc 1 734 0
 1468 0094 65E6     		se_bseti %r6,30
 1469              	.LVL175:
 1470              		.loc 1 764 0
 1471              		.loc 1 762 0
 1472 0096 1C630000 		e_la %r3,AEK_POW_BMS63EN_Drv@l(%r3)
 1473 009a 48D5     		se_li %r5,13
 1474              		.loc 1 764 0
 1475 009c 0090     		se_mtlr %r0
 1476              		.cfi_remember_state
 1477              		.cfi_restore 65
 1478 009e 2171     		se_addi %r1,24
 1479              	.LCFI47:
 1480              		.cfi_restore 29
 1481              		.cfi_restore 30
 1482              		.cfi_restore 31
GAS LISTING C:\Users\Vipuls\AppData\Local\Temp\ccRPm3ys.s 			page 27


 1483              		.cfi_def_cfa_offset 0
 1484              		.loc 1 762 0
 1485 00a0 78000000 		e_b AEK_POW_BMS63EN_SPIWriteRegister
 1486              	.LVL176:
 1487              	.L49:
 1488              	.LCFI48:
 1489              		.cfi_restore_state
 1490              		.loc 1 764 0
 1491 00a4 C701     		se_lwz %r0,28(%r1)
 1492              		.loc 1 762 0
 1493 00a6 01D4     		se_mr %r4,%r29
 1494 00a8 7060E000 		e_lis %r3,AEK_POW_BMS63EN_Drv@ha
 1495              		.loc 1 764 0
 1496 00ac 1BA1080C 		e_lmw %r29,12(%r1)
 1497              	.LVL177:
 1498              		.loc 1 738 0
 1499 00b0 65D6     		se_bseti %r6,29
 1500              	.LVL178:
 1501              		.loc 1 764 0
 1502              		.loc 1 762 0
 1503 00b2 1C630000 		e_la %r3,AEK_POW_BMS63EN_Drv@l(%r3)
 1504 00b6 48D5     		se_li %r5,13
 1505              		.loc 1 764 0
 1506 00b8 0090     		se_mtlr %r0
 1507              		.cfi_remember_state
 1508              		.cfi_restore 65
 1509 00ba 2171     		se_addi %r1,24
 1510              	.LCFI49:
 1511              		.cfi_restore 29
 1512              		.cfi_restore 30
 1513              		.cfi_restore 31
 1514              		.cfi_def_cfa_offset 0
 1515              		.loc 1 762 0
 1516 00bc 78000000 		e_b AEK_POW_BMS63EN_SPIWriteRegister
 1517              	.LVL179:
 1518              	.L50:
 1519              	.LCFI50:
 1520              		.cfi_restore_state
 1521              		.loc 1 764 0
 1522 00c0 C701     		se_lwz %r0,28(%r1)
 1523              		.loc 1 762 0
 1524 00c2 01D4     		se_mr %r4,%r29
 1525 00c4 7060E000 		e_lis %r3,AEK_POW_BMS63EN_Drv@ha
 1526              		.loc 1 764 0
 1527 00c8 1BA1080C 		e_lmw %r29,12(%r1)
 1528              	.LVL180:
 1529              		.loc 1 742 0
 1530 00cc 18C6D006 		e_ori %r6,%r6,6
 1531              	.LVL181:
 1532              		.loc 1 764 0
 1533              		.loc 1 762 0
 1534 00d0 1C630000 		e_la %r3,AEK_POW_BMS63EN_Drv@l(%r3)
 1535 00d4 48D5     		se_li %r5,13
 1536              		.loc 1 764 0
 1537 00d6 0090     		se_mtlr %r0
 1538              		.cfi_remember_state
 1539              		.cfi_restore 65
GAS LISTING C:\Users\Vipuls\AppData\Local\Temp\ccRPm3ys.s 			page 28


 1540 00d8 2171     		se_addi %r1,24
 1541              	.LCFI51:
 1542              		.cfi_restore 29
 1543              		.cfi_restore 30
 1544              		.cfi_restore 31
 1545              		.cfi_def_cfa_offset 0
 1546              		.loc 1 762 0
 1547 00da 78000000 		e_b AEK_POW_BMS63EN_SPIWriteRegister
 1548              	.LVL182:
 1549              	.L51:
 1550              	.LCFI52:
 1551              		.cfi_restore_state
 1552              		.loc 1 764 0
 1553 00de C701     		se_lwz %r0,28(%r1)
 1554              		.loc 1 762 0
 1555 00e0 01D4     		se_mr %r4,%r29
 1556 00e2 7060E000 		e_lis %r3,AEK_POW_BMS63EN_Drv@ha
 1557              		.loc 1 764 0
 1558 00e6 1BA1080C 		e_lmw %r29,12(%r1)
 1559              	.LVL183:
 1560              		.loc 1 746 0
 1561 00ea 65C6     		se_bseti %r6,28
 1562              	.LVL184:
 1563              		.loc 1 764 0
 1564              		.loc 1 762 0
 1565 00ec 1C630000 		e_la %r3,AEK_POW_BMS63EN_Drv@l(%r3)
 1566 00f0 48D5     		se_li %r5,13
 1567              		.loc 1 764 0
 1568 00f2 0090     		se_mtlr %r0
 1569              		.cfi_remember_state
 1570              		.cfi_restore 65
 1571 00f4 2171     		se_addi %r1,24
 1572              	.LCFI53:
 1573              		.cfi_restore 29
 1574              		.cfi_restore 30
 1575              		.cfi_restore 31
 1576              		.cfi_def_cfa_offset 0
 1577              		.loc 1 762 0
 1578 00f6 78000000 		e_b AEK_POW_BMS63EN_SPIWriteRegister
 1579              	.LVL185:
 1580              	.L52:
 1581              	.LCFI54:
 1582              		.cfi_restore_state
 1583              		.loc 1 764 0
 1584 00fa C701     		se_lwz %r0,28(%r1)
 1585              		.loc 1 762 0
 1586 00fc 01D4     		se_mr %r4,%r29
 1587 00fe 7060E000 		e_lis %r3,AEK_POW_BMS63EN_Drv@ha
 1588              		.loc 1 764 0
 1589 0102 1BA1080C 		e_lmw %r29,12(%r1)
 1590              	.LVL186:
 1591              		.loc 1 750 0
 1592 0106 18C6D00A 		e_ori %r6,%r6,10
 1593              	.LVL187:
 1594              		.loc 1 764 0
 1595              		.loc 1 762 0
 1596 010a 1C630000 		e_la %r3,AEK_POW_BMS63EN_Drv@l(%r3)
GAS LISTING C:\Users\Vipuls\AppData\Local\Temp\ccRPm3ys.s 			page 29


 1597 010e 48D5     		se_li %r5,13
 1598              		.loc 1 764 0
 1599 0110 0090     		se_mtlr %r0
 1600              		.cfi_restore 65
 1601 0112 2171     		se_addi %r1,24
 1602              	.LCFI55:
 1603              		.cfi_restore 29
 1604              		.cfi_restore 30
 1605              		.cfi_restore 31
 1606              		.cfi_def_cfa_offset 0
 1607              		.loc 1 762 0
 1608 0114 78000000 		e_b AEK_POW_BMS63EN_SPIWriteRegister
 1609              	.LVL188:
 1610              		.cfi_endproc
 1611              	.LFE22:
 1612              		.size	AEK_POW_BMS63EN_SetADCTcycle, .-AEK_POW_BMS63EN_SetADCTcycle
 1613              		.section	.text.AEK_POW_BMS63EN_SetVBattOVCThreshold,"axv",@progbits
 1614              		.align 1
 1615              		.p2align 4,,15
 1616              		.globl AEK_POW_BMS63EN_SetVBattOVCThreshold
 1617              		.type	AEK_POW_BMS63EN_SetVBattOVCThreshold, @function
 1618              	AEK_POW_BMS63EN_SetVBattOVCThreshold:
 1619              	.LFB23:
 1620              		.loc 1 770 0
 1621              		.cfi_startproc
 1622              	.LVL189:
 1623              		.loc 1 775 0
 1624 0000 2A04     		se_cmpi %r4,0
 1625 0002 7A100032 		e_blt %cr0,.L58
 1626              		.loc 1 780 0
 1627 0006 70E003E8 		e_li %r7,1000
 1628              		.loc 1 785 0
 1629              		.loc 1 780 0
 1630 000a 7CA439D6 		mullw %r5,%r4,%r7
 1631 000e 70F8E519 		e_lis %r7,0xc519
 1632 0012 7CA6FE70 		srawi %r6,%r5,31
 1633 0016 70F9C2E1 		e_or2i %r7,51937
 1634              		.loc 1 783 0
 1635 001a 0134     		se_mr %r4,%r3
 1636              	.LVL190:
 1637              		.loc 1 780 0
 1638 001c 7CE53896 		mulhw %r7,%r5,%r7
 1639              		.loc 1 783 0
 1640 0020 7060E000 		e_lis %r3,AEK_POW_BMS63EN_Drv@ha
 1641              	.LVL191:
 1642              		.loc 1 780 0
 1643 0024 0457     		se_add %r7,%r5
 1644              		.loc 1 783 0
 1645 0026 1C630000 		e_la %r3,AEK_POW_BMS63EN_Drv@l(%r3)
 1646              		.loc 1 780 0
 1647 002a 6AA7     		se_srawi %r7, 10
 1648              		.loc 1 783 0
 1649 002c 49F5     		se_li %r5,31
 1650              		.loc 1 780 0
 1651 002e 0776     		se_subf %r6, %r7
 1652              	.LVL192:
 1653              		.loc 1 783 0
GAS LISTING C:\Users\Vipuls\AppData\Local\Temp\ccRPm3ys.s 			page 30


 1654 0030 78000000 		e_b AEK_POW_BMS63EN_SPIWriteRegister
 1655              	.LVL193:
 1656              	.L58:
 1657              		.loc 1 776 0
 1658 0034 70DF7C18 		e_li %r6,-1000
 1659              		.loc 1 785 0
 1660              		.loc 1 776 0
 1661 0038 7CE431D6 		mullw %r7,%r4,%r6
 1662 003c 70D8E519 		e_lis %r6,0xc519
 1663 0040 7CE5FE70 		srawi %r5,%r7,31
 1664 0044 70D9C2E1 		e_or2i %r6,51937
 1665              		.loc 1 783 0
 1666 0048 0134     		se_mr %r4,%r3
 1667              	.LVL194:
 1668              		.loc 1 776 0
 1669 004a 7CC73096 		mulhw %r6,%r7,%r6
 1670              		.loc 1 783 0
 1671 004e 7060E000 		e_lis %r3,AEK_POW_BMS63EN_Drv@ha
 1672              	.LVL195:
 1673              		.loc 1 776 0
 1674 0052 0476     		se_add %r6,%r7
 1675              		.loc 1 783 0
 1676 0054 1C630000 		e_la %r3,AEK_POW_BMS63EN_Drv@l(%r3)
 1677              		.loc 1 776 0
 1678 0058 6AA6     		se_srawi %r6, 10
 1679              		.loc 1 778 0
 1680 005a 0756     		se_subf %r6, %r5
 1681              		.loc 1 783 0
 1682 005c 49F5     		se_li %r5,31
 1683              		.loc 1 778 0
 1684 005e 74C603BF 		e_rlwinm %r6,%r6,0,14,31
 1685              	.LVL196:
 1686              		.loc 1 783 0
 1687 0062 78000000 		e_b AEK_POW_BMS63EN_SPIWriteRegister
 1688              	.LVL197:
 1689              		.cfi_endproc
 1690              	.LFE23:
 1691              		.size	AEK_POW_BMS63EN_SetVBattOVCThreshold, .-AEK_POW_BMS63EN_SetVBattOVCThreshold
 1692              		.section	.text.AEK_POW_BMS63EN_SetVBattOVThreshold,"axv",@progbits
 1693              		.align 1
 1694              		.p2align 4,,15
 1695              		.globl AEK_POW_BMS63EN_SetVBattOVThreshold
 1696              		.type	AEK_POW_BMS63EN_SetVBattOVThreshold, @function
 1697              	AEK_POW_BMS63EN_SetVBattOVThreshold:
 1698              	.LFB24:
 1699              		.loc 1 791 0
 1700              		.cfi_startproc
 1701              	.LVL198:
 1702 0000 182106E8 		e_stwu %r1,-24(%r1)
 1703              	.LCFI56:
 1704              		.cfi_def_cfa_offset 24
 1705 0004 0080     		se_mflr %r0
 1706 0006 1BA1090C 		e_stmw %r29,12(%r1)
 1707 000a D701     		se_stw %r0,28(%r1)
 1708              		.cfi_offset 65, 4
 1709              		.cfi_offset 29, -12
 1710              		.cfi_offset 30, -8
GAS LISTING C:\Users\Vipuls\AppData\Local\Temp\ccRPm3ys.s 			page 31


 1711              		.cfi_offset 31, -4
 1712              		.loc 1 791 0
 1713 000c 013D     		se_mr %r29,%r3
 1714 000e 014E     		se_mr %r30,%r4
 1715              		.loc 1 795 0
 1716 0010 48C5     		se_li %r5,12
 1717 0012 0134     		se_mr %r4,%r3
 1718              	.LVL199:
 1719 0014 73E0E000 		e_lis %r31,AEK_POW_BMS63EN_Drv@ha
 1720 0018 1FFF0000 		e_la %r31,AEK_POW_BMS63EN_Drv@l(%r31)
 1721 001c 01F3     		se_mr %r3,%r31
 1722              	.LVL200:
 1723 001e 78000001 		e_bl AEK_POW_BMS63EN_SPIReadRegister
 1724              	.LVL201:
 1725              		.loc 1 796 0
 1726 0022 01D4     		se_mr %r4,%r29
 1727 0024 01F3     		se_mr %r3,%r31
 1728 0026 48C5     		se_li %r5,12
 1729 0028 78000001 		e_bl AEK_POW_BMS63EN_SPIReadRegister
 1730              	.LVL202:
 1731              		.loc 1 805 0
 1732 002c C701     		se_lwz %r0,28(%r1)
 1733              		.loc 1 800 0
 1734 002e 70C003E8 		e_li %r6,1000
 1735              		.loc 1 803 0
 1736 0032 01D4     		se_mr %r4,%r29
 1737              		.loc 1 800 0
 1738 0034 7CFE31D6 		mullw %r7,%r30,%r6
 1739 0038 70B7E017 		e_lis %r5,0xb817
 1740              		.loc 1 799 0
 1741 003c 1866C500 		e_andi %r6,%r3,-65281
 1742              	.LVL203:
 1743              		.loc 1 800 0
 1744 0040 70A0C2E1 		e_or2i %r5,737
 1745              		.loc 1 803 0
 1746 0044 01F3     		se_mr %r3,%r31
 1747              		.loc 1 800 0
 1748 0046 7CE72816 		mulhwu %r7,%r7,%r5
 1749              		.loc 1 805 0
 1750 004a 1BA1080C 		e_lmw %r29,12(%r1)
 1751              	.LVL204:
 1752              		.loc 1 801 0
 1753 004e 74E7B2AF 		e_rlwinm %r7,%r7,22,10,23
 1754              		.loc 1 805 0
 1755              		.loc 1 803 0
 1756 0052 48C5     		se_li %r5,12
 1757 0054 4476     		se_or %r6,%r7
 1758              	.LVL205:
 1759              		.loc 1 805 0
 1760 0056 0090     		se_mtlr %r0
 1761              		.cfi_restore 65
 1762 0058 2171     		se_addi %r1,24
 1763              	.LCFI57:
 1764              		.cfi_restore 31
 1765              		.cfi_restore 30
 1766              		.cfi_restore 29
 1767              		.cfi_def_cfa_offset 0
GAS LISTING C:\Users\Vipuls\AppData\Local\Temp\ccRPm3ys.s 			page 32


 1768              		.loc 1 803 0
 1769 005a 78000000 		e_b AEK_POW_BMS63EN_SPIWriteRegister
 1770              	.LVL206:
 1771              		.cfi_endproc
 1772              	.LFE24:
 1773              		.size	AEK_POW_BMS63EN_SetVBattOVThreshold, .-AEK_POW_BMS63EN_SetVBattOVThreshold
 1774              		.section	.text.AEK_POW_BMS63EN_SetVBattUVThreshold,"axv",@progbits
 1775              		.align 1
 1776              		.p2align 4,,15
 1777              		.globl AEK_POW_BMS63EN_SetVBattUVThreshold
 1778              		.type	AEK_POW_BMS63EN_SetVBattUVThreshold, @function
 1779              	AEK_POW_BMS63EN_SetVBattUVThreshold:
 1780              	.LFB25:
 1781              		.loc 1 811 0
 1782              		.cfi_startproc
 1783              	.LVL207:
 1784 0000 182106E8 		e_stwu %r1,-24(%r1)
 1785              	.LCFI58:
 1786              		.cfi_def_cfa_offset 24
 1787 0004 0080     		se_mflr %r0
 1788 0006 1BA1090C 		e_stmw %r29,12(%r1)
 1789 000a D701     		se_stw %r0,28(%r1)
 1790              		.cfi_offset 65, 4
 1791              		.cfi_offset 29, -12
 1792              		.cfi_offset 30, -8
 1793              		.cfi_offset 31, -4
 1794              		.loc 1 811 0
 1795 000c 013D     		se_mr %r29,%r3
 1796 000e 014E     		se_mr %r30,%r4
 1797              		.loc 1 815 0
 1798 0010 48C5     		se_li %r5,12
 1799 0012 0134     		se_mr %r4,%r3
 1800              	.LVL208:
 1801 0014 73E0E000 		e_lis %r31,AEK_POW_BMS63EN_Drv@ha
 1802 0018 1FFF0000 		e_la %r31,AEK_POW_BMS63EN_Drv@l(%r31)
 1803 001c 01F3     		se_mr %r3,%r31
 1804              	.LVL209:
 1805 001e 78000001 		e_bl AEK_POW_BMS63EN_SPIReadRegister
 1806              	.LVL210:
 1807              		.loc 1 816 0
 1808 0022 01D4     		se_mr %r4,%r29
 1809 0024 01F3     		se_mr %r3,%r31
 1810 0026 48C5     		se_li %r5,12
 1811 0028 78000001 		e_bl AEK_POW_BMS63EN_SPIReadRegister
 1812              	.LVL211:
 1813              		.loc 1 824 0
 1814 002c C701     		se_lwz %r0,28(%r1)
 1815              		.loc 1 819 0
 1816 002e 70C003E8 		e_li %r6,1000
 1817              		.loc 1 822 0
 1818 0032 01D4     		se_mr %r4,%r29
 1819              		.loc 1 819 0
 1820 0034 7CFE31D6 		mullw %r7,%r30,%r6
 1821 0038 70B7E017 		e_lis %r5,0xb817
 1822              		.loc 1 818 0
 1823 003c 1866C400 		e_andi %r6,%r3,-256
 1824              	.LVL212:
GAS LISTING C:\Users\Vipuls\AppData\Local\Temp\ccRPm3ys.s 			page 33


 1825              		.loc 1 819 0
 1826 0040 70A0C2E1 		e_or2i %r5,737
 1827              		.loc 1 822 0
 1828 0044 01F3     		se_mr %r3,%r31
 1829              		.loc 1 819 0
 1830 0046 7CE72816 		mulhwu %r7,%r7,%r5
 1831              		.loc 1 824 0
 1832 004a 1BA1080C 		e_lmw %r29,12(%r1)
 1833              	.LVL213:
 1834              		.loc 1 819 0
 1835 004e 6927     		se_srwi %r7,18
 1836              		.loc 1 824 0
 1837              		.loc 1 822 0
 1838 0050 48C5     		se_li %r5,12
 1839 0052 4476     		se_or %r6,%r7
 1840              	.LVL214:
 1841              		.loc 1 824 0
 1842 0054 0090     		se_mtlr %r0
 1843              		.cfi_restore 65
 1844 0056 2171     		se_addi %r1,24
 1845              	.LCFI59:
 1846              		.cfi_restore 31
 1847              		.cfi_restore 30
 1848              		.cfi_restore 29
 1849              		.cfi_def_cfa_offset 0
 1850              		.loc 1 822 0
 1851 0058 78000000 		e_b AEK_POW_BMS63EN_SPIWriteRegister
 1852              	.LVL215:
 1853              		.cfi_endproc
 1854              	.LFE25:
 1855              		.size	AEK_POW_BMS63EN_SetVBattUVThreshold, .-AEK_POW_BMS63EN_SetVBattUVThreshold
 1856              		.section	.text.AEK_POW_BMS63EN_SetVCellOVThreshold,"axv",@progbits
 1857              		.align 1
 1858              		.p2align 4,,15
 1859              		.globl AEK_POW_BMS63EN_SetVCellOVThreshold
 1860              		.type	AEK_POW_BMS63EN_SetVCellOVThreshold, @function
 1861              	AEK_POW_BMS63EN_SetVCellOVThreshold:
 1862              	.LFB26:
 1863              		.loc 1 830 0
 1864              		.cfi_startproc
 1865              	.LVL216:
 1866 0000 182106E8 		e_stwu %r1,-24(%r1)
 1867              	.LCFI60:
 1868              		.cfi_def_cfa_offset 24
 1869 0004 0080     		se_mflr %r0
 1870 0006 1BA1090C 		e_stmw %r29,12(%r1)
 1871 000a D701     		se_stw %r0,28(%r1)
 1872              		.cfi_offset 65, 4
 1873              		.cfi_offset 29, -12
 1874              		.cfi_offset 30, -8
 1875              		.cfi_offset 31, -4
 1876              		.loc 1 830 0
 1877 000c 013D     		se_mr %r29,%r3
 1878 000e 014F     		se_mr %r31,%r4
 1879              		.loc 1 834 0
 1880 0010 48B5     		se_li %r5,11
 1881 0012 0134     		se_mr %r4,%r3
GAS LISTING C:\Users\Vipuls\AppData\Local\Temp\ccRPm3ys.s 			page 34


 1882              	.LVL217:
 1883 0014 73C0E000 		e_lis %r30,AEK_POW_BMS63EN_Drv@ha
 1884 0018 1FDE0000 		e_la %r30,AEK_POW_BMS63EN_Drv@l(%r30)
 1885 001c 01E3     		se_mr %r3,%r30
 1886              	.LVL218:
 1887 001e 78000001 		e_bl AEK_POW_BMS63EN_SPIReadRegister
 1888              	.LVL219:
 1889              		.loc 1 835 0
 1890 0022 01D4     		se_mr %r4,%r29
 1891 0024 01E3     		se_mr %r3,%r30
 1892 0026 48B5     		se_li %r5,11
 1893 0028 78000001 		e_bl AEK_POW_BMS63EN_SPIReadRegister
 1894              	.LVL220:
 1895              		.loc 1 839 0
 1896 002c 70C003E8 		e_li %r6,1000
 1897 0030 70B7E017 		e_lis %r5,0xb817
 1898 0034 7CFF31D6 		mullw %r7,%r31,%r6
 1899 0038 70A0C2E1 		e_or2i %r5,737
 1900 003c 7CE0FE70 		srawi %r0,%r7,31
 1901              		.loc 1 837 0
 1902 0040 1866C500 		e_andi %r6,%r3,-65281
 1903              	.LVL221:
 1904              		.loc 1 839 0
 1905 0044 7CA72896 		mulhw %r5,%r7,%r5
 1906              		.loc 1 843 0
 1907 0048 01E3     		se_mr %r3,%r30
 1908              		.loc 1 839 0
 1909 004a 7CE53A14 		add %r7,%r5,%r7
 1910              		.loc 1 843 0
 1911 004e 01D4     		se_mr %r4,%r29
 1912              		.loc 1 839 0
 1913 0050 6AE7     		se_srawi %r7, 14
 1914              		.loc 1 845 0
 1915 0052 1BA1080C 		e_lmw %r29,12(%r1)
 1916              	.LVL222:
 1917              		.loc 1 839 0
 1918 0056 0607     		se_sub %r7, %r0
 1919              		.loc 1 843 0
 1920 0058 48B5     		se_li %r5,11
 1921              		.loc 1 845 0
 1922 005a C701     		se_lwz %r0,28(%r1)
 1923              		.loc 1 841 0
 1924 005c 6C87     		se_slwi %r7, 8
 1925              		.loc 1 845 0
 1926              		.loc 1 843 0
 1927 005e 4476     		se_or %r6,%r7
 1928              		.loc 1 845 0
 1929 0060 0090     		se_mtlr %r0
 1930              		.cfi_restore 65
 1931 0062 2171     		se_addi %r1,24
 1932              	.LCFI61:
 1933              		.cfi_restore 31
 1934              		.cfi_restore 30
 1935              		.cfi_restore 29
 1936              		.cfi_def_cfa_offset 0
 1937              		.loc 1 843 0
 1938 0064 78000000 		e_b AEK_POW_BMS63EN_SPIWriteRegister
GAS LISTING C:\Users\Vipuls\AppData\Local\Temp\ccRPm3ys.s 			page 35


 1939              	.LVL223:
 1940              		.cfi_endproc
 1941              	.LFE26:
 1942              		.size	AEK_POW_BMS63EN_SetVCellOVThreshold, .-AEK_POW_BMS63EN_SetVCellOVThreshold
 1943              		.section	.text.AEK_POW_BMS63EN_SetVCellUVThreshold,"axv",@progbits
 1944              		.align 1
 1945              		.p2align 4,,15
 1946              		.globl AEK_POW_BMS63EN_SetVCellUVThreshold
 1947              		.type	AEK_POW_BMS63EN_SetVCellUVThreshold, @function
 1948              	AEK_POW_BMS63EN_SetVCellUVThreshold:
 1949              	.LFB27:
 1950              		.loc 1 851 0
 1951              		.cfi_startproc
 1952              	.LVL224:
 1953 0000 182106E8 		e_stwu %r1,-24(%r1)
 1954              	.LCFI62:
 1955              		.cfi_def_cfa_offset 24
 1956 0004 0080     		se_mflr %r0
 1957 0006 1BA1090C 		e_stmw %r29,12(%r1)
 1958 000a D701     		se_stw %r0,28(%r1)
 1959              		.cfi_offset 65, 4
 1960              		.cfi_offset 29, -12
 1961              		.cfi_offset 30, -8
 1962              		.cfi_offset 31, -4
 1963              		.loc 1 851 0
 1964 000c 013D     		se_mr %r29,%r3
 1965 000e 014F     		se_mr %r31,%r4
 1966              		.loc 1 855 0
 1967 0010 48B5     		se_li %r5,11
 1968 0012 0134     		se_mr %r4,%r3
 1969              	.LVL225:
 1970 0014 73C0E000 		e_lis %r30,AEK_POW_BMS63EN_Drv@ha
 1971 0018 1FDE0000 		e_la %r30,AEK_POW_BMS63EN_Drv@l(%r30)
 1972 001c 01E3     		se_mr %r3,%r30
 1973              	.LVL226:
 1974 001e 78000001 		e_bl AEK_POW_BMS63EN_SPIReadRegister
 1975              	.LVL227:
 1976              		.loc 1 856 0
 1977 0022 01D4     		se_mr %r4,%r29
 1978 0024 01E3     		se_mr %r3,%r30
 1979 0026 48B5     		se_li %r5,11
 1980 0028 78000001 		e_bl AEK_POW_BMS63EN_SPIReadRegister
 1981              	.LVL228:
 1982              		.loc 1 860 0
 1983 002c 70C003E8 		e_li %r6,1000
 1984 0030 70B7E017 		e_lis %r5,0xb817
 1985 0034 7CFF31D6 		mullw %r7,%r31,%r6
 1986 0038 70A0C2E1 		e_or2i %r5,737
 1987 003c 7CE0FE70 		srawi %r0,%r7,31
 1988              		.loc 1 858 0
 1989 0040 1866C400 		e_andi %r6,%r3,-256
 1990              	.LVL229:
 1991              		.loc 1 860 0
 1992 0044 7CA72896 		mulhw %r5,%r7,%r5
 1993              		.loc 1 864 0
 1994 0048 01E3     		se_mr %r3,%r30
 1995              		.loc 1 860 0
GAS LISTING C:\Users\Vipuls\AppData\Local\Temp\ccRPm3ys.s 			page 36


 1996 004a 7CE53A14 		add %r7,%r5,%r7
 1997              		.loc 1 864 0
 1998 004e 01D4     		se_mr %r4,%r29
 1999              		.loc 1 860 0
 2000 0050 6AE7     		se_srawi %r7, 14
 2001              		.loc 1 866 0
 2002 0052 1BA1080C 		e_lmw %r29,12(%r1)
 2003              	.LVL230:
 2004              		.loc 1 860 0
 2005 0056 0607     		se_sub %r7, %r0
 2006              		.loc 1 864 0
 2007 0058 48B5     		se_li %r5,11
 2008              		.loc 1 866 0
 2009 005a C701     		se_lwz %r0,28(%r1)
 2010              		.loc 1 864 0
 2011 005c 4476     		se_or %r6,%r7
 2012              		.loc 1 866 0
 2013 005e 0090     		se_mtlr %r0
 2014              		.cfi_restore 65
 2015 0060 2171     		se_addi %r1,24
 2016              	.LCFI63:
 2017              		.cfi_restore 31
 2018              		.cfi_restore 30
 2019              		.cfi_restore 29
 2020              		.cfi_def_cfa_offset 0
 2021              		.loc 1 864 0
 2022 0062 78000000 		e_b AEK_POW_BMS63EN_SPIWriteRegister
 2023              	.LVL231:
 2024              		.cfi_endproc
 2025              	.LFE27:
 2026              		.size	AEK_POW_BMS63EN_SetVCellUVThreshold, .-AEK_POW_BMS63EN_SetVCellUVThreshold
 2027              		.section	.text.AEK_POW_BMS63EN_GetVTREFVoltMeasurement,"axv",@progbits
 2028              		.align 1
 2029              		.p2align 4,,15
 2030              		.globl AEK_POW_BMS63EN_GetVTREFVoltMeasurement
 2031              		.type	AEK_POW_BMS63EN_GetVTREFVoltMeasurement, @function
 2032              	AEK_POW_BMS63EN_GetVTREFVoltMeasurement:
 2033              	.LFB28:
 2034              		.loc 1 871 0
 2035              		.cfi_startproc
 2036              	.LVL232:
 2037 0000 182106F0 		e_stwu %r1,-16(%r1)
 2038              	.LCFI64:
 2039              		.cfi_def_cfa_offset 16
 2040 0004 0080     		se_mflr %r0
 2041 0006 1BC10908 		e_stmw %r30,8(%r1)
 2042 000a D501     		se_stw %r0,20(%r1)
 2043              		.cfi_offset 65, 4
 2044              		.cfi_offset 30, -8
 2045              		.cfi_offset 31, -4
 2046              		.loc 1 871 0
 2047 000c 013E     		se_mr %r30,%r3
 2048              		.loc 1 876 0
 2049 000e 0134     		se_mr %r4,%r3
 2050 0010 4CC5     		se_li %r5,76
 2051 0012 73E0E000 		e_lis %r31,AEK_POW_BMS63EN_Drv@ha
 2052 0016 1FFF0000 		e_la %r31,AEK_POW_BMS63EN_Drv@l(%r31)
GAS LISTING C:\Users\Vipuls\AppData\Local\Temp\ccRPm3ys.s 			page 37


 2053 001a 01F3     		se_mr %r3,%r31
 2054              	.LVL233:
 2055 001c 78000001 		e_bl AEK_POW_BMS63EN_SPIReadRegister
 2056              	.LVL234:
 2057              		.loc 1 877 0
 2058 0020 01E4     		se_mr %r4,%r30
 2059 0022 4CC5     		se_li %r5,76
 2060 0024 01F3     		se_mr %r3,%r31
 2061 0026 78000001 		e_bl AEK_POW_BMS63EN_SPIReadRegister
 2062              	.LVL235:
 2063              		.loc 1 879 0
 2064 002a 00E3     		se_extzh %r3
 2065              	.LVL236:
 2066 002c 78000001 		e_bl __floatunsisf
 2067              	.LVL237:
 2068 0030 7088E2B2 		e_lis %r4,0x42b2
 2069 0034 78000001 		e_bl __mulsf3
 2070              	.LVL238:
 2071 0038 7089E174 		e_lis %r4,0x4974
 2072 003c 1884D124 		e_ori %r4,%r4,9216
 2073 0040 78000001 		e_bl __divsf3
 2074              	.LVL239:
 2075              		.loc 1 880 0
 2076 0044 C501     		se_lwz %r0,20(%r1)
 2077 0046 0090     		se_mtlr %r0
 2078              		.cfi_restore 65
 2079 0048 1BC10808 		e_lmw %r30,8(%r1)
 2080              	.LVL240:
 2081 004c 20F1     		se_addi %r1,16
 2082              	.LCFI65:
 2083              		.cfi_restore 31
 2084              		.cfi_restore 30
 2085              		.cfi_def_cfa_offset 0
 2086 004e 0004     		se_blr
 2087              		.cfi_endproc
 2088              	.LFE28:
 2089              		.size	AEK_POW_BMS63EN_GetVTREFVoltMeasurement, .-AEK_POW_BMS63EN_GetVTREFVoltMeasurement
 2090              		.section	.text.AEK_POW_BMS63EN_SetVTREFAlwaysEnabled,"axv",@progbits
 2091              		.align 1
 2092              		.p2align 4,,15
 2093              		.globl AEK_POW_BMS63EN_SetVTREFAlwaysEnabled
 2094              		.type	AEK_POW_BMS63EN_SetVTREFAlwaysEnabled, @function
 2095              	AEK_POW_BMS63EN_SetVTREFAlwaysEnabled:
 2096              	.LFB29:
 2097              		.loc 1 887 0
 2098              		.cfi_startproc
 2099              	.LVL241:
 2100 0000 182106F0 		e_stwu %r1,-16(%r1)
 2101              	.LCFI66:
 2102              		.cfi_def_cfa_offset 16
 2103 0004 0080     		se_mflr %r0
 2104 0006 1BC10908 		e_stmw %r30,8(%r1)
 2105 000a D501     		se_stw %r0,20(%r1)
 2106              		.cfi_offset 65, 4
 2107              		.cfi_offset 30, -8
 2108              		.cfi_offset 31, -4
 2109              		.loc 1 887 0
GAS LISTING C:\Users\Vipuls\AppData\Local\Temp\ccRPm3ys.s 			page 38


 2110 000c 013E     		se_mr %r30,%r3
 2111              		.loc 1 891 0
 2112 000e 0134     		se_mr %r4,%r3
 2113 0010 48F5     		se_li %r5,15
 2114 0012 73E0E000 		e_lis %r31,AEK_POW_BMS63EN_Drv@ha
 2115 0016 1FFF0000 		e_la %r31,AEK_POW_BMS63EN_Drv@l(%r31)
 2116 001a 01F3     		se_mr %r3,%r31
 2117              	.LVL242:
 2118 001c 78000001 		e_bl AEK_POW_BMS63EN_SPIReadRegister
 2119              	.LVL243:
 2120              		.loc 1 892 0
 2121 0020 01E4     		se_mr %r4,%r30
 2122 0022 01F3     		se_mr %r3,%r31
 2123 0024 48F5     		se_li %r5,15
 2124 0026 78000001 		e_bl AEK_POW_BMS63EN_SPIReadRegister
 2125              	.LVL244:
 2126              		.loc 1 899 0
 2127 002a 01E4     		se_mr %r4,%r30
 2128              		.loc 1 895 0
 2129 002c 1866C6FC 		e_andi %r6,%r3,-196609
 2130              	.LVL245:
 2131              		.loc 1 899 0
 2132 0030 48F5     		se_li %r5,15
 2133 0032 01F3     		se_mr %r3,%r31
 2134 0034 64E6     		se_bseti %r6,14
 2135              	.LVL246:
 2136 0036 78000001 		e_bl AEK_POW_BMS63EN_SPIWriteRegister
 2137              	.LVL247:
 2138              		.loc 1 901 0
 2139 003a 01E4     		se_mr %r4,%r30
 2140 003c 01F3     		se_mr %r3,%r31
 2141 003e 48F5     		se_li %r5,15
 2142 0040 78000001 		e_bl AEK_POW_BMS63EN_SPIReadRegister
 2143              	.LVL248:
 2144              		.loc 1 903 0
 2145 0044 C501     		se_lwz %r0,20(%r1)
 2146              		.loc 1 902 0
 2147 0046 01F3     		se_mr %r3,%r31
 2148 0048 01E4     		se_mr %r4,%r30
 2149 004a 48F5     		se_li %r5,15
 2150              		.loc 1 903 0
 2151 004c 1BC10808 		e_lmw %r30,8(%r1)
 2152              	.LVL249:
 2153 0050 0090     		se_mtlr %r0
 2154              		.cfi_restore 65
 2155 0052 20F1     		se_addi %r1,16
 2156              	.LCFI67:
 2157              		.cfi_restore 31
 2158              		.cfi_restore 30
 2159              		.cfi_def_cfa_offset 0
 2160              		.loc 1 902 0
 2161 0054 78000000 		e_b AEK_POW_BMS63EN_SPIReadRegister
 2162              	.LVL250:
 2163              		.cfi_endproc
 2164              	.LFE29:
 2165              		.size	AEK_POW_BMS63EN_SetVTREFAlwaysEnabled, .-AEK_POW_BMS63EN_SetVTREFAlwaysEnabled
 2166              		.section	.text.AEK_POW_BMS63EN_SetVTREFEnabled,"axv",@progbits
GAS LISTING C:\Users\Vipuls\AppData\Local\Temp\ccRPm3ys.s 			page 39


 2167              		.align 1
 2168              		.p2align 4,,15
 2169              		.globl AEK_POW_BMS63EN_SetVTREFEnabled
 2170              		.type	AEK_POW_BMS63EN_SetVTREFEnabled, @function
 2171              	AEK_POW_BMS63EN_SetVTREFEnabled:
 2172              	.LFB30:
 2173              		.loc 1 909 0
 2174              		.cfi_startproc
 2175              	.LVL251:
 2176 0000 182106F0 		e_stwu %r1,-16(%r1)
 2177              	.LCFI68:
 2178              		.cfi_def_cfa_offset 16
 2179 0004 0080     		se_mflr %r0
 2180 0006 1BC10908 		e_stmw %r30,8(%r1)
 2181 000a D501     		se_stw %r0,20(%r1)
 2182              		.cfi_offset 65, 4
 2183              		.cfi_offset 30, -8
 2184              		.cfi_offset 31, -4
 2185              		.loc 1 909 0
 2186 000c 013E     		se_mr %r30,%r3
 2187              		.loc 1 913 0
 2188 000e 0134     		se_mr %r4,%r3
 2189 0010 48F5     		se_li %r5,15
 2190 0012 73E0E000 		e_lis %r31,AEK_POW_BMS63EN_Drv@ha
 2191 0016 1FFF0000 		e_la %r31,AEK_POW_BMS63EN_Drv@l(%r31)
 2192 001a 01F3     		se_mr %r3,%r31
 2193              	.LVL252:
 2194 001c 78000001 		e_bl AEK_POW_BMS63EN_SPIReadRegister
 2195              	.LVL253:
 2196              		.loc 1 914 0
 2197 0020 01E4     		se_mr %r4,%r30
 2198 0022 01F3     		se_mr %r3,%r31
 2199 0024 48F5     		se_li %r5,15
 2200 0026 78000001 		e_bl AEK_POW_BMS63EN_SPIReadRegister
 2201              	.LVL254:
 2202              		.loc 1 922 0
 2203 002a 01E4     		se_mr %r4,%r30
 2204              		.loc 1 920 0
 2205 002c 1866D203 		e_ori %r6,%r3,196608
 2206              	.LVL255:
 2207              		.loc 1 922 0
 2208 0030 48F5     		se_li %r5,15
 2209 0032 01F3     		se_mr %r3,%r31
 2210 0034 78000001 		e_bl AEK_POW_BMS63EN_SPIWriteRegister
 2211              	.LVL256:
 2212              		.loc 1 924 0
 2213 0038 01E4     		se_mr %r4,%r30
 2214 003a 01F3     		se_mr %r3,%r31
 2215 003c 48F5     		se_li %r5,15
 2216 003e 78000001 		e_bl AEK_POW_BMS63EN_SPIReadRegister
 2217              	.LVL257:
 2218              		.loc 1 926 0
 2219 0042 C501     		se_lwz %r0,20(%r1)
 2220              		.loc 1 925 0
 2221 0044 01F3     		se_mr %r3,%r31
 2222 0046 01E4     		se_mr %r4,%r30
 2223 0048 48F5     		se_li %r5,15
GAS LISTING C:\Users\Vipuls\AppData\Local\Temp\ccRPm3ys.s 			page 40


 2224              		.loc 1 926 0
 2225 004a 1BC10808 		e_lmw %r30,8(%r1)
 2226              	.LVL258:
 2227 004e 0090     		se_mtlr %r0
 2228              		.cfi_restore 65
 2229 0050 20F1     		se_addi %r1,16
 2230              	.LCFI69:
 2231              		.cfi_restore 31
 2232              		.cfi_restore 30
 2233              		.cfi_def_cfa_offset 0
 2234              		.loc 1 925 0
 2235 0052 78000000 		e_b AEK_POW_BMS63EN_SPIReadRegister
 2236              	.LVL259:
 2237              		.cfi_endproc
 2238              	.LFE30:
 2239              		.size	AEK_POW_BMS63EN_SetVTREFEnabled, .-AEK_POW_BMS63EN_SetVTREFEnabled
 2240              		.section	.text.AEK_POW_BMS63EN_SetVTREFDisabled,"axv",@progbits
 2241              		.align 1
 2242              		.p2align 4,,15
 2243              		.globl AEK_POW_BMS63EN_SetVTREFDisabled
 2244              		.type	AEK_POW_BMS63EN_SetVTREFDisabled, @function
 2245              	AEK_POW_BMS63EN_SetVTREFDisabled:
 2246              	.LFB31:
 2247              		.loc 1 932 0
 2248              		.cfi_startproc
 2249              	.LVL260:
 2250 0000 182106F0 		e_stwu %r1,-16(%r1)
 2251              	.LCFI70:
 2252              		.cfi_def_cfa_offset 16
 2253 0004 0080     		se_mflr %r0
 2254 0006 1BC10908 		e_stmw %r30,8(%r1)
 2255 000a D501     		se_stw %r0,20(%r1)
 2256              		.cfi_offset 65, 4
 2257              		.cfi_offset 30, -8
 2258              		.cfi_offset 31, -4
 2259              		.loc 1 932 0
 2260 000c 013E     		se_mr %r30,%r3
 2261              		.loc 1 936 0
 2262 000e 4814     		se_li %r4,1
 2263 0010 48F5     		se_li %r5,15
 2264 0012 73E0E000 		e_lis %r31,AEK_POW_BMS63EN_Drv@ha
 2265 0016 1FFF0000 		e_la %r31,AEK_POW_BMS63EN_Drv@l(%r31)
 2266 001a 01F3     		se_mr %r3,%r31
 2267              	.LVL261:
 2268 001c 78000001 		e_bl AEK_POW_BMS63EN_SPIReadRegister
 2269              	.LVL262:
 2270              		.loc 1 937 0
 2271 0020 01F3     		se_mr %r3,%r31
 2272 0022 4814     		se_li %r4,1
 2273 0024 48F5     		se_li %r5,15
 2274 0026 78000001 		e_bl AEK_POW_BMS63EN_SPIReadRegister
 2275              	.LVL263:
 2276              		.loc 1 944 0
 2277 002a C501     		se_lwz %r0,20(%r1)
 2278              		.loc 1 942 0
 2279 002c 01E4     		se_mr %r4,%r30
 2280              		.loc 1 940 0
GAS LISTING C:\Users\Vipuls\AppData\Local\Temp\ccRPm3ys.s 			page 41


 2281 002e 1866C6FC 		e_andi %r6,%r3,-196609
 2282              	.LVL264:
 2283              		.loc 1 942 0
 2284 0032 48F5     		se_li %r5,15
 2285 0034 01F3     		se_mr %r3,%r31
 2286              		.loc 1 944 0
 2287 0036 0090     		se_mtlr %r0
 2288              		.cfi_restore 65
 2289 0038 1BC10808 		e_lmw %r30,8(%r1)
 2290              	.LVL265:
 2291 003c 20F1     		se_addi %r1,16
 2292              	.LCFI71:
 2293              		.cfi_restore 31
 2294              		.cfi_restore 30
 2295              		.cfi_def_cfa_offset 0
 2296              		.loc 1 942 0
 2297 003e 78000000 		e_b AEK_POW_BMS63EN_SPIWriteRegister
 2298              	.LVL266:
 2299              		.cfi_endproc
 2300              	.LFE31:
 2301              		.size	AEK_POW_BMS63EN_SetVTREFDisabled, .-AEK_POW_BMS63EN_SetVTREFDisabled
 2302              		.section	.text.AEK_POW_BMS63EN_StartUpWKUP,"axv",@progbits
 2303              		.align 1
 2304              		.p2align 4,,15
 2305              		.globl AEK_POW_BMS63EN_StartUpWKUP
 2306              		.type	AEK_POW_BMS63EN_StartUpWKUP, @function
 2307              	AEK_POW_BMS63EN_StartUpWKUP:
 2308              	.LFB10:
 2309              		.loc 1 385 0
 2310              		.cfi_startproc
 2311              	.LVL267:
 2312 0000 182106E8 		e_stwu %r1,-24(%r1)
 2313              	.LCFI72:
 2314              		.cfi_def_cfa_offset 24
 2315 0004 0080     		se_mflr %r0
 2316 0006 1B810908 		e_stmw %r28,8(%r1)
 2317 000a D701     		se_stw %r0,28(%r1)
 2318              		.cfi_offset 65, 4
 2319              		.cfi_offset 28, -16
 2320              		.cfi_offset 29, -12
 2321              		.cfi_offset 30, -8
 2322              		.cfi_offset 31, -4
 2323              		.loc 1 391 0
 2324 000c 4824     		se_li %r4,2
 2325 000e 4815     		se_li %r5,1
 2326 0010 73E0E000 		e_lis %r31,AEK_POW_BMS63EN_Drv@ha
 2327              		.loc 1 387 0
 2328 0014 481D     		se_li %r29,1
 2329              		.loc 1 391 0
 2330 0016 1FFF0000 		e_la %r31,AEK_POW_BMS63EN_Drv@l(%r31)
 2331              		.loc 1 412 0
 2332 001a 4D4C     		se_li %r28,84
 2333              		.loc 1 391 0
 2334 001c 01F3     		se_mr %r3,%r31
 2335 001e 78000001 		e_bl AEK_POW_BMS63EN_SPIReadRegister
 2336              	.LVL268:
 2337              		.loc 1 392 0
GAS LISTING C:\Users\Vipuls\AppData\Local\Temp\ccRPm3ys.s 			page 42


 2338 0022 4824     		se_li %r4,2
 2339 0024 4815     		se_li %r5,1
 2340 0026 01F3     		se_mr %r3,%r31
 2341 0028 78000001 		e_bl AEK_POW_BMS63EN_SPIReadRegister
 2342              	.LVL269:
 2343              		.loc 1 393 0
 2344 002c 4833     		se_li %r3,3
 2345 002e 78000001 		e_bl osalThreadDelayMilliseconds
 2346              	.LVL270:
 2347              	.L68:
 2348              		.loc 1 409 0
 2349 0032 01F3     		se_mr %r3,%r31
 2350              		.loc 1 404 0
 2351 0034 7FA56870 		e_slwi %r5,%r29,13
 2352              	.LVL271:
 2353              		.loc 1 409 0
 2354 0038 4814     		se_li %r4,1
 2355 003a 70A2C008 		e_or2i %r5,4104
 2356              		.loc 1 412 0
 2357 003e 01DE     		se_mr %r30,%r29
 2358              		.loc 1 409 0
 2359 0040 78000001 		e_bl AEK_POW_BMS63EN_SPIBroadcastAccess
 2360              	.LVL272:
 2361              		.loc 1 412 0
 2362 0044 C26F     		se_lwz %r6,8(%r31)
 2363 0046 7CFDE1D6 		mullw %r7,%r29,%r28
 2364              		.loc 1 413 0
 2365 004a 01D3     		se_mr %r3,%r29
 2366              		.loc 1 412 0
 2367 004c 7CE63A14 		add %r7,%r6,%r7
 2368 0050 50E7FFFC 		e_lwz %r7,-4(%r7)
 2369 0054 2217     		se_cmpli %r7,2
 2370 0056 7A120098 		e_beq %cr0,.L79
 2371              	.LVL273:
 2372              	.L69:
 2373              		.loc 1 415 0
 2374 005a 2207     		se_cmpli %r7,1
 2375 005c 7A12009A 		e_beq %cr0,.L80
 2376              		.loc 1 419 0
 2377 0060 78000001 		e_bl AEK_POW_BMS63EN_SetVTREFDisabled
 2378              	.LVL274:
 2379              	.L70:
 2380              		.loc 1 424 0
 2381 0064 01E4     		se_mr %r4,%r30
 2382 0066 4825     		se_li %r5,2
 2383 0068 01F3     		se_mr %r3,%r31
 2384 006a 78000001 		e_bl AEK_POW_BMS63EN_SPIReadRegister
 2385              	.LVL275:
 2386              		.loc 1 425 0
 2387 006e 4825     		se_li %r5,2
 2388 0070 01F3     		se_mr %r3,%r31
 2389 0072 01E4     		se_mr %r4,%r30
 2390 0074 78000001 		e_bl AEK_POW_BMS63EN_SPIReadRegister
 2391              	.LVL276:
 2392              		.loc 1 426 0
 2393 0078 C27F     		se_lwz %r7,8(%r31)
 2394              		.loc 1 427 0
GAS LISTING C:\Users\Vipuls\AppData\Local\Temp\ccRPm3ys.s 			page 43


 2395 007a 1866D203 		e_ori %r6,%r3,196608
 2396              		.loc 1 426 0
 2397 007e 50A7004C 		e_lwz %r5,76(%r7)
 2398 0082 2215     		se_cmpli %r5,2
 2399 0084 7A120012 		e_beq %cr0,.L73
 2400              		.loc 1 430 0
 2401 0088 1866D202 		e_ori %r6,%r3,131072
 2402 008c 1867D6FC 		e_ori %r7,%r3,-196609
 2403 0090 2205     		se_cmpli %r5,1
 2404 0092 7CC6389E 		isel %r6,%r6,%r7,2
 2405              	.L73:
 2406              	.LVL277:
 2407              		.loc 1 436 0
 2408 0096 01F3     		se_mr %r3,%r31
 2409 0098 01E4     		se_mr %r4,%r30
 2410 009a 4825     		se_li %r5,2
 2411 009c 78000001 		e_bl AEK_POW_BMS63EN_SPIWriteRegister
 2412              	.LVL278:
 2413              		.loc 1 439 0
 2414 00a0 01E4     		se_mr %r4,%r30
 2415 00a2 4815     		se_li %r5,1
 2416 00a4 01F3     		se_mr %r3,%r31
 2417 00a6 78000001 		e_bl AEK_POW_BMS63EN_SPIReadRegister
 2418              	.LVL279:
 2419              		.loc 1 440 0
 2420 00aa 01F3     		se_mr %r3,%r31
 2421 00ac 01E4     		se_mr %r4,%r30
 2422 00ae 4815     		se_li %r5,1
 2423 00b0 78000001 		e_bl AEK_POW_BMS63EN_SPIReadRegister
 2424              	.LVL280:
 2425              		.loc 1 441 0
 2426 00b4 74639EFF 		e_rlwinm %r3,%r3,19,27,31
 2427              	.LVL281:
 2428 00b8 0D3E     		se_cmpl %r30,%r3
 2429 00ba 7A02FF78 		e_bne %cr0,.L68
 2430              	.LVL282:
 2431              		.loc 1 445 0 discriminator 1
 2432 00be 220D     		se_cmpli %r29,1
 2433 00c0 7A02003E 		e_bne %cr0,.L81
 2434 00c4 482D     		se_li %r29,2
 2435              	.LVL283:
 2436              		.loc 1 409 0
 2437 00c6 01F3     		se_mr %r3,%r31
 2438              		.loc 1 404 0
 2439 00c8 7FA56870 		e_slwi %r5,%r29,13
 2440              	.LVL284:
 2441              		.loc 1 409 0
 2442 00cc 4814     		se_li %r4,1
 2443 00ce 70A2C008 		e_or2i %r5,4104
 2444              		.loc 1 412 0
 2445 00d2 01DE     		se_mr %r30,%r29
 2446              		.loc 1 409 0
 2447 00d4 78000001 		e_bl AEK_POW_BMS63EN_SPIBroadcastAccess
 2448              	.LVL285:
 2449              		.loc 1 412 0
 2450 00d8 C26F     		se_lwz %r6,8(%r31)
 2451 00da 7CFDE1D6 		mullw %r7,%r29,%r28
GAS LISTING C:\Users\Vipuls\AppData\Local\Temp\ccRPm3ys.s 			page 44


 2452              		.loc 1 413 0
 2453 00de 01D3     		se_mr %r3,%r29
 2454              		.loc 1 412 0
 2455 00e0 7CE63A14 		add %r7,%r6,%r7
 2456 00e4 50E7FFFC 		e_lwz %r7,-4(%r7)
 2457 00e8 2217     		se_cmpli %r7,2
 2458 00ea 7A02FF70 		e_bne %cr0,.L69
 2459              	.LVL286:
 2460              	.L79:
 2461              		.loc 1 413 0
 2462 00ee 78000001 		e_bl AEK_POW_BMS63EN_SetVTREFAlwaysEnabled
 2463              	.LVL287:
 2464 00f2 79FFFF72 		e_b .L70
 2465              	.L80:
 2466              		.loc 1 416 0
 2467 00f6 78000001 		e_bl AEK_POW_BMS63EN_SetVTREFEnabled
 2468              	.LVL288:
 2469 00fa 79FFFF6A 		e_b .L70
 2470              	.LVL289:
 2471              	.L81:
 2472              		.loc 1 450 0
 2473 00fe 01F3     		se_mr %r3,%r31
 2474 0100 4814     		se_li %r4,1
 2475 0102 4815     		se_li %r5,1
 2476 0104 78000001 		e_bl AEK_POW_BMS63EN_SPIReadRegister
 2477              	.LVL290:
 2478              		.loc 1 451 0
 2479 0108 01F3     		se_mr %r3,%r31
 2480 010a 4814     		se_li %r4,1
 2481 010c 4815     		se_li %r5,1
 2482 010e 78000001 		e_bl AEK_POW_BMS63EN_SPIReadRegister
 2483              	.LVL291:
 2484              		.loc 1 453 0
 2485 0112 C26F     		se_lwz %r6,8(%r31)
 2486              		.loc 1 451 0
 2487 0114 0137     		se_mr %r7,%r3
 2488              	.LVL292:
 2489              		.loc 1 453 0
 2490 0116 50C60048 		e_lwz %r6,72(%r6)
 2491              		.loc 1 459 0
 2492 011a 01F3     		se_mr %r3,%r31
 2493              	.LVL293:
 2494              		.loc 1 454 0
 2495 011c 2206     		se_cmpli %r6,1
 2496 011e 18E5D10F 		e_ori %r5,%r7,3840
 2497              		.loc 1 459 0
 2498 0122 4814     		se_li %r4,1
 2499              		.loc 1 454 0
 2500 0124 18E7D5FC 		e_ori %r7,%r7,-769
 2501              	.LVL294:
 2502              		.loc 1 459 0
 2503 0128 7CA5389E 		isel %r5,%r5,%r7,2
 2504              	.LVL295:
 2505 012c 78000001 		e_bl AEK_POW_BMS63EN_SPIBroadcastAccess
 2506              	.LVL296:
 2507              		.loc 1 464 0
 2508 0130 01F3     		se_mr %r3,%r31
GAS LISTING C:\Users\Vipuls\AppData\Local\Temp\ccRPm3ys.s 			page 45


 2509 0132 4824     		se_li %r4,2
 2510 0134 4815     		se_li %r5,1
 2511 0136 78000001 		e_bl AEK_POW_BMS63EN_SPIReadRegister
 2512              	.LVL297:
 2513              		.loc 1 465 0
 2514 013a 01F3     		se_mr %r3,%r31
 2515 013c 4824     		se_li %r4,2
 2516 013e 4815     		se_li %r5,1
 2517 0140 78000001 		e_bl AEK_POW_BMS63EN_SPIReadRegister
 2518              	.LVL298:
 2519              		.loc 1 470 0
 2520 0144 4824     		se_li %r4,2
 2521              		.loc 1 468 0
 2522 0146 1866C5EF 		e_andi %r6,%r3,-4097
 2523              	.LVL299:
 2524              		.loc 1 470 0
 2525 014a 4815     		se_li %r5,1
 2526 014c 01F3     		se_mr %r3,%r31
 2527 014e 65E6     		se_bseti %r6,30
 2528              	.LVL300:
 2529 0150 78000001 		e_bl AEK_POW_BMS63EN_SPIWriteRegister
 2530              	.LVL301:
 2531              		.loc 1 474 0
 2532 0154 01F3     		se_mr %r3,%r31
 2533 0156 4814     		se_li %r4,1
 2534 0158 4855     		se_li %r5,5
 2535 015a 78000001 		e_bl AEK_POW_BMS63EN_SPIReadRegister
 2536              	.LVL302:
 2537              		.loc 1 475 0
 2538 015e 01F3     		se_mr %r3,%r31
 2539 0160 4814     		se_li %r4,1
 2540 0162 4855     		se_li %r5,5
 2541 0164 78000001 		e_bl AEK_POW_BMS63EN_SPIReadRegister
 2542              	.LVL303:
 2543              		.loc 1 478 0
 2544 0168 C701     		se_lwz %r0,28(%r1)
 2545              		.loc 1 476 0
 2546 016a 1865D180 		e_ori %r5,%r3,32768
 2547              	.LVL304:
 2548              		.loc 1 477 0
 2549 016e 4854     		se_li %r4,5
 2550 0170 01F3     		se_mr %r3,%r31
 2551              		.loc 1 478 0
 2552 0172 0090     		se_mtlr %r0
 2553              		.cfi_restore 65
 2554 0174 1B810808 		e_lmw %r28,8(%r1)
 2555              	.LVL305:
 2556 0178 2171     		se_addi %r1,24
 2557              	.LCFI73:
 2558              		.cfi_restore 31
 2559              		.cfi_restore 30
 2560              		.cfi_restore 29
 2561              		.cfi_restore 28
 2562              		.cfi_def_cfa_offset 0
 2563              		.loc 1 477 0
 2564 017a 78000000 		e_b AEK_POW_BMS63EN_SPIBroadcastAccess
 2565              	.LVL306:
GAS LISTING C:\Users\Vipuls\AppData\Local\Temp\ccRPm3ys.s 			page 46


 2566              		.cfi_endproc
 2567              	.LFE10:
 2568              		.size	AEK_POW_BMS63EN_StartUpWKUP, .-AEK_POW_BMS63EN_StartUpWKUP
 2569              		.section	.text.AEK_POW_BMS63EN_StartManualConversion,"axv",@progbits
 2570              		.align 1
 2571              		.p2align 4,,15
 2572              		.globl AEK_POW_BMS63EN_StartManualConversion
 2573              		.type	AEK_POW_BMS63EN_StartManualConversion, @function
 2574              	AEK_POW_BMS63EN_StartManualConversion:
 2575              	.LFB32:
 2576              		.loc 1 950 0
 2577              		.cfi_startproc
 2578              	.LVL307:
 2579 0000 182106D8 		e_stwu %r1,-40(%r1)
 2580              	.LCFI74:
 2581              		.cfi_def_cfa_offset 40
 2582 0004 0080     		se_mflr %r0
 2583 0006 1B410910 		e_stmw %r26,16(%r1)
 2584              		.loc 1 954 0
 2585 000a 55010008 		e_stw %r8,8(%r1)
 2586 000e 5521000C 		e_stw %r9,12(%r1)
 2587              		.loc 1 950 0
 2588 0012 DB01     		se_stw %r0,44(%r1)
 2589              		.cfi_offset 65, 4
 2590              		.cfi_offset 26, -24
 2591              		.cfi_offset 27, -20
 2592              		.cfi_offset 28, -16
 2593              		.cfi_offset 29, -12
 2594              		.cfi_offset 30, -8
 2595              		.cfi_offset 31, -4
 2596              		.loc 1 950 0
 2597 0014 013E     		se_mr %r30,%r3
 2598 0016 016C     		se_mr %r28,%r6
 2599 0018 017D     		se_mr %r29,%r7
 2600 001a 014A     		se_mr %r26,%r4
 2601 001c 015B     		se_mr %r27,%r5
 2602              		.loc 1 954 0
 2603 001e 0134     		se_mr %r4,%r3
 2604              	.LVL308:
 2605 0020 48D5     		se_li %r5,13
 2606              	.LVL309:
 2607 0022 73E0E000 		e_lis %r31,AEK_POW_BMS63EN_Drv@ha
 2608 0026 1FFF0000 		e_la %r31,AEK_POW_BMS63EN_Drv@l(%r31)
 2609 002a 01F3     		se_mr %r3,%r31
 2610              	.LVL310:
 2611 002c 78000001 		e_bl AEK_POW_BMS63EN_SPIReadRegister
 2612              	.LVL311:
 2613              		.loc 1 955 0
 2614 0030 01F3     		se_mr %r3,%r31
 2615 0032 01E4     		se_mr %r4,%r30
 2616 0034 48D5     		se_li %r5,13
 2617 0036 78000001 		e_bl AEK_POW_BMS63EN_SPIReadRegister
 2618              	.LVL312:
 2619              		.loc 1 957 0
 2620 003a 51010008 		e_lwz %r8,8(%r1)
 2621 003e 6733     		se_btsti %r3,19
 2622 0040 5121000C 		e_lwz %r9,12(%r1)
GAS LISTING C:\Users\Vipuls\AppData\Local\Temp\ccRPm3ys.s 			page 47


 2623 0044 7A12000C 		e_beq %cr0,.L83
 2624              		.loc 1 958 0 discriminator 1
 2625 0048 4800     		se_li %r0,0
 2626              		.loc 1 957 0 discriminator 1
 2627 004a 6703     		se_btsti %r3,16
 2628 004c 7A0200B2 		e_bne %cr0,.L84
 2629              	.L83:
 2630              	.LVL313:
 2631              		.loc 1 963 0
 2632 0050 1860D181 		e_ori %r0,%r3,33024
 2633              		.loc 1 962 0
 2634 0054 220A     		se_cmpli %r26,1
 2635 0056 7A12000E 		e_beq %cr0,.L86
 2636              		.loc 1 961 0
 2637 005a 1860D180 		e_ori %r0,%r3,32768
 2638              	.LVL314:
 2639              		.loc 1 964 0
 2640 005e 2A0A     		se_cmpi %r26,0
 2641 0060 7A1200AE 		e_beq %cr0,.L102
 2642              	.LVL315:
 2643              	.L86:
 2644              		.loc 1 968 0
 2645 0064 222B     		se_cmpli %r27,3
 2646 0066 7A1200B4 		e_beq %cr0,.L103
 2647              	.L88:
 2648              		.loc 1 971 0
 2649 006a 221B     		se_cmpli %r27,2
 2650 006c 1807C47F 		e_andi %r7,%r0,-129
 2651 0070 7C07009E 		isel %r0,%r7,%r0,2
 2652              	.LVL316:
 2653              		.loc 1 974 0
 2654 0074 224C     		se_cmpli %r28,5
 2655 0076 7A1200AC 		e_beq %cr0,.L104
 2656              	.L90:
 2657              		.loc 1 977 0
 2658 007a 223C     		se_cmpli %r28,4
 2659 007c 1807C4BF 		e_andi %r7,%r0,-65
 2660 0080 7C07009E 		isel %r0,%r7,%r0,2
 2661              	.LVL317:
 2662              		.loc 1 980 0
 2663 0084 226D     		se_cmpli %r29,7
 2664 0086 7A1200A4 		e_beq %cr0,.L105
 2665              	.L92:
 2666              		.loc 1 983 0
 2667 008a 225D     		se_cmpli %r29,6
 2668 008c 1807C4DF 		e_andi %r7,%r0,-33
 2669 0090 7C07009E 		isel %r0,%r7,%r0,2
 2670              	.LVL318:
 2671              		.loc 1 986 0
 2672 0094 7008A809 		e_cmpl16i %r8,9
 2673 0098 7A12009C 		e_beq %cr0,.L106
 2674              	.L94:
 2675              		.loc 1 989 0
 2676 009c 7008A808 		e_cmpl16i %r8,8
 2677 00a0 1807C4EF 		e_andi %r7,%r0,-17
 2678 00a4 7C07009E 		isel %r0,%r7,%r0,2
 2679              	.LVL319:
GAS LISTING C:\Users\Vipuls\AppData\Local\Temp\ccRPm3ys.s 			page 48


 2680              		.loc 1 992 0
 2681 00a8 7009A80B 		e_cmpl16i %r9,11
 2682 00ac 7A120092 		e_beq %cr0,.L107
 2683              	.L96:
 2684              		.loc 1 995 0
 2685 00b0 1807C6FD 		e_andi %r7,%r0,-131073
 2686 00b4 7009A80A 		e_cmpl16i %r9,10
 2687 00b8 7C07009E 		isel %r0,%r7,%r0,2
 2688              	.LVL320:
 2689              	.L97:
 2690              		.loc 1 999 0
 2691 00bc 1806C5DF 		e_andi %r6,%r0,-8193
 2692 00c0 6710     		se_btsti %r0,17
 2693              	.LVL321:
 2694              		.loc 1 1002 0
 2695 00c2 73E0E000 		e_lis %r31,AEK_POW_BMS63EN_Drv@ha
 2696 00c6 01E4     		se_mr %r4,%r30
 2697 00c8 1FFF0000 		e_la %r31,AEK_POW_BMS63EN_Drv@l(%r31)
 2698 00cc 48D5     		se_li %r5,13
 2699 00ce 01F3     		se_mr %r3,%r31
 2700 00d0 7C170378 		mr 23,%r0
 2701 00d4 7CD7309E 		isel %r6,23,%r6,2
 2702              	.LVL322:
 2703 00d8 78000001 		e_bl AEK_POW_BMS63EN_SPIWriteRegister
 2704              	.LVL323:
 2705              	.L99:
 2706              		.loc 1 1005 0 discriminator 1
 2707 00dc 01E4     		se_mr %r4,%r30
 2708 00de 48D5     		se_li %r5,13
 2709 00e0 01F3     		se_mr %r3,%r31
 2710 00e2 78000001 		e_bl AEK_POW_BMS63EN_SPIReadRegister
 2711              	.LVL324:
 2712              		.loc 1 1006 0 discriminator 1
 2713 00e6 01F3     		se_mr %r3,%r31
 2714 00e8 01E4     		se_mr %r4,%r30
 2715 00ea 48D5     		se_li %r5,13
 2716 00ec 78000001 		e_bl AEK_POW_BMS63EN_SPIReadRegister
 2717              	.LVL325:
 2718              		.loc 1 1007 0 discriminator 1
 2719 00f0 6733     		se_btsti %r3,19
 2720 00f2 7A02FFEA 		e_bne %cr0,.L99
 2721              		.loc 1 1010 0
 2722 00f6 746397FF 		e_rlwinm %r3,%r3,18,31,31
 2723              	.LVL326:
 2724              		.loc 1 958 0
 2725 00fa 1860E001 		e_xori %r0,%r3,1
 2726              	.L84:
 2727              		.loc 1 1017 0
 2728 00fe 0103     		se_mr %r3,%r0
 2729 0100 CB01     		se_lwz %r0,44(%r1)
 2730 0102 0090     		se_mtlr %r0
 2731              		.cfi_remember_state
 2732              		.cfi_restore 65
 2733 0104 1B410810 		e_lmw %r26,16(%r1)
 2734              	.LVL327:
 2735 0108 18218028 		e_addi %r1,%r1,40
 2736              	.LCFI75:
GAS LISTING C:\Users\Vipuls\AppData\Local\Temp\ccRPm3ys.s 			page 49


 2737              		.cfi_restore 31
 2738              		.cfi_restore 30
 2739              		.cfi_restore 29
 2740              		.cfi_restore 28
 2741              		.cfi_restore 27
 2742              		.cfi_restore 26
 2743              		.cfi_def_cfa_offset 0
 2744 010c 0004     		se_blr
 2745              	.LVL328:
 2746              	.L102:
 2747              	.LCFI76:
 2748              		.cfi_restore_state
 2749              		.loc 1 965 0
 2750 010e 1860C5FE 		e_andi %r0,%r3,-257
 2751              	.LVL329:
 2752              		.loc 1 968 0
 2753 0112 222B     		se_cmpli %r27,3
 2754              		.loc 1 965 0
 2755 0114 6500     		se_bseti %r0,16
 2756              	.LVL330:
 2757              		.loc 1 968 0
 2758 0116 7A02FF54 		e_bne %cr0,.L88
 2759              	.L103:
 2760              		.loc 1 969 0
 2761 011a 6580     		se_bseti %r0,24
 2762              	.LVL331:
 2763              		.loc 1 974 0
 2764 011c 224C     		se_cmpli %r28,5
 2765 011e 7A02FF5C 		e_bne %cr0,.L90
 2766              	.L104:
 2767              		.loc 1 975 0
 2768 0122 6590     		se_bseti %r0,25
 2769              	.LVL332:
 2770              		.loc 1 980 0
 2771 0124 226D     		se_cmpli %r29,7
 2772 0126 7A02FF64 		e_bne %cr0,.L92
 2773              	.L105:
 2774              		.loc 1 981 0
 2775 012a 65A0     		se_bseti %r0,26
 2776              	.LVL333:
 2777              		.loc 1 986 0
 2778 012c 7008A809 		e_cmpl16i %r8,9
 2779 0130 7A02FF6C 		e_bne %cr0,.L94
 2780              	.L106:
 2781              		.loc 1 987 0
 2782 0134 65B0     		se_bseti %r0,27
 2783              	.LVL334:
 2784              		.loc 1 992 0
 2785 0136 7009A80B 		e_cmpl16i %r9,11
 2786 013a 7A02FF76 		e_bne %cr0,.L96
 2787              	.L107:
 2788              		.loc 1 993 0
 2789 013e 64E0     		se_bseti %r0,14
 2790              	.LVL335:
 2791 0140 79FFFF7C 		e_b .L97
 2792              		.cfi_endproc
 2793              	.LFE32:
GAS LISTING C:\Users\Vipuls\AppData\Local\Temp\ccRPm3ys.s 			page 50


 2794              		.size	AEK_POW_BMS63EN_StartManualConversion, .-AEK_POW_BMS63EN_StartManualConversion
 2795              		.section	.text.AEK_POW_BMS63EN_DisableCell,"axv",@progbits
 2796              		.align 1
 2797              		.p2align 4,,15
 2798              		.globl AEK_POW_BMS63EN_DisableCell
 2799              		.type	AEK_POW_BMS63EN_DisableCell, @function
 2800              	AEK_POW_BMS63EN_DisableCell:
 2801              	.LFB33:
 2802              		.loc 1 1028 0
 2803              		.cfi_startproc
 2804              	.LVL336:
 2805 0000 182106E8 		e_stwu %r1,-24(%r1)
 2806              	.LCFI77:
 2807              		.cfi_def_cfa_offset 24
 2808 0004 0080     		se_mflr %r0
 2809 0006 1B810908 		e_stmw %r28,8(%r1)
 2810 000a D701     		se_stw %r0,28(%r1)
 2811              		.cfi_offset 65, 4
 2812              		.cfi_offset 28, -16
 2813              		.cfi_offset 29, -12
 2814              		.cfi_offset 30, -8
 2815              		.cfi_offset 31, -4
 2816              		.loc 1 1028 0
 2817 000c 014E     		se_mr %r30,%r4
 2818 000e 013F     		se_mr %r31,%r3
 2819              		.loc 1 1033 0
 2820 0010 22D4     		se_cmpli %r4,14
 2821 0012 7A120074 		e_beq %cr0,.L109
 2822              		.loc 1 1034 0
 2823 0016 0134     		se_mr %r4,%r3
 2824              	.LVL337:
 2825 0018 73A0E000 		e_lis %r29,AEK_POW_BMS63EN_Drv@ha
 2826 001c 49C5     		se_li %r5,28
 2827 001e 1F9D0000 		e_la %r28,AEK_POW_BMS63EN_Drv@l(%r29)
 2828 0022 01C3     		se_mr %r3,%r28
 2829              	.LVL338:
 2830 0024 78000001 		e_bl AEK_POW_BMS63EN_SPIReadRegister
 2831              	.LVL339:
 2832              		.loc 1 1035 0
 2833 0028 01F4     		se_mr %r4,%r31
 2834 002a 49C5     		se_li %r5,28
 2835 002c 01C3     		se_mr %r3,%r28
 2836 002e 78000001 		e_bl AEK_POW_BMS63EN_SPIReadRegister
 2837              	.LVL340:
 2838              		.loc 1 1036 0
 2839 0032 50FD0000 		e_lwz %r7,AEK_POW_BMS63EN_Drv@l(%r29)
 2840 0036 7FE42870 		e_slwi %r4,%r31,5
 2841 003a C157     		se_lwz %r5,4(%r7)
 2842              		.loc 1 1035 0
 2843 003c 0136     		se_mr %r6,%r3
 2844              	.LVL341:
 2845              		.loc 1 1036 0
 2846 003e 7FE74070 		e_slwi %r7,%r31,8
 2847 0042 C255     		se_lwz %r5,8(%r5)
 2848 0044 0647     		se_sub %r7, %r4
 2849 0046 7FC42070 		e_slwi %r4,%r30,4
 2850 004a 18E78420 		e_addi %r7,%r7,-224
GAS LISTING C:\Users\Vipuls\AppData\Local\Temp\ccRPm3ys.s 			page 51


 2851 004e 0475     		se_add %r5,%r7
 2852 0050 7CE52214 		add %r7,%r5,%r4
 2853 0054 C157     		se_lwz %r5,4(%r7)
 2854 0056 2A05     		se_cmpi %r5,0
 2855 0058 7A120014 		e_beq %cr0,.L110
 2856              		.loc 1 1037 0
 2857 005c 70BF7FFE 		e_li %r5,-2
 2858 0060 00CE     		se_extzb %r30
 2859              	.LVL342:
 2860 0062 7CBEF230 		e_rlw %r30,%r5,%r30
 2861              		.loc 1 1038 0
 2862 0066 4805     		se_li %r5,0
 2863              		.loc 1 1037 0
 2864 0068 46E6     		se_and %r6,%r30
 2865              	.LVL343:
 2866              		.loc 1 1038 0
 2867 006a D257     		se_stw %r5,8(%r7)
 2868              	.L110:
 2869              		.loc 1 1052 0
 2870 006c C701     		se_lwz %r0,28(%r1)
 2871              		.loc 1 1050 0
 2872 006e 01F4     		se_mr %r4,%r31
 2873 0070 7060E000 		e_lis %r3,AEK_POW_BMS63EN_Drv@ha
 2874              		.loc 1 1052 0
 2875 0074 1B810808 		e_lmw %r28,8(%r1)
 2876              	.LVL344:
 2877              		.loc 1 1050 0
 2878 0078 1C630000 		e_la %r3,AEK_POW_BMS63EN_Drv@l(%r3)
 2879              		.loc 1 1052 0
 2880              		.loc 1 1050 0
 2881 007c 49C5     		se_li %r5,28
 2882              		.loc 1 1052 0
 2883 007e 0090     		se_mtlr %r0
 2884              		.cfi_remember_state
 2885              		.cfi_restore 65
 2886 0080 2171     		se_addi %r1,24
 2887              	.LCFI78:
 2888              		.cfi_restore 31
 2889              		.cfi_restore 30
 2890              		.cfi_restore 29
 2891              		.cfi_restore 28
 2892              		.cfi_def_cfa_offset 0
 2893              		.loc 1 1050 0
 2894 0082 78000000 		e_b AEK_POW_BMS63EN_SPIWriteRegister
 2895              	.LVL345:
 2896              	.L109:
 2897              	.LCFI79:
 2898              		.cfi_restore_state
 2899 0086 70E0E000 		e_lis %r7,AEK_POW_BMS63EN_Drv@ha
 2900 008a 7C662870 		e_slwi %r6,%r3,5
 2901 008e 50A70000 		e_lwz %r5,AEK_POW_BMS63EN_Drv@l(%r7)
 2902 0092 7C674070 		e_slwi %r7,%r3,8
 2903 0096 C155     		se_lwz %r5,4(%r5)
 2904 0098 0776     		se_subf %r6, %r7
 2905 009a C275     		se_lwz %r7,8(%r5)
 2906              		.loc 1 1045 0
 2907 009c 4805     		se_li %r5,0
GAS LISTING C:\Users\Vipuls\AppData\Local\Temp\ccRPm3ys.s 			page 52


 2908 009e 7CC73214 		add %r6,%r7,%r6
 2909 00a2 48E7     		se_li %r7,14
 2910 00a4 18C68424 		e_addi %r6,%r6,-220
 2911 00a8 00B7     		se_mtctr %r7
 2912              	.L112:
 2913              	.LVL346:
 2914              		.loc 1 1043 0
 2915 00aa C076     		se_lwz %r7,0(%r6)
 2916 00ac 2A07     		se_cmpi %r7,0
 2917 00ae 7A120006 		e_beq %cr0,.L111
 2918              		.loc 1 1045 0
 2919 00b2 D156     		se_stw %r5,4(%r6)
 2920              	.L111:
 2921 00b4 20F6     		se_addi %r6,16
 2922              		.loc 1 1042 0 discriminator 2
 2923 00b6 7A20FFF4 		e_bdnz .L112
 2924              		.loc 1 1052 0
 2925 00ba C701     		se_lwz %r0,28(%r1)
 2926              		.loc 1 1050 0
 2927 00bc 01F4     		se_mr %r4,%r31
 2928              	.LVL347:
 2929 00be 7060E000 		e_lis %r3,AEK_POW_BMS63EN_Drv@ha
 2930              	.LVL348:
 2931              		.loc 1 1052 0
 2932 00c2 1B810808 		e_lmw %r28,8(%r1)
 2933              	.LVL349:
 2934 00c6 4806     		se_li %r6,0
 2935              	.LVL350:
 2936              		.loc 1 1050 0
 2937 00c8 1C630000 		e_la %r3,AEK_POW_BMS63EN_Drv@l(%r3)
 2938 00cc 49C5     		se_li %r5,28
 2939              	.LVL351:
 2940              		.loc 1 1052 0
 2941 00ce 0090     		se_mtlr %r0
 2942              		.cfi_restore 65
 2943 00d0 2171     		se_addi %r1,24
 2944              	.LCFI80:
 2945              		.cfi_restore 28
 2946              		.cfi_restore 29
 2947              		.cfi_restore 30
 2948              		.cfi_restore 31
 2949              		.cfi_def_cfa_offset 0
 2950              		.loc 1 1050 0
 2951 00d2 78000000 		e_b AEK_POW_BMS63EN_SPIWriteRegister
 2952              	.LVL352:
 2953              		.cfi_endproc
 2954              	.LFE33:
 2955              		.size	AEK_POW_BMS63EN_DisableCell, .-AEK_POW_BMS63EN_DisableCell
 2956              		.section	.text.AEK_POW_BMS63EN_DisableCellBalancing,"axv",@progbits
 2957              		.align 1
 2958              		.p2align 4,,15
 2959              		.globl AEK_POW_BMS63EN_DisableCellBalancing
 2960              		.type	AEK_POW_BMS63EN_DisableCellBalancing, @function
 2961              	AEK_POW_BMS63EN_DisableCellBalancing:
 2962              	.LFB34:
 2963              		.loc 1 1058 0
 2964              		.cfi_startproc
GAS LISTING C:\Users\Vipuls\AppData\Local\Temp\ccRPm3ys.s 			page 53


 2965              	.LVL353:
 2966 0000 182106E8 		e_stwu %r1,-24(%r1)
 2967              	.LCFI81:
 2968              		.cfi_def_cfa_offset 24
 2969 0004 0080     		se_mflr %r0
 2970 0006 1BA1090C 		e_stmw %r29,12(%r1)
 2971 000a D701     		se_stw %r0,28(%r1)
 2972              		.cfi_offset 65, 4
 2973              		.cfi_offset 29, -12
 2974              		.cfi_offset 30, -8
 2975              		.cfi_offset 31, -4
 2976              		.loc 1 1058 0
 2977 000c 014F     		se_mr %r31,%r4
 2978 000e 013E     		se_mr %r30,%r3
 2979              		.loc 1 1062 0
 2980 0010 22D4     		se_cmpli %r4,14
 2981 0012 7A12013C 		e_beq %cr0,.L137
 2982              		.loc 1 1084 0
 2983 0016 0134     		se_mr %r4,%r3
 2984              	.LVL354:
 2985              		.loc 1 1083 0
 2986 0018 224F     		se_cmpli %r31,5
 2987 001a 7A010040 		e_ble %cr0,.L138
 2988              		.loc 1 1087 0
 2989 001e 4905     		se_li %r5,16
 2990 0020 73A0E000 		e_lis %r29,AEK_POW_BMS63EN_Drv@ha
 2991              		.loc 1 1091 0
 2992 0024 1BFF84FA 		e_addi %r31,%r31,-6
 2993              	.LVL355:
 2994              		.loc 1 1087 0
 2995 0028 1FBD0000 		e_la %r29,AEK_POW_BMS63EN_Drv@l(%r29)
 2996 002c 01D3     		se_mr %r3,%r29
 2997              	.LVL356:
 2998 002e 78000001 		e_bl AEK_POW_BMS63EN_SPIReadRegister
 2999              	.LVL357:
 3000              		.loc 1 1088 0
 3001 0032 01D3     		se_mr %r3,%r29
 3002 0034 01E4     		se_mr %r4,%r30
 3003 0036 4905     		se_li %r5,16
 3004 0038 78000001 		e_bl AEK_POW_BMS63EN_SPIReadRegister
 3005              	.LVL358:
 3006              		.loc 1 1091 0
 3007 003c 226F     		se_cmpli %r31,7
 3008              		.loc 1 1088 0
 3009 003e 0136     		se_mr %r6,%r3
 3010              	.LVL359:
 3011              		.loc 1 1091 0
 3012 0040 7A110050 		e_bgt %cr0,.L124
 3013 0044 6C2F     		se_slwi %r31, 2
 3014              	.LVL360:
 3015 0046 70E0E000 		e_lis %r7,.L126@ha
 3016 004a 1CE70000 		e_la %r7,.L126@l(%r7)
 3017 004e 7CA7F82E 		lwzx %r5,%r7,%r31
 3018 0052 7CE53A14 		add %r7,%r5,%r7
 3019 0056 00B7     		se_mtctr %r7
 3020 0058 0006     		se_bctr
 3021              		.section	.rodata.AEK_POW_BMS63EN_DisableCellBalancing,"a",@progbits
GAS LISTING C:\Users\Vipuls\AppData\Local\Temp\ccRPm3ys.s 			page 54


 3022              		.align 2
 3023              		.align 2
 3024              	.L126:
 3025 0000 00000000 		.long .L125-.L126
 3026 0004 00000000 		.long .L127-.L126
 3027 0008 00000000 		.long .L128-.L126
 3028 000c 00000000 		.long .L129-.L126
 3029 0010 00000000 		.long .L130-.L126
 3030 0014 00000000 		.long .L131-.L126
 3031 0018 00000000 		.long .L132-.L126
 3032 001c 00000000 		.long .L133-.L126
 3033              		.section	.text.AEK_POW_BMS63EN_DisableCellBalancing
 3034              	.LVL361:
 3035              	.L138:
 3036              		.loc 1 1084 0
 3037 005a 4915     		se_li %r5,17
 3038 005c 73A0E000 		e_lis %r29,AEK_POW_BMS63EN_Drv@ha
 3039              		.loc 1 1091 0
 3040 0060 6C2F     		se_slwi %r31, 2
 3041              	.LVL362:
 3042              		.loc 1 1084 0
 3043 0062 1FBD0000 		e_la %r29,AEK_POW_BMS63EN_Drv@l(%r29)
 3044 0066 01D3     		se_mr %r3,%r29
 3045              	.LVL363:
 3046 0068 78000001 		e_bl AEK_POW_BMS63EN_SPIReadRegister
 3047              	.LVL364:
 3048              		.loc 1 1085 0
 3049 006c 01D3     		se_mr %r3,%r29
 3050 006e 01E4     		se_mr %r4,%r30
 3051 0070 4915     		se_li %r5,17
 3052 0072 78000001 		e_bl AEK_POW_BMS63EN_SPIReadRegister
 3053              	.LVL365:
 3054              		.loc 1 1091 0
 3055 0076 70E0E000 		e_lis %r7,.L119@ha
 3056 007a 1CE70000 		e_la %r7,.L119@l(%r7)
 3057 007e 7CC7F82E 		lwzx %r6,%r7,%r31
 3058 0082 7CE63A14 		add %r7,%r6,%r7
 3059 0086 00B7     		se_mtctr %r7
 3060 0088 0006     		se_bctr
 3061              		.section	.rodata.AEK_POW_BMS63EN_DisableCellBalancing
 3062              		.align 2
 3063              		.align 2
 3064              	.L119:
 3065 0020 00000000 		.long .L117-.L119
 3066 0024 00000000 		.long .L118-.L119
 3067 0028 00000000 		.long .L120-.L119
 3068 002c 00000000 		.long .L121-.L119
 3069 0030 00000000 		.long .L122-.L119
 3070 0034 00000000 		.long .L123-.L119
 3071              		.section	.text.AEK_POW_BMS63EN_DisableCellBalancing
 3072              	.L133:
 3073              		.loc 1 1145 0
 3074 008a 1866C53F 		e_andi %r6,%r3,-49153
 3075              	.LVL366:
 3076              		.loc 1 1146 0
 3077 008e 6516     		se_bseti %r6,17
 3078              	.LVL367:
GAS LISTING C:\Users\Vipuls\AppData\Local\Temp\ccRPm3ys.s 			page 55


 3079              	.L124:
 3080              		.loc 1 1154 0
 3081 0090 7060E000 		e_lis %r3,AEK_POW_BMS63EN_Drv@ha
 3082 0094 01E4     		se_mr %r4,%r30
 3083 0096 1C630000 		e_la %r3,AEK_POW_BMS63EN_Drv@l(%r3)
 3084 009a 4905     		se_li %r5,16
 3085              	.LVL368:
 3086              	.L136:
 3087              		.loc 1 1159 0
 3088 009c C701     		se_lwz %r0,28(%r1)
 3089 009e 1BA1080C 		e_lmw %r29,12(%r1)
 3090 00a2 0090     		se_mtlr %r0
 3091              		.cfi_remember_state
 3092              		.cfi_restore 65
 3093 00a4 2171     		se_addi %r1,24
 3094              	.LCFI82:
 3095              		.cfi_restore 31
 3096              		.cfi_restore 30
 3097              		.cfi_restore 29
 3098              		.cfi_def_cfa_offset 0
 3099              		.loc 1 1152 0
 3100 00a6 78000000 		e_b AEK_POW_BMS63EN_SPIWriteRegister
 3101              	.LVL369:
 3102              	.L122:
 3103              	.LCFI83:
 3104              		.cfi_restore_state
 3105              		.loc 1 1109 0
 3106 00aa 1863C5CF 		e_andi %r3,%r3,-12289
 3107              	.LVL370:
 3108              		.loc 1 1110 0
 3109 00ae 1866D110 		e_ori %r6,%r3,4096
 3110              	.LVL371:
 3111              	.L134:
 3112              		.loc 1 1159 0
 3113 00b2 C701     		se_lwz %r0,28(%r1)
 3114              		.loc 1 1152 0
 3115 00b4 01E4     		se_mr %r4,%r30
 3116 00b6 7060E000 		e_lis %r3,AEK_POW_BMS63EN_Drv@ha
 3117              		.loc 1 1159 0
 3118 00ba 1BA1080C 		e_lmw %r29,12(%r1)
 3119              	.LVL372:
 3120              		.loc 1 1152 0
 3121 00be 1C630000 		e_la %r3,AEK_POW_BMS63EN_Drv@l(%r3)
 3122              		.loc 1 1159 0
 3123              		.loc 1 1152 0
 3124 00c2 4915     		se_li %r5,17
 3125              		.loc 1 1159 0
 3126 00c4 0090     		se_mtlr %r0
 3127              		.cfi_remember_state
 3128              		.cfi_restore 65
 3129 00c6 2171     		se_addi %r1,24
 3130              	.LCFI84:
 3131              		.cfi_restore 29
 3132              		.cfi_restore 30
 3133              		.cfi_restore 31
 3134              		.cfi_def_cfa_offset 0
 3135              		.loc 1 1152 0
GAS LISTING C:\Users\Vipuls\AppData\Local\Temp\ccRPm3ys.s 			page 56


 3136 00c8 78000000 		e_b AEK_POW_BMS63EN_SPIWriteRegister
 3137              	.LVL373:
 3138              	.L121:
 3139              	.LCFI85:
 3140              		.cfi_restore_state
 3141              		.loc 1 1105 0
 3142 00cc 1863C5F3 		e_andi %r3,%r3,-3073
 3143              	.LVL374:
 3144              		.loc 1 1106 0
 3145 00d0 1866D104 		e_ori %r6,%r3,1024
 3146              	.LVL375:
 3147              		.loc 1 1107 0
 3148 00d4 79FFFFDE 		e_b .L134
 3149              	.LVL376:
 3150              	.L120:
 3151              		.loc 1 1101 0
 3152 00d8 1863C5FC 		e_andi %r3,%r3,-769
 3153              	.LVL377:
 3154              		.loc 1 1102 0
 3155 00dc 1866D101 		e_ori %r6,%r3,256
 3156              	.LVL378:
 3157              		.loc 1 1103 0
 3158 00e0 79FFFFD2 		e_b .L134
 3159              	.LVL379:
 3160              	.L118:
 3161              		.loc 1 1097 0
 3162 00e4 1863C43F 		e_andi %r3,%r3,-193
 3163              	.LVL380:
 3164              		.loc 1 1098 0
 3165 00e8 1866D040 		e_ori %r6,%r3,64
 3166              	.LVL381:
 3167              		.loc 1 1099 0
 3168 00ec 79FFFFC6 		e_b .L134
 3169              	.LVL382:
 3170              	.L117:
 3171              		.loc 1 1093 0
 3172 00f0 1863C4CF 		e_andi %r3,%r3,-49
 3173              	.LVL383:
 3174              		.loc 1 1094 0
 3175 00f4 1866D010 		e_ori %r6,%r3,16
 3176              	.LVL384:
 3177              		.loc 1 1095 0
 3178 00f8 79FFFFBA 		e_b .L134
 3179              	.LVL385:
 3180              	.L125:
 3181              		.loc 1 1117 0
 3182 00fc 1866C4FC 		e_andi %r6,%r3,-4
 3183              	.LVL386:
 3184              		.loc 1 1118 0
 3185 0100 65F6     		se_bseti %r6,31
 3186              	.LVL387:
 3187              		.loc 1 1119 0
 3188 0102 79FFFF8E 		e_b .L124
 3189              	.LVL388:
 3190              	.L128:
 3191              		.loc 1 1125 0
 3192 0106 1866C4CF 		e_andi %r6,%r3,-49
GAS LISTING C:\Users\Vipuls\AppData\Local\Temp\ccRPm3ys.s 			page 57


 3193              	.LVL389:
 3194              		.loc 1 1126 0
 3195 010a 65B6     		se_bseti %r6,27
 3196              	.LVL390:
 3197              		.loc 1 1127 0
 3198 010c 79FFFF84 		e_b .L124
 3199              	.LVL391:
 3200              	.L129:
 3201              		.loc 1 1129 0
 3202 0110 1866C43F 		e_andi %r6,%r3,-193
 3203              	.LVL392:
 3204              		.loc 1 1130 0
 3205 0114 6596     		se_bseti %r6,25
 3206              	.LVL393:
 3207              		.loc 1 1131 0
 3208 0116 79FFFF7A 		e_b .L124
 3209              	.LVL394:
 3210              	.L130:
 3211              		.loc 1 1133 0
 3212 011a 1866C5FC 		e_andi %r6,%r3,-769
 3213              	.LVL395:
 3214              		.loc 1 1134 0
 3215 011e 6576     		se_bseti %r6,23
 3216              	.LVL396:
 3217              		.loc 1 1135 0
 3218 0120 79FFFF70 		e_b .L124
 3219              	.LVL397:
 3220              	.L131:
 3221              		.loc 1 1137 0
 3222 0124 1866C5F3 		e_andi %r6,%r3,-3073
 3223              	.LVL398:
 3224              		.loc 1 1138 0
 3225 0128 6556     		se_bseti %r6,21
 3226              	.LVL399:
 3227              		.loc 1 1139 0
 3228 012a 79FFFF66 		e_b .L124
 3229              	.LVL400:
 3230              	.L132:
 3231              		.loc 1 1141 0
 3232 012e 1866C5CF 		e_andi %r6,%r3,-12289
 3233              	.LVL401:
 3234              		.loc 1 1142 0
 3235 0132 6536     		se_bseti %r6,19
 3236              	.LVL402:
 3237              		.loc 1 1143 0
 3238 0134 79FFFF5C 		e_b .L124
 3239              	.LVL403:
 3240              	.L127:
 3241              		.loc 1 1121 0
 3242 0138 1866C4F3 		e_andi %r6,%r3,-13
 3243              	.LVL404:
 3244              		.loc 1 1122 0
 3245 013c 65D6     		se_bseti %r6,29
 3246              	.LVL405:
 3247              		.loc 1 1123 0
 3248 013e 79FFFF52 		e_b .L124
 3249              	.LVL406:
GAS LISTING C:\Users\Vipuls\AppData\Local\Temp\ccRPm3ys.s 			page 58


 3250              	.L123:
 3251              		.loc 1 1113 0
 3252 0142 1863C53F 		e_andi %r3,%r3,-49153
 3253              	.LVL407:
 3254              		.loc 1 1114 0
 3255 0146 1866D140 		e_ori %r6,%r3,16384
 3256              	.LVL408:
 3257              		.loc 1 1115 0
 3258 014a 79FFFF68 		e_b .L134
 3259              	.LVL409:
 3260              	.L137:
 3261              		.loc 1 1071 0
 3262 014e 0134     		se_mr %r4,%r3
 3263              	.LVL410:
 3264 0150 4905     		se_li %r5,16
 3265 0152 70CA0555 		e_li %r6,21845
 3266 0156 73E0E000 		e_lis %r31,AEK_POW_BMS63EN_Drv@ha
 3267              	.LVL411:
 3268 015a 1FFF0000 		e_la %r31,AEK_POW_BMS63EN_Drv@l(%r31)
 3269 015e 01F3     		se_mr %r3,%r31
 3270              	.LVL412:
 3271 0160 78000001 		e_bl AEK_POW_BMS63EN_SPIWriteRegister
 3272              	.LVL413:
 3273              		.loc 1 1079 0
 3274 0164 01F3     		se_mr %r3,%r31
 3275 0166 01E4     		se_mr %r4,%r30
 3276 0168 4915     		se_li %r5,17
 3277 016a 70CA0550 		e_li %r6,21840
 3278 016e 79FFFF2E 		e_b .L136
 3279              		.cfi_endproc
 3280              	.LFE34:
 3281              		.size	AEK_POW_BMS63EN_DisableCellBalancing, .-AEK_POW_BMS63EN_DisableCellBalancing
 3282              		.section	.text.AEK_POW_BMS63EN_EnableCellBalancing,"axv",@progbits
 3283              		.align 1
 3284              		.p2align 4,,15
 3285              		.globl AEK_POW_BMS63EN_EnableCellBalancing
 3286              		.type	AEK_POW_BMS63EN_EnableCellBalancing, @function
 3287              	AEK_POW_BMS63EN_EnableCellBalancing:
 3288              	.LFB35:
 3289              		.loc 1 1165 0
 3290              		.cfi_startproc
 3291              	.LVL414:
 3292 0000 182106E8 		e_stwu %r1,-24(%r1)
 3293              	.LCFI86:
 3294              		.cfi_def_cfa_offset 24
 3295 0004 0080     		se_mflr %r0
 3296 0006 1BA1090C 		e_stmw %r29,12(%r1)
 3297 000a D701     		se_stw %r0,28(%r1)
 3298              		.cfi_offset 65, 4
 3299              		.cfi_offset 29, -12
 3300              		.cfi_offset 30, -8
 3301              		.cfi_offset 31, -4
 3302              		.loc 1 1165 0
 3303 000c 014F     		se_mr %r31,%r4
 3304 000e 013E     		se_mr %r30,%r3
 3305              		.loc 1 1169 0
 3306 0010 22D4     		se_cmpli %r4,14
GAS LISTING C:\Users\Vipuls\AppData\Local\Temp\ccRPm3ys.s 			page 59


 3307 0012 7A12013C 		e_beq %cr0,.L162
 3308              		.loc 1 1191 0
 3309 0016 0134     		se_mr %r4,%r3
 3310              	.LVL415:
 3311              		.loc 1 1190 0
 3312 0018 224F     		se_cmpli %r31,5
 3313 001a 7A010040 		e_ble %cr0,.L163
 3314              		.loc 1 1194 0
 3315 001e 4905     		se_li %r5,16
 3316 0020 73A0E000 		e_lis %r29,AEK_POW_BMS63EN_Drv@ha
 3317              		.loc 1 1198 0
 3318 0024 1BFF84FA 		e_addi %r31,%r31,-6
 3319              	.LVL416:
 3320              		.loc 1 1194 0
 3321 0028 1FBD0000 		e_la %r29,AEK_POW_BMS63EN_Drv@l(%r29)
 3322 002c 01D3     		se_mr %r3,%r29
 3323              	.LVL417:
 3324 002e 78000001 		e_bl AEK_POW_BMS63EN_SPIReadRegister
 3325              	.LVL418:
 3326              		.loc 1 1195 0
 3327 0032 01D3     		se_mr %r3,%r29
 3328 0034 01E4     		se_mr %r4,%r30
 3329 0036 4905     		se_li %r5,16
 3330 0038 78000001 		e_bl AEK_POW_BMS63EN_SPIReadRegister
 3331              	.LVL419:
 3332              		.loc 1 1198 0
 3333 003c 226F     		se_cmpli %r31,7
 3334              		.loc 1 1195 0
 3335 003e 0136     		se_mr %r6,%r3
 3336              	.LVL420:
 3337              		.loc 1 1198 0
 3338 0040 7A110050 		e_bgt %cr0,.L149
 3339 0044 6C2F     		se_slwi %r31, 2
 3340              	.LVL421:
 3341 0046 70E0E000 		e_lis %r7,.L151@ha
 3342 004a 1CE70000 		e_la %r7,.L151@l(%r7)
 3343 004e 7CA7F82E 		lwzx %r5,%r7,%r31
 3344 0052 7CE53A14 		add %r7,%r5,%r7
 3345 0056 00B7     		se_mtctr %r7
 3346 0058 0006     		se_bctr
 3347              		.section	.rodata.AEK_POW_BMS63EN_EnableCellBalancing,"a",@progbits
 3348              		.align 2
 3349              		.align 2
 3350              	.L151:
 3351 0000 00000000 		.long .L150-.L151
 3352 0004 00000000 		.long .L152-.L151
 3353 0008 00000000 		.long .L153-.L151
 3354 000c 00000000 		.long .L154-.L151
 3355 0010 00000000 		.long .L155-.L151
 3356 0014 00000000 		.long .L156-.L151
 3357 0018 00000000 		.long .L157-.L151
 3358 001c 00000000 		.long .L158-.L151
 3359              		.section	.text.AEK_POW_BMS63EN_EnableCellBalancing
 3360              	.LVL422:
 3361              	.L163:
 3362              		.loc 1 1191 0
 3363 005a 4915     		se_li %r5,17
GAS LISTING C:\Users\Vipuls\AppData\Local\Temp\ccRPm3ys.s 			page 60


 3364 005c 73A0E000 		e_lis %r29,AEK_POW_BMS63EN_Drv@ha
 3365              		.loc 1 1198 0
 3366 0060 6C2F     		se_slwi %r31, 2
 3367              	.LVL423:
 3368              		.loc 1 1191 0
 3369 0062 1FBD0000 		e_la %r29,AEK_POW_BMS63EN_Drv@l(%r29)
 3370 0066 01D3     		se_mr %r3,%r29
 3371              	.LVL424:
 3372 0068 78000001 		e_bl AEK_POW_BMS63EN_SPIReadRegister
 3373              	.LVL425:
 3374              		.loc 1 1192 0
 3375 006c 01D3     		se_mr %r3,%r29
 3376 006e 01E4     		se_mr %r4,%r30
 3377 0070 4915     		se_li %r5,17
 3378 0072 78000001 		e_bl AEK_POW_BMS63EN_SPIReadRegister
 3379              	.LVL426:
 3380              		.loc 1 1198 0
 3381 0076 70E0E000 		e_lis %r7,.L144@ha
 3382 007a 1CE70000 		e_la %r7,.L144@l(%r7)
 3383 007e 7CC7F82E 		lwzx %r6,%r7,%r31
 3384 0082 7CE63A14 		add %r7,%r6,%r7
 3385 0086 00B7     		se_mtctr %r7
 3386 0088 0006     		se_bctr
 3387              		.section	.rodata.AEK_POW_BMS63EN_EnableCellBalancing
 3388              		.align 2
 3389              		.align 2
 3390              	.L144:
 3391 0020 00000000 		.long .L142-.L144
 3392 0024 00000000 		.long .L143-.L144
 3393 0028 00000000 		.long .L145-.L144
 3394 002c 00000000 		.long .L146-.L144
 3395 0030 00000000 		.long .L147-.L144
 3396 0034 00000000 		.long .L148-.L144
 3397              		.section	.text.AEK_POW_BMS63EN_EnableCellBalancing
 3398              	.L158:
 3399              		.loc 1 1252 0
 3400 008a 1866C53F 		e_andi %r6,%r3,-49153
 3401              	.LVL427:
 3402              		.loc 1 1253 0
 3403 008e 6506     		se_bseti %r6,16
 3404              	.LVL428:
 3405              	.L149:
 3406              		.loc 1 1261 0
 3407 0090 7060E000 		e_lis %r3,AEK_POW_BMS63EN_Drv@ha
 3408 0094 01E4     		se_mr %r4,%r30
 3409 0096 1C630000 		e_la %r3,AEK_POW_BMS63EN_Drv@l(%r3)
 3410 009a 4905     		se_li %r5,16
 3411              	.LVL429:
 3412              	.L161:
 3413              		.loc 1 1266 0
 3414 009c C701     		se_lwz %r0,28(%r1)
 3415 009e 1BA1080C 		e_lmw %r29,12(%r1)
 3416 00a2 0090     		se_mtlr %r0
 3417              		.cfi_remember_state
 3418              		.cfi_restore 65
 3419 00a4 2171     		se_addi %r1,24
 3420              	.LCFI87:
GAS LISTING C:\Users\Vipuls\AppData\Local\Temp\ccRPm3ys.s 			page 61


 3421              		.cfi_restore 31
 3422              		.cfi_restore 30
 3423              		.cfi_restore 29
 3424              		.cfi_def_cfa_offset 0
 3425              		.loc 1 1259 0
 3426 00a6 78000000 		e_b AEK_POW_BMS63EN_SPIWriteRegister
 3427              	.LVL430:
 3428              	.L147:
 3429              	.LCFI88:
 3430              		.cfi_restore_state
 3431              		.loc 1 1216 0
 3432 00aa 1863C5CF 		e_andi %r3,%r3,-12289
 3433              	.LVL431:
 3434              		.loc 1 1217 0
 3435 00ae 1866D120 		e_ori %r6,%r3,8192
 3436              	.LVL432:
 3437              	.L159:
 3438              		.loc 1 1266 0
 3439 00b2 C701     		se_lwz %r0,28(%r1)
 3440              		.loc 1 1259 0
 3441 00b4 01E4     		se_mr %r4,%r30
 3442 00b6 7060E000 		e_lis %r3,AEK_POW_BMS63EN_Drv@ha
 3443              		.loc 1 1266 0
 3444 00ba 1BA1080C 		e_lmw %r29,12(%r1)
 3445              	.LVL433:
 3446              		.loc 1 1259 0
 3447 00be 1C630000 		e_la %r3,AEK_POW_BMS63EN_Drv@l(%r3)
 3448              		.loc 1 1266 0
 3449              		.loc 1 1259 0
 3450 00c2 4915     		se_li %r5,17
 3451              		.loc 1 1266 0
 3452 00c4 0090     		se_mtlr %r0
 3453              		.cfi_remember_state
 3454              		.cfi_restore 65
 3455 00c6 2171     		se_addi %r1,24
 3456              	.LCFI89:
 3457              		.cfi_restore 29
 3458              		.cfi_restore 30
 3459              		.cfi_restore 31
 3460              		.cfi_def_cfa_offset 0
 3461              		.loc 1 1259 0
 3462 00c8 78000000 		e_b AEK_POW_BMS63EN_SPIWriteRegister
 3463              	.LVL434:
 3464              	.L146:
 3465              	.LCFI90:
 3466              		.cfi_restore_state
 3467              		.loc 1 1212 0
 3468 00cc 1863C5F3 		e_andi %r3,%r3,-3073
 3469              	.LVL435:
 3470              		.loc 1 1213 0
 3471 00d0 1866D108 		e_ori %r6,%r3,2048
 3472              	.LVL436:
 3473              		.loc 1 1214 0
 3474 00d4 79FFFFDE 		e_b .L159
 3475              	.LVL437:
 3476              	.L145:
 3477              		.loc 1 1208 0
GAS LISTING C:\Users\Vipuls\AppData\Local\Temp\ccRPm3ys.s 			page 62


 3478 00d8 1863C5FC 		e_andi %r3,%r3,-769
 3479              	.LVL438:
 3480              		.loc 1 1209 0
 3481 00dc 1866D102 		e_ori %r6,%r3,512
 3482              	.LVL439:
 3483              		.loc 1 1210 0
 3484 00e0 79FFFFD2 		e_b .L159
 3485              	.LVL440:
 3486              	.L143:
 3487              		.loc 1 1204 0
 3488 00e4 1863C43F 		e_andi %r3,%r3,-193
 3489              	.LVL441:
 3490              		.loc 1 1205 0
 3491 00e8 1866D080 		e_ori %r6,%r3,128
 3492              	.LVL442:
 3493              		.loc 1 1206 0
 3494 00ec 79FFFFC6 		e_b .L159
 3495              	.LVL443:
 3496              	.L142:
 3497              		.loc 1 1200 0
 3498 00f0 1863C4CF 		e_andi %r3,%r3,-49
 3499              	.LVL444:
 3500              		.loc 1 1201 0
 3501 00f4 1866D020 		e_ori %r6,%r3,32
 3502              	.LVL445:
 3503              		.loc 1 1202 0
 3504 00f8 79FFFFBA 		e_b .L159
 3505              	.LVL446:
 3506              	.L150:
 3507              		.loc 1 1224 0
 3508 00fc 1866C4FC 		e_andi %r6,%r3,-4
 3509              	.LVL447:
 3510              		.loc 1 1225 0
 3511 0100 65E6     		se_bseti %r6,30
 3512              	.LVL448:
 3513              		.loc 1 1226 0
 3514 0102 79FFFF8E 		e_b .L149
 3515              	.LVL449:
 3516              	.L153:
 3517              		.loc 1 1232 0
 3518 0106 1866C4CF 		e_andi %r6,%r3,-49
 3519              	.LVL450:
 3520              		.loc 1 1233 0
 3521 010a 65A6     		se_bseti %r6,26
 3522              	.LVL451:
 3523              		.loc 1 1234 0
 3524 010c 79FFFF84 		e_b .L149
 3525              	.LVL452:
 3526              	.L154:
 3527              		.loc 1 1236 0
 3528 0110 1866C43F 		e_andi %r6,%r3,-193
 3529              	.LVL453:
 3530              		.loc 1 1237 0
 3531 0114 6586     		se_bseti %r6,24
 3532              	.LVL454:
 3533              		.loc 1 1238 0
 3534 0116 79FFFF7A 		e_b .L149
GAS LISTING C:\Users\Vipuls\AppData\Local\Temp\ccRPm3ys.s 			page 63


 3535              	.LVL455:
 3536              	.L155:
 3537              		.loc 1 1240 0
 3538 011a 1866C5FC 		e_andi %r6,%r3,-769
 3539              	.LVL456:
 3540              		.loc 1 1241 0
 3541 011e 6566     		se_bseti %r6,22
 3542              	.LVL457:
 3543              		.loc 1 1242 0
 3544 0120 79FFFF70 		e_b .L149
 3545              	.LVL458:
 3546              	.L156:
 3547              		.loc 1 1244 0
 3548 0124 1866C5F3 		e_andi %r6,%r3,-3073
 3549              	.LVL459:
 3550              		.loc 1 1245 0
 3551 0128 6546     		se_bseti %r6,20
 3552              	.LVL460:
 3553              		.loc 1 1246 0
 3554 012a 79FFFF66 		e_b .L149
 3555              	.LVL461:
 3556              	.L157:
 3557              		.loc 1 1248 0
 3558 012e 1866C5CF 		e_andi %r6,%r3,-12289
 3559              	.LVL462:
 3560              		.loc 1 1249 0
 3561 0132 6526     		se_bseti %r6,18
 3562              	.LVL463:
 3563              		.loc 1 1250 0
 3564 0134 79FFFF5C 		e_b .L149
 3565              	.LVL464:
 3566              	.L152:
 3567              		.loc 1 1228 0
 3568 0138 1866C4F3 		e_andi %r6,%r3,-13
 3569              	.LVL465:
 3570              		.loc 1 1229 0
 3571 013c 65C6     		se_bseti %r6,28
 3572              	.LVL466:
 3573              		.loc 1 1230 0
 3574 013e 79FFFF52 		e_b .L149
 3575              	.LVL467:
 3576              	.L148:
 3577              		.loc 1 1220 0
 3578 0142 1863C53F 		e_andi %r3,%r3,-49153
 3579              	.LVL468:
 3580              		.loc 1 1221 0
 3581 0146 1866D180 		e_ori %r6,%r3,32768
 3582              	.LVL469:
 3583              		.loc 1 1222 0
 3584 014a 79FFFF68 		e_b .L159
 3585              	.LVL470:
 3586              	.L162:
 3587              		.loc 1 1178 0
 3588 014e 0134     		se_mr %r4,%r3
 3589              	.LVL471:
 3590 0150 4905     		se_li %r5,16
 3591 0152 70D502AA 		e_li %r6,43690
GAS LISTING C:\Users\Vipuls\AppData\Local\Temp\ccRPm3ys.s 			page 64


 3592 0156 73E0E000 		e_lis %r31,AEK_POW_BMS63EN_Drv@ha
 3593              	.LVL472:
 3594 015a 1FFF0000 		e_la %r31,AEK_POW_BMS63EN_Drv@l(%r31)
 3595 015e 01F3     		se_mr %r3,%r31
 3596              	.LVL473:
 3597 0160 78000001 		e_bl AEK_POW_BMS63EN_SPIWriteRegister
 3598              	.LVL474:
 3599              		.loc 1 1186 0
 3600 0164 01F3     		se_mr %r3,%r31
 3601 0166 01E4     		se_mr %r4,%r30
 3602 0168 4915     		se_li %r5,17
 3603 016a 70D502A0 		e_li %r6,43680
 3604 016e 79FFFF2E 		e_b .L161
 3605              		.cfi_endproc
 3606              	.LFE35:
 3607              		.size	AEK_POW_BMS63EN_EnableCellBalancing, .-AEK_POW_BMS63EN_EnableCellBalancing
 3608              		.section	.text.AEK_POW_BMS63EN_DisableBalCurrentEvenCells,"axv",@progbits
 3609              		.align 1
 3610              		.p2align 4,,15
 3611              		.globl AEK_POW_BMS63EN_DisableBalCurrentEvenCells
 3612              		.type	AEK_POW_BMS63EN_DisableBalCurrentEvenCells, @function
 3613              	AEK_POW_BMS63EN_DisableBalCurrentEvenCells:
 3614              	.LFB36:
 3615              		.loc 1 1272 0
 3616              		.cfi_startproc
 3617              	.LVL475:
 3618 0000 182106F0 		e_stwu %r1,-16(%r1)
 3619              	.LCFI91:
 3620              		.cfi_def_cfa_offset 16
 3621 0004 0080     		se_mflr %r0
 3622 0006 1BC10908 		e_stmw %r30,8(%r1)
 3623 000a D501     		se_stw %r0,20(%r1)
 3624              		.cfi_offset 65, 4
 3625              		.cfi_offset 30, -8
 3626              		.cfi_offset 31, -4
 3627              		.loc 1 1272 0
 3628 000c 013E     		se_mr %r30,%r3
 3629              		.loc 1 1276 0
 3630 000e 0134     		se_mr %r4,%r3
 3631 0010 48E5     		se_li %r5,14
 3632 0012 73E0E000 		e_lis %r31,AEK_POW_BMS63EN_Drv@ha
 3633 0016 1FFF0000 		e_la %r31,AEK_POW_BMS63EN_Drv@l(%r31)
 3634 001a 01F3     		se_mr %r3,%r31
 3635              	.LVL476:
 3636 001c 78000001 		e_bl AEK_POW_BMS63EN_SPIReadRegister
 3637              	.LVL477:
 3638              		.loc 1 1277 0
 3639 0020 01E4     		se_mr %r4,%r30
 3640 0022 01F3     		se_mr %r3,%r31
 3641 0024 48E5     		se_li %r5,14
 3642 0026 78000001 		e_bl AEK_POW_BMS63EN_SPIReadRegister
 3643              	.LVL478:
 3644              		.loc 1 1283 0
 3645 002a C501     		se_lwz %r0,20(%r1)
 3646              		.loc 1 1281 0
 3647 002c 01E4     		se_mr %r4,%r30
 3648              		.loc 1 1279 0
GAS LISTING C:\Users\Vipuls\AppData\Local\Temp\ccRPm3ys.s 			page 65


 3649 002e 1866C4FD 		e_andi %r6,%r3,-3
 3650              	.LVL479:
 3651              		.loc 1 1281 0
 3652 0032 48E5     		se_li %r5,14
 3653 0034 01F3     		se_mr %r3,%r31
 3654              		.loc 1 1283 0
 3655 0036 0090     		se_mtlr %r0
 3656              		.cfi_restore 65
 3657 0038 1BC10808 		e_lmw %r30,8(%r1)
 3658              	.LVL480:
 3659 003c 20F1     		se_addi %r1,16
 3660              	.LCFI92:
 3661              		.cfi_restore 31
 3662              		.cfi_restore 30
 3663              		.cfi_def_cfa_offset 0
 3664              		.loc 1 1281 0
 3665 003e 78000000 		e_b AEK_POW_BMS63EN_SPIWriteRegister
 3666              	.LVL481:
 3667              		.cfi_endproc
 3668              	.LFE36:
 3669              		.size	AEK_POW_BMS63EN_DisableBalCurrentEvenCells, .-AEK_POW_BMS63EN_DisableBalCurrentEvenCells
 3670              		.section	.text.AEK_POW_BMS63EN_DisableBalCurrentOddCells,"axv",@progbits
 3671              		.align 1
 3672              		.p2align 4,,15
 3673              		.globl AEK_POW_BMS63EN_DisableBalCurrentOddCells
 3674              		.type	AEK_POW_BMS63EN_DisableBalCurrentOddCells, @function
 3675              	AEK_POW_BMS63EN_DisableBalCurrentOddCells:
 3676              	.LFB37:
 3677              		.loc 1 1289 0
 3678              		.cfi_startproc
 3679              	.LVL482:
 3680 0000 182106F0 		e_stwu %r1,-16(%r1)
 3681              	.LCFI93:
 3682              		.cfi_def_cfa_offset 16
 3683 0004 0080     		se_mflr %r0
 3684 0006 1BC10908 		e_stmw %r30,8(%r1)
 3685 000a D501     		se_stw %r0,20(%r1)
 3686              		.cfi_offset 65, 4
 3687              		.cfi_offset 30, -8
 3688              		.cfi_offset 31, -4
 3689              		.loc 1 1289 0
 3690 000c 013E     		se_mr %r30,%r3
 3691              		.loc 1 1293 0
 3692 000e 0134     		se_mr %r4,%r3
 3693 0010 48E5     		se_li %r5,14
 3694 0012 73E0E000 		e_lis %r31,AEK_POW_BMS63EN_Drv@ha
 3695 0016 1FFF0000 		e_la %r31,AEK_POW_BMS63EN_Drv@l(%r31)
 3696 001a 01F3     		se_mr %r3,%r31
 3697              	.LVL483:
 3698 001c 78000001 		e_bl AEK_POW_BMS63EN_SPIReadRegister
 3699              	.LVL484:
 3700              		.loc 1 1294 0
 3701 0020 01E4     		se_mr %r4,%r30
 3702 0022 01F3     		se_mr %r3,%r31
 3703 0024 48E5     		se_li %r5,14
 3704 0026 78000001 		e_bl AEK_POW_BMS63EN_SPIReadRegister
 3705              	.LVL485:
GAS LISTING C:\Users\Vipuls\AppData\Local\Temp\ccRPm3ys.s 			page 66


 3706              		.loc 1 1300 0
 3707 002a C501     		se_lwz %r0,20(%r1)
 3708              		.loc 1 1298 0
 3709 002c 01E4     		se_mr %r4,%r30
 3710              		.loc 1 1296 0
 3711 002e 1866C4FB 		e_andi %r6,%r3,-5
 3712              	.LVL486:
 3713              		.loc 1 1298 0
 3714 0032 48E5     		se_li %r5,14
 3715 0034 01F3     		se_mr %r3,%r31
 3716              		.loc 1 1300 0
 3717 0036 0090     		se_mtlr %r0
 3718              		.cfi_restore 65
 3719 0038 1BC10808 		e_lmw %r30,8(%r1)
 3720              	.LVL487:
 3721 003c 20F1     		se_addi %r1,16
 3722              	.LCFI94:
 3723              		.cfi_restore 31
 3724              		.cfi_restore 30
 3725              		.cfi_def_cfa_offset 0
 3726              		.loc 1 1298 0
 3727 003e 78000000 		e_b AEK_POW_BMS63EN_SPIWriteRegister
 3728              	.LVL488:
 3729              		.cfi_endproc
 3730              	.LFE37:
 3731              		.size	AEK_POW_BMS63EN_DisableBalCurrentOddCells, .-AEK_POW_BMS63EN_DisableBalCurrentOddCells
 3732              		.section	.text.AEK_POW_BMS63EN_EnableBalCurrentEvenCells,"axv",@progbits
 3733              		.align 1
 3734              		.p2align 4,,15
 3735              		.globl AEK_POW_BMS63EN_EnableBalCurrentEvenCells
 3736              		.type	AEK_POW_BMS63EN_EnableBalCurrentEvenCells, @function
 3737              	AEK_POW_BMS63EN_EnableBalCurrentEvenCells:
 3738              	.LFB38:
 3739              		.loc 1 1306 0
 3740              		.cfi_startproc
 3741              	.LVL489:
 3742 0000 182106F0 		e_stwu %r1,-16(%r1)
 3743              	.LCFI95:
 3744              		.cfi_def_cfa_offset 16
 3745 0004 0080     		se_mflr %r0
 3746 0006 1BC10908 		e_stmw %r30,8(%r1)
 3747 000a D501     		se_stw %r0,20(%r1)
 3748              		.cfi_offset 65, 4
 3749              		.cfi_offset 30, -8
 3750              		.cfi_offset 31, -4
 3751              		.loc 1 1306 0
 3752 000c 013E     		se_mr %r30,%r3
 3753              		.loc 1 1310 0
 3754 000e 0134     		se_mr %r4,%r3
 3755 0010 48E5     		se_li %r5,14
 3756 0012 73E0E000 		e_lis %r31,AEK_POW_BMS63EN_Drv@ha
 3757 0016 1FFF0000 		e_la %r31,AEK_POW_BMS63EN_Drv@l(%r31)
 3758 001a 01F3     		se_mr %r3,%r31
 3759              	.LVL490:
 3760 001c 78000001 		e_bl AEK_POW_BMS63EN_SPIReadRegister
 3761              	.LVL491:
 3762              		.loc 1 1311 0
GAS LISTING C:\Users\Vipuls\AppData\Local\Temp\ccRPm3ys.s 			page 67


 3763 0020 01E4     		se_mr %r4,%r30
 3764 0022 01F3     		se_mr %r3,%r31
 3765 0024 48E5     		se_li %r5,14
 3766 0026 78000001 		e_bl AEK_POW_BMS63EN_SPIReadRegister
 3767              	.LVL492:
 3768              		.loc 1 1317 0
 3769 002a C501     		se_lwz %r0,20(%r1)
 3770              		.loc 1 1315 0
 3771 002c 01E4     		se_mr %r4,%r30
 3772              		.loc 1 1313 0
 3773 002e 1866D002 		e_ori %r6,%r3,2
 3774              	.LVL493:
 3775              		.loc 1 1315 0
 3776 0032 48E5     		se_li %r5,14
 3777 0034 01F3     		se_mr %r3,%r31
 3778              		.loc 1 1317 0
 3779 0036 0090     		se_mtlr %r0
 3780              		.cfi_restore 65
 3781 0038 1BC10808 		e_lmw %r30,8(%r1)
 3782              	.LVL494:
 3783 003c 20F1     		se_addi %r1,16
 3784              	.LCFI96:
 3785              		.cfi_restore 31
 3786              		.cfi_restore 30
 3787              		.cfi_def_cfa_offset 0
 3788              		.loc 1 1315 0
 3789 003e 78000000 		e_b AEK_POW_BMS63EN_SPIWriteRegister
 3790              	.LVL495:
 3791              		.cfi_endproc
 3792              	.LFE38:
 3793              		.size	AEK_POW_BMS63EN_EnableBalCurrentEvenCells, .-AEK_POW_BMS63EN_EnableBalCurrentEvenCells
 3794              		.section	.text.AEK_POW_BMS63EN_EnableBalCurrentOddCells,"axv",@progbits
 3795              		.align 1
 3796              		.p2align 4,,15
 3797              		.globl AEK_POW_BMS63EN_EnableBalCurrentOddCells
 3798              		.type	AEK_POW_BMS63EN_EnableBalCurrentOddCells, @function
 3799              	AEK_POW_BMS63EN_EnableBalCurrentOddCells:
 3800              	.LFB39:
 3801              		.loc 1 1323 0
 3802              		.cfi_startproc
 3803              	.LVL496:
 3804 0000 182106F0 		e_stwu %r1,-16(%r1)
 3805              	.LCFI97:
 3806              		.cfi_def_cfa_offset 16
 3807 0004 0080     		se_mflr %r0
 3808 0006 1BC10908 		e_stmw %r30,8(%r1)
 3809 000a D501     		se_stw %r0,20(%r1)
 3810              		.cfi_offset 65, 4
 3811              		.cfi_offset 30, -8
 3812              		.cfi_offset 31, -4
 3813              		.loc 1 1323 0
 3814 000c 013E     		se_mr %r30,%r3
 3815              		.loc 1 1327 0
 3816 000e 0134     		se_mr %r4,%r3
 3817 0010 48E5     		se_li %r5,14
 3818 0012 73E0E000 		e_lis %r31,AEK_POW_BMS63EN_Drv@ha
 3819 0016 1FFF0000 		e_la %r31,AEK_POW_BMS63EN_Drv@l(%r31)
GAS LISTING C:\Users\Vipuls\AppData\Local\Temp\ccRPm3ys.s 			page 68


 3820 001a 01F3     		se_mr %r3,%r31
 3821              	.LVL497:
 3822 001c 78000001 		e_bl AEK_POW_BMS63EN_SPIReadRegister
 3823              	.LVL498:
 3824              		.loc 1 1328 0
 3825 0020 01E4     		se_mr %r4,%r30
 3826 0022 01F3     		se_mr %r3,%r31
 3827 0024 48E5     		se_li %r5,14
 3828 0026 78000001 		e_bl AEK_POW_BMS63EN_SPIReadRegister
 3829              	.LVL499:
 3830              		.loc 1 1334 0
 3831 002a C501     		se_lwz %r0,20(%r1)
 3832              		.loc 1 1332 0
 3833 002c 01E4     		se_mr %r4,%r30
 3834              		.loc 1 1330 0
 3835 002e 1866D004 		e_ori %r6,%r3,4
 3836              	.LVL500:
 3837              		.loc 1 1332 0
 3838 0032 48E5     		se_li %r5,14
 3839 0034 01F3     		se_mr %r3,%r31
 3840              		.loc 1 1334 0
 3841 0036 0090     		se_mtlr %r0
 3842              		.cfi_restore 65
 3843 0038 1BC10808 		e_lmw %r30,8(%r1)
 3844              	.LVL501:
 3845 003c 20F1     		se_addi %r1,16
 3846              	.LCFI98:
 3847              		.cfi_restore 31
 3848              		.cfi_restore 30
 3849              		.cfi_def_cfa_offset 0
 3850              		.loc 1 1332 0
 3851 003e 78000000 		e_b AEK_POW_BMS63EN_SPIWriteRegister
 3852              	.LVL502:
 3853              		.cfi_endproc
 3854              	.LFE39:
 3855              		.size	AEK_POW_BMS63EN_EnableBalCurrentOddCells, .-AEK_POW_BMS63EN_EnableBalCurrentOddCells
 3856              		.section	.text.AEK_POW_BMS63EN_EnableCell,"axv",@progbits
 3857              		.align 1
 3858              		.p2align 4,,15
 3859              		.globl AEK_POW_BMS63EN_EnableCell
 3860              		.type	AEK_POW_BMS63EN_EnableCell, @function
 3861              	AEK_POW_BMS63EN_EnableCell:
 3862              	.LFB40:
 3863              		.loc 1 1340 0
 3864              		.cfi_startproc
 3865              	.LVL503:
 3866 0000 182106E8 		e_stwu %r1,-24(%r1)
 3867              	.LCFI99:
 3868              		.cfi_def_cfa_offset 24
 3869 0004 0080     		se_mflr %r0
 3870 0006 1B810908 		e_stmw %r28,8(%r1)
 3871 000a D701     		se_stw %r0,28(%r1)
 3872              		.cfi_offset 65, 4
 3873              		.cfi_offset 28, -16
 3874              		.cfi_offset 29, -12
 3875              		.cfi_offset 30, -8
 3876              		.cfi_offset 31, -4
GAS LISTING C:\Users\Vipuls\AppData\Local\Temp\ccRPm3ys.s 			page 69


 3877              		.loc 1 1340 0
 3878 000c 013F     		se_mr %r31,%r3
 3879 000e 014E     		se_mr %r30,%r4
 3880              		.loc 1 1343 0
 3881 0010 49C5     		se_li %r5,28
 3882 0012 0134     		se_mr %r4,%r3
 3883              	.LVL504:
 3884 0014 7380E000 		e_lis %r28,AEK_POW_BMS63EN_Drv@ha
 3885 0018 1FBC0000 		e_la %r29,AEK_POW_BMS63EN_Drv@l(%r28)
 3886 001c 01D3     		se_mr %r3,%r29
 3887              	.LVL505:
 3888 001e 78000001 		e_bl AEK_POW_BMS63EN_SPIReadRegister
 3889              	.LVL506:
 3890              		.loc 1 1344 0
 3891 0022 01D3     		se_mr %r3,%r29
 3892 0024 01F4     		se_mr %r4,%r31
 3893 0026 49C5     		se_li %r5,28
 3894 0028 78000001 		e_bl AEK_POW_BMS63EN_SPIReadRegister
 3895              	.LVL507:
 3896              		.loc 1 1346 0
 3897 002c 22DE     		se_cmpli %r30,14
 3898 002e 7A120048 		e_beq %cr0,.L173
 3899              		.loc 1 1353 0
 3900 0032 4810     		se_li %r0,1
 3901              		.loc 1 1354 0
 3902 0034 7FE42870 		e_slwi %r4,%r31,5
 3903 0038 77C6063F 		e_rlwinm %r6,%r30,0,0xff
 3904 003c 50FC0000 		e_lwz %r7,AEK_POW_BMS63EN_Drv@l(%r28)
 3905              		.loc 1 1353 0
 3906 0040 7C063030 		slw %r6,%r0,%r6
 3907              		.loc 1 1354 0
 3908 0044 C177     		se_lwz %r7,4(%r7)
 3909 0046 6C4E     		se_slwi %r30, 4
 3910              	.LVL508:
 3911 0048 C257     		se_lwz %r5,8(%r7)
 3912              		.loc 1 1353 0
 3913 004a 4436     		se_or %r6,%r3
 3914              	.LVL509:
 3915              		.loc 1 1354 0
 3916 004c 7FE74070 		e_slwi %r7,%r31,8
 3917              		.loc 1 1356 0
 3918 0050 7060E000 		e_lis %r3,AEK_POW_BMS63EN_Drv@ha
 3919              		.loc 1 1354 0
 3920 0054 0647     		se_sub %r7, %r4
 3921              		.loc 1 1356 0
 3922 0056 1C630000 		e_la %r3,AEK_POW_BMS63EN_Drv@l(%r3)
 3923              		.loc 1 1354 0
 3924 005a 04E7     		se_add %r7,%r30
 3925              		.loc 1 1356 0
 3926 005c 01F4     		se_mr %r4,%r31
 3927              		.loc 1 1354 0
 3928 005e 7CE53A14 		add %r7,%r5,%r7
 3929              		.loc 1 1357 0
 3930 0062 1B810808 		e_lmw %r28,8(%r1)
 3931              	.LVL510:
 3932              		.loc 1 1354 0
 3933 0066 5407FF28 		e_stw %r0,-216(%r7)
GAS LISTING C:\Users\Vipuls\AppData\Local\Temp\ccRPm3ys.s 			page 70


 3934              		.loc 1 1356 0
 3935 006a 49C5     		se_li %r5,28
 3936              		.loc 1 1357 0
 3937 006c C701     		se_lwz %r0,28(%r1)
 3938 006e 0090     		se_mtlr %r0
 3939              		.cfi_remember_state
 3940              		.cfi_restore 65
 3941 0070 2171     		se_addi %r1,24
 3942              	.LCFI100:
 3943              		.cfi_restore 31
 3944              		.cfi_restore 30
 3945              		.cfi_restore 29
 3946              		.cfi_restore 28
 3947              		.cfi_def_cfa_offset 0
 3948              		.loc 1 1356 0
 3949 0072 78000000 		e_b AEK_POW_BMS63EN_SPIWriteRegister
 3950              	.LVL511:
 3951              	.L173:
 3952              	.LCFI101:
 3953              		.cfi_restore_state
 3954 0076 50DC0000 		e_lwz %r6,AEK_POW_BMS63EN_Drv@l(%r28)
 3955 007a 7FE72870 		e_slwi %r7,%r31,5
 3956 007e C156     		se_lwz %r5,4(%r6)
 3957              		.loc 1 1349 0
 3958 0080 48E4     		se_li %r4,14
 3959 0082 7FE64070 		e_slwi %r6,%r31,8
 3960 0086 C255     		se_lwz %r5,8(%r5)
 3961 0088 0767     		se_subf %r7, %r6
 3962 008a 00B4     		se_mtctr %r4
 3963 008c 7CE53A14 		add %r7,%r5,%r7
 3964              		.loc 1 1347 0
 3965 0090 0136     		se_mr %r6,%r3
 3966              		.loc 1 1349 0
 3967 0092 4815     		se_li %r5,1
 3968              		.loc 1 1347 0
 3969 0094 70DFC7FF 		e_or2i %r6,65535
 3970              	.LVL512:
 3971 0098 18E78428 		e_addi %r7,%r7,-216
 3972              	.LVL513:
 3973              	.L170:
 3974              		.loc 1 1349 0 discriminator 3
 3975 009c D057     		se_stw %r5,0(%r7)
 3976 009e 20F7     		se_addi %r7,16
 3977              		.loc 1 1348 0 discriminator 3
 3978 00a0 7A20FFFC 		e_bdnz .L170
 3979              		.loc 1 1357 0
 3980 00a4 C701     		se_lwz %r0,28(%r1)
 3981              		.loc 1 1356 0
 3982 00a6 01F4     		se_mr %r4,%r31
 3983 00a8 7060E000 		e_lis %r3,AEK_POW_BMS63EN_Drv@ha
 3984              		.loc 1 1357 0
 3985 00ac 1B810808 		e_lmw %r28,8(%r1)
 3986              	.LVL514:
 3987              		.loc 1 1356 0
 3988 00b0 1C630000 		e_la %r3,AEK_POW_BMS63EN_Drv@l(%r3)
 3989              		.loc 1 1357 0
 3990              		.loc 1 1356 0
GAS LISTING C:\Users\Vipuls\AppData\Local\Temp\ccRPm3ys.s 			page 71


 3991 00b4 49C5     		se_li %r5,28
 3992              		.loc 1 1357 0
 3993 00b6 0090     		se_mtlr %r0
 3994              		.cfi_restore 65
 3995 00b8 2171     		se_addi %r1,24
 3996              	.LCFI102:
 3997              		.cfi_restore 28
 3998              		.cfi_restore 29
 3999              		.cfi_restore 30
 4000              		.cfi_restore 31
 4001              		.cfi_def_cfa_offset 0
 4002              		.loc 1 1356 0
 4003 00ba 78000000 		e_b AEK_POW_BMS63EN_SPIWriteRegister
 4004              	.LVL515:
 4005              		.cfi_endproc
 4006              	.LFE40:
 4007              		.size	AEK_POW_BMS63EN_EnableCell, .-AEK_POW_BMS63EN_EnableCell
 4008              		.section	.text.AEK_POW_BMS63EN_GetBalancingStatus,"axv",@progbits
 4009              		.align 1
 4010              		.p2align 4,,15
 4011              		.globl AEK_POW_BMS63EN_GetBalancingStatus
 4012              		.type	AEK_POW_BMS63EN_GetBalancingStatus, @function
 4013              	AEK_POW_BMS63EN_GetBalancingStatus:
 4014              	.LFB41:
 4015              		.loc 1 1363 0
 4016              		.cfi_startproc
 4017              	.LVL516:
 4018 0000 182106F0 		e_stwu %r1,-16(%r1)
 4019              	.LCFI103:
 4020              		.cfi_def_cfa_offset 16
 4021 0004 0080     		se_mflr %r0
 4022 0006 1BC10908 		e_stmw %r30,8(%r1)
 4023 000a D501     		se_stw %r0,20(%r1)
 4024              		.cfi_offset 65, 4
 4025              		.cfi_offset 30, -8
 4026              		.cfi_offset 31, -4
 4027              		.loc 1 1363 0
 4028 000c 013E     		se_mr %r30,%r3
 4029              		.loc 1 1367 0
 4030 000e 0134     		se_mr %r4,%r3
 4031 0010 4915     		se_li %r5,17
 4032 0012 73E0E000 		e_lis %r31,AEK_POW_BMS63EN_Drv@ha
 4033 0016 1FFF0000 		e_la %r31,AEK_POW_BMS63EN_Drv@l(%r31)
 4034 001a 01F3     		se_mr %r3,%r31
 4035              	.LVL517:
 4036 001c 78000001 		e_bl AEK_POW_BMS63EN_SPIReadRegister
 4037              	.LVL518:
 4038              		.loc 1 1368 0
 4039 0020 01F3     		se_mr %r3,%r31
 4040 0022 01E4     		se_mr %r4,%r30
 4041 0024 4915     		se_li %r5,17
 4042 0026 78000001 		e_bl AEK_POW_BMS63EN_SPIReadRegister
 4043              	.LVL519:
 4044              		.loc 1 1374 0
 4045 002a C501     		se_lwz %r0,20(%r1)
 4046 002c 0090     		se_mtlr %r0
 4047              		.cfi_restore 65
GAS LISTING C:\Users\Vipuls\AppData\Local\Temp\ccRPm3ys.s 			page 72


 4048 002e 1BC10808 		e_lmw %r30,8(%r1)
 4049              	.LVL520:
 4050 0032 2E33     		se_andi %r3,3
 4051              	.LVL521:
 4052 0034 20F1     		se_addi %r1,16
 4053              	.LCFI104:
 4054              		.cfi_restore 31
 4055              		.cfi_restore 30
 4056              		.cfi_def_cfa_offset 0
 4057 0036 0004     		se_blr
 4058              		.cfi_endproc
 4059              	.LFE41:
 4060              		.size	AEK_POW_BMS63EN_GetBalancingStatus, .-AEK_POW_BMS63EN_GetBalancingStatus
 4061              		.globl __floatsisf
 4062              		.globl __extendsfdf2
 4063              		.globl __muldf3
 4064              		.globl __divdf3
 4065              		.globl __truncdfsf2
 4066              		.section	.text.AEK_POW_BMS63EN_GetCalibCurrentMeasurement,"axv",@progbits
 4067              		.align 1
 4068              		.p2align 4,,15
 4069              		.globl AEK_POW_BMS63EN_GetCalibCurrentMeasurement
 4070              		.type	AEK_POW_BMS63EN_GetCalibCurrentMeasurement, @function
 4071              	AEK_POW_BMS63EN_GetCalibCurrentMeasurement:
 4072              	.LFB42:
 4073              		.loc 1 1381 0
 4074              		.cfi_startproc
 4075              	.LVL522:
 4076 0000 182106E8 		e_stwu %r1,-24(%r1)
 4077              	.LCFI105:
 4078              		.cfi_def_cfa_offset 24
 4079 0004 0080     		se_mflr %r0
 4080 0006 1BA1090C 		e_stmw %r29,12(%r1)
 4081 000a D701     		se_stw %r0,28(%r1)
 4082              		.cfi_offset 65, 4
 4083              		.cfi_offset 29, -12
 4084              		.cfi_offset 30, -8
 4085              		.cfi_offset 31, -4
 4086              		.loc 1 1381 0
 4087 000c 013E     		se_mr %r30,%r3
 4088              		.loc 1 1388 0
 4089 000e 4B05     		se_li %r5,48
 4090              		.loc 1 1381 0
 4091 0010 014D     		se_mr %r29,%r4
 4092              		.loc 1 1388 0
 4093 0012 73E0E000 		e_lis %r31,AEK_POW_BMS63EN_Drv@ha
 4094 0016 0134     		se_mr %r4,%r3
 4095              	.LVL523:
 4096 0018 1FFF0000 		e_la %r31,AEK_POW_BMS63EN_Drv@l(%r31)
 4097 001c 01F3     		se_mr %r3,%r31
 4098              	.LVL524:
 4099 001e 78000001 		e_bl AEK_POW_BMS63EN_SPIReadRegister
 4100              	.LVL525:
 4101              		.loc 1 1389 0
 4102 0022 01E4     		se_mr %r4,%r30
 4103 0024 4B05     		se_li %r5,48
 4104 0026 01F3     		se_mr %r3,%r31
GAS LISTING C:\Users\Vipuls\AppData\Local\Temp\ccRPm3ys.s 			page 73


 4105 0028 78000001 		e_bl AEK_POW_BMS63EN_SPIReadRegister
 4106              	.LVL526:
 4107              		.loc 1 1393 0
 4108 002c 4914     		se_li %r4,17
 4109              		.loc 1 1386 0
 4110 002e 4805     		se_li %r5,0
 4111              		.loc 1 1393 0
 4112 0030 1867C001 		e_andi %r7,%r3,1
 4113              	.LVL527:
 4114              		.loc 1 1392 0
 4115 0034 4806     		se_li %r6,0
 4116              		.loc 1 1393 0
 4117 0036 4810     		se_li %r0,1
 4118 0038 00B4     		se_mtctr %r4
 4119              	.LVL528:
 4120              	.L176:
 4121              		.loc 1 1395 0 discriminator 2
 4122 003a 0475     		se_add %r5,%r7
 4123              	.LVL529:
 4124              		.loc 1 1392 0 discriminator 2
 4125 003c 2006     		se_addi %r6,1
 4126              	.LVL530:
 4127              		.loc 1 1393 0 discriminator 2
 4128 003e 7C073030 		slw %r7,%r0,%r6
 4129              	.LVL531:
 4130 0042 4637     		se_and %r7,%r3
 4131              	.LVL532:
 4132              		.loc 1 1394 0 discriminator 2
 4133 0044 7A20FFF6 		e_bdnz .L176
 4134              		.loc 1 1394 0 is_stmt 0 discriminator 1
 4135 0048 7CE68C71 		e_srwi. %r6,%r7,17
 4136              	.LVL533:
 4137 004c 70C07000 		e_li %r6,-131072
 4138 0050 7CE7309E 		isel %r7,%r7,%r6,2
 4139              	.LVL534:
 4140              		.loc 1 1397 0 is_stmt 1 discriminator 1
 4141 0054 7C672A14 		add %r3,%r7,%r5
 4142              	.LVL535:
 4143 0058 78000001 		e_bl __floatsisf
 4144              	.LVL536:
 4145 005c 78000001 		e_bl __extendsfdf2
 4146              	.LVL537:
 4147 0060 70A7E7F5 		e_lis %r5,0x3ff5
 4148 0064 70C2E47A 		e_lis %r6,0x147a
 4149 0068 70A8C7AE 		e_or2i %r5,18350
 4150 006c 70DCC148 		e_or2i %r6,57672
 4151 0070 78000001 		e_bl __muldf3
 4152              	.LVL538:
 4153 0074 4806     		se_li %r6,0
 4154 0076 70A8E12E 		e_lis %r5,0x412e
 4155 007a 70B0C480 		e_or2i %r5,33920
 4156 007e 78000001 		e_bl __divdf3
 4157              	.LVL539:
 4158 0082 014F     		se_mr %r31,%r4
 4159 0084 013E     		se_mr %r30,%r3
 4160              	.LVL540:
 4161 0086 01D3     		se_mr %r3,%r29
GAS LISTING C:\Users\Vipuls\AppData\Local\Temp\ccRPm3ys.s 			page 74


 4162 0088 78000001 		e_bl __floatunsisf
 4163              	.LVL541:
 4164 008c 7088E47A 		e_lis %r4,0x447a
 4165 0090 78000001 		e_bl __divsf3
 4166              	.LVL542:
 4167 0094 78000001 		e_bl __extendsfdf2
 4168              	.LVL543:
 4169 0098 0146     		se_mr %r6,%r4
 4170 009a 0135     		se_mr %r5,%r3
 4171 009c 01F4     		se_mr %r4,%r31
 4172 009e 01E3     		se_mr %r3,%r30
 4173 00a0 78000001 		e_bl __divdf3
 4174              	.LVL544:
 4175 00a4 78000001 		e_bl __truncdfsf2
 4176              	.LVL545:
 4177              		.loc 1 1398 0 discriminator 1
 4178 00a8 C701     		se_lwz %r0,28(%r1)
 4179 00aa 0090     		se_mtlr %r0
 4180              		.cfi_restore 65
 4181 00ac 1BA1080C 		e_lmw %r29,12(%r1)
 4182 00b0 2171     		se_addi %r1,24
 4183              	.LCFI106:
 4184              		.cfi_restore 31
 4185              		.cfi_restore 30
 4186              		.cfi_restore 29
 4187              		.cfi_def_cfa_offset 0
 4188 00b2 0004     		se_blr
 4189              		.cfi_endproc
 4190              	.LFE42:
 4191              		.size	AEK_POW_BMS63EN_GetCalibCurrentMeasurement, .-AEK_POW_BMS63EN_GetCalibCurrentMeasurement
 4192              		.section	.text.AEK_POW_BMS63EN_GetInstCurrentMeasurement,"axv",@progbits
 4193              		.align 1
 4194              		.p2align 4,,15
 4195              		.globl AEK_POW_BMS63EN_GetInstCurrentMeasurement
 4196              		.type	AEK_POW_BMS63EN_GetInstCurrentMeasurement, @function
 4197              	AEK_POW_BMS63EN_GetInstCurrentMeasurement:
 4198              	.LFB43:
 4199              		.loc 1 1403 0
 4200              		.cfi_startproc
 4201              	.LVL546:
 4202 0000 18210698 		e_stwu %r1,-104(%r1)
 4203              	.LCFI107:
 4204              		.cfi_def_cfa_offset 104
 4205 0004 0080     		se_mflr %r0
 4206 0006 1BA1095C 		e_stmw %r29,92(%r1)
 4207 000a 5401006C 		e_stw %r0,108(%r1)
 4208              		.cfi_offset 65, 4
 4209              		.cfi_offset 29, -12
 4210              		.cfi_offset 30, -8
 4211              		.cfi_offset 31, -4
 4212              	.LBB6:
 4213              	.LBB7:
 4214              		.loc 1 535 0
 4215 000e 18C18008 		e_addi %r6,%r1,8
 4216              	.LBE7:
 4217              	.LBE6:
 4218              		.loc 1 1403 0
GAS LISTING C:\Users\Vipuls\AppData\Local\Temp\ccRPm3ys.s 			page 75


 4219 0012 013E     		se_mr %r30,%r3
 4220              	.LVL547:
 4221              	.LBB10:
 4222              	.LBB8:
 4223              		.loc 1 535 0
 4224 0014 4FB5     		se_li %r5,123
 4225              	.LBE8:
 4226              	.LBE10:
 4227              		.loc 1 1403 0
 4228 0016 014D     		se_mr %r29,%r4
 4229              	.LBB11:
 4230              	.LBB9:
 4231              		.loc 1 535 0
 4232 0018 73E0E000 		e_lis %r31,AEK_POW_BMS63EN_Drv@ha
 4233 001c 0134     		se_mr %r4,%r3
 4234              	.LVL548:
 4235 001e 1FFF0000 		e_la %r31,AEK_POW_BMS63EN_Drv@l(%r31)
 4236 0022 01F3     		se_mr %r3,%r31
 4237              	.LVL549:
 4238 0024 78000001 		e_bl AEK_POW_BMS63EN_SPIBurstAccess
 4239              	.LVL550:
 4240              	.LBE9:
 4241              	.LBE11:
 4242              		.loc 1 1412 0
 4243 0028 01E4     		se_mr %r4,%r30
 4244 002a 4AF5     		se_li %r5,47
 4245 002c 01F3     		se_mr %r3,%r31
 4246 002e 78000001 		e_bl AEK_POW_BMS63EN_SPIReadRegister
 4247              	.LVL551:
 4248              		.loc 1 1413 0
 4249 0032 01E4     		se_mr %r4,%r30
 4250 0034 4AF5     		se_li %r5,47
 4251 0036 01F3     		se_mr %r3,%r31
 4252 0038 78000001 		e_bl AEK_POW_BMS63EN_SPIReadRegister
 4253              	.LVL552:
 4254              		.loc 1 1417 0
 4255 003c 4914     		se_li %r4,17
 4256              		.loc 1 1408 0
 4257 003e 4805     		se_li %r5,0
 4258              		.loc 1 1417 0
 4259 0040 1867C001 		e_andi %r7,%r3,1
 4260              	.LVL553:
 4261              		.loc 1 1416 0
 4262 0044 4806     		se_li %r6,0
 4263              		.loc 1 1417 0
 4264 0046 4810     		se_li %r0,1
 4265 0048 00B4     		se_mtctr %r4
 4266              	.LVL554:
 4267              	.L183:
 4268              		.loc 1 1419 0 discriminator 2
 4269 004a 0475     		se_add %r5,%r7
 4270              	.LVL555:
 4271              		.loc 1 1416 0 discriminator 2
 4272 004c 2006     		se_addi %r6,1
 4273              	.LVL556:
 4274              		.loc 1 1417 0 discriminator 2
 4275 004e 7C073030 		slw %r7,%r0,%r6
GAS LISTING C:\Users\Vipuls\AppData\Local\Temp\ccRPm3ys.s 			page 76


 4276              	.LVL557:
 4277 0052 4637     		se_and %r7,%r3
 4278              	.LVL558:
 4279              		.loc 1 1418 0 discriminator 2
 4280 0054 7A20FFF6 		e_bdnz .L183
 4281              		.loc 1 1418 0 is_stmt 0 discriminator 1
 4282 0058 7CE68C71 		e_srwi. %r6,%r7,17
 4283              	.LVL559:
 4284 005c 70C07000 		e_li %r6,-131072
 4285 0060 7CE7309E 		isel %r7,%r7,%r6,2
 4286              	.LVL560:
 4287              		.loc 1 1421 0 is_stmt 1 discriminator 1
 4288 0064 7C672A14 		add %r3,%r7,%r5
 4289              	.LVL561:
 4290 0068 78000001 		e_bl __floatsisf
 4291              	.LVL562:
 4292 006c 78000001 		e_bl __extendsfdf2
 4293              	.LVL563:
 4294 0070 70A7E7F5 		e_lis %r5,0x3ff5
 4295 0074 70C2E47A 		e_lis %r6,0x147a
 4296 0078 70A8C7AE 		e_or2i %r5,18350
 4297 007c 70DCC148 		e_or2i %r6,57672
 4298 0080 78000001 		e_bl __muldf3
 4299              	.LVL564:
 4300 0084 4806     		se_li %r6,0
 4301 0086 70A8E12E 		e_lis %r5,0x412e
 4302 008a 70B0C480 		e_or2i %r5,33920
 4303 008e 78000001 		e_bl __divdf3
 4304              	.LVL565:
 4305 0092 014F     		se_mr %r31,%r4
 4306 0094 013E     		se_mr %r30,%r3
 4307              	.LVL566:
 4308 0096 01D3     		se_mr %r3,%r29
 4309 0098 78000001 		e_bl __floatunsisf
 4310              	.LVL567:
 4311 009c 7088E47A 		e_lis %r4,0x447a
 4312 00a0 78000001 		e_bl __divsf3
 4313              	.LVL568:
 4314 00a4 78000001 		e_bl __extendsfdf2
 4315              	.LVL569:
 4316 00a8 0146     		se_mr %r6,%r4
 4317 00aa 0135     		se_mr %r5,%r3
 4318 00ac 01F4     		se_mr %r4,%r31
 4319 00ae 01E3     		se_mr %r3,%r30
 4320 00b0 78000001 		e_bl __divdf3
 4321              	.LVL570:
 4322 00b4 78000001 		e_bl __truncdfsf2
 4323              	.LVL571:
 4324              		.loc 1 1422 0 discriminator 1
 4325 00b8 5001006C 		e_lwz %r0,108(%r1)
 4326 00bc 0090     		se_mtlr %r0
 4327              		.cfi_restore 65
 4328 00be 1BA1085C 		e_lmw %r29,92(%r1)
 4329 00c2 18218068 		e_addi %r1,%r1,104
 4330              	.LCFI108:
 4331              		.cfi_restore 31
 4332              		.cfi_restore 30
GAS LISTING C:\Users\Vipuls\AppData\Local\Temp\ccRPm3ys.s 			page 77


 4333              		.cfi_restore 29
 4334              		.cfi_def_cfa_offset 0
 4335 00c6 0004     		se_blr
 4336              		.cfi_endproc
 4337              	.LFE43:
 4338              		.size	AEK_POW_BMS63EN_GetInstCurrentMeasurement, .-AEK_POW_BMS63EN_GetInstCurrentMeasurement
 4339              		.section	.text.AEK_POW_BMS63EN_GetCellVoltMeasurement,"axv",@progbits
 4340              		.align 1
 4341              		.p2align 4,,15
 4342              		.globl AEK_POW_BMS63EN_GetCellVoltMeasurement
 4343              		.type	AEK_POW_BMS63EN_GetCellVoltMeasurement, @function
 4344              	AEK_POW_BMS63EN_GetCellVoltMeasurement:
 4345              	.LFB44:
 4346              		.loc 1 1428 0
 4347              		.cfi_startproc
 4348              	.LVL572:
 4349 0000 182106E8 		e_stwu %r1,-24(%r1)
 4350              	.LCFI109:
 4351              		.cfi_def_cfa_offset 24
 4352 0004 0080     		se_mflr %r0
 4353 0006 1BA1090C 		e_stmw %r29,12(%r1)
 4354 000a D701     		se_stw %r0,28(%r1)
 4355              		.cfi_offset 65, 4
 4356              		.cfi_offset 29, -12
 4357              		.cfi_offset 30, -8
 4358              		.cfi_offset 31, -4
 4359              		.loc 1 1433 0
 4360 000c 1BC48021 		e_addi %r30,%r4,33
 4361              	.LVL573:
 4362              		.loc 1 1428 0
 4363 0010 013D     		se_mr %r29,%r3
 4364              		.loc 1 1434 0
 4365 0012 0134     		se_mr %r4,%r3
 4366              	.LVL574:
 4367 0014 01E5     		se_mr %r5,%r30
 4368 0016 73E0E000 		e_lis %r31,AEK_POW_BMS63EN_Drv@ha
 4369 001a 1FFF0000 		e_la %r31,AEK_POW_BMS63EN_Drv@l(%r31)
 4370 001e 01F3     		se_mr %r3,%r31
 4371              	.LVL575:
 4372 0020 78000001 		e_bl AEK_POW_BMS63EN_SPIReadRegister
 4373              	.LVL576:
 4374              		.loc 1 1435 0
 4375 0024 01E5     		se_mr %r5,%r30
 4376 0026 01D4     		se_mr %r4,%r29
 4377 0028 01F3     		se_mr %r3,%r31
 4378 002a 78000001 		e_bl AEK_POW_BMS63EN_SPIReadRegister
 4379              	.LVL577:
 4380              		.loc 1 1437 0
 4381 002e 00E3     		se_extzh %r3
 4382              	.LVL578:
 4383 0030 78000001 		e_bl __floatunsisf
 4384              	.LVL579:
 4385 0034 7088E2B2 		e_lis %r4,0x42b2
 4386 0038 78000001 		e_bl __mulsf3
 4387              	.LVL580:
 4388 003c 7089E174 		e_lis %r4,0x4974
 4389 0040 1884D124 		e_ori %r4,%r4,9216
GAS LISTING C:\Users\Vipuls\AppData\Local\Temp\ccRPm3ys.s 			page 78


 4390 0044 78000001 		e_bl __divsf3
 4391              	.LVL581:
 4392              		.loc 1 1439 0
 4393 0048 C701     		se_lwz %r0,28(%r1)
 4394 004a 0090     		se_mtlr %r0
 4395              		.cfi_restore 65
 4396 004c 1BA1080C 		e_lmw %r29,12(%r1)
 4397              	.LVL582:
 4398 0050 2171     		se_addi %r1,24
 4399              	.LCFI110:
 4400              		.cfi_restore 31
 4401              		.cfi_restore 30
 4402              		.cfi_restore 29
 4403              		.cfi_def_cfa_offset 0
 4404 0052 0004     		se_blr
 4405              		.cfi_endproc
 4406              	.LFE44:
 4407              		.size	AEK_POW_BMS63EN_GetCellVoltMeasurement, .-AEK_POW_BMS63EN_GetCellVoltMeasurement
 4408              		.section	.text.AEK_POW_BMS63EN_GetBatteryPackVoltMeasurement,"axv",@progbits
 4409              		.align 1
 4410              		.p2align 4,,15
 4411              		.globl AEK_POW_BMS63EN_GetBatteryPackVoltMeasurement
 4412              		.type	AEK_POW_BMS63EN_GetBatteryPackVoltMeasurement, @function
 4413              	AEK_POW_BMS63EN_GetBatteryPackVoltMeasurement:
 4414              	.LFB45:
 4415              		.loc 1 1446 0
 4416              		.cfi_startproc
 4417              	.LVL583:
 4418 0000 182106E8 		e_stwu %r1,-24(%r1)
 4419              	.LCFI111:
 4420              		.cfi_def_cfa_offset 24
 4421 0004 0080     		se_mflr %r0
 4422 0006 1BA1090C 		e_stmw %r29,12(%r1)
 4423 000a D701     		se_stw %r0,28(%r1)
 4424              		.cfi_offset 65, 4
 4425              		.cfi_offset 29, -12
 4426              		.cfi_offset 30, -8
 4427              		.cfi_offset 31, -4
 4428              		.loc 1 1446 0
 4429 000c 013E     		se_mr %r30,%r3
 4430              		.loc 1 1452 0
 4431 000e 0134     		se_mr %r4,%r3
 4432 0010 4C15     		se_li %r5,65
 4433 0012 73E0E000 		e_lis %r31,AEK_POW_BMS63EN_Drv@ha
 4434 0016 1FFF0000 		e_la %r31,AEK_POW_BMS63EN_Drv@l(%r31)
 4435 001a 01F3     		se_mr %r3,%r31
 4436              	.LVL584:
 4437 001c 78000001 		e_bl AEK_POW_BMS63EN_SPIReadRegister
 4438              	.LVL585:
 4439              		.loc 1 1453 0
 4440 0020 01E4     		se_mr %r4,%r30
 4441 0022 01F3     		se_mr %r3,%r31
 4442 0024 4C15     		se_li %r5,65
 4443 0026 78000001 		e_bl AEK_POW_BMS63EN_SPIReadRegister
 4444              	.LVL586:
 4445              		.loc 1 1457 0
 4446 002a 01E4     		se_mr %r4,%r30
GAS LISTING C:\Users\Vipuls\AppData\Local\Temp\ccRPm3ys.s 			page 79


 4447              		.loc 1 1455 0
 4448 002c 7C7D8470 		e_srwi %r29,%r3,16
 4449              	.LVL587:
 4450              		.loc 1 1457 0
 4451 0030 4C05     		se_li %r5,64
 4452 0032 01F3     		se_mr %r3,%r31
 4453              	.LVL588:
 4454 0034 78000001 		e_bl AEK_POW_BMS63EN_SPIReadRegister
 4455              	.LVL589:
 4456              		.loc 1 1458 0
 4457 0038 01E4     		se_mr %r4,%r30
 4458 003a 4C05     		se_li %r5,64
 4459 003c 01F3     		se_mr %r3,%r31
 4460 003e 78000001 		e_bl AEK_POW_BMS63EN_SPIReadRegister
 4461              	.LVL590:
 4462              		.loc 1 1460 0
 4463 0042 6C23     		se_slwi %r3, 2
 4464              	.LVL591:
 4465              		.loc 1 1462 0
 4466 0044 44D3     		se_or %r3,%r29
 4467              	.LVL592:
 4468 0046 78000001 		e_bl __floatunsisf
 4469              	.LVL593:
 4470 004a 7088E2B2 		e_lis %r4,0x42b2
 4471 004e 78000001 		e_bl __mulsf3
 4472              	.LVL594:
 4473 0052 7089E174 		e_lis %r4,0x4974
 4474 0056 1884D124 		e_ori %r4,%r4,9216
 4475 005a 78000001 		e_bl __divsf3
 4476              	.LVL595:
 4477              		.loc 1 1463 0
 4478 005e C701     		se_lwz %r0,28(%r1)
 4479 0060 0090     		se_mtlr %r0
 4480              		.cfi_restore 65
 4481 0062 1BA1080C 		e_lmw %r29,12(%r1)
 4482              	.LVL596:
 4483 0066 2171     		se_addi %r1,24
 4484              	.LCFI112:
 4485              		.cfi_restore 31
 4486              		.cfi_restore 30
 4487              		.cfi_restore 29
 4488              		.cfi_def_cfa_offset 0
 4489 0068 0004     		se_blr
 4490              		.cfi_endproc
 4491              	.LFE45:
 4492              		.size	AEK_POW_BMS63EN_GetBatteryPackVoltMeasurement, .-AEK_POW_BMS63EN_GetBatteryPackVoltMeasureme
 4493              		.section	.text.AEK_POW_BMS63EN_SetBalancingMode,"axv",@progbits
 4494              		.align 1
 4495              		.p2align 4,,15
 4496              		.globl AEK_POW_BMS63EN_SetBalancingMode
 4497              		.type	AEK_POW_BMS63EN_SetBalancingMode, @function
 4498              	AEK_POW_BMS63EN_SetBalancingMode:
 4499              	.LFB46:
 4500              		.loc 1 1468 0
 4501              		.cfi_startproc
 4502              	.LVL597:
 4503 0000 182106E8 		e_stwu %r1,-24(%r1)
GAS LISTING C:\Users\Vipuls\AppData\Local\Temp\ccRPm3ys.s 			page 80


 4504              	.LCFI113:
 4505              		.cfi_def_cfa_offset 24
 4506 0004 0080     		se_mflr %r0
 4507 0006 1BA1090C 		e_stmw %r29,12(%r1)
 4508 000a D701     		se_stw %r0,28(%r1)
 4509              		.cfi_offset 65, 4
 4510              		.cfi_offset 29, -12
 4511              		.cfi_offset 30, -8
 4512              		.cfi_offset 31, -4
 4513              		.loc 1 1468 0
 4514 000c 013F     		se_mr %r31,%r3
 4515 000e 014D     		se_mr %r29,%r4
 4516              		.loc 1 1472 0
 4517 0010 4845     		se_li %r5,4
 4518 0012 0134     		se_mr %r4,%r3
 4519              	.LVL598:
 4520 0014 73C0E000 		e_lis %r30,AEK_POW_BMS63EN_Drv@ha
 4521 0018 1FDE0000 		e_la %r30,AEK_POW_BMS63EN_Drv@l(%r30)
 4522 001c 01E3     		se_mr %r3,%r30
 4523              	.LVL599:
 4524 001e 78000001 		e_bl AEK_POW_BMS63EN_SPIReadRegister
 4525              	.LVL600:
 4526              		.loc 1 1473 0
 4527 0022 01E3     		se_mr %r3,%r30
 4528 0024 01F4     		se_mr %r4,%r31
 4529 0026 4845     		se_li %r5,4
 4530 0028 78000001 		e_bl AEK_POW_BMS63EN_SPIReadRegister
 4531              	.LVL601:
 4532              		.loc 1 1477 0
 4533 002c 220D     		se_cmpli %r29,1
 4534              		.loc 1 1481 0
 4535 002e 7466043F 		e_rlwinm %r6,%r3,0,0xffff
 4536              	.LVL602:
 4537              		.loc 1 1482 0
 4538 0032 64E6     		se_bseti %r6,14
 4539              	.LVL603:
 4540              		.loc 1 1477 0
 4541 0034 7A120034 		e_beq %cr0,.L194
 4542              	.LVL604:
 4543              		.loc 1 1485 0
 4544 0038 01F4     		se_mr %r4,%r31
 4545 003a 4845     		se_li %r5,4
 4546 003c 73C0E000 		e_lis %r30,AEK_POW_BMS63EN_Drv@ha
 4547 0040 1FDE0000 		e_la %r30,AEK_POW_BMS63EN_Drv@l(%r30)
 4548 0044 01E3     		se_mr %r3,%r30
 4549 0046 78000001 		e_bl AEK_POW_BMS63EN_SPIWriteRegister
 4550              	.LVL605:
 4551              		.loc 1 1487 0
 4552 004a 01F4     		se_mr %r4,%r31
 4553 004c 01E3     		se_mr %r3,%r30
 4554 004e 4845     		se_li %r5,4
 4555 0050 78000001 		e_bl AEK_POW_BMS63EN_SPIReadRegister
 4556              	.LVL606:
 4557              		.loc 1 1490 0
 4558 0054 C701     		se_lwz %r0,28(%r1)
 4559              		.loc 1 1488 0
 4560 0056 01E3     		se_mr %r3,%r30
GAS LISTING C:\Users\Vipuls\AppData\Local\Temp\ccRPm3ys.s 			page 81


 4561 0058 01F4     		se_mr %r4,%r31
 4562 005a 4845     		se_li %r5,4
 4563              		.loc 1 1490 0
 4564 005c 1BA1080C 		e_lmw %r29,12(%r1)
 4565              	.LVL607:
 4566 0060 0090     		se_mtlr %r0
 4567              		.cfi_remember_state
 4568              		.cfi_restore 65
 4569 0062 2171     		se_addi %r1,24
 4570              	.LCFI114:
 4571              		.cfi_restore 31
 4572              		.cfi_restore 30
 4573              		.cfi_restore 29
 4574              		.cfi_def_cfa_offset 0
 4575              		.loc 1 1488 0
 4576 0064 78000000 		e_b AEK_POW_BMS63EN_SPIReadRegister
 4577              	.LVL608:
 4578              	.L194:
 4579              	.LCFI115:
 4580              		.cfi_restore_state
 4581              		.loc 1 1485 0
 4582 0068 01F4     		se_mr %r4,%r31
 4583              		.loc 1 1478 0
 4584 006a 7466043F 		e_rlwinm %r6,%r3,0,0xffff
 4585              	.LVL609:
 4586              		.loc 1 1485 0
 4587 006e 4845     		se_li %r5,4
 4588              		.loc 1 1479 0
 4589 0070 64F6     		se_bseti %r6,15
 4590              	.LVL610:
 4591              		.loc 1 1485 0
 4592 0072 73C0E000 		e_lis %r30,AEK_POW_BMS63EN_Drv@ha
 4593 0076 1FDE0000 		e_la %r30,AEK_POW_BMS63EN_Drv@l(%r30)
 4594 007a 01E3     		se_mr %r3,%r30
 4595 007c 78000001 		e_bl AEK_POW_BMS63EN_SPIWriteRegister
 4596              	.LVL611:
 4597              		.loc 1 1487 0
 4598 0080 01F4     		se_mr %r4,%r31
 4599 0082 01E3     		se_mr %r3,%r30
 4600 0084 4845     		se_li %r5,4
 4601 0086 78000001 		e_bl AEK_POW_BMS63EN_SPIReadRegister
 4602              	.LVL612:
 4603              		.loc 1 1490 0
 4604 008a C701     		se_lwz %r0,28(%r1)
 4605              		.loc 1 1488 0
 4606 008c 01E3     		se_mr %r3,%r30
 4607 008e 01F4     		se_mr %r4,%r31
 4608 0090 4845     		se_li %r5,4
 4609              		.loc 1 1490 0
 4610 0092 1BA1080C 		e_lmw %r29,12(%r1)
 4611              	.LVL613:
 4612 0096 0090     		se_mtlr %r0
 4613              		.cfi_restore 65
 4614 0098 2171     		se_addi %r1,24
 4615              	.LCFI116:
 4616              		.cfi_restore 29
 4617              		.cfi_restore 30
GAS LISTING C:\Users\Vipuls\AppData\Local\Temp\ccRPm3ys.s 			page 82


 4618              		.cfi_restore 31
 4619              		.cfi_def_cfa_offset 0
 4620              		.loc 1 1488 0
 4621 009a 78000000 		e_b AEK_POW_BMS63EN_SPIReadRegister
 4622              	.LVL614:
 4623              		.cfi_endproc
 4624              	.LFE46:
 4625              		.size	AEK_POW_BMS63EN_SetBalancingMode, .-AEK_POW_BMS63EN_SetBalancingMode
 4626              		.section	.text.AEK_POW_BMS63EN_SetCellTimedBalThreshold,"axv",@progbits
 4627              		.align 1
 4628              		.p2align 4,,15
 4629              		.globl AEK_POW_BMS63EN_SetCellTimedBalThreshold
 4630              		.type	AEK_POW_BMS63EN_SetCellTimedBalThreshold, @function
 4631              	AEK_POW_BMS63EN_SetCellTimedBalThreshold:
 4632              	.LFB47:
 4633              		.loc 1 1496 0
 4634              		.cfi_startproc
 4635              	.LVL615:
 4636 0000 182106E8 		e_stwu %r1,-24(%r1)
 4637              	.LCFI117:
 4638              		.cfi_def_cfa_offset 24
 4639 0004 0080     		se_mflr %r0
 4640 0006 1B810908 		e_stmw %r28,8(%r1)
 4641              		.loc 1 1502 0
 4642 000a 7CA71470 		e_srwi %r7,%r5,2
 4643              		.loc 1 1496 0
 4644 000e D701     		se_stw %r0,28(%r1)
 4645              		.cfi_offset 65, 4
 4646              		.cfi_offset 28, -16
 4647              		.cfi_offset 29, -12
 4648              		.cfi_offset 30, -8
 4649              		.cfi_offset 31, -4
 4650              		.loc 1 1496 0
 4651 0010 013E     		se_mr %r30,%r3
 4652 0012 014D     		se_mr %r29,%r4
 4653              		.loc 1 1505 0
 4654 0014 7CBF4C70 		e_srwi %r31,%r5,9
 4655              		.loc 1 1502 0
 4656 0018 7007A9FC 		e_cmpl16i %r7,508
 4657 001c 7A11000A 		e_bgt %cr0,.L197
 4658              		.loc 1 1503 0
 4659 0020 18FFD480 		e_ori %r31,%r7,-128
 4660 0024 00CF     		se_extzb %r31
 4661              	.LVL616:
 4662              	.L197:
 4663              		.loc 1 1508 0
 4664 0026 22CD     		se_cmpli %r29,13
 4665 0028 7A110212 		e_bgt %cr0,.L214
 4666 002c 7FA61070 		e_slwi %r6,%r29,2
 4667 0030 70E0E000 		e_lis %r7,.L200@ha
 4668 0034 1CE70000 		e_la %r7,.L200@l(%r7)
 4669 0038 7CC7302E 		lwzx %r6,%r7,%r6
 4670 003c 7CE63A14 		add %r7,%r6,%r7
 4671 0040 00B7     		se_mtctr %r7
 4672              		.loc 1 1589 0
 4673 0042 01E4     		se_mr %r4,%r30
 4674              	.LVL617:
GAS LISTING C:\Users\Vipuls\AppData\Local\Temp\ccRPm3ys.s 			page 83


 4675              		.loc 1 1508 0
 4676 0044 0006     		se_bctr
 4677              		.section	.rodata.AEK_POW_BMS63EN_SetCellTimedBalThreshold,"a",@progbits
 4678              		.align 2
 4679              		.align 2
 4680              	.L200:
 4681 0000 00000000 		.long .L199-.L200
 4682 0004 00000000 		.long .L199-.L200
 4683 0008 00000000 		.long .L201-.L200
 4684 000c 00000000 		.long .L201-.L200
 4685 0010 00000000 		.long .L202-.L200
 4686 0014 00000000 		.long .L202-.L200
 4687 0018 00000000 		.long .L203-.L200
 4688 001c 00000000 		.long .L203-.L200
 4689 0020 00000000 		.long .L204-.L200
 4690 0024 00000000 		.long .L204-.L200
 4691 0028 00000000 		.long .L205-.L200
 4692 002c 00000000 		.long .L205-.L200
 4693 0030 00000000 		.long .L206-.L200
 4694 0034 00000000 		.long .L206-.L200
 4695              		.section	.text.AEK_POW_BMS63EN_SetCellTimedBalThreshold
 4696              	.L205:
 4697              	.LVL618:
 4698              		.loc 1 1576 0
 4699 0046 4855     		se_li %r5,5
 4700              	.LVL619:
 4701 0048 73A0E000 		e_lis %r29,AEK_POW_BMS63EN_Drv@ha
 4702              	.LVL620:
 4703 004c 1FBD0000 		e_la %r29,AEK_POW_BMS63EN_Drv@l(%r29)
 4704 0050 01D3     		se_mr %r3,%r29
 4705              	.LVL621:
 4706 0052 78000001 		e_bl AEK_POW_BMS63EN_SPIReadRegister
 4707              	.LVL622:
 4708              		.loc 1 1577 0
 4709 0056 4855     		se_li %r5,5
 4710 0058 01D3     		se_mr %r3,%r29
 4711 005a 01E4     		se_mr %r4,%r30
 4712 005c 78000001 		e_bl AEK_POW_BMS63EN_SPIReadRegister
 4713              	.LVL623:
 4714              		.loc 1 1583 0
 4715 0060 1BE6C03F 		e_andi %r6,%r31,63
 4716              		.loc 1 1582 0
 4717 0064 1863C480 		e_andi %r3,%r3,-128
 4718              	.LVL624:
 4719              		.loc 1 1575 0
 4720 0068 4855     		se_li %r5,5
 4721              		.loc 1 1583 0
 4722 006a 4436     		se_or %r6,%r3
 4723              	.LVL625:
 4724              	.L198:
 4725              		.loc 1 1606 0
 4726 006c 01E4     		se_mr %r4,%r30
 4727 006e 73A0E000 		e_lis %r29,AEK_POW_BMS63EN_Drv@ha
 4728 0072 1FBD0000 		e_la %r29,AEK_POW_BMS63EN_Drv@l(%r29)
 4729 0076 01D3     		se_mr %r3,%r29
 4730 0078 78000001 		e_bl AEK_POW_BMS63EN_SPIWriteRegister
 4731              	.LVL626:
GAS LISTING C:\Users\Vipuls\AppData\Local\Temp\ccRPm3ys.s 			page 84


 4732              		.loc 1 1608 0
 4733 007c 678F     		se_btsti %r31,24
 4734 007e 7A020130 		e_bne %cr0,.L215
 4735              		.loc 1 1615 0
 4736 0082 C701     		se_lwz %r0,28(%r1)
 4737 0084 0090     		se_mtlr %r0
 4738              		.cfi_remember_state
 4739              		.cfi_restore 65
 4740 0086 1B810808 		e_lmw %r28,8(%r1)
 4741              	.LVL627:
 4742 008a 2171     		se_addi %r1,24
 4743              	.LCFI118:
 4744              		.cfi_restore 31
 4745              		.cfi_restore 30
 4746              		.cfi_restore 29
 4747              		.cfi_restore 28
 4748              		.cfi_def_cfa_offset 0
 4749 008c 0004     		se_blr
 4750              	.LVL628:
 4751              	.L206:
 4752              	.LCFI119:
 4753              		.cfi_restore_state
 4754              		.loc 1 1589 0
 4755 008e 4845     		se_li %r5,4
 4756              	.LVL629:
 4757 0090 7380E000 		e_lis %r28,AEK_POW_BMS63EN_Drv@ha
 4758 0094 1F9C0000 		e_la %r28,AEK_POW_BMS63EN_Drv@l(%r28)
 4759 0098 01C3     		se_mr %r3,%r28
 4760              	.LVL630:
 4761 009a 78000001 		e_bl AEK_POW_BMS63EN_SPIReadRegister
 4762              	.LVL631:
 4763              		.loc 1 1590 0
 4764 009e 01C3     		se_mr %r3,%r28
 4765 00a0 01E4     		se_mr %r4,%r30
 4766 00a2 4845     		se_li %r5,4
 4767 00a4 78000001 		e_bl AEK_POW_BMS63EN_SPIReadRegister
 4768              	.LVL632:
 4769              		.loc 1 1591 0
 4770 00a8 22BD     		se_cmpli %r29,12
 4771 00aa 7A120140 		e_beq %cr0,.L216
 4772              		.loc 1 1595 0
 4773 00ae 1863C580 		e_andi %r3,%r3,-32513
 4774              	.LVL633:
 4775              		.loc 1 1596 0
 4776 00b2 77E644AF 		e_rlwinm %r6,%r31,8,18,23
 4777              		.loc 1 1588 0
 4778 00b6 4845     		se_li %r5,4
 4779              		.loc 1 1596 0
 4780 00b8 4436     		se_or %r6,%r3
 4781              	.LVL634:
 4782 00ba 79FFFFB2 		e_b .L198
 4783              	.LVL635:
 4784              	.L199:
 4785              		.loc 1 1511 0
 4786 00be 48A5     		se_li %r5,10
 4787              	.LVL636:
 4788 00c0 7380E000 		e_lis %r28,AEK_POW_BMS63EN_Drv@ha
GAS LISTING C:\Users\Vipuls\AppData\Local\Temp\ccRPm3ys.s 			page 85


 4789 00c4 1F9C0000 		e_la %r28,AEK_POW_BMS63EN_Drv@l(%r28)
 4790 00c8 01C3     		se_mr %r3,%r28
 4791              	.LVL637:
 4792 00ca 78000001 		e_bl AEK_POW_BMS63EN_SPIReadRegister
 4793              	.LVL638:
 4794              		.loc 1 1512 0
 4795 00ce 01C3     		se_mr %r3,%r28
 4796 00d0 01E4     		se_mr %r4,%r30
 4797 00d2 48A5     		se_li %r5,10
 4798 00d4 78000001 		e_bl AEK_POW_BMS63EN_SPIReadRegister
 4799              	.LVL639:
 4800              		.loc 1 1513 0
 4801 00d8 2A0D     		se_cmpi %r29,0
 4802 00da 7A020100 		e_bne %cr0,.L207
 4803              		.loc 1 1514 0
 4804 00de 1863C480 		e_andi %r3,%r3,-128
 4805              	.LVL640:
 4806              		.loc 1 1515 0
 4807 00e2 1BE6C03F 		e_andi %r6,%r31,63
 4808              		.loc 1 1510 0
 4809 00e6 48A5     		se_li %r5,10
 4810              		.loc 1 1515 0
 4811 00e8 4436     		se_or %r6,%r3
 4812              	.LVL641:
 4813 00ea 79FFFF82 		e_b .L198
 4814              	.LVL642:
 4815              	.L201:
 4816              		.loc 1 1524 0
 4817 00ee 4895     		se_li %r5,9
 4818              	.LVL643:
 4819 00f0 7380E000 		e_lis %r28,AEK_POW_BMS63EN_Drv@ha
 4820 00f4 1F9C0000 		e_la %r28,AEK_POW_BMS63EN_Drv@l(%r28)
 4821 00f8 01C3     		se_mr %r3,%r28
 4822              	.LVL644:
 4823 00fa 78000001 		e_bl AEK_POW_BMS63EN_SPIReadRegister
 4824              	.LVL645:
 4825              		.loc 1 1525 0
 4826 00fe 01C3     		se_mr %r3,%r28
 4827 0100 01E4     		se_mr %r4,%r30
 4828 0102 4895     		se_li %r5,9
 4829 0104 78000001 		e_bl AEK_POW_BMS63EN_SPIReadRegister
 4830              	.LVL646:
 4831              		.loc 1 1526 0
 4832 0108 221D     		se_cmpli %r29,2
 4833 010a 7A120120 		e_beq %cr0,.L217
 4834              		.loc 1 1530 0
 4835 010e 1863C580 		e_andi %r3,%r3,-32513
 4836              	.LVL647:
 4837              		.loc 1 1531 0
 4838 0112 77E644AF 		e_rlwinm %r6,%r31,8,18,23
 4839              		.loc 1 1523 0
 4840 0116 4895     		se_li %r5,9
 4841              		.loc 1 1531 0
 4842 0118 4436     		se_or %r6,%r3
 4843              	.LVL648:
 4844 011a 79FFFF52 		e_b .L198
 4845              	.LVL649:
GAS LISTING C:\Users\Vipuls\AppData\Local\Temp\ccRPm3ys.s 			page 86


 4846              	.L203:
 4847              		.loc 1 1550 0
 4848 011e 4875     		se_li %r5,7
 4849              	.LVL650:
 4850 0120 7380E000 		e_lis %r28,AEK_POW_BMS63EN_Drv@ha
 4851 0124 1F9C0000 		e_la %r28,AEK_POW_BMS63EN_Drv@l(%r28)
 4852 0128 01C3     		se_mr %r3,%r28
 4853              	.LVL651:
 4854 012a 78000001 		e_bl AEK_POW_BMS63EN_SPIReadRegister
 4855              	.LVL652:
 4856              		.loc 1 1551 0
 4857 012e 01C3     		se_mr %r3,%r28
 4858 0130 01E4     		se_mr %r4,%r30
 4859 0132 4875     		se_li %r5,7
 4860 0134 78000001 		e_bl AEK_POW_BMS63EN_SPIReadRegister
 4861              	.LVL653:
 4862              		.loc 1 1552 0
 4863 0138 225D     		se_cmpli %r29,6
 4864 013a 7A1200E0 		e_beq %cr0,.L218
 4865              		.loc 1 1556 0
 4866 013e 1863C580 		e_andi %r3,%r3,-32513
 4867              	.LVL654:
 4868              		.loc 1 1557 0
 4869 0142 77E644AF 		e_rlwinm %r6,%r31,8,18,23
 4870              		.loc 1 1549 0
 4871 0146 4875     		se_li %r5,7
 4872              		.loc 1 1557 0
 4873 0148 4436     		se_or %r6,%r3
 4874              	.LVL655:
 4875 014a 79FFFF22 		e_b .L198
 4876              	.LVL656:
 4877              	.L204:
 4878              		.loc 1 1563 0
 4879 014e 4865     		se_li %r5,6
 4880              	.LVL657:
 4881 0150 7380E000 		e_lis %r28,AEK_POW_BMS63EN_Drv@ha
 4882 0154 1F9C0000 		e_la %r28,AEK_POW_BMS63EN_Drv@l(%r28)
 4883 0158 01C3     		se_mr %r3,%r28
 4884              	.LVL658:
 4885 015a 78000001 		e_bl AEK_POW_BMS63EN_SPIReadRegister
 4886              	.LVL659:
 4887              		.loc 1 1564 0
 4888 015e 01C3     		se_mr %r3,%r28
 4889 0160 01E4     		se_mr %r4,%r30
 4890 0162 4865     		se_li %r5,6
 4891 0164 78000001 		e_bl AEK_POW_BMS63EN_SPIReadRegister
 4892              	.LVL660:
 4893              		.loc 1 1565 0
 4894 0168 227D     		se_cmpli %r29,8
 4895 016a 7A1200A0 		e_beq %cr0,.L219
 4896              		.loc 1 1569 0
 4897 016e 1863C580 		e_andi %r3,%r3,-32513
 4898              	.LVL661:
 4899              		.loc 1 1570 0
 4900 0172 77E644AF 		e_rlwinm %r6,%r31,8,18,23
 4901              		.loc 1 1562 0
 4902 0176 4865     		se_li %r5,6
GAS LISTING C:\Users\Vipuls\AppData\Local\Temp\ccRPm3ys.s 			page 87


 4903              		.loc 1 1570 0
 4904 0178 4436     		se_or %r6,%r3
 4905              	.LVL662:
 4906 017a 79FFFEF2 		e_b .L198
 4907              	.LVL663:
 4908              	.L202:
 4909              		.loc 1 1537 0
 4910 017e 4885     		se_li %r5,8
 4911              	.LVL664:
 4912 0180 7380E000 		e_lis %r28,AEK_POW_BMS63EN_Drv@ha
 4913 0184 1F9C0000 		e_la %r28,AEK_POW_BMS63EN_Drv@l(%r28)
 4914 0188 01C3     		se_mr %r3,%r28
 4915              	.LVL665:
 4916 018a 78000001 		e_bl AEK_POW_BMS63EN_SPIReadRegister
 4917              	.LVL666:
 4918              		.loc 1 1538 0
 4919 018e 01C3     		se_mr %r3,%r28
 4920 0190 01E4     		se_mr %r4,%r30
 4921 0192 4885     		se_li %r5,8
 4922 0194 78000001 		e_bl AEK_POW_BMS63EN_SPIReadRegister
 4923              	.LVL667:
 4924              		.loc 1 1539 0
 4925 0198 223D     		se_cmpli %r29,4
 4926 019a 7A120060 		e_beq %cr0,.L220
 4927              		.loc 1 1543 0
 4928 019e 1863C580 		e_andi %r3,%r3,-32513
 4929              	.LVL668:
 4930              		.loc 1 1544 0
 4931 01a2 77E644AF 		e_rlwinm %r6,%r31,8,18,23
 4932              		.loc 1 1536 0
 4933 01a6 4885     		se_li %r5,8
 4934              		.loc 1 1544 0
 4935 01a8 4436     		se_or %r6,%r3
 4936              	.LVL669:
 4937 01aa 79FFFEC2 		e_b .L198
 4938              	.LVL670:
 4939              	.L215:
 4940              		.loc 1 1609 0
 4941 01ae 01E4     		se_mr %r4,%r30
 4942 01b0 01D3     		se_mr %r3,%r29
 4943 01b2 4845     		se_li %r5,4
 4944 01b4 78000001 		e_bl AEK_POW_BMS63EN_SPIReadRegister
 4945              	.LVL671:
 4946              		.loc 1 1610 0
 4947 01b8 01E4     		se_mr %r4,%r30
 4948 01ba 01D3     		se_mr %r3,%r29
 4949 01bc 4845     		se_li %r5,4
 4950 01be 78000001 		e_bl AEK_POW_BMS63EN_SPIReadRegister
 4951              	.LVL672:
 4952              		.loc 1 1615 0
 4953 01c2 C701     		se_lwz %r0,28(%r1)
 4954              		.loc 1 1612 0
 4955 01c4 01E4     		se_mr %r4,%r30
 4956              		.loc 1 1611 0
 4957 01c6 1866D180 		e_ori %r6,%r3,32768
 4958              	.LVL673:
 4959              		.loc 1 1612 0
GAS LISTING C:\Users\Vipuls\AppData\Local\Temp\ccRPm3ys.s 			page 88


 4960 01ca 4845     		se_li %r5,4
 4961 01cc 01D3     		se_mr %r3,%r29
 4962              		.loc 1 1615 0
 4963 01ce 0090     		se_mtlr %r0
 4964              		.cfi_remember_state
 4965              		.cfi_restore 65
 4966 01d0 1B810808 		e_lmw %r28,8(%r1)
 4967              	.LVL674:
 4968 01d4 2171     		se_addi %r1,24
 4969              	.LCFI120:
 4970              		.cfi_restore 31
 4971              		.cfi_restore 30
 4972              		.cfi_restore 29
 4973              		.cfi_restore 28
 4974              		.cfi_def_cfa_offset 0
 4975              		.loc 1 1612 0
 4976 01d6 78000000 		e_b AEK_POW_BMS63EN_SPIWriteRegister
 4977              	.LVL675:
 4978              	.L207:
 4979              	.LCFI121:
 4980              		.cfi_restore_state
 4981              		.loc 1 1517 0
 4982 01da 1863C580 		e_andi %r3,%r3,-32513
 4983              	.LVL676:
 4984              		.loc 1 1518 0
 4985 01de 77E644AF 		e_rlwinm %r6,%r31,8,18,23
 4986              		.loc 1 1510 0
 4987 01e2 48A5     		se_li %r5,10
 4988              		.loc 1 1518 0
 4989 01e4 4436     		se_or %r6,%r3
 4990              	.LVL677:
 4991 01e6 79FFFE86 		e_b .L198
 4992              	.LVL678:
 4993              	.L216:
 4994              		.loc 1 1592 0
 4995 01ea 1863C480 		e_andi %r3,%r3,-128
 4996              	.LVL679:
 4997              		.loc 1 1593 0
 4998 01ee 1BE6C03F 		e_andi %r6,%r31,63
 4999              		.loc 1 1588 0
 5000 01f2 4845     		se_li %r5,4
 5001              		.loc 1 1593 0
 5002 01f4 4436     		se_or %r6,%r3
 5003              	.LVL680:
 5004 01f6 79FFFE76 		e_b .L198
 5005              	.LVL681:
 5006              	.L220:
 5007              		.loc 1 1540 0
 5008 01fa 1863C480 		e_andi %r3,%r3,-128
 5009              	.LVL682:
 5010              		.loc 1 1541 0
 5011 01fe 1BE6C03F 		e_andi %r6,%r31,63
 5012              		.loc 1 1536 0
 5013 0202 4885     		se_li %r5,8
 5014              		.loc 1 1541 0
 5015 0204 4436     		se_or %r6,%r3
 5016              	.LVL683:
GAS LISTING C:\Users\Vipuls\AppData\Local\Temp\ccRPm3ys.s 			page 89


 5017 0206 79FFFE66 		e_b .L198
 5018              	.LVL684:
 5019              	.L219:
 5020              		.loc 1 1566 0
 5021 020a 1863C480 		e_andi %r3,%r3,-128
 5022              	.LVL685:
 5023              		.loc 1 1567 0
 5024 020e 1BE6C03F 		e_andi %r6,%r31,63
 5025              		.loc 1 1562 0
 5026 0212 4865     		se_li %r5,6
 5027              		.loc 1 1567 0
 5028 0214 4436     		se_or %r6,%r3
 5029              	.LVL686:
 5030 0216 79FFFE56 		e_b .L198
 5031              	.LVL687:
 5032              	.L218:
 5033              		.loc 1 1553 0
 5034 021a 1863C480 		e_andi %r3,%r3,-128
 5035              	.LVL688:
 5036              		.loc 1 1554 0
 5037 021e 1BE6C03F 		e_andi %r6,%r31,63
 5038              		.loc 1 1549 0
 5039 0222 4875     		se_li %r5,7
 5040              		.loc 1 1554 0
 5041 0224 4436     		se_or %r6,%r3
 5042              	.LVL689:
 5043 0226 79FFFE46 		e_b .L198
 5044              	.LVL690:
 5045              	.L217:
 5046              		.loc 1 1527 0
 5047 022a 1863C480 		e_andi %r3,%r3,-128
 5048              	.LVL691:
 5049              		.loc 1 1528 0
 5050 022e 1BE6C03F 		e_andi %r6,%r31,63
 5051              		.loc 1 1523 0
 5052 0232 4895     		se_li %r5,9
 5053              		.loc 1 1528 0
 5054 0234 4436     		se_or %r6,%r3
 5055              	.LVL692:
 5056 0236 79FFFE36 		e_b .L198
 5057              	.LVL693:
 5058              	.L214:
 5059              		.loc 1 1500 0
 5060 023a 4806     		se_li %r6,0
 5061              		.loc 1 1499 0
 5062 023c 4805     		se_li %r5,0
 5063              	.LVL694:
 5064 023e 79FFFE2E 		e_b .L198
 5065              		.cfi_endproc
 5066              	.LFE47:
 5067              		.size	AEK_POW_BMS63EN_SetCellTimedBalThreshold, .-AEK_POW_BMS63EN_SetCellTimedBalThreshold
 5068              		.section	.text.AEK_POW_BMS63EN_StartCellBalancing,"axv",@progbits
 5069              		.align 1
 5070              		.p2align 4,,15
 5071              		.globl AEK_POW_BMS63EN_StartCellBalancing
 5072              		.type	AEK_POW_BMS63EN_StartCellBalancing, @function
 5073              	AEK_POW_BMS63EN_StartCellBalancing:
GAS LISTING C:\Users\Vipuls\AppData\Local\Temp\ccRPm3ys.s 			page 90


 5074              	.LFB48:
 5075              		.loc 1 1621 0
 5076              		.cfi_startproc
 5077              	.LVL695:
 5078 0000 182106F0 		e_stwu %r1,-16(%r1)
 5079              	.LCFI122:
 5080              		.cfi_def_cfa_offset 16
 5081 0004 0080     		se_mflr %r0
 5082 0006 1BC10908 		e_stmw %r30,8(%r1)
 5083 000a D501     		se_stw %r0,20(%r1)
 5084              		.cfi_offset 65, 4
 5085              		.cfi_offset 30, -8
 5086              		.cfi_offset 31, -4
 5087              		.loc 1 1621 0
 5088 000c 013E     		se_mr %r30,%r3
 5089              		.loc 1 1625 0
 5090 000e 0134     		se_mr %r4,%r3
 5091 0010 4835     		se_li %r5,3
 5092 0012 73E0E000 		e_lis %r31,AEK_POW_BMS63EN_Drv@ha
 5093 0016 1FFF0000 		e_la %r31,AEK_POW_BMS63EN_Drv@l(%r31)
 5094 001a 01F3     		se_mr %r3,%r31
 5095              	.LVL696:
 5096 001c 78000001 		e_bl AEK_POW_BMS63EN_SPIReadRegister
 5097              	.LVL697:
 5098              		.loc 1 1626 0
 5099 0020 01E4     		se_mr %r4,%r30
 5100 0022 01F3     		se_mr %r3,%r31
 5101 0024 4835     		se_li %r5,3
 5102 0026 78000001 		e_bl AEK_POW_BMS63EN_SPIReadRegister
 5103              	.LVL698:
 5104              		.loc 1 1633 0
 5105 002a C501     		se_lwz %r0,20(%r1)
 5106              		.loc 1 1628 0
 5107 002c 1866C5BF 		e_andi %r6,%r3,-16385
 5108              	.LVL699:
 5109              		.loc 1 1631 0
 5110 0030 01E4     		se_mr %r4,%r30
 5111 0032 01F3     		se_mr %r3,%r31
 5112 0034 4835     		se_li %r5,3
 5113              		.loc 1 1633 0
 5114 0036 1BC10808 		e_lmw %r30,8(%r1)
 5115              	.LVL700:
 5116              		.loc 1 1631 0
 5117 003a 6506     		se_bseti %r6,16
 5118              	.LVL701:
 5119              		.loc 1 1633 0
 5120 003c 0090     		se_mtlr %r0
 5121              		.cfi_restore 65
 5122 003e 20F1     		se_addi %r1,16
 5123              	.LCFI123:
 5124              		.cfi_restore 31
 5125              		.cfi_restore 30
 5126              		.cfi_def_cfa_offset 0
 5127              		.loc 1 1631 0
 5128 0040 78000000 		e_b AEK_POW_BMS63EN_SPIWriteRegister
 5129              	.LVL702:
 5130              		.cfi_endproc
GAS LISTING C:\Users\Vipuls\AppData\Local\Temp\ccRPm3ys.s 			page 91


 5131              	.LFE48:
 5132              		.size	AEK_POW_BMS63EN_StartCellBalancing, .-AEK_POW_BMS63EN_StartCellBalancing
 5133              		.section	.text.AEK_POW_BMS63EN_StopCellBalancing,"axv",@progbits
 5134              		.align 1
 5135              		.p2align 4,,15
 5136              		.globl AEK_POW_BMS63EN_StopCellBalancing
 5137              		.type	AEK_POW_BMS63EN_StopCellBalancing, @function
 5138              	AEK_POW_BMS63EN_StopCellBalancing:
 5139              	.LFB49:
 5140              		.loc 1 1639 0
 5141              		.cfi_startproc
 5142              	.LVL703:
 5143 0000 182106F0 		e_stwu %r1,-16(%r1)
 5144              	.LCFI124:
 5145              		.cfi_def_cfa_offset 16
 5146 0004 0080     		se_mflr %r0
 5147 0006 1BC10908 		e_stmw %r30,8(%r1)
 5148 000a D501     		se_stw %r0,20(%r1)
 5149              		.cfi_offset 65, 4
 5150              		.cfi_offset 30, -8
 5151              		.cfi_offset 31, -4
 5152              		.loc 1 1639 0
 5153 000c 013E     		se_mr %r30,%r3
 5154              		.loc 1 1643 0
 5155 000e 0134     		se_mr %r4,%r3
 5156 0010 4835     		se_li %r5,3
 5157 0012 73E0E000 		e_lis %r31,AEK_POW_BMS63EN_Drv@ha
 5158 0016 1FFF0000 		e_la %r31,AEK_POW_BMS63EN_Drv@l(%r31)
 5159 001a 01F3     		se_mr %r3,%r31
 5160              	.LVL704:
 5161 001c 78000001 		e_bl AEK_POW_BMS63EN_SPIReadRegister
 5162              	.LVL705:
 5163              		.loc 1 1644 0
 5164 0020 01E4     		se_mr %r4,%r30
 5165 0022 01F3     		se_mr %r3,%r31
 5166 0024 4835     		se_li %r5,3
 5167 0026 78000001 		e_bl AEK_POW_BMS63EN_SPIReadRegister
 5168              	.LVL706:
 5169              		.loc 1 1651 0
 5170 002a C501     		se_lwz %r0,20(%r1)
 5171              		.loc 1 1646 0
 5172 002c 1866C57F 		e_andi %r6,%r3,-32769
 5173              	.LVL707:
 5174              		.loc 1 1649 0
 5175 0030 01E4     		se_mr %r4,%r30
 5176 0032 01F3     		se_mr %r3,%r31
 5177 0034 4835     		se_li %r5,3
 5178              		.loc 1 1651 0
 5179 0036 1BC10808 		e_lmw %r30,8(%r1)
 5180              	.LVL708:
 5181              		.loc 1 1649 0
 5182 003a 6516     		se_bseti %r6,17
 5183              	.LVL709:
 5184              		.loc 1 1651 0
 5185 003c 0090     		se_mtlr %r0
 5186              		.cfi_restore 65
 5187 003e 20F1     		se_addi %r1,16
GAS LISTING C:\Users\Vipuls\AppData\Local\Temp\ccRPm3ys.s 			page 92


 5188              	.LCFI125:
 5189              		.cfi_restore 31
 5190              		.cfi_restore 30
 5191              		.cfi_def_cfa_offset 0
 5192              		.loc 1 1649 0
 5193 0040 78000000 		e_b AEK_POW_BMS63EN_SPIWriteRegister
 5194              	.LVL710:
 5195              		.cfi_endproc
 5196              	.LFE49:
 5197              		.size	AEK_POW_BMS63EN_StopCellBalancing, .-AEK_POW_BMS63EN_StopCellBalancing
 5198              		.globl __floatsidf
 5199              		.section	.text.AEK_POW_BMS63EN_GetVoltageGPIOMeasurement,"axv",@progbits
 5200              		.align 1
 5201              		.p2align 4,,15
 5202              		.globl AEK_POW_BMS63EN_GetVoltageGPIOMeasurement
 5203              		.type	AEK_POW_BMS63EN_GetVoltageGPIOMeasurement, @function
 5204              	AEK_POW_BMS63EN_GetVoltageGPIOMeasurement:
 5205              	.LFB50:
 5206              		.loc 1 1662 0
 5207              		.cfi_startproc
 5208              	.LVL711:
 5209 0000 182106E0 		e_stwu %r1,-32(%r1)
 5210              	.LCFI126:
 5211              		.cfi_def_cfa_offset 32
 5212 0004 0080     		se_mflr %r0
 5213 0006 1B61090C 		e_stmw %r27,12(%r1)
 5214 000a D901     		se_stw %r0,36(%r1)
 5215              		.cfi_offset 65, 4
 5216              		.cfi_offset 27, -20
 5217              		.cfi_offset 28, -16
 5218              		.cfi_offset 29, -12
 5219              		.cfi_offset 30, -8
 5220              		.cfi_offset 31, -4
 5221              		.loc 1 1662 0
 5222 000c 016E     		se_mr %r30,%r6
 5223              		.loc 1 1667 0
 5224 000e 1BA48034 		e_addi %r29,%r4,52
 5225              		.loc 1 1662 0
 5226 0012 013C     		se_mr %r28,%r3
 5227              		.loc 1 1667 0
 5228 0014 0134     		se_mr %r4,%r3
 5229              	.LVL712:
 5230              		.loc 1 1662 0
 5231 0016 015B     		se_mr %r27,%r5
 5232              		.loc 1 1667 0
 5233 0018 73E0E000 		e_lis %r31,AEK_POW_BMS63EN_Drv@ha
 5234 001c 01D5     		se_mr %r5,%r29
 5235              	.LVL713:
 5236 001e 1FFF0000 		e_la %r31,AEK_POW_BMS63EN_Drv@l(%r31)
 5237 0022 01F3     		se_mr %r3,%r31
 5238              	.LVL714:
 5239 0024 78000001 		e_bl AEK_POW_BMS63EN_SPIReadRegister
 5240              	.LVL715:
 5241              		.loc 1 1668 0
 5242 0028 01F3     		se_mr %r3,%r31
 5243 002a 01C4     		se_mr %r4,%r28
 5244 002c 01D5     		se_mr %r5,%r29
GAS LISTING C:\Users\Vipuls\AppData\Local\Temp\ccRPm3ys.s 			page 93


 5245 002e 78000001 		e_bl AEK_POW_BMS63EN_SPIReadRegister
 5246              	.LVL716:
 5247              		.loc 1 1670 0
 5248 0032 2A0E     		se_cmpi %r30,0
 5249              		.loc 1 1668 0
 5250 0034 0137     		se_mr %r7,%r3
 5251              	.LVL717:
 5252              		.loc 1 1670 0
 5253 0036 7A12005A 		e_beq %cr0,.L227
 5254              		.loc 1 1663 0
 5255 003a 4803     		se_li %r3,0
 5256              	.LVL718:
 5257              		.loc 1 1673 0
 5258 003c 220E     		se_cmpli %r30,1
 5259 003e 7A120010 		e_beq %cr0,.L228
 5260              	.LVL719:
 5261              		.loc 1 1679 0
 5262 0042 C901     		se_lwz %r0,36(%r1)
 5263 0044 0090     		se_mtlr %r0
 5264              		.cfi_remember_state
 5265              		.cfi_restore 65
 5266 0046 1B61080C 		e_lmw %r27,12(%r1)
 5267              	.LVL720:
 5268 004a 21F1     		se_addi %r1,32
 5269              	.LCFI127:
 5270              		.cfi_restore 31
 5271              		.cfi_restore 30
 5272              		.cfi_restore 29
 5273              		.cfi_restore 28
 5274              		.cfi_restore 27
 5275              		.cfi_def_cfa_offset 0
 5276 004c 0004     		se_blr
 5277              	.LVL721:
 5278              	.L228:
 5279              	.LCFI128:
 5280              		.cfi_restore_state
 5281              		.loc 1 1674 0
 5282 004e 74E3043F 		e_rlwinm %r3,%r7,0,0xffff
 5283 0052 78000001 		e_bl __floatsidf
 5284              	.LVL722:
 5285 0056 70A7E6EF 		e_lis %r5,0x3eef
 5286 005a 70C9E555 		e_lis %r6,0x4d55
 5287 005e 70AEC510 		e_or2i %r5,29968
 5288 0062 70C3C569 		e_or2i %r6,7529
 5289 0066 78000001 		e_bl __muldf3
 5290              	.LVL723:
 5291 006a 014F     		se_mr %r31,%r4
 5292 006c 013E     		se_mr %r30,%r3
 5293              	.LVL724:
 5294 006e 01B3     		se_mr %r3,%r27
 5295 0070 78000001 		e_bl __extendsfdf2
 5296              	.LVL725:
 5297 0074 0146     		se_mr %r6,%r4
 5298 0076 0135     		se_mr %r5,%r3
 5299 0078 01F4     		se_mr %r4,%r31
 5300 007a 01E3     		se_mr %r3,%r30
 5301 007c 78000001 		e_bl __muldf3
GAS LISTING C:\Users\Vipuls\AppData\Local\Temp\ccRPm3ys.s 			page 94


 5302              	.LVL726:
 5303 0080 78000001 		e_bl __truncdfsf2
 5304              	.LVL727:
 5305              		.loc 1 1679 0
 5306 0084 C901     		se_lwz %r0,36(%r1)
 5307 0086 0090     		se_mtlr %r0
 5308              		.cfi_remember_state
 5309              		.cfi_restore 65
 5310 0088 1B61080C 		e_lmw %r27,12(%r1)
 5311              	.LVL728:
 5312 008c 21F1     		se_addi %r1,32
 5313              	.LCFI129:
 5314              		.cfi_restore 27
 5315              		.cfi_restore 28
 5316              		.cfi_restore 29
 5317              		.cfi_restore 30
 5318              		.cfi_restore 31
 5319              		.cfi_def_cfa_offset 0
 5320 008e 0004     		se_blr
 5321              	.LVL729:
 5322              	.L227:
 5323              	.LCFI130:
 5324              		.cfi_restore_state
 5325              		.loc 1 1671 0
 5326 0090 00E7     		se_extzh %r7
 5327 0092 70C8E31B 		e_lis %r6,0x431b
 5328 0096 18E7A059 		e_mulli %r7,%r7,89
 5329 009a 70DBC683 		e_or2i %r6,56963
 5330 009e 7CE3FE70 		srawi %r3,%r7,31
 5331              	.LVL730:
 5332 00a2 7CE73096 		mulhw %r7,%r7,%r6
 5333 00a6 6B27     		se_srawi %r7, 18
 5334 00a8 0773     		se_subf %r3, %r7
 5335 00aa 78000001 		e_bl __floatsisf
 5336              	.LVL731:
 5337              		.loc 1 1679 0
 5338 00ae C901     		se_lwz %r0,36(%r1)
 5339 00b0 0090     		se_mtlr %r0
 5340              		.cfi_restore 65
 5341 00b2 1B61080C 		e_lmw %r27,12(%r1)
 5342              	.LVL732:
 5343 00b6 21F1     		se_addi %r1,32
 5344              	.LCFI131:
 5345              		.cfi_restore 27
 5346              		.cfi_restore 28
 5347              		.cfi_restore 29
 5348              		.cfi_restore 30
 5349              		.cfi_restore 31
 5350              		.cfi_def_cfa_offset 0
 5351 00b8 0004     		se_blr
 5352              		.cfi_endproc
 5353              	.LFE50:
 5354              		.size	AEK_POW_BMS63EN_GetVoltageGPIOMeasurement, .-AEK_POW_BMS63EN_GetVoltageGPIOMeasurement
 5355              		.globl __subsf3
 5356              		.section	.text.AEK_POW_BMS63EN_GetNTCMeasurement,"axv",@progbits
 5357              		.align 1
 5358              		.p2align 4,,15
GAS LISTING C:\Users\Vipuls\AppData\Local\Temp\ccRPm3ys.s 			page 95


 5359              		.globl AEK_POW_BMS63EN_GetNTCMeasurement
 5360              		.type	AEK_POW_BMS63EN_GetNTCMeasurement, @function
 5361              	AEK_POW_BMS63EN_GetNTCMeasurement:
 5362              	.LFB51:
 5363              		.loc 1 1685 0
 5364              		.cfi_startproc
 5365              	.LVL733:
 5366 0000 182106E0 		e_stwu %r1,-32(%r1)
 5367              	.LCFI132:
 5368              		.cfi_def_cfa_offset 32
 5369 0004 0080     		se_mflr %r0
 5370 0006 1B61090C 		e_stmw %r27,12(%r1)
 5371 000a D901     		se_stw %r0,36(%r1)
 5372              		.cfi_offset 65, 4
 5373              		.cfi_offset 27, -20
 5374              		.cfi_offset 28, -16
 5375              		.cfi_offset 29, -12
 5376              		.cfi_offset 30, -8
 5377              		.cfi_offset 31, -4
 5378              		.loc 1 1685 0
 5379 000c 016E     		se_mr %r30,%r6
 5380              		.loc 1 1690 0
 5381 000e 1BA48034 		e_addi %r29,%r4,52
 5382              		.loc 1 1685 0
 5383 0012 013C     		se_mr %r28,%r3
 5384              		.loc 1 1690 0
 5385 0014 0134     		se_mr %r4,%r3
 5386              	.LVL734:
 5387              		.loc 1 1685 0
 5388 0016 015B     		se_mr %r27,%r5
 5389              		.loc 1 1690 0
 5390 0018 73E0E000 		e_lis %r31,AEK_POW_BMS63EN_Drv@ha
 5391 001c 01D5     		se_mr %r5,%r29
 5392              	.LVL735:
 5393 001e 1FFF0000 		e_la %r31,AEK_POW_BMS63EN_Drv@l(%r31)
 5394 0022 01F3     		se_mr %r3,%r31
 5395              	.LVL736:
 5396 0024 78000001 		e_bl AEK_POW_BMS63EN_SPIReadRegister
 5397              	.LVL737:
 5398              		.loc 1 1691 0
 5399 0028 01F3     		se_mr %r3,%r31
 5400 002a 01C4     		se_mr %r4,%r28
 5401 002c 01D5     		se_mr %r5,%r29
 5402 002e 78000001 		e_bl AEK_POW_BMS63EN_SPIReadRegister
 5403              	.LVL738:
 5404              		.loc 1 1693 0
 5405 0032 2A0E     		se_cmpi %r30,0
 5406 0034 7A120088 		e_beq %cr0,.L234
 5407              		.loc 1 1696 0
 5408 0038 220E     		se_cmpli %r30,1
 5409 003a 7A120024 		e_beq %cr0,.L235
 5410 003e 480F     		se_li %r31,0
 5411              		.loc 1 1700 0
 5412 0040 01B3     		se_mr %r3,%r27
 5413              	.LVL739:
 5414              		.loc 1 1686 0
 5415 0042 01FE     		se_mr %r30,%r31
GAS LISTING C:\Users\Vipuls\AppData\Local\Temp\ccRPm3ys.s 			page 96


 5416              	.LVL740:
 5417              		.loc 1 1700 0
 5418 0044 01E4     		se_mr %r4,%r30
 5419 0046 78000001 		e_bl __subsf3
 5420              	.LVL741:
 5421 004a 0134     		se_mr %r4,%r3
 5422 004c 01F3     		se_mr %r3,%r31
 5423 004e 78000001 		e_bl __divsf3
 5424              	.LVL742:
 5425              		.loc 1 1701 0
 5426 0052 C901     		se_lwz %r0,36(%r1)
 5427 0054 0090     		se_mtlr %r0
 5428              		.cfi_remember_state
 5429              		.cfi_restore 65
 5430 0056 1B61080C 		e_lmw %r27,12(%r1)
 5431              	.LVL743:
 5432 005a 21F1     		se_addi %r1,32
 5433              	.LCFI133:
 5434              		.cfi_restore 31
 5435              		.cfi_restore 30
 5436              		.cfi_restore 29
 5437              		.cfi_restore 28
 5438              		.cfi_restore 27
 5439              		.cfi_def_cfa_offset 0
 5440 005c 0004     		se_blr
 5441              	.LVL744:
 5442              	.L235:
 5443              	.LCFI134:
 5444              		.cfi_restore_state
 5445              		.loc 1 1697 0
 5446 005e 00E3     		se_extzh %r3
 5447              	.LVL745:
 5448 0060 78000001 		e_bl __floatsidf
 5449              	.LVL746:
 5450 0064 70A7E6EF 		e_lis %r5,0x3eef
 5451 0068 70C9E555 		e_lis %r6,0x4d55
 5452 006c 70AEC510 		e_or2i %r5,29968
 5453 0070 70C3C569 		e_or2i %r6,7529
 5454 0074 78000001 		e_bl __muldf3
 5455              	.LVL747:
 5456 0078 014F     		se_mr %r31,%r4
 5457 007a 013E     		se_mr %r30,%r3
 5458              	.LVL748:
 5459 007c 01B3     		se_mr %r3,%r27
 5460 007e 78000001 		e_bl __extendsfdf2
 5461              	.LVL749:
 5462 0082 0146     		se_mr %r6,%r4
 5463 0084 0135     		se_mr %r5,%r3
 5464 0086 01F4     		se_mr %r4,%r31
 5465 0088 01E3     		se_mr %r3,%r30
 5466 008a 78000001 		e_bl __muldf3
 5467              	.LVL750:
 5468 008e 78000001 		e_bl __truncdfsf2
 5469              	.LVL751:
 5470              	.L233:
 5471 0092 013E     		se_mr %r30,%r3
 5472              	.LVL752:
GAS LISTING C:\Users\Vipuls\AppData\Local\Temp\ccRPm3ys.s 			page 97


 5473 0094 7088E61C 		e_lis %r4,0x461c
 5474 0098 6514     		se_bseti %r4,17
 5475 009a 78000001 		e_bl __mulsf3
 5476              	.LVL753:
 5477              		.loc 1 1700 0
 5478 009e 01E4     		se_mr %r4,%r30
 5479 00a0 013F     		se_mr %r31,%r3
 5480 00a2 01B3     		se_mr %r3,%r27
 5481 00a4 78000001 		e_bl __subsf3
 5482              	.LVL754:
 5483 00a8 0134     		se_mr %r4,%r3
 5484 00aa 01F3     		se_mr %r3,%r31
 5485 00ac 78000001 		e_bl __divsf3
 5486              	.LVL755:
 5487              		.loc 1 1701 0
 5488 00b0 C901     		se_lwz %r0,36(%r1)
 5489 00b2 0090     		se_mtlr %r0
 5490              		.cfi_remember_state
 5491              		.cfi_restore 65
 5492 00b4 1B61080C 		e_lmw %r27,12(%r1)
 5493              	.LVL756:
 5494 00b8 21F1     		se_addi %r1,32
 5495              	.LCFI135:
 5496              		.cfi_restore 27
 5497              		.cfi_restore 28
 5498              		.cfi_restore 29
 5499              		.cfi_restore 30
 5500              		.cfi_restore 31
 5501              		.cfi_def_cfa_offset 0
 5502 00ba 0004     		se_blr
 5503              	.LVL757:
 5504              	.L234:
 5505              	.LCFI136:
 5506              		.cfi_restore_state
 5507              		.loc 1 1694 0
 5508 00bc 7467043F 		e_rlwinm %r7,%r3,0,0xffff
 5509 00c0 70C8E31B 		e_lis %r6,0x431b
 5510 00c4 18E7A059 		e_mulli %r7,%r7,89
 5511 00c8 70DBC683 		e_or2i %r6,56963
 5512 00cc 7CE3FE70 		srawi %r3,%r7,31
 5513              	.LVL758:
 5514 00d0 7CC73096 		mulhw %r6,%r7,%r6
 5515 00d4 6B26     		se_srawi %r6, 18
 5516 00d6 0763     		se_subf %r3, %r6
 5517 00d8 78000001 		e_bl __floatsisf
 5518              	.LVL759:
 5519 00dc 79FFFFB6 		e_b .L233
 5520              		.cfi_endproc
 5521              	.LFE51:
 5522              		.size	AEK_POW_BMS63EN_GetNTCMeasurement, .-AEK_POW_BMS63EN_GetNTCMeasurement
 5523              		.globl __fixunsdfsi
 5524              		.section	.text.AEK_POW_BMS63EN_SetOvercurrentThreshold,"axv",@progbits
 5525              		.align 1
 5526              		.p2align 4,,15
 5527              		.globl AEK_POW_BMS63EN_SetOvercurrentThreshold
 5528              		.type	AEK_POW_BMS63EN_SetOvercurrentThreshold, @function
 5529              	AEK_POW_BMS63EN_SetOvercurrentThreshold:
GAS LISTING C:\Users\Vipuls\AppData\Local\Temp\ccRPm3ys.s 			page 98


 5530              	.LFB52:
 5531              		.loc 1 1704 0
 5532              		.cfi_startproc
 5533              	.LVL760:
 5534 0000 182106F0 		e_stwu %r1,-16(%r1)
 5535              	.LCFI137:
 5536              		.cfi_def_cfa_offset 16
 5537 0004 0080     		se_mflr %r0
 5538 0006 1BC10908 		e_stmw %r30,8(%r1)
 5539 000a D501     		se_stw %r0,20(%r1)
 5540              		.cfi_offset 65, 4
 5541              		.cfi_offset 30, -8
 5542              		.cfi_offset 31, -4
 5543              		.loc 1 1704 0
 5544 000c 015E     		se_mr %r30,%r5
 5545              	.LVL761:
 5546 000e 013F     		se_mr %r31,%r3
 5547              		.loc 1 1706 0
 5548 0010 0143     		se_mr %r3,%r4
 5549              	.LVL762:
 5550 0012 78000001 		e_bl __floatsisf
 5551              	.LVL763:
 5552 0016 01E4     		se_mr %r4,%r30
 5553 0018 78000001 		e_bl __mulsf3
 5554              	.LVL764:
 5555 001c 78000001 		e_bl __extendsfdf2
 5556              	.LVL765:
 5557 0020 70A7E755 		e_lis %r5,0x3f55
 5558 0024 70D4E03C 		e_lis %r6,0xa03c
 5559 0028 70B9C26C 		e_or2i %r5,51820
 5560 002c 70C9C30A 		e_or2i %r6,19210
 5561 0030 78000001 		e_bl __divdf3
 5562              	.LVL766:
 5563 0034 78000001 		e_bl __fixunsdfsi
 5564              	.LVL767:
 5565              		.loc 1 1708 0
 5566 0038 C501     		se_lwz %r0,20(%r1)
 5567              		.loc 1 1706 0
 5568 003a 0136     		se_mr %r6,%r3
 5569              		.loc 1 1707 0
 5570 003c 01F4     		se_mr %r4,%r31
 5571 003e 7060E000 		e_lis %r3,AEK_POW_BMS63EN_Drv@ha
 5572              		.loc 1 1708 0
 5573 0042 1BC10808 		e_lmw %r30,8(%r1)
 5574              	.LVL768:
 5575              		.loc 1 1707 0
 5576 0046 1C630000 		e_la %r3,AEK_POW_BMS63EN_Drv@l(%r3)
 5577              		.loc 1 1708 0
 5578              		.loc 1 1707 0
 5579 004a 49F5     		se_li %r5,31
 5580              		.loc 1 1708 0
 5581 004c 0090     		se_mtlr %r0
 5582              		.cfi_restore 65
 5583 004e 20F1     		se_addi %r1,16
 5584              	.LCFI138:
 5585              		.cfi_restore 31
 5586              		.cfi_restore 30
GAS LISTING C:\Users\Vipuls\AppData\Local\Temp\ccRPm3ys.s 			page 99


 5587              		.cfi_def_cfa_offset 0
 5588              		.loc 1 1707 0
 5589 0050 78000000 		e_b AEK_POW_BMS63EN_SPIWriteRegister
 5590              	.LVL769:
 5591              		.cfi_endproc
 5592              	.LFE52:
 5593              		.size	AEK_POW_BMS63EN_SetOvercurrentThreshold, .-AEK_POW_BMS63EN_SetOvercurrentThreshold
 5594              		.section	.text.AEK_POW_BMS63EN_SetGPIOConv,"axv",@progbits
 5595              		.align 1
 5596              		.p2align 4,,15
 5597              		.globl AEK_POW_BMS63EN_SetGPIOConv
 5598              		.type	AEK_POW_BMS63EN_SetGPIOConv, @function
 5599              	AEK_POW_BMS63EN_SetGPIOConv:
 5600              	.LFB53:
 5601              		.loc 1 1714 0
 5602              		.cfi_startproc
 5603              	.LVL770:
 5604 0000 182106F0 		e_stwu %r1,-16(%r1)
 5605              	.LCFI139:
 5606              		.cfi_def_cfa_offset 16
 5607 0004 0080     		se_mflr %r0
 5608 0006 1BC10908 		e_stmw %r30,8(%r1)
 5609 000a D501     		se_stw %r0,20(%r1)
 5610              		.cfi_offset 65, 4
 5611              		.cfi_offset 30, -8
 5612              		.cfi_offset 31, -4
 5613              		.loc 1 1714 0
 5614 000c 013E     		se_mr %r30,%r3
 5615              		.loc 1 1718 0
 5616 000e 0134     		se_mr %r4,%r3
 5617 0010 48D5     		se_li %r5,13
 5618 0012 73E0E000 		e_lis %r31,AEK_POW_BMS63EN_Drv@ha
 5619 0016 1FFF0000 		e_la %r31,AEK_POW_BMS63EN_Drv@l(%r31)
 5620 001a 01F3     		se_mr %r3,%r31
 5621              	.LVL771:
 5622 001c 78000001 		e_bl AEK_POW_BMS63EN_SPIReadRegister
 5623              	.LVL772:
 5624              		.loc 1 1719 0
 5625 0020 01E4     		se_mr %r4,%r30
 5626 0022 01F3     		se_mr %r3,%r31
 5627 0024 48D5     		se_li %r5,13
 5628 0026 78000001 		e_bl AEK_POW_BMS63EN_SPIReadRegister
 5629              	.LVL773:
 5630              		.loc 1 1725 0
 5631 002a C501     		se_lwz %r0,20(%r1)
 5632              		.loc 1 1723 0
 5633 002c 01E4     		se_mr %r4,%r30
 5634              		.loc 1 1721 0
 5635 002e 1866D101 		e_ori %r6,%r3,256
 5636              	.LVL774:
 5637              		.loc 1 1723 0
 5638 0032 48D5     		se_li %r5,13
 5639 0034 01F3     		se_mr %r3,%r31
 5640              		.loc 1 1725 0
 5641 0036 0090     		se_mtlr %r0
 5642              		.cfi_restore 65
 5643 0038 1BC10808 		e_lmw %r30,8(%r1)
GAS LISTING C:\Users\Vipuls\AppData\Local\Temp\ccRPm3ys.s 			page 100


 5644              	.LVL775:
 5645 003c 20F1     		se_addi %r1,16
 5646              	.LCFI140:
 5647              		.cfi_restore 31
 5648              		.cfi_restore 30
 5649              		.cfi_def_cfa_offset 0
 5650              		.loc 1 1723 0
 5651 003e 78000000 		e_b AEK_POW_BMS63EN_SPIWriteRegister
 5652              	.LVL776:
 5653              		.cfi_endproc
 5654              	.LFE53:
 5655              		.size	AEK_POW_BMS63EN_SetGPIOConv, .-AEK_POW_BMS63EN_SetGPIOConv
 5656              		.section	.text.AEK_POW_BMS63EN_ConfigGPIO,"axv",@progbits
 5657              		.align 1
 5658              		.p2align 4,,15
 5659              		.globl AEK_POW_BMS63EN_ConfigGPIO
 5660              		.type	AEK_POW_BMS63EN_ConfigGPIO, @function
 5661              	AEK_POW_BMS63EN_ConfigGPIO:
 5662              	.LFB54:
 5663              		.loc 1 1730 0
 5664              		.cfi_startproc
 5665              	.LVL777:
 5666 0000 182106E8 		e_stwu %r1,-24(%r1)
 5667              	.LCFI141:
 5668              		.cfi_def_cfa_offset 24
 5669 0004 0080     		se_mflr %r0
 5670 0006 1B810908 		e_stmw %r28,8(%r1)
 5671 000a D701     		se_stw %r0,28(%r1)
 5672              		.cfi_offset 65, 4
 5673              		.cfi_offset 28, -16
 5674              		.cfi_offset 29, -12
 5675              		.cfi_offset 30, -8
 5676              		.cfi_offset 31, -4
 5677              		.loc 1 1730 0
 5678 000c 013E     		se_mr %r30,%r3
 5679 000e 014D     		se_mr %r29,%r4
 5680 0010 015C     		se_mr %r28,%r5
 5681              		.loc 1 1734 0
 5682 0012 0134     		se_mr %r4,%r3
 5683              	.LVL778:
 5684 0014 4945     		se_li %r5,20
 5685              	.LVL779:
 5686 0016 73E0E000 		e_lis %r31,AEK_POW_BMS63EN_Drv@ha
 5687 001a 1FFF0000 		e_la %r31,AEK_POW_BMS63EN_Drv@l(%r31)
 5688 001e 01F3     		se_mr %r3,%r31
 5689              	.LVL780:
 5690 0020 78000001 		e_bl AEK_POW_BMS63EN_SPIReadRegister
 5691              	.LVL781:
 5692              		.loc 1 1735 0
 5693 0024 01F3     		se_mr %r3,%r31
 5694 0026 01E4     		se_mr %r4,%r30
 5695 0028 4945     		se_li %r5,20
 5696 002a 78000001 		e_bl AEK_POW_BMS63EN_SPIReadRegister
 5697              	.LVL782:
 5698              		.loc 1 1737 0
 5699 002e 225D     		se_cmpli %r29,6
 5700              		.loc 1 1735 0
GAS LISTING C:\Users\Vipuls\AppData\Local\Temp\ccRPm3ys.s 			page 101


 5701 0030 0136     		se_mr %r6,%r3
 5702              	.LVL783:
 5703              		.loc 1 1737 0
 5704 0032 7A11002E 		e_bgt %cr0,.L283
 5705 0036 6C2D     		se_slwi %r29, 2
 5706              	.LVL784:
 5707 0038 70E0E000 		e_lis %r7,.L241@ha
 5708 003c 1CE70000 		e_la %r7,.L241@l(%r7)
 5709 0040 7C87E82E 		lwzx %r4,%r7,%r29
 5710 0044 7CE43A14 		add %r7,%r4,%r7
 5711 0048 00B7     		se_mtctr %r7
 5712 004a 0006     		se_bctr
 5713              		.section	.rodata.AEK_POW_BMS63EN_ConfigGPIO,"a",@progbits
 5714              		.align 2
 5715              		.align 2
 5716              	.L241:
 5717 0000 00000000 		.long .L240-.L241
 5718 0004 00000000 		.long .L242-.L241
 5719 0008 00000000 		.long .L243-.L241
 5720 000c 00000000 		.long .L244-.L241
 5721 0010 00000000 		.long .L245-.L241
 5722 0014 00000000 		.long .L246-.L241
 5723 0018 00000000 		.long .L247-.L241
 5724              		.section	.text.AEK_POW_BMS63EN_ConfigGPIO
 5725              	.L246:
 5726              		.loc 1 1825 0
 5727 004c 1866C53F 		e_andi %r6,%r3,-49153
 5728              	.LVL785:
 5729              		.loc 1 1826 0
 5730 0050 220C     		se_cmpli %r28,1
 5731 0052 7A12020C 		e_beq %cr0,.L263
 5732 0056 7A1001E8 		e_blt %cr0,.L264
 5733 005a 221C     		se_cmpli %r28,2
 5734 005c 7A12014E 		e_beq %cr0,.L265
 5735              	.L283:
 5736              		.loc 1 1732 0
 5737 0060 4807     		se_li %r7,0
 5738              	.LVL786:
 5739              	.L239:
 5740              		.loc 1 1864 0
 5741 0062 C701     		se_lwz %r0,28(%r1)
 5742              		.loc 1 1862 0
 5743 0064 01E4     		se_mr %r4,%r30
 5744 0066 7060E000 		e_lis %r3,AEK_POW_BMS63EN_Drv@ha
 5745              		.loc 1 1864 0
 5746 006a 1B810808 		e_lmw %r28,8(%r1)
 5747              	.LVL787:
 5748              		.loc 1 1862 0
 5749 006e 1C630000 		e_la %r3,AEK_POW_BMS63EN_Drv@l(%r3)
 5750              		.loc 1 1864 0
 5751              		.loc 1 1862 0
 5752 0072 4945     		se_li %r5,20
 5753 0074 4476     		se_or %r6,%r7
 5754              	.LVL788:
 5755              		.loc 1 1864 0
 5756 0076 0090     		se_mtlr %r0
 5757              		.cfi_remember_state
GAS LISTING C:\Users\Vipuls\AppData\Local\Temp\ccRPm3ys.s 			page 102


 5758              		.cfi_restore 65
 5759 0078 2171     		se_addi %r1,24
 5760              	.LCFI142:
 5761              		.cfi_restore 31
 5762              		.cfi_restore 30
 5763              		.cfi_restore 29
 5764              		.cfi_restore 28
 5765              		.cfi_def_cfa_offset 0
 5766              		.loc 1 1862 0
 5767 007a 78000000 		e_b AEK_POW_BMS63EN_SPIWriteRegister
 5768              	.LVL789:
 5769              	.L247:
 5770              	.LCFI143:
 5771              		.cfi_restore_state
 5772              		.loc 1 1842 0
 5773 007e 1866C6FC 		e_andi %r6,%r3,-196609
 5774              	.LVL790:
 5775              		.loc 1 1843 0
 5776 0082 220C     		se_cmpli %r28,1
 5777 0084 7A12019C 		e_beq %cr0,.L266
 5778 0088 7A100178 		e_blt %cr0,.L267
 5779 008c 221C     		se_cmpli %r28,2
 5780 008e 7A02FFD2 		e_bne %cr0,.L283
 5781              	.LVL791:
 5782              		.loc 1 1853 0
 5783 0092 18BE84FF 		e_addi %r5,%r30,-1
 5784 0096 7080E000 		e_lis %r4,AEK_POW_BMS63EN_gpio_state@ha
 5785 009a 18A5A08C 		e_mulli %r5,%r5,140
 5786 009e 1C840000 		e_la %r4,AEK_POW_BMS63EN_gpio_state@l(%r4)
 5787              		.loc 1 1852 0
 5788 00a2 70E01800 		e_li %r7,196608
 5789              		.loc 1 1853 0
 5790 00a6 7CA42A14 		add %r5,%r4,%r5
 5791 00aa 57850078 		e_stw %r28,120(%r5)
 5792              		.loc 1 1854 0
 5793 00ae 79FFFFB4 		e_b .L239
 5794              	.LVL792:
 5795              	.L240:
 5796              		.loc 1 1740 0
 5797 00b2 1866C4CF 		e_andi %r6,%r3,-49
 5798              	.LVL793:
 5799              		.loc 1 1741 0
 5800 00b6 220C     		se_cmpli %r28,1
 5801 00b8 7A12012E 		e_beq %cr0,.L248
 5802 00bc 7A10010E 		e_blt %cr0,.L249
 5803 00c0 221C     		se_cmpli %r28,2
 5804 00c2 7A02FF9E 		e_bne %cr0,.L283
 5805              	.LVL794:
 5806              		.loc 1 1751 0
 5807 00c6 18BE84FF 		e_addi %r5,%r30,-1
 5808 00ca 7080E000 		e_lis %r4,AEK_POW_BMS63EN_gpio_state@ha
 5809 00ce 18A5A08C 		e_mulli %r5,%r5,140
 5810 00d2 1C840000 		e_la %r4,AEK_POW_BMS63EN_gpio_state@l(%r4)
 5811              		.loc 1 1750 0
 5812 00d6 4B07     		se_li %r7,48
 5813              		.loc 1 1751 0
 5814 00d8 7F84292E 		stwx %r28,%r4,%r5
GAS LISTING C:\Users\Vipuls\AppData\Local\Temp\ccRPm3ys.s 			page 103


 5815              		.loc 1 1752 0
 5816 00dc 79FFFF86 		e_b .L239
 5817              	.LVL795:
 5818              	.L242:
 5819              		.loc 1 1757 0
 5820 00e0 1866C43F 		e_andi %r6,%r3,-193
 5821              	.LVL796:
 5822              		.loc 1 1758 0
 5823 00e4 220C     		se_cmpli %r28,1
 5824 00e6 7A1201B4 		e_beq %cr0,.L251
 5825 00ea 7A100192 		e_blt %cr0,.L252
 5826 00ee 221C     		se_cmpli %r28,2
 5827 00f0 7A02FF70 		e_bne %cr0,.L283
 5828              	.LVL797:
 5829              		.loc 1 1768 0
 5830 00f4 18BE84FF 		e_addi %r5,%r30,-1
 5831 00f8 7080E000 		e_lis %r4,AEK_POW_BMS63EN_gpio_state@ha
 5832 00fc 18A5A08C 		e_mulli %r5,%r5,140
 5833 0100 1C840000 		e_la %r4,AEK_POW_BMS63EN_gpio_state@l(%r4)
 5834              		.loc 1 1767 0
 5835 0104 70E000C0 		e_li %r7,192
 5836              		.loc 1 1768 0
 5837 0108 7CA42A14 		add %r5,%r4,%r5
 5838 010c D5C5     		se_stw %r28,20(%r5)
 5839              		.loc 1 1769 0
 5840 010e 79FFFF54 		e_b .L239
 5841              	.LVL798:
 5842              	.L243:
 5843              		.loc 1 1774 0
 5844 0112 1866C5FC 		e_andi %r6,%r3,-769
 5845              	.LVL799:
 5846              		.loc 1 1775 0
 5847 0116 220C     		se_cmpli %r28,1
 5848 0118 7A120234 		e_beq %cr0,.L254
 5849 011c 7A100212 		e_blt %cr0,.L255
 5850 0120 221C     		se_cmpli %r28,2
 5851 0122 7A02FF3E 		e_bne %cr0,.L283
 5852              	.LVL800:
 5853              		.loc 1 1785 0
 5854 0126 18BE84FF 		e_addi %r5,%r30,-1
 5855 012a 7080E000 		e_lis %r4,AEK_POW_BMS63EN_gpio_state@ha
 5856 012e 18A5A08C 		e_mulli %r5,%r5,140
 5857 0132 1C840000 		e_la %r4,AEK_POW_BMS63EN_gpio_state@l(%r4)
 5858              		.loc 1 1784 0
 5859 0136 70E00300 		e_li %r7,768
 5860              		.loc 1 1785 0
 5861 013a 7CA42A14 		add %r5,%r4,%r5
 5862 013e DAC5     		se_stw %r28,40(%r5)
 5863              		.loc 1 1786 0
 5864 0140 79FFFF22 		e_b .L239
 5865              	.LVL801:
 5866              	.L244:
 5867              		.loc 1 1791 0
 5868 0144 1866C5F3 		e_andi %r6,%r3,-3073
 5869              	.LVL802:
 5870              		.loc 1 1792 0
 5871 0148 220C     		se_cmpli %r28,1
GAS LISTING C:\Users\Vipuls\AppData\Local\Temp\ccRPm3ys.s 			page 104


 5872 014a 7A1201C8 		e_beq %cr0,.L257
 5873 014e 7A1001A6 		e_blt %cr0,.L258
 5874 0152 221C     		se_cmpli %r28,2
 5875 0154 7A02FF0C 		e_bne %cr0,.L283
 5876              	.LVL803:
 5877              		.loc 1 1802 0
 5878 0158 18BE84FF 		e_addi %r5,%r30,-1
 5879 015c 7080E000 		e_lis %r4,AEK_POW_BMS63EN_gpio_state@ha
 5880 0160 18A5A08C 		e_mulli %r5,%r5,140
 5881 0164 1C840000 		e_la %r4,AEK_POW_BMS63EN_gpio_state@l(%r4)
 5882              		.loc 1 1801 0
 5883 0168 70E10400 		e_li %r7,3072
 5884              		.loc 1 1802 0
 5885 016c 7CA42A14 		add %r5,%r4,%r5
 5886 0170 DFC5     		se_stw %r28,60(%r5)
 5887              		.loc 1 1803 0
 5888 0172 79FFFEF0 		e_b .L239
 5889              	.LVL804:
 5890              	.L245:
 5891              		.loc 1 1808 0
 5892 0176 1866C5CF 		e_andi %r6,%r3,-12289
 5893              	.LVL805:
 5894              		.loc 1 1809 0
 5895 017a 220C     		se_cmpli %r28,1
 5896 017c 7A12015A 		e_beq %cr0,.L260
 5897 0180 7A100136 		e_blt %cr0,.L261
 5898 0184 221C     		se_cmpli %r28,2
 5899 0186 7A02FEDA 		e_bne %cr0,.L283
 5900              	.LVL806:
 5901              		.loc 1 1819 0
 5902 018a 18BE84FF 		e_addi %r5,%r30,-1
 5903 018e 7080E000 		e_lis %r4,AEK_POW_BMS63EN_gpio_state@ha
 5904 0192 18A5A08C 		e_mulli %r5,%r5,140
 5905 0196 1C840000 		e_la %r4,AEK_POW_BMS63EN_gpio_state@l(%r4)
 5906              		.loc 1 1818 0
 5907 019a 70E60000 		e_li %r7,12288
 5908              		.loc 1 1819 0
 5909 019e 7CA42A14 		add %r5,%r4,%r5
 5910 01a2 57850050 		e_stw %r28,80(%r5)
 5911              		.loc 1 1820 0
 5912 01a6 79FFFEBC 		e_b .L239
 5913              	.LVL807:
 5914              	.L265:
 5915              		.loc 1 1836 0
 5916 01aa 18BE84FF 		e_addi %r5,%r30,-1
 5917 01ae 7080E000 		e_lis %r4,AEK_POW_BMS63EN_gpio_state@ha
 5918 01b2 18A5A08C 		e_mulli %r5,%r5,140
 5919 01b6 1C840000 		e_la %r4,AEK_POW_BMS63EN_gpio_state@l(%r4)
 5920              		.loc 1 1835 0
 5921 01ba 70F80000 		e_li %r7,49152
 5922              		.loc 1 1836 0
 5923 01be 7CA42A14 		add %r5,%r4,%r5
 5924 01c2 57850064 		e_stw %r28,100(%r5)
 5925              		.loc 1 1837 0
 5926 01c6 79FFFE9C 		e_b .L239
 5927              	.LVL808:
 5928              	.L249:
GAS LISTING C:\Users\Vipuls\AppData\Local\Temp\ccRPm3ys.s 			page 105


 5929              		.loc 1 1743 0
 5930 01ca 18BE84FF 		e_addi %r5,%r30,-1
 5931 01ce 4803     		se_li %r3,0
 5932 01d0 18A5A08C 		e_mulli %r5,%r5,140
 5933 01d4 7080E000 		e_lis %r4,AEK_POW_BMS63EN_gpio_state@ha
 5934              		.loc 1 1732 0
 5935 01d8 4807     		se_li %r7,0
 5936              		.loc 1 1743 0
 5937 01da 1C840000 		e_la %r4,AEK_POW_BMS63EN_gpio_state@l(%r4)
 5938 01de 7C64292E 		stwx %r3,%r4,%r5
 5939              		.loc 1 1744 0
 5940 01e2 79FFFE80 		e_b .L239
 5941              	.L248:
 5942              	.LVL809:
 5943              		.loc 1 1747 0
 5944 01e6 01E7     		se_mr %r7,%r30
 5945 01e8 7080E000 		e_lis %r4,AEK_POW_BMS63EN_gpio_state@ha
 5946 01ec 2407     		se_subi %r7, 1
 5947 01ee 1C840000 		e_la %r4,AEK_POW_BMS63EN_gpio_state@l(%r4)
 5948 01f2 18A7A08C 		e_mulli %r5,%r7,140
 5949              		.loc 1 1746 0
 5950 01f6 4A07     		se_li %r7,32
 5951              		.loc 1 1747 0
 5952 01f8 7F84292E 		stwx %r28,%r4,%r5
 5953              		.loc 1 1748 0
 5954 01fc 79FFFE66 		e_b .L239
 5955              	.LVL810:
 5956              	.L267:
 5957              		.loc 1 1845 0
 5958 0200 18BE84FF 		e_addi %r5,%r30,-1
 5959 0204 70E0E000 		e_lis %r7,AEK_POW_BMS63EN_gpio_state@ha
 5960 0208 18A5A08C 		e_mulli %r5,%r5,140
 5961 020c 1CE70000 		e_la %r7,AEK_POW_BMS63EN_gpio_state@l(%r7)
 5962 0210 4804     		se_li %r4,0
 5963 0212 7CA72A14 		add %r5,%r7,%r5
 5964              		.loc 1 1732 0
 5965 0216 4807     		se_li %r7,0
 5966              		.loc 1 1845 0
 5967 0218 54850078 		e_stw %r4,120(%r5)
 5968              		.loc 1 1846 0
 5969 021c 79FFFE46 		e_b .L239
 5970              	.L266:
 5971              	.LVL811:
 5972              		.loc 1 1849 0
 5973 0220 01E5     		se_mr %r5,%r30
 5974 0222 7080E000 		e_lis %r4,AEK_POW_BMS63EN_gpio_state@ha
 5975 0226 2405     		se_subi %r5, 1
 5976 0228 1C840000 		e_la %r4,AEK_POW_BMS63EN_gpio_state@l(%r4)
 5977 022c 18A5A08C 		e_mulli %r5,%r5,140
 5978              		.loc 1 1848 0
 5979 0230 62E7     		se_bgeni %r7,14
 5980              		.loc 1 1849 0
 5981 0232 7CA42A14 		add %r5,%r4,%r5
 5982 0236 57850078 		e_stw %r28,120(%r5)
 5983              		.loc 1 1850 0
 5984 023a 79FFFE28 		e_b .L239
 5985              	.LVL812:
GAS LISTING C:\Users\Vipuls\AppData\Local\Temp\ccRPm3ys.s 			page 106


 5986              	.L264:
 5987              		.loc 1 1828 0
 5988 023e 18BE84FF 		e_addi %r5,%r30,-1
 5989 0242 70E0E000 		e_lis %r7,AEK_POW_BMS63EN_gpio_state@ha
 5990 0246 18A5A08C 		e_mulli %r5,%r5,140
 5991 024a 1CE70000 		e_la %r7,AEK_POW_BMS63EN_gpio_state@l(%r7)
 5992 024e 4804     		se_li %r4,0
 5993 0250 7CA72A14 		add %r5,%r7,%r5
 5994              		.loc 1 1732 0
 5995 0254 4807     		se_li %r7,0
 5996              		.loc 1 1828 0
 5997 0256 54850064 		e_stw %r4,100(%r5)
 5998              		.loc 1 1829 0
 5999 025a 79FFFE08 		e_b .L239
 6000              	.L263:
 6001              	.LVL813:
 6002              		.loc 1 1832 0
 6003 025e 01E5     		se_mr %r5,%r30
 6004 0260 7080E000 		e_lis %r4,AEK_POW_BMS63EN_gpio_state@ha
 6005 0264 2405     		se_subi %r5, 1
 6006 0266 1C840000 		e_la %r4,AEK_POW_BMS63EN_gpio_state@l(%r4)
 6007 026a 18A5A08C 		e_mulli %r5,%r5,140
 6008              		.loc 1 1831 0
 6009 026e 6307     		se_bgeni %r7,16
 6010              		.loc 1 1832 0
 6011 0270 7CA42A14 		add %r5,%r4,%r5
 6012 0274 57850064 		e_stw %r28,100(%r5)
 6013              		.loc 1 1833 0
 6014 0278 79FFFDEA 		e_b .L239
 6015              	.LVL814:
 6016              	.L252:
 6017              		.loc 1 1760 0
 6018 027c 18BE84FF 		e_addi %r5,%r30,-1
 6019 0280 70E0E000 		e_lis %r7,AEK_POW_BMS63EN_gpio_state@ha
 6020 0284 18A5A08C 		e_mulli %r5,%r5,140
 6021 0288 1CE70000 		e_la %r7,AEK_POW_BMS63EN_gpio_state@l(%r7)
 6022 028c 4804     		se_li %r4,0
 6023 028e 7CA72A14 		add %r5,%r7,%r5
 6024              		.loc 1 1732 0
 6025 0292 4807     		se_li %r7,0
 6026              		.loc 1 1760 0
 6027 0294 D545     		se_stw %r4,20(%r5)
 6028              		.loc 1 1761 0
 6029 0296 79FFFDCC 		e_b .L239
 6030              	.L251:
 6031              	.LVL815:
 6032              		.loc 1 1764 0
 6033 029a 01E5     		se_mr %r5,%r30
 6034 029c 7080E000 		e_lis %r4,AEK_POW_BMS63EN_gpio_state@ha
 6035 02a0 2405     		se_subi %r5, 1
 6036 02a2 1C840000 		e_la %r4,AEK_POW_BMS63EN_gpio_state@l(%r4)
 6037 02a6 18A5A08C 		e_mulli %r5,%r5,140
 6038              		.loc 1 1763 0
 6039 02aa 6387     		se_bgeni %r7,24
 6040              		.loc 1 1764 0
 6041 02ac 7CA42A14 		add %r5,%r4,%r5
 6042 02b0 D5C5     		se_stw %r28,20(%r5)
GAS LISTING C:\Users\Vipuls\AppData\Local\Temp\ccRPm3ys.s 			page 107


 6043              		.loc 1 1765 0
 6044 02b2 79FFFDB0 		e_b .L239
 6045              	.LVL816:
 6046              	.L261:
 6047              		.loc 1 1811 0
 6048 02b6 18BE84FF 		e_addi %r5,%r30,-1
 6049 02ba 70E0E000 		e_lis %r7,AEK_POW_BMS63EN_gpio_state@ha
 6050 02be 18A5A08C 		e_mulli %r5,%r5,140
 6051 02c2 1CE70000 		e_la %r7,AEK_POW_BMS63EN_gpio_state@l(%r7)
 6052 02c6 4804     		se_li %r4,0
 6053 02c8 7CA72A14 		add %r5,%r7,%r5
 6054              		.loc 1 1732 0
 6055 02cc 4807     		se_li %r7,0
 6056              		.loc 1 1811 0
 6057 02ce 54850050 		e_stw %r4,80(%r5)
 6058              		.loc 1 1812 0
 6059 02d2 79FFFD90 		e_b .L239
 6060              	.L260:
 6061              	.LVL817:
 6062              		.loc 1 1815 0
 6063 02d6 01E5     		se_mr %r5,%r30
 6064 02d8 7080E000 		e_lis %r4,AEK_POW_BMS63EN_gpio_state@ha
 6065 02dc 2405     		se_subi %r5, 1
 6066 02de 1C840000 		e_la %r4,AEK_POW_BMS63EN_gpio_state@l(%r4)
 6067 02e2 18A5A08C 		e_mulli %r5,%r5,140
 6068              		.loc 1 1814 0
 6069 02e6 6327     		se_bgeni %r7,18
 6070              		.loc 1 1815 0
 6071 02e8 7CA42A14 		add %r5,%r4,%r5
 6072 02ec 57850050 		e_stw %r28,80(%r5)
 6073              		.loc 1 1816 0
 6074 02f0 79FFFD72 		e_b .L239
 6075              	.LVL818:
 6076              	.L258:
 6077              		.loc 1 1794 0
 6078 02f4 18BE84FF 		e_addi %r5,%r30,-1
 6079 02f8 70E0E000 		e_lis %r7,AEK_POW_BMS63EN_gpio_state@ha
 6080 02fc 18A5A08C 		e_mulli %r5,%r5,140
 6081 0300 1CE70000 		e_la %r7,AEK_POW_BMS63EN_gpio_state@l(%r7)
 6082 0304 4804     		se_li %r4,0
 6083 0306 7CA72A14 		add %r5,%r7,%r5
 6084              		.loc 1 1732 0
 6085 030a 4807     		se_li %r7,0
 6086              		.loc 1 1794 0
 6087 030c DF45     		se_stw %r4,60(%r5)
 6088              		.loc 1 1795 0
 6089 030e 79FFFD54 		e_b .L239
 6090              	.L257:
 6091              	.LVL819:
 6092              		.loc 1 1798 0
 6093 0312 01E5     		se_mr %r5,%r30
 6094 0314 7080E000 		e_lis %r4,AEK_POW_BMS63EN_gpio_state@ha
 6095 0318 2405     		se_subi %r5, 1
 6096 031a 1C840000 		e_la %r4,AEK_POW_BMS63EN_gpio_state@l(%r4)
 6097 031e 18A5A08C 		e_mulli %r5,%r5,140
 6098              		.loc 1 1797 0
 6099 0322 6347     		se_bgeni %r7,20
GAS LISTING C:\Users\Vipuls\AppData\Local\Temp\ccRPm3ys.s 			page 108


 6100              		.loc 1 1798 0
 6101 0324 7CA42A14 		add %r5,%r4,%r5
 6102 0328 DFC5     		se_stw %r28,60(%r5)
 6103              		.loc 1 1799 0
 6104 032a 79FFFD38 		e_b .L239
 6105              	.LVL820:
 6106              	.L255:
 6107              		.loc 1 1777 0
 6108 032e 18BE84FF 		e_addi %r5,%r30,-1
 6109 0332 70E0E000 		e_lis %r7,AEK_POW_BMS63EN_gpio_state@ha
 6110 0336 18A5A08C 		e_mulli %r5,%r5,140
 6111 033a 1CE70000 		e_la %r7,AEK_POW_BMS63EN_gpio_state@l(%r7)
 6112 033e 4804     		se_li %r4,0
 6113 0340 7CA72A14 		add %r5,%r7,%r5
 6114              		.loc 1 1732 0
 6115 0344 4807     		se_li %r7,0
 6116              		.loc 1 1777 0
 6117 0346 DA45     		se_stw %r4,40(%r5)
 6118              		.loc 1 1778 0
 6119 0348 79FFFD1A 		e_b .L239
 6120              	.L254:
 6121              	.LVL821:
 6122              		.loc 1 1781 0
 6123 034c 01E5     		se_mr %r5,%r30
 6124 034e 7080E000 		e_lis %r4,AEK_POW_BMS63EN_gpio_state@ha
 6125 0352 2405     		se_subi %r5, 1
 6126 0354 1C840000 		e_la %r4,AEK_POW_BMS63EN_gpio_state@l(%r4)
 6127 0358 18A5A08C 		e_mulli %r5,%r5,140
 6128              		.loc 1 1780 0
 6129 035c 6367     		se_bgeni %r7,22
 6130              		.loc 1 1781 0
 6131 035e 7CA42A14 		add %r5,%r4,%r5
 6132 0362 DAC5     		se_stw %r28,40(%r5)
 6133              		.loc 1 1782 0
 6134 0364 79FFFCFE 		e_b .L239
 6135              		.cfi_endproc
 6136              	.LFE54:
 6137              		.size	AEK_POW_BMS63EN_ConfigGPIO, .-AEK_POW_BMS63EN_ConfigGPIO
 6138              		.section	.text.AEK_POW_BMS63EN_SetGPIOModeAbsolute,"axv",@progbits
 6139              		.align 1
 6140              		.p2align 4,,15
 6141              		.globl AEK_POW_BMS63EN_SetGPIOModeAbsolute
 6142              		.type	AEK_POW_BMS63EN_SetGPIOModeAbsolute, @function
 6143              	AEK_POW_BMS63EN_SetGPIOModeAbsolute:
 6144              	.LFB55:
 6145              		.loc 1 1870 0
 6146              		.cfi_startproc
 6147              	.LVL822:
 6148 0000 182106E8 		e_stwu %r1,-24(%r1)
 6149              	.LCFI144:
 6150              		.cfi_def_cfa_offset 24
 6151 0004 0080     		se_mflr %r0
 6152 0006 1BA1090C 		e_stmw %r29,12(%r1)
 6153 000a D701     		se_stw %r0,28(%r1)
 6154              		.cfi_offset 65, 4
 6155              		.cfi_offset 29, -12
 6156              		.cfi_offset 30, -8
GAS LISTING C:\Users\Vipuls\AppData\Local\Temp\ccRPm3ys.s 			page 109


 6157              		.cfi_offset 31, -4
 6158              		.loc 1 1870 0
 6159 000c 013E     		se_mr %r30,%r3
 6160              		.loc 1 1875 0
 6161 000e 2254     		se_cmpli %r4,6
 6162 0010 7A11024C 		e_bgt %cr0,.L294
 6163 0014 6C24     		se_slwi %r4, 2
 6164              	.LVL823:
 6165 0016 70E0E000 		e_lis %r7,.L287@ha
 6166 001a 1CE70000 		e_la %r7,.L287@l(%r7)
 6167 001e 7CC7202E 		lwzx %r6,%r7,%r4
 6168 0022 7CE63A14 		add %r7,%r6,%r7
 6169 0026 00B7     		se_mtctr %r7
 6170              		.loc 1 1921 0
 6171 0028 0134     		se_mr %r4,%r3
 6172              		.loc 1 1875 0
 6173 002a 0006     		se_bctr
 6174              		.section	.rodata.AEK_POW_BMS63EN_SetGPIOModeAbsolute,"a",@progbits
 6175              		.align 2
 6176              		.align 2
 6177              	.L287:
 6178 0000 00000000 		.long .L286-.L287
 6179 0004 00000000 		.long .L288-.L287
 6180 0008 00000000 		.long .L289-.L287
 6181 000c 00000000 		.long .L290-.L287
 6182 0010 00000000 		.long .L291-.L287
 6183 0014 00000000 		.long .L292-.L287
 6184 0018 00000000 		.long .L293-.L287
 6185              		.section	.text.AEK_POW_BMS63EN_SetGPIOModeAbsolute
 6186              	.L292:
 6187              	.LVL824:
 6188              		.loc 1 1914 0
 6189 002c 4B95     		se_li %r5,57
 6190 002e 73E0E000 		e_lis %r31,AEK_POW_BMS63EN_Drv@ha
 6191              		.loc 1 1913 0
 6192 0032 4B9D     		se_li %r29,57
 6193              		.loc 1 1914 0
 6194 0034 1FFF0000 		e_la %r31,AEK_POW_BMS63EN_Drv@l(%r31)
 6195 0038 01F3     		se_mr %r3,%r31
 6196              	.LVL825:
 6197 003a 78000001 		e_bl AEK_POW_BMS63EN_SPIReadRegister
 6198              	.LVL826:
 6199              		.loc 1 1915 0
 6200 003e 01F3     		se_mr %r3,%r31
 6201 0040 01E4     		se_mr %r4,%r30
 6202 0042 4B95     		se_li %r5,57
 6203 0044 78000001 		e_bl AEK_POW_BMS63EN_SPIReadRegister
 6204              	.LVL827:
 6205              		.loc 1 1916 0
 6206 0048 1866C6FD 		e_andi %r6,%r3,-131073
 6207              	.LVL828:
 6208              	.L285:
 6209              		.loc 1 1928 0
 6210 004c 01E4     		se_mr %r4,%r30
 6211 004e 01D5     		se_mr %r5,%r29
 6212 0050 73E0E000 		e_lis %r31,AEK_POW_BMS63EN_Drv@ha
 6213 0054 1FFF0000 		e_la %r31,AEK_POW_BMS63EN_Drv@l(%r31)
GAS LISTING C:\Users\Vipuls\AppData\Local\Temp\ccRPm3ys.s 			page 110


 6214 0058 01F3     		se_mr %r3,%r31
 6215 005a 78000001 		e_bl AEK_POW_BMS63EN_SPIWriteRegister
 6216              	.LVL829:
 6217              		.loc 1 1930 0
 6218 005e 01E4     		se_mr %r4,%r30
 6219 0060 01D5     		se_mr %r5,%r29
 6220 0062 01F3     		se_mr %r3,%r31
 6221 0064 78000001 		e_bl AEK_POW_BMS63EN_SPIReadRegister
 6222              	.LVL830:
 6223              		.loc 1 1932 0
 6224 0068 C701     		se_lwz %r0,28(%r1)
 6225              		.loc 1 1931 0
 6226 006a 01F3     		se_mr %r3,%r31
 6227 006c 01E4     		se_mr %r4,%r30
 6228 006e 01D5     		se_mr %r5,%r29
 6229              		.loc 1 1932 0
 6230 0070 0090     		se_mtlr %r0
 6231              		.cfi_remember_state
 6232              		.cfi_restore 65
 6233 0072 1BA1080C 		e_lmw %r29,12(%r1)
 6234              	.LVL831:
 6235 0076 2171     		se_addi %r1,24
 6236              	.LCFI145:
 6237              		.cfi_restore 31
 6238              		.cfi_restore 30
 6239              		.cfi_restore 29
 6240              		.cfi_def_cfa_offset 0
 6241              		.loc 1 1931 0
 6242 0078 78000000 		e_b AEK_POW_BMS63EN_SPIReadRegister
 6243              	.LVL832:
 6244              	.L293:
 6245              	.LCFI146:
 6246              		.cfi_restore_state
 6247              		.loc 1 1920 0
 6248 007c 4BAD     		se_li %r29,58
 6249              		.loc 1 1921 0
 6250 007e 4BA5     		se_li %r5,58
 6251 0080 73E0E000 		e_lis %r31,AEK_POW_BMS63EN_Drv@ha
 6252 0084 1FFF0000 		e_la %r31,AEK_POW_BMS63EN_Drv@l(%r31)
 6253 0088 01F3     		se_mr %r3,%r31
 6254              	.LVL833:
 6255 008a 78000001 		e_bl AEK_POW_BMS63EN_SPIReadRegister
 6256              	.LVL834:
 6257              		.loc 1 1922 0
 6258 008e 01E4     		se_mr %r4,%r30
 6259 0090 01F3     		se_mr %r3,%r31
 6260 0092 4BA5     		se_li %r5,58
 6261              		.loc 1 1928 0
 6262 0094 73E0E000 		e_lis %r31,AEK_POW_BMS63EN_Drv@ha
 6263              		.loc 1 1922 0
 6264 0098 78000001 		e_bl AEK_POW_BMS63EN_SPIReadRegister
 6265              	.LVL835:
 6266              		.loc 1 1928 0
 6267 009c 1FFF0000 		e_la %r31,AEK_POW_BMS63EN_Drv@l(%r31)
 6268              		.loc 1 1923 0
 6269 00a0 1866C6FD 		e_andi %r6,%r3,-131073
 6270              	.LVL836:
GAS LISTING C:\Users\Vipuls\AppData\Local\Temp\ccRPm3ys.s 			page 111


 6271              		.loc 1 1928 0
 6272 00a4 01E4     		se_mr %r4,%r30
 6273 00a6 01D5     		se_mr %r5,%r29
 6274 00a8 01F3     		se_mr %r3,%r31
 6275 00aa 78000001 		e_bl AEK_POW_BMS63EN_SPIWriteRegister
 6276              	.LVL837:
 6277              		.loc 1 1930 0
 6278 00ae 01E4     		se_mr %r4,%r30
 6279 00b0 01D5     		se_mr %r5,%r29
 6280 00b2 01F3     		se_mr %r3,%r31
 6281 00b4 78000001 		e_bl AEK_POW_BMS63EN_SPIReadRegister
 6282              	.LVL838:
 6283              		.loc 1 1932 0
 6284 00b8 C701     		se_lwz %r0,28(%r1)
 6285              		.loc 1 1931 0
 6286 00ba 01F3     		se_mr %r3,%r31
 6287 00bc 01E4     		se_mr %r4,%r30
 6288 00be 01D5     		se_mr %r5,%r29
 6289              		.loc 1 1932 0
 6290 00c0 0090     		se_mtlr %r0
 6291              		.cfi_remember_state
 6292              		.cfi_restore 65
 6293 00c2 1BA1080C 		e_lmw %r29,12(%r1)
 6294              	.LVL839:
 6295 00c6 2171     		se_addi %r1,24
 6296              	.LCFI147:
 6297              		.cfi_restore 29
 6298              		.cfi_restore 30
 6299              		.cfi_restore 31
 6300              		.cfi_def_cfa_offset 0
 6301              		.loc 1 1931 0
 6302 00c8 78000000 		e_b AEK_POW_BMS63EN_SPIReadRegister
 6303              	.LVL840:
