GAS LISTING C:\Users\Vipuls\AppData\Local\Temp\ccOmR8bx.s 			page 1


   1              		.file	"cache.c"
   2              		.section	".text","axv"
   3              	.Ltext0:
   4              		.cfi_sections	.debug_frame
   5              		.section	.text.idc_exist,"axv",@progbits
   6              		.align 1
   7              		.p2align 4,,15
   8              		.type	idc_exist, @function
   9              	idc_exist:
  10              	.LFB3:
  11              		.file 1 "./components/spc58ecxx_platform_component_rla/lib/src/cache.c"
  12              		.loc 1 191 0
  13              		.cfi_startproc
  14              	.LVL0:
  15              	.LBB24:
  16              	.LBB25:
  17              	.LBB26:
  18              	.LBB27:
  19              		.loc 1 327 0
  20 0000 70E00201 		e_li %r7,513
  21              	.LBE27:
  22              	.LBE26:
  23              	.LBE25:
  24              	.LBE24:
  25              		.loc 1 192 0
  26 0004 2203     		se_cmpli %r3,1
  27 0006 7A12001C 		e_beq %cr0,.L5
  28              	.LVL1:
  29              	.LBB31:
  30              	.LBB32:
  31              		.loc 1 327 0
  32              	 # 327 "./components/spc58ecxx_platform_component_rla/lib/src/cache.c" 1
  33 000a 7CF5FBA6 		mtspr 1013, %r7
  34              	 # 0 "" 2
  35              		.loc 1 331 0
  36              	 # 331 "./components/spc58ecxx_platform_component_rla/lib/src/cache.c" 1
  37 000e 7C6382A6 		mfspr %r3, 515
  38              	 # 0 "" 2
  39              	.LVL2:
  40              	.LBE32:
  41              	.LBE31:
  42              		.loc 1 196 0
  43 0012 4807     		se_li %r7,0
  44              	.LBB34:
  45              	.LBB33:
  46              		.loc 1 337 0
  47 0014 7463057F 		e_rlwinm %r3,%r3,0,21,31
  48              	.LVL3:
  49              	.LBE33:
  50              	.LBE34:
  51              		.loc 1 196 0
  52 0018 4816     		se_li %r6,1
  53 001a 2A03     		se_cmpi %r3,0
  54 001c 7C66389E 		isel %r3,%r6,%r7,2
  55              	.LVL4:
  56              		.loc 1 200 0
  57 0020 0004     		se_blr
GAS LISTING C:\Users\Vipuls\AppData\Local\Temp\ccOmR8bx.s 			page 2


  58              	.LVL5:
  59              	.L5:
  60              	.LBB35:
  61              	.LBB30:
  62              	.LBB29:
  63              	.LBB28:
  64              		.loc 1 327 0
  65              	 # 327 "./components/spc58ecxx_platform_component_rla/lib/src/cache.c" 1
  66 0022 7CF5FBA6 		mtspr 1013, %r7
  67              	 # 0 "" 2
  68              		.loc 1 329 0
  69              	 # 329 "./components/spc58ecxx_platform_component_rla/lib/src/cache.c" 1
  70 0026 7CE482A6 		mfspr %r7, 516
  71              	 # 0 "" 2
  72              	.LVL6:
  73              		.loc 1 337 0
  74 002a 74E7057F 		e_rlwinm %r7,%r7,0,21,31
  75              	.LVL7:
  76              	.LBE28:
  77              	.LBE29:
  78              		.loc 1 193 0
  79 002e 2A07     		se_cmpi %r7,0
  80 0030 4807     		se_li %r7,0
  81              	.LVL8:
  82 0032 7C63389E 		isel %r3,%r3,%r7,2
  83              	.LVL9:
  84 0036 0004     		se_blr
  85              	.LBE30:
  86              	.LBE35:
  87              		.cfi_endproc
  88              	.LFE3:
  89              		.size	idc_exist, .-idc_exist
  90              		.section	.text.idc_invalidate.constprop.1,"axv",@progbits
  91              		.align 1
  92              		.p2align 4,,15
  93              		.type	idc_invalidate.constprop.1, @function
  94              	idc_invalidate.constprop.1:
  95              	.LFB13:
  96              		.loc 1 108 0
  97              		.cfi_startproc
  98              	.LVL10:
  99              		.loc 1 115 0
 100 0000 2203     		se_cmpli %r3,1
 101 0002 7A12004E 		e_beq %cr0,.L45
 102              	.LVL11:
 103              		.loc 1 127 0
 104              	 # 127 "./components/spc58ecxx_platform_component_rla/lib/src/cache.c" 1
 105 0006 7C92FAA6 		mfspr %r4, 1010
 106              	 # 0 "" 2
 107              	.LVL12:
 108              		.loc 1 131 0
 109 000a 4927     		se_li %r7,18
 110              	 # 131 "./components/spc58ecxx_platform_component_rla/lib/src/cache.c" 1
 111 000c 7CF2FBA6 		mtspr 1010, %r7
 112              	 # 0 "" 2
 113              		.loc 1 132 0
 114              	 # 132 "./components/spc58ecxx_platform_component_rla/lib/src/cache.c" 1
GAS LISTING C:\Users\Vipuls\AppData\Local\Temp\ccOmR8bx.s 			page 3


 115 0010 7CF2FAA6 		mfspr %r7, 1010
 116              	 # 0 "" 2
 117              	.LVL13:
 118              		.loc 1 122 0
 119 0014 4FF6     		se_li %r6,127
 120              	.LVL14:
 121              	.L9:
 122              		.loc 1 136 0
 123 0016 2F27     		se_andi %r7,18
 124              	.LVL15:
 125 0018 2317     		se_cmpli %r7,18
 126 001a 7A020016 		e_bne %cr0,.L46
 127              	.L12:
 128              		.loc 1 137 0
 129 001e 2203     		se_cmpli %r3,1
 130 0020 7A120028 		e_beq %cr0,.L47
 131              	 # 137 "./components/spc58ecxx_platform_component_rla/lib/src/cache.c" 1
 132 0024 7CF2FAA6 		mfspr %r7, 1010
 133              	 # 0 "" 2
 134              	.LVL16:
 135              		.loc 1 136 0
 136 0028 2F27     		se_andi %r7,18
 137              	.LVL17:
 138 002a 2317     		se_cmpli %r7,18
 139 002c 7A12FFF2 		e_beq %cr0,.L12
 140              	.L46:
 141              		.loc 1 141 0
 142 0030 2203     		se_cmpli %r3,1
 143 0032 7A120032 		e_beq %cr0,.L48
 144              	 # 141 "./components/spc58ecxx_platform_component_rla/lib/src/cache.c" 1
 145 0036 7CF2FAA6 		mfspr %r7, 1010
 146              	 # 0 "" 2
 147              	.LVL18:
 148              		.loc 1 142 0
 149 003a 67D7     		se_btsti %r7,29
 150 003c 7A0200AC 		e_bne %cr0,.L16
 151              		.loc 1 112 0
 152 0040 4803     		se_li %r3,0
 153              	.LVL19:
 154              	.L17:
 155              		.loc 1 165 0
 156              	 # 165 "./components/spc58ecxx_platform_component_rla/lib/src/cache.c" 1
 157 0042 7C92FBA6 		mtspr 1010, %r4
 158              	 # 0 "" 2
 159 0046 0004     		se_blr
 160              	.LVL20:
 161              	.L47:
 162              		.loc 1 137 0
 163              	 # 137 "./components/spc58ecxx_platform_component_rla/lib/src/cache.c" 1
 164 0048 7CF3FAA6 		mfspr %r7, 1011
 165              	 # 0 "" 2
 166              	.LVL21:
 167 004c 79FFFFCA 		e_b .L9
 168              	.LVL22:
 169              	.L45:
 170              		.loc 1 127 0
 171              	 # 127 "./components/spc58ecxx_platform_component_rla/lib/src/cache.c" 1
GAS LISTING C:\Users\Vipuls\AppData\Local\Temp\ccOmR8bx.s 			page 4


 172 0050 7C93FAA6 		mfspr %r4, 1011
 173              	 # 0 "" 2
 174              	.LVL23:
 175              		.loc 1 131 0
 176 0054 4927     		se_li %r7,18
 177              	 # 131 "./components/spc58ecxx_platform_component_rla/lib/src/cache.c" 1
 178 0056 7CF3FBA6 		mtspr 1011, %r7
 179              	 # 0 "" 2
 180              		.loc 1 132 0
 181              	 # 132 "./components/spc58ecxx_platform_component_rla/lib/src/cache.c" 1
 182 005a 7CF3FAA6 		mfspr %r7, 1011
 183              	 # 0 "" 2
 184              	.LVL24:
 185              		.loc 1 118 0
 186 005e 2C86     		se_bmaski %r6,8
 187 0060 79FFFFB6 		e_b .L9
 188              	.LVL25:
 189              	.L48:
 190              		.loc 1 141 0
 191              	 # 141 "./components/spc58ecxx_platform_component_rla/lib/src/cache.c" 1
 192 0064 7CF3FAA6 		mfspr %r7, 1011
 193              	 # 0 "" 2
 194              	.LVL26:
 195              		.loc 1 142 0
 196 0068 67D7     		se_btsti %r7,29
 197 006a 7A02000C 		e_bne %cr0,.L14
 198              		.loc 1 112 0
 199 006e 4803     		se_li %r3,0
 200              	.LVL27:
 201              	.L15:
 202              		.loc 1 165 0
 203              	 # 165 "./components/spc58ecxx_platform_component_rla/lib/src/cache.c" 1
 204 0070 7C93FBA6 		mtspr 1011, %r4
 205              	 # 0 "" 2
 206 0074 0004     		se_blr
 207              	.LVL28:
 208              	.L14:
 209              		.loc 1 143 0
 210 0076 61D7     		se_bclri %r7,29
 211              	.LVL29:
 212              		.loc 1 144 0
 213              	 # 144 "./components/spc58ecxx_platform_component_rla/lib/src/cache.c" 1
 214 0078 7CF3FBA6 		mtspr 1011, %r7
 215              	 # 0 "" 2
 216 007c 4807     		se_li %r7,0
 217              	.LVL30:
 218 007e 78000012 		e_b .L31
 219              	.LVL31:
 220              	.L35:
 221              		.loc 1 159 0
 222              	 # 159 "./components/spc58ecxx_platform_component_rla/lib/src/cache.c" 1
 223 0082 7CB8FBA6 		mtspr 1016, %r5
 224              	 # 0 "" 2
 225              		.loc 1 154 0
 226 0086 2007     		se_addi %r7,1
 227              	.LVL32:
 228 0088 00C7     		se_extzb %r7
GAS LISTING C:\Users\Vipuls\AppData\Local\Temp\ccOmR8bx.s 			page 5


 229              	.LVL33:
 230 008a 0D67     		se_cmpl %r7,%r6
 231 008c 7A11001C 		e_bgt %cr0,.L49
 232              	.LVL34:
 233              	.L31:
 234              		.loc 1 155 0
 235 0090 7CE52870 		e_slwi %r5,%r7,5
 236              	.LVL35:
 237              		.loc 1 156 0
 238 0094 2203     		se_cmpli %r3,1
 239 0096 7A02FFEC 		e_bne %cr0,.L35
 240              		.loc 1 157 0
 241              	 # 157 "./components/spc58ecxx_platform_component_rla/lib/src/cache.c" 1
 242 009a 7CBFEBA6 		mtspr 959, %r5
 243              	 # 0 "" 2
 244              		.loc 1 154 0
 245 009e 2007     		se_addi %r7,1
 246              	.LVL36:
 247 00a0 00C7     		se_extzb %r7
 248              	.LVL37:
 249 00a2 0D67     		se_cmpl %r7,%r6
 250 00a4 7A01FFEC 		e_ble %cr0,.L31
 251              	.LVL38:
 252              	.L49:
 253 00a8 18A68001 		e_addi %r5,%r6,1
 254              	.LVL39:
 255 00ac 4806     		se_li %r6,0
 256 00ae 00C5     		se_extzb %r5
 257 00b0 78000012 		e_b .L25
 258              	.LVL40:
 259              	.L37:
 260              		.loc 1 159 0
 261              	 # 159 "./components/spc58ecxx_platform_component_rla/lib/src/cache.c" 1
 262 00b4 7CF8FBA6 		mtspr 1016, %r7
 263              	 # 0 "" 2
 264              		.loc 1 154 0
 265 00b8 2006     		se_addi %r6,1
 266              	.LVL41:
 267 00ba 00C6     		se_extzb %r6
 268              	.LVL42:
 269 00bc 0D56     		se_cmpl %r6,%r5
 270 00be 7A12001E 		e_beq %cr0,.L50
 271              	.LVL43:
 272              	.L25:
 273              		.loc 1 155 0
 274 00c2 7CC72870 		e_slwi %r7,%r6,5
 275              		.loc 1 156 0
 276 00c6 2203     		se_cmpli %r3,1
 277              		.loc 1 155 0
 278 00c8 6477     		se_bseti %r7,7
 279              	.LVL44:
 280              		.loc 1 156 0
 281 00ca 7A02FFEA 		e_bne %cr0,.L37
 282              		.loc 1 157 0
 283              	 # 157 "./components/spc58ecxx_platform_component_rla/lib/src/cache.c" 1
 284 00ce 7CFFEBA6 		mtspr 959, %r7
 285              	 # 0 "" 2
GAS LISTING C:\Users\Vipuls\AppData\Local\Temp\ccOmR8bx.s 			page 6


 286              		.loc 1 154 0
 287 00d2 2006     		se_addi %r6,1
 288              	.LVL45:
 289 00d4 00C6     		se_extzb %r6
 290              	.LVL46:
 291 00d6 0D56     		se_cmpl %r6,%r5
 292 00d8 7A02FFEA 		e_bne %cr0,.L25
 293              	.LVL47:
 294              	.L50:
 295              		.loc 1 165 0
 296 00dc 2203     		se_cmpli %r3,1
 297 00de 4823     		se_li %r3,2
 298              	.LVL48:
 299 00e0 7A12FF90 		e_beq %cr0,.L15
 300 00e4 79FFFF5E 		e_b .L17
 301              	.LVL49:
 302              	.L16:
 303              		.loc 1 143 0
 304 00e8 61D7     		se_bclri %r7,29
 305              	.LVL50:
 306              		.loc 1 144 0
 307              	 # 144 "./components/spc58ecxx_platform_component_rla/lib/src/cache.c" 1
 308 00ea 7CF2FBA6 		mtspr 1010, %r7
 309              	 # 0 "" 2
 310 00ee 4807     		se_li %r7,0
 311              	.LVL51:
 312 00f0 79FFFFA0 		e_b .L31
 313              		.cfi_endproc
 314              	.LFE13:
 315              		.size	idc_invalidate.constprop.1, .-idc_invalidate.constprop.1
 316              		.section	.text.cache_get_status,"axv",@progbits
 317              		.align 1
 318              		.p2align 4,,15
 319              		.globl cache_get_status
 320              		.type	cache_get_status, @function
 321              	cache_get_status:
 322              	.LFB4:
 323              		.loc 1 214 0
 324              		.cfi_startproc
 325              	.LVL52:
 326 0000 182106F0 		e_stwu %r1,-16(%r1)
 327              	.LCFI0:
 328              		.cfi_def_cfa_offset 16
 329 0004 0080     		se_mflr %r0
 330 0006 D3F1     		se_stw %r31,12(%r1)
 331 0008 D501     		se_stw %r0,20(%r1)
 332              		.cfi_offset 65, 4
 333              		.cfi_offset 31, -4
 334              		.loc 1 214 0
 335 000a 013F     		se_mr %r31,%r3
 336              		.loc 1 217 0
 337 000c 78000001 		e_bl idc_exist
 338              	.LVL53:
 339              		.loc 1 218 0
 340 0010 4807     		se_li %r7,0
 341              		.loc 1 217 0
 342 0012 2A03     		se_cmpi %r3,0
GAS LISTING C:\Users\Vipuls\AppData\Local\Temp\ccOmR8bx.s 			page 7


 343 0014 7A020010 		e_bne %cr0,.L52
 344              		.loc 1 220 0
 345 0018 220F     		se_cmpli %r31,1
 346 001a 7A120016 		e_beq %cr0,.L55
 347              		.loc 1 224 0
 348              	 # 224 "./components/spc58ecxx_platform_component_rla/lib/src/cache.c" 1
 349 001e 7CF2FAA6 		mfspr %r7, 1010
 350              	 # 0 "" 2
 351              	.LVL54:
 352              		.loc 1 225 0
 353 0022 2E17     		se_andi %r7,1
 354              	.LVL55:
 355              	.L52:
 356              		.loc 1 226 0
 357 0024 C501     		se_lwz %r0,20(%r1)
 358 0026 0090     		se_mtlr %r0
 359              		.cfi_remember_state
 360              		.cfi_restore 65
 361 0028 C3F1     		se_lwz %r31,12(%r1)
 362              	.LVL56:
 363 002a 0173     		se_mr %r3,%r7
 364 002c 20F1     		se_addi %r1,16
 365              	.LCFI1:
 366              		.cfi_restore 31
 367              		.cfi_def_cfa_offset 0
 368 002e 0004     		se_blr
 369              	.LVL57:
 370              	.L55:
 371              	.LCFI2:
 372              		.cfi_restore_state
 373              		.loc 1 221 0
 374              	 # 221 "./components/spc58ecxx_platform_component_rla/lib/src/cache.c" 1
 375 0030 7CF3FAA6 		mfspr %r7, 1011
 376              	 # 0 "" 2
 377              	.LVL58:
 378              		.loc 1 226 0
 379 0034 C501     		se_lwz %r0,20(%r1)
 380 0036 0090     		se_mtlr %r0
 381              		.cfi_restore 65
 382 0038 C3F1     		se_lwz %r31,12(%r1)
 383              	.LVL59:
 384              		.loc 1 222 0
 385 003a 2E17     		se_andi %r7,1
 386              	.LVL60:
 387              		.loc 1 226 0
 388 003c 0173     		se_mr %r3,%r7
 389 003e 20F1     		se_addi %r1,16
 390              	.LCFI3:
 391              		.cfi_restore 31
 392              		.cfi_def_cfa_offset 0
 393 0040 0004     		se_blr
 394              		.cfi_endproc
 395              	.LFE4:
 396              		.size	cache_get_status, .-cache_get_status
 397              		.section	.text.cache_enable,"axv",@progbits
 398              		.align 1
 399              		.p2align 4,,15
GAS LISTING C:\Users\Vipuls\AppData\Local\Temp\ccOmR8bx.s 			page 8


 400              		.globl cache_enable
 401              		.type	cache_enable, @function
 402              	cache_enable:
 403              	.LFB5:
 404              		.loc 1 237 0
 405              		.cfi_startproc
 406              	.LVL61:
 407 0000 182106F0 		e_stwu %r1,-16(%r1)
 408              	.LCFI4:
 409              		.cfi_def_cfa_offset 16
 410 0004 0080     		se_mflr %r0
 411 0006 1BC10908 		e_stmw %r30,8(%r1)
 412 000a D501     		se_stw %r0,20(%r1)
 413              		.cfi_offset 65, 4
 414              		.cfi_offset 30, -8
 415              		.cfi_offset 31, -4
 416              		.loc 1 237 0
 417 000c 013F     		se_mr %r31,%r3
 418              		.loc 1 240 0
 419 000e 78000001 		e_bl idc_exist
 420              	.LVL62:
 421 0012 013E     		se_mr %r30,%r3
 422 0014 2A0E     		se_cmpi %r30,0
 423 0016 7A120012 		e_beq %cr0,.L59
 424              	.LVL63:
 425              	.L57:
 426              		.loc 1 258 0
 427 001a C501     		se_lwz %r0,20(%r1)
 428 001c 0090     		se_mtlr %r0
 429              		.cfi_remember_state
 430              		.cfi_restore 65
 431 001e 01E3     		se_mr %r3,%r30
 432 0020 1BC10808 		e_lmw %r30,8(%r1)
 433              	.LVL64:
 434 0024 20F1     		se_addi %r1,16
 435              	.LCFI5:
 436              		.cfi_restore 31
 437              		.cfi_restore 30
 438              		.cfi_def_cfa_offset 0
 439 0026 0004     		se_blr
 440              	.LVL65:
 441              	.L59:
 442              	.LCFI6:
 443              		.cfi_restore_state
 444              		.loc 1 243 0
 445 0028 70E00201 		e_li %r7,513
 446              	 # 243 "./components/spc58ecxx_platform_component_rla/lib/src/cache.c" 1
 447 002c 7CF5FBA6 		mtspr 1013, %r7
 448              	 # 0 "" 2
 449              		.loc 1 247 0
 450              	 # 247 "./components/spc58ecxx_platform_component_rla/lib/src/cache.c" 1
 451 0030 4C00012C 		isync
 452              	 # 0 "" 2
 453              	 # 247 "./components/spc58ecxx_platform_component_rla/lib/src/cache.c" 1
 454 0034 7C0004AC 		msync
 455              	 # 0 "" 2
 456              		.loc 1 250 0
GAS LISTING C:\Users\Vipuls\AppData\Local\Temp\ccOmR8bx.s 			page 9


 457 0038 01F3     		se_mr %r3,%r31
 458              	.LVL66:
 459 003a 78000001 		e_bl idc_invalidate.constprop.1
 460              	.LVL67:
 461              		.loc 1 251 0
 462 003e 220F     		se_cmpli %r31,1
 463 0040 7A12001C 		e_beq %cr0,.L60
 464              	.LVL68:
 465              	.LBB36:
 466              	.LBB37:
 467              		.loc 1 175 0
 468              	 # 175 "./components/spc58ecxx_platform_component_rla/lib/src/cache.c" 1
 469 0044 7CF2FAA6 		mfspr %r7, 1010
 470              	 # 0 "" 2
 471              	.LVL69:
 472              		.loc 1 176 0
 473 0048 65F7     		se_bseti %r7,31
 474              	.LVL70:
 475              		.loc 1 177 0
 476              	 # 177 "./components/spc58ecxx_platform_component_rla/lib/src/cache.c" 1
 477 004a 7CF2FBA6 		mtspr 1010, %r7
 478              	 # 0 "" 2
 479              	.LBE37:
 480              	.LBE36:
 481              		.loc 1 258 0
 482 004e C501     		se_lwz %r0,20(%r1)
 483 0050 0090     		se_mtlr %r0
 484              		.cfi_remember_state
 485              		.cfi_restore 65
 486 0052 01E3     		se_mr %r3,%r30
 487 0054 1BC10808 		e_lmw %r30,8(%r1)
 488              	.LVL71:
 489 0058 20F1     		se_addi %r1,16
 490              	.LCFI7:
 491              		.cfi_restore 30
 492              		.cfi_restore 31
 493              		.cfi_def_cfa_offset 0
 494 005a 0004     		se_blr
 495              	.LVL72:
 496              	.L60:
 497              	.LCFI8:
 498              		.cfi_restore_state
 499              	.LBB38:
 500              	.LBB39:
 501              		.loc 1 175 0
 502              	 # 175 "./components/spc58ecxx_platform_component_rla/lib/src/cache.c" 1
 503 005c 7CF3FAA6 		mfspr %r7, 1011
 504              	 # 0 "" 2
 505              	.LVL73:
 506              		.loc 1 176 0
 507 0060 65F7     		se_bseti %r7,31
 508              	.LVL74:
 509              		.loc 1 177 0
 510              	 # 177 "./components/spc58ecxx_platform_component_rla/lib/src/cache.c" 1
 511 0062 7CF3FBA6 		mtspr 1011, %r7
 512              	 # 0 "" 2
 513 0066 79FFFFB4 		e_b .L57
GAS LISTING C:\Users\Vipuls\AppData\Local\Temp\ccOmR8bx.s 			page 10


 514              	.LBE39:
 515              	.LBE38:
 516              		.cfi_endproc
 517              	.LFE5:
 518              		.size	cache_enable, .-cache_enable
 519              		.section	.text.cache_set_control,"axv",@progbits
 520              		.align 1
 521              		.p2align 4,,15
 522              		.globl cache_set_control
 523              		.type	cache_set_control, @function
 524              	cache_set_control:
 525              	.LFB6:
 526              		.loc 1 270 0
 527              		.cfi_startproc
 528              	.LVL75:
 529 0000 182106F0 		e_stwu %r1,-16(%r1)
 530              	.LCFI9:
 531              		.cfi_def_cfa_offset 16
 532 0004 0080     		se_mflr %r0
 533 0006 1BC10908 		e_stmw %r30,8(%r1)
 534 000a D501     		se_stw %r0,20(%r1)
 535              		.cfi_offset 65, 4
 536              		.cfi_offset 30, -8
 537              		.cfi_offset 31, -4
 538              		.loc 1 270 0
 539 000c 013F     		se_mr %r31,%r3
 540 000e 014E     		se_mr %r30,%r4
 541              		.loc 1 273 0
 542 0010 78000001 		e_bl idc_exist
 543              	.LVL76:
 544 0014 2A03     		se_cmpi %r3,0
 545 0016 7A120010 		e_beq %cr0,.L65
 546              	.LVL77:
 547              	.L62:
 548              		.loc 1 286 0
 549 001a C501     		se_lwz %r0,20(%r1)
 550 001c 0090     		se_mtlr %r0
 551              		.cfi_remember_state
 552              		.cfi_restore 65
 553 001e 1BC10808 		e_lmw %r30,8(%r1)
 554              	.LVL78:
 555 0022 20F1     		se_addi %r1,16
 556              	.LCFI10:
 557              		.cfi_restore 31
 558              		.cfi_restore 30
 559              		.cfi_def_cfa_offset 0
 560 0024 0004     		se_blr
 561              	.LVL79:
 562              	.L65:
 563              	.LCFI11:
 564              		.cfi_restore_state
 565              		.loc 1 276 0
 566 0026 70E00201 		e_li %r7,513
 567              	 # 276 "./components/spc58ecxx_platform_component_rla/lib/src/cache.c" 1
 568 002a 7CF5FBA6 		mtspr 1013, %r7
 569              	 # 0 "" 2
 570              		.loc 1 280 0
GAS LISTING C:\Users\Vipuls\AppData\Local\Temp\ccOmR8bx.s 			page 11


 571              	 # 280 "./components/spc58ecxx_platform_component_rla/lib/src/cache.c" 1
 572 002e 4C00012C 		isync
 573              	 # 0 "" 2
 574              	 # 280 "./components/spc58ecxx_platform_component_rla/lib/src/cache.c" 1
 575 0032 7C0004AC 		msync
 576              	 # 0 "" 2
 577              		.loc 1 282 0
 578 0036 01F3     		se_mr %r3,%r31
 579              	.LVL80:
 580 0038 78000001 		e_bl idc_invalidate.constprop.1
 581              	.LVL81:
 582              		.loc 1 283 0
 583 003c 220F     		se_cmpli %r31,1
 584 003e 7A120014 		e_beq %cr0,.L66
 585              		.loc 1 283 0 is_stmt 0 discriminator 2
 586              	 # 283 "./components/spc58ecxx_platform_component_rla/lib/src/cache.c" 1
 587 0042 7FD2FBA6 		mtspr 1010, %r30
 588              	 # 0 "" 2
 589              		.loc 1 286 0 is_stmt 1 discriminator 2
 590 0046 C501     		se_lwz %r0,20(%r1)
 591 0048 0090     		se_mtlr %r0
 592              		.cfi_remember_state
 593              		.cfi_restore 65
 594 004a 1BC10808 		e_lmw %r30,8(%r1)
 595              	.LVL82:
 596 004e 20F1     		se_addi %r1,16
 597              	.LCFI12:
 598              		.cfi_restore 30
 599              		.cfi_restore 31
 600              		.cfi_def_cfa_offset 0
 601 0050 0004     		se_blr
 602              	.LVL83:
 603              	.L66:
 604              	.LCFI13:
 605              		.cfi_restore_state
 606              		.loc 1 283 0 discriminator 1
 607              	 # 283 "./components/spc58ecxx_platform_component_rla/lib/src/cache.c" 1
 608 0052 7FD3FBA6 		mtspr 1011, %r30
 609              	 # 0 "" 2
 610 0056 79FFFFC4 		e_b .L62
 611              		.cfi_endproc
 612              	.LFE6:
 613              		.size	cache_set_control, .-cache_set_control
 614              		.section	.text.cache_disable,"axv",@progbits
 615              		.align 1
 616              		.p2align 4,,15
 617              		.globl cache_disable
 618              		.type	cache_disable, @function
 619              	cache_disable:
 620              	.LFB7:
 621              		.loc 1 297 0
 622              		.cfi_startproc
 623              	.LVL84:
 624 0000 182106F0 		e_stwu %r1,-16(%r1)
 625              	.LCFI14:
 626              		.cfi_def_cfa_offset 16
 627 0004 0080     		se_mflr %r0
GAS LISTING C:\Users\Vipuls\AppData\Local\Temp\ccOmR8bx.s 			page 12


 628 0006 D3F1     		se_stw %r31,12(%r1)
 629 0008 D501     		se_stw %r0,20(%r1)
 630              		.cfi_offset 65, 4
 631              		.cfi_offset 31, -4
 632              		.loc 1 297 0
 633 000a 013F     		se_mr %r31,%r3
 634              		.loc 1 300 0
 635 000c 78000001 		e_bl idc_exist
 636              	.LVL85:
 637 0010 2A03     		se_cmpi %r3,0
 638 0012 7A12000E 		e_beq %cr0,.L71
 639              		.loc 1 313 0
 640 0016 C501     		se_lwz %r0,20(%r1)
 641 0018 0090     		se_mtlr %r0
 642              		.cfi_remember_state
 643              		.cfi_restore 65
 644 001a C3F1     		se_lwz %r31,12(%r1)
 645              	.LVL86:
 646 001c 20F1     		se_addi %r1,16
 647              	.LCFI15:
 648              		.cfi_restore 31
 649              		.cfi_def_cfa_offset 0
 650 001e 0004     		se_blr
 651              	.LVL87:
 652              	.L71:
 653              	.LCFI16:
 654              		.cfi_restore_state
 655              		.loc 1 303 0
 656 0020 70E00201 		e_li %r7,513
 657              	 # 303 "./components/spc58ecxx_platform_component_rla/lib/src/cache.c" 1
 658 0024 7CF5FBA6 		mtspr 1013, %r7
 659              	 # 0 "" 2
 660              		.loc 1 307 0
 661              	 # 307 "./components/spc58ecxx_platform_component_rla/lib/src/cache.c" 1
 662 0028 4C00012C 		isync
 663              	 # 0 "" 2
 664              	 # 307 "./components/spc58ecxx_platform_component_rla/lib/src/cache.c" 1
 665 002c 7C0004AC 		msync
 666              	 # 0 "" 2
 667              		.loc 1 309 0
 668 0030 01F3     		se_mr %r3,%r31
 669              	.LVL88:
 670 0032 78000001 		e_bl idc_invalidate.constprop.1
 671              	.LVL89:
 672              	.LBB40:
 673              	.LBB41:
 674              		.loc 1 186 0
 675 0036 220F     		se_cmpli %r31,1
 676 0038 7A120018 		e_beq %cr0,.L72
 677              	 # 186 "./components/spc58ecxx_platform_component_rla/lib/src/cache.c" 1
 678 003c 7CF2FAA6 		mfspr %r7, 1010
 679              	 # 0 "" 2
 680              	.LVL90:
 681              		.loc 1 187 0
 682 0040 61F7     		se_bclri %r7,31
 683              	.LVL91:
 684              		.loc 1 188 0
GAS LISTING C:\Users\Vipuls\AppData\Local\Temp\ccOmR8bx.s 			page 13


 685              	 # 188 "./components/spc58ecxx_platform_component_rla/lib/src/cache.c" 1
 686 0042 7CF2FBA6 		mtspr 1010, %r7
 687              	 # 0 "" 2
 688              	.LBE41:
 689              	.LBE40:
 690              		.loc 1 313 0
 691 0046 C501     		se_lwz %r0,20(%r1)
 692 0048 0090     		se_mtlr %r0
 693              		.cfi_remember_state
 694              		.cfi_restore 65
 695 004a C3F1     		se_lwz %r31,12(%r1)
 696              	.LVL92:
 697 004c 20F1     		se_addi %r1,16
 698              	.LCFI17:
 699              		.cfi_restore 31
 700              		.cfi_def_cfa_offset 0
 701 004e 0004     		se_blr
 702              	.LVL93:
 703              	.L72:
 704              	.LCFI18:
 705              		.cfi_restore_state
 706              	.LBB43:
 707              	.LBB42:
 708              		.loc 1 186 0
 709              	 # 186 "./components/spc58ecxx_platform_component_rla/lib/src/cache.c" 1
 710 0050 7CF3FAA6 		mfspr %r7, 1011
 711              	 # 0 "" 2
 712              	.LVL94:
 713              		.loc 1 187 0
 714 0054 61F7     		se_bclri %r7,31
 715              	.LVL95:
 716              		.loc 1 188 0
 717              	 # 188 "./components/spc58ecxx_platform_component_rla/lib/src/cache.c" 1
 718 0056 7CF3FBA6 		mtspr 1011, %r7
 719              	 # 0 "" 2
 720              	.LBE42:
 721              	.LBE43:
 722              		.loc 1 313 0
 723 005a C501     		se_lwz %r0,20(%r1)
 724 005c 0090     		se_mtlr %r0
 725              		.cfi_restore 65
 726 005e C3F1     		se_lwz %r31,12(%r1)
 727              	.LVL96:
 728 0060 20F1     		se_addi %r1,16
 729              	.LCFI19:
 730              		.cfi_restore 31
 731              		.cfi_def_cfa_offset 0
 732 0062 0004     		se_blr
 733              		.cfi_endproc
 734              	.LFE7:
 735              		.size	cache_disable, .-cache_disable
 736              		.section	.text.cache_get_cfg,"axv",@progbits
 737              		.align 1
 738              		.p2align 4,,15
 739              		.globl cache_get_cfg
 740              		.type	cache_get_cfg, @function
 741              	cache_get_cfg:
GAS LISTING C:\Users\Vipuls\AppData\Local\Temp\ccOmR8bx.s 			page 14


 742              	.LFB8:
 743              		.loc 1 324 0
 744              		.cfi_startproc
 745              	.LVL97:
 746              		.loc 1 327 0
 747 0000 70E00201 		e_li %r7,513
 748              	 # 327 "./components/spc58ecxx_platform_component_rla/lib/src/cache.c" 1
 749 0004 7CF5FBA6 		mtspr 1013, %r7
 750              	 # 0 "" 2
 751              		.loc 1 328 0
 752 0008 2A03     		se_cmpi %r3,0
 753 000a 7A020010 		e_bne %cr0,.L74
 754              		.loc 1 329 0
 755              	 # 329 "./components/spc58ecxx_platform_component_rla/lib/src/cache.c" 1
 756 000e 7CC482A6 		mfspr %r6, 516
 757              	 # 0 "" 2
 758              	.LVL98:
 759              	.L75:
 760              		.loc 1 337 0
 761 0012 74C7057F 		e_rlwinm %r7,%r6,0,21,31
 762              	.LVL99:
 763              		.loc 1 343 0
 764 0016 0173     		se_mr %r3,%r7
 765              	.LVL100:
 766 0018 0004     		se_blr
 767              	.LVL101:
 768              	.L74:
 769              		.loc 1 331 0
 770              	 # 331 "./components/spc58ecxx_platform_component_rla/lib/src/cache.c" 1
 771 001a 7CC382A6 		mfspr %r6, 515
 772              	 # 0 "" 2
 773              	.LVL102:
 774              		.loc 1 340 0
 775 001e 4807     		se_li %r7,0
 776              		.loc 1 334 0
 777 0020 2203     		se_cmpli %r3,1
 778 0022 7A01FFF0 		e_ble %cr0,.L75
 779              	.LVL103:
 780              		.loc 1 343 0
 781 0026 0173     		se_mr %r3,%r7
 782              	.LVL104:
 783 0028 0004     		se_blr
 784              		.cfi_endproc
 785              	.LFE8:
 786              		.size	cache_get_cfg, .-cache_get_cfg
 787              		.section	.text.cache_invalidate,"axv",@progbits
 788              		.align 1
 789              		.p2align 4,,15
 790              		.globl cache_invalidate
 791              		.type	cache_invalidate, @function
 792              	cache_invalidate:
 793              	.LFB9:
 794              		.loc 1 354 0
 795              		.cfi_startproc
 796              	.LVL105:
 797 0000 182106F0 		e_stwu %r1,-16(%r1)
 798              	.LCFI20:
GAS LISTING C:\Users\Vipuls\AppData\Local\Temp\ccOmR8bx.s 			page 15


 799              		.cfi_def_cfa_offset 16
 800 0004 0080     		se_mflr %r0
 801 0006 D3F1     		se_stw %r31,12(%r1)
 802 0008 D501     		se_stw %r0,20(%r1)
 803              		.cfi_offset 65, 4
 804              		.cfi_offset 31, -4
 805              		.loc 1 354 0
 806 000a 013F     		se_mr %r31,%r3
 807              		.loc 1 357 0
 808 000c 78000001 		e_bl idc_exist
 809              	.LVL106:
 810 0010 2A03     		se_cmpi %r3,0
 811 0012 7A12000E 		e_beq %cr0,.L81
 812              		.loc 1 369 0
 813 0016 C501     		se_lwz %r0,20(%r1)
 814 0018 0090     		se_mtlr %r0
 815              		.cfi_remember_state
 816              		.cfi_restore 65
 817 001a C3F1     		se_lwz %r31,12(%r1)
 818              	.LVL107:
 819 001c 20F1     		se_addi %r1,16
 820              	.LCFI21:
 821              		.cfi_restore 31
 822              		.cfi_def_cfa_offset 0
 823 001e 0004     		se_blr
 824              	.LVL108:
 825              	.L81:
 826              	.LCFI22:
 827              		.cfi_restore_state
 828              		.loc 1 360 0
 829 0020 70E00201 		e_li %r7,513
 830              	 # 360 "./components/spc58ecxx_platform_component_rla/lib/src/cache.c" 1
 831 0024 7CF5FBA6 		mtspr 1013, %r7
 832              	 # 0 "" 2
 833              		.loc 1 363 0
 834              	 # 363 "./components/spc58ecxx_platform_component_rla/lib/src/cache.c" 1
 835 0028 4C00012C 		isync
 836              	 # 0 "" 2
 837              	 # 363 "./components/spc58ecxx_platform_component_rla/lib/src/cache.c" 1
 838 002c 7C0004AC 		msync
 839              	 # 0 "" 2
 840              		.loc 1 369 0
 841 0030 C501     		se_lwz %r0,20(%r1)
 842              		.loc 1 366 0
 843 0032 01F3     		se_mr %r3,%r31
 844              	.LVL109:
 845              		.loc 1 369 0
 846 0034 0090     		se_mtlr %r0
 847              		.cfi_restore 65
 848 0036 C3F1     		se_lwz %r31,12(%r1)
 849              	.LVL110:
 850 0038 20F1     		se_addi %r1,16
 851              	.LCFI23:
 852              		.cfi_restore 31
 853              		.cfi_def_cfa_offset 0
 854              		.loc 1 366 0
 855 003a 78000000 		e_b idc_invalidate.constprop.1
GAS LISTING C:\Users\Vipuls\AppData\Local\Temp\ccOmR8bx.s 			page 16


 856              	.LVL111:
 857              		.cfi_endproc
 858              	.LFE9:
 859              		.size	cache_invalidate, .-cache_invalidate
 860              		.section	.text.cache_flush_range,"axv",@progbits
 861              		.align 1
 862              		.p2align 4,,15
 863              		.globl cache_flush_range
 864              		.type	cache_flush_range, @function
 865              	cache_flush_range:
 866              	.LFB10:
 867              		.loc 1 381 0
 868              		.cfi_startproc
 869              	.LVL112:
 870              		.loc 1 381 0
 871 0000 0137     		se_mr %r7,%r3
 872              		.loc 1 385 0
 873              	 # 385 "./components/spc58ecxx_platform_component_rla/lib/src/cache.c" 1
 874 0002 7CD2FAA6 		mfspr %r6, 1010
 875              	 # 0 "" 2
 876              	.LVL113:
 877              		.loc 1 387 0
 878 0006 4813     		se_li %r3,1
 879              	.LVL114:
 880              		.loc 1 386 0
 881 0008 67F6     		se_btsti %r6,31
 882 000a 7A12001A 		e_beq %cr0,.L83
 883              	.LVL115:
 884              		.loc 1 389 0 discriminator 1
 885 000e 0474     		se_add %r4,%r7
 886              	.LVL116:
 887 0010 0D47     		se_cmpl %r7,%r4
 888 0012 7A000010 		e_bge %cr0,.L86
 889              	.LVL117:
 890              	.L84:
 891              		.loc 1 390 0 discriminator 3
 892              	 # 390 "./components/spc58ecxx_platform_component_rla/lib/src/cache.c" 1
 893 0016 7C0038AC 		dcbf 0, %r7
 894              	 # 0 "" 2
 895              		.loc 1 389 0 discriminator 3
 896 001a 2037     		se_addi %r7,4
 897              	.LVL118:
 898 001c 0D47     		se_cmpl %r7,%r4
 899 001e 7A10FFF8 		e_blt %cr0,.L84
 900              	.L86:
 901              		.loc 1 392 0
 902 0022 4803     		se_li %r3,0
 903              	.LVL119:
 904              	.L83:
 905              		.loc 1 393 0
 906 0024 0004     		se_blr
 907              		.cfi_endproc
 908              	.LFE10:
 909              		.size	cache_flush_range, .-cache_flush_range
 910              		.section	.text.cache_invalidate_range,"axv",@progbits
 911              		.align 1
 912              		.p2align 4,,15
GAS LISTING C:\Users\Vipuls\AppData\Local\Temp\ccOmR8bx.s 			page 17


 913              		.globl cache_invalidate_range
 914              		.type	cache_invalidate_range, @function
 915              	cache_invalidate_range:
 916              	.LFB11:
 917              		.loc 1 405 0
 918              		.cfi_startproc
 919              	.LVL120:
 920              		.loc 1 405 0
 921 0000 0137     		se_mr %r7,%r3
 922              		.loc 1 409 0
 923              	 # 409 "./components/spc58ecxx_platform_component_rla/lib/src/cache.c" 1
 924 0002 7CD2FAA6 		mfspr %r6, 1010
 925              	 # 0 "" 2
 926              	.LVL121:
 927              		.loc 1 411 0
 928 0006 4813     		se_li %r3,1
 929              	.LVL122:
 930              		.loc 1 410 0
 931 0008 67F6     		se_btsti %r6,31
 932 000a 7A12002A 		e_beq %cr0,.L89
 933              		.loc 1 413 0
 934 000e 70C00201 		e_li %r6,513
 935              	 # 413 "./components/spc58ecxx_platform_component_rla/lib/src/cache.c" 1
 936 0012 7CD5FBA6 		mtspr 1013, %r6
 937              	 # 0 "" 2
 938              		.loc 1 416 0
 939              	 # 416 "./components/spc58ecxx_platform_component_rla/lib/src/cache.c" 1
 940 0016 4C00012C 		isync
 941              	 # 0 "" 2
 942              	 # 416 "./components/spc58ecxx_platform_component_rla/lib/src/cache.c" 1
 943 001a 7C0004AC 		msync
 944              	 # 0 "" 2
 945              	.LVL123:
 946              		.loc 1 418 0
 947 001e 0474     		se_add %r4,%r7
 948              	.LVL124:
 949 0020 0D47     		se_cmpl %r7,%r4
 950 0022 7A000010 		e_bge %cr0,.L92
 951              	.LVL125:
 952              	.L90:
 953              		.loc 1 419 0 discriminator 3
 954              	 # 419 "./components/spc58ecxx_platform_component_rla/lib/src/cache.c" 1
 955 0026 7C003BAC 		dcbi 0, %r7
 956              	 # 0 "" 2
 957              		.loc 1 418 0 discriminator 3
 958 002a 2037     		se_addi %r7,4
 959              	.LVL126:
 960 002c 0D47     		se_cmpl %r7,%r4
 961 002e 7A10FFF8 		e_blt %cr0,.L90
 962              	.L92:
 963              		.loc 1 421 0
 964 0032 4803     		se_li %r3,0
 965              	.LVL127:
 966              	.L89:
 967              		.loc 1 422 0
 968 0034 0004     		se_blr
 969              		.cfi_endproc
GAS LISTING C:\Users\Vipuls\AppData\Local\Temp\ccOmR8bx.s 			page 18


 970              	.LFE11:
 971              		.size	cache_invalidate_range, .-cache_invalidate_range
 972              		.section	".text","axv"
 973              	.Letext0:
 974              		.file 2 "c:\\autodevkitstudio-2.4.0\\eclipse\\plugins\\com.st.tools.spc5.tools.gnu.gcc.ppcvle.win3
 975              		.file 3 "c:\\autodevkitstudio-2.4.0\\eclipse\\plugins\\com.st.tools.spc5.tools.gnu.gcc.ppcvle.win3
 976              		.file 4 "./components/spc58ecxx_platform_component_rla/lib/include/cache.h"