GAS LISTING C:\Users\Vipuls\AppData\Local\Temp\ccD0EkH6.s 			page 1


   1              		.file	"main.c"
   2              		.section	".text","axv"
   3              	.Ltext0:
   4              		.cfi_sections	.debug_frame
   5              		.section	.text.getTemperatureStats,"axv",@progbits
   6              		.align 1
   7              		.p2align 4,,15
   8              		.globl getTemperatureStats
   9              		.type	getTemperatureStats, @function
  10              	getTemperatureStats:
  11              	.LFB3:
  12              		.file 1 "main.c"
  13              		.loc 1 33 0
  14              		.cfi_startproc
  15              	.LVL0:
  16              		.loc 1 34 0
  17 0000 A003     		se_lhz %r0,0(%r3)
  18              		.loc 1 33 0
  19 0002 182106F0 		e_stwu %r1,-16(%r1)
  20              	.LCFI0:
  21              		.cfi_def_cfa_offset 16
  22              		.loc 1 34 0
  23 0006 B004     		se_sth %r0,0(%r4)
  24              		.loc 1 33 0
  25 0008 D3F1     		se_stw %r31,12(%r1)
  26              		.cfi_offset 31, -4
  27              	.LBB2:
  28              		.loc 1 38 0
  29 000a 2A17     		se_cmpi %r7,1
  30              	.LBE2:
  31              		.loc 1 35 0
  32 000c A0F3     		se_lhz %r31,0(%r3)
  33 000e B0F5     		se_sth %r31,0(%r5)
  34              	.LVL1:
  35              	.LBB3:
  36              		.loc 1 38 0
  37 0010 7A010026 		e_ble %cr0,.L2
  38 0014 2407     		se_subi %r7, 1
  39              	.LVL2:
  40 0016 00B7     		se_mtctr %r7
  41              	.LVL3:
  42              	.L6:
  43              		.loc 1 39 0
  44 0018 18030102 		e_lhzu %r0,2(%r3)
  45 001c 0DF0     		se_cmpl %r0,%r31
  46 001e 7A010008 		e_ble %cr0,.L3
  47              		.loc 1 40 0
  48 0022 B005     		se_sth %r0,0(%r5)
  49 0024 A003     		se_lhz %r0,0(%r3)
  50              	.L3:
  51              		.loc 1 42 0
  52 0026 A0F4     		se_lhz %r31,0(%r4)
  53 0028 0D0F     		se_cmpl %r31,%r0
  54 002a 7A010006 		e_ble %cr0,.L4
  55              		.loc 1 43 0
  56 002e B004     		se_sth %r0,0(%r4)
  57              	.L4:
GAS LISTING C:\Users\Vipuls\AppData\Local\Temp\ccD0EkH6.s 			page 2


  58 0030 A0F5     		se_lhz %r31,0(%r5)
  59              		.loc 1 38 0 discriminator 2
  60 0032 7A20FFE6 		e_bdnz .L6
  61              	.LVL4:
  62              	.L2:
  63              	.LBE3:
  64              		.loc 1 47 0
  65 0036 A074     		se_lhz %r7,0(%r4)
  66 0038 067F     		se_sub %r31, %r7
  67 003a B0F6     		se_sth %r31,0(%r6)
  68              		.loc 1 48 0
  69 003c C3F1     		se_lwz %r31,12(%r1)
  70 003e 20F1     		se_addi %r1,16
  71              	.LCFI1:
  72              		.cfi_restore 31
  73              		.cfi_def_cfa_offset 0
  74 0040 0004     		se_blr
  75              		.cfi_endproc
  76              	.LFE3:
  77              		.size	getTemperatureStats, .-getTemperatureStats
  78              		.globl __fixunssfsi
  79              		.globl __floatunsisf
  80              		.globl __divsf3
  81              		.globl __extendsfdf2
  82              		.globl __adddf3
  83              		.globl __divdf3
  84              		.globl __subdf3
  85              		.globl __muldf3
  86              		.globl __fixunsdfsi
  87              		.section	.text.send_temp_data,"axv",@progbits
  88              		.align 1
  89              		.p2align 4,,15
  90              		.globl send_temp_data
  91              		.type	send_temp_data, @function
  92              	send_temp_data:
  93              	.LFB4:
  94              		.loc 1 50 0
  95              		.cfi_startproc
  96              	.LVL5:
  97 0000 182106C8 		e_stwu %r1,-56(%r1)
  98              	.LCFI2:
  99              		.cfi_def_cfa_offset 56
 100 0004 0080     		se_mflr %r0
 101 0006 1B010918 		e_stmw %r24,24(%r1)
 102 000a DF01     		se_stw %r0,60(%r1)
 103              		.cfi_offset 65, 4
 104              		.cfi_offset 24, -32
 105              		.cfi_offset 25, -28
 106              		.cfi_offset 26, -24
 107              		.cfi_offset 27, -20
 108              		.cfi_offset 28, -16
 109              		.cfi_offset 29, -12
 110              		.cfi_offset 30, -8
 111              		.cfi_offset 31, -4
 112              		.loc 1 50 0
 113 000c 015D     		se_mr %r29,%r5
 114 000e 014E     		se_mr %r30,%r4
GAS LISTING C:\Users\Vipuls\AppData\Local\Temp\ccD0EkH6.s 			page 3


 115 0010 013F     		se_mr %r31,%r3
 116              	.LVL6:
 117              		.loc 1 54 0
 118 0012 5063000C 		e_lwz %r3,12(%r3)
 119              	.LVL7:
 120 0016 78000001 		e_bl __fixunssfsi
 121              	.LVL8:
 122 001a 013A     		se_mr %r26,%r3
 123              	.LVL9:
 124              		.loc 1 55 0
 125 001c 507F0018 		e_lwz %r3,24(%r31)
 126              	.LVL10:
 127 0020 78000001 		e_bl __fixunssfsi
 128              	.LVL11:
 129 0024 013C     		se_mr %r28,%r3
 130              	.LVL12:
 131              		.loc 1 56 0
 132 0026 507F0024 		e_lwz %r3,36(%r31)
 133              	.LVL13:
 134 002a 78000001 		e_bl __fixunssfsi
 135              	.LVL14:
 136 002e 013B     		se_mr %r27,%r3
 137              	.LVL15:
 138              		.loc 1 57 0
 139 0030 507F0030 		e_lwz %r3,48(%r31)
 140              	.LVL16:
 141 0034 78000001 		e_bl __fixunssfsi
 142              	.LVL17:
 143 0038 0138     		se_mr %r24,%r3
 144              	.LVL18:
 145              		.loc 1 53 0
 146 003a 507F0000 		e_lwz %r3,0(%r31)
 147              	.LVL19:
 148              		.loc 1 71 0
 149 003e 2CCF     		se_bmaski %r31,12
 150              	.LVL20:
 151              		.loc 1 53 0
 152 0040 78000001 		e_bl __fixunssfsi
 153              	.LVL21:
 154              		.loc 1 64 0
 155 0044 78000001 		e_bl __floatunsisf
 156              	.LVL22:
 157 0048 7088E61C 		e_lis %r4,0x461c
 158 004c 6514     		se_bseti %r4,17
 159 004e 78000001 		e_bl __divsf3
 160              	.LVL23:
 161 0052 78000001 		e_bl __extendsfdf2
 162              	.LVL24:
 163 0056 78000001 		e_bl log
 164              	.LVL25:
 165 005a 70D8E000 		e_lis %r6,0xc000
 166 005e 70A8E02A 		e_lis %r5,0x402a
 167 0062 70B7C18C 		e_or2i %r5,47500
 168 0066 78000001 		e_bl __adddf3
 169              	.LVL26:
 170 006a 0146     		se_mr %r6,%r4
 171 006c 0135     		se_mr %r5,%r3
GAS LISTING C:\Users\Vipuls\AppData\Local\Temp\ccD0EkH6.s 			page 4


 172 006e 4804     		se_li %r4,0
 173 0070 7068E0AF 		e_lis %r3,0x40af
 174 0074 6523     		se_bseti %r3,18
 175 0076 78000001 		e_bl __divdf3
 176              	.LVL27:
 177 007a 70A8E071 		e_lis %r5,0x4071
 178 007e 70CCE666 		e_lis %r6,0x6666
 179 0082 70A2C266 		e_or2i %r5,4710
 180 0086 70CCC666 		e_or2i %r6,26214
 181 008a 78000001 		e_bl __subdf3
 182              	.LVL28:
 183 008e 70A8E024 		e_lis %r5,0x4024
 184 0092 4806     		se_li %r6,0
 185 0094 78000001 		e_bl __muldf3
 186              	.LVL29:
 187 0098 78000001 		e_bl __fixunsdfsi
 188              	.LVL30:
 189 009c 7479043F 		e_rlwinm %r25,%r3,0,0xffff
 190              	.LVL31:
 191              		.loc 1 65 0
 192 00a0 01A3     		se_mr %r3,%r26
 193              	.LVL32:
 194 00a2 78000001 		e_bl __floatunsisf
 195              	.LVL33:
 196 00a6 7088E61C 		e_lis %r4,0x461c
 197 00aa 6514     		se_bseti %r4,17
 198 00ac 78000001 		e_bl __divsf3
 199              	.LVL34:
 200 00b0 78000001 		e_bl __extendsfdf2
 201              	.LVL35:
 202 00b4 78000001 		e_bl log
 203              	.LVL36:
 204 00b8 70D8E000 		e_lis %r6,0xc000
 205 00bc 70A8E02A 		e_lis %r5,0x402a
 206 00c0 70B7C18C 		e_or2i %r5,47500
 207 00c4 78000001 		e_bl __adddf3
 208              	.LVL37:
 209 00c8 0146     		se_mr %r6,%r4
 210 00ca 0135     		se_mr %r5,%r3
 211 00cc 4804     		se_li %r4,0
 212 00ce 7068E0AF 		e_lis %r3,0x40af
 213 00d2 6523     		se_bseti %r3,18
 214 00d4 78000001 		e_bl __divdf3
 215              	.LVL38:
 216 00d8 70A8E071 		e_lis %r5,0x4071
 217 00dc 70CCE666 		e_lis %r6,0x6666
 218 00e0 70A2C266 		e_or2i %r5,4710
 219 00e4 70CCC666 		e_or2i %r6,26214
 220 00e8 78000001 		e_bl __subdf3
 221              	.LVL39:
 222 00ec 70A8E024 		e_lis %r5,0x4024
 223 00f0 4806     		se_li %r6,0
 224 00f2 78000001 		e_bl __muldf3
 225              	.LVL40:
 226 00f6 78000001 		e_bl __fixunsdfsi
 227              	.LVL41:
 228 00fa 747A043F 		e_rlwinm %r26,%r3,0,0xffff
GAS LISTING C:\Users\Vipuls\AppData\Local\Temp\ccD0EkH6.s 			page 5


 229              	.LVL42:
 230              		.loc 1 66 0
 231 00fe 01C3     		se_mr %r3,%r28
 232              	.LVL43:
 233 0100 78000001 		e_bl __floatunsisf
 234              	.LVL44:
 235 0104 7088E61C 		e_lis %r4,0x461c
 236 0108 6514     		se_bseti %r4,17
 237 010a 78000001 		e_bl __divsf3
 238              	.LVL45:
 239 010e 78000001 		e_bl __extendsfdf2
 240              	.LVL46:
 241 0112 78000001 		e_bl log
 242              	.LVL47:
 243 0116 70D8E000 		e_lis %r6,0xc000
 244 011a 70A8E02A 		e_lis %r5,0x402a
 245 011e 70B7C18C 		e_or2i %r5,47500
 246 0122 78000001 		e_bl __adddf3
 247              	.LVL48:
 248 0126 0146     		se_mr %r6,%r4
 249 0128 0135     		se_mr %r5,%r3
 250 012a 4804     		se_li %r4,0
 251 012c 7068E0AF 		e_lis %r3,0x40af
 252 0130 6523     		se_bseti %r3,18
 253 0132 78000001 		e_bl __divdf3
 254              	.LVL49:
 255 0136 70A8E071 		e_lis %r5,0x4071
 256 013a 70CCE666 		e_lis %r6,0x6666
 257 013e 70A2C266 		e_or2i %r5,4710
 258 0142 70CCC666 		e_or2i %r6,26214
 259 0146 78000001 		e_bl __subdf3
 260              	.LVL50:
 261 014a 70A8E024 		e_lis %r5,0x4024
 262 014e 4806     		se_li %r6,0
 263 0150 78000001 		e_bl __muldf3
 264              	.LVL51:
 265 0154 78000001 		e_bl __fixunsdfsi
 266              	.LVL52:
 267 0158 747C043F 		e_rlwinm %r28,%r3,0,0xffff
 268              	.LVL53:
 269              		.loc 1 67 0
 270 015c 01B3     		se_mr %r3,%r27
 271              	.LVL54:
 272 015e 78000001 		e_bl __floatunsisf
 273              	.LVL55:
 274 0162 7088E61C 		e_lis %r4,0x461c
 275 0166 6514     		se_bseti %r4,17
 276 0168 78000001 		e_bl __divsf3
 277              	.LVL56:
 278 016c 78000001 		e_bl __extendsfdf2
 279              	.LVL57:
 280 0170 78000001 		e_bl log
 281              	.LVL58:
 282 0174 70D8E000 		e_lis %r6,0xc000
 283 0178 70A8E02A 		e_lis %r5,0x402a
 284 017c 70B7C18C 		e_or2i %r5,47500
 285 0180 78000001 		e_bl __adddf3
GAS LISTING C:\Users\Vipuls\AppData\Local\Temp\ccD0EkH6.s 			page 6


 286              	.LVL59:
 287 0184 0146     		se_mr %r6,%r4
 288 0186 0135     		se_mr %r5,%r3
 289 0188 4804     		se_li %r4,0
 290 018a 7068E0AF 		e_lis %r3,0x40af
 291 018e 6523     		se_bseti %r3,18
 292 0190 78000001 		e_bl __divdf3
 293              	.LVL60:
 294 0194 70A8E071 		e_lis %r5,0x4071
 295 0198 70CCE666 		e_lis %r6,0x6666
 296 019c 70A2C266 		e_or2i %r5,4710
 297 01a0 70CCC666 		e_or2i %r6,26214
 298 01a4 78000001 		e_bl __subdf3
 299              	.LVL61:
 300 01a8 70A8E024 		e_lis %r5,0x4024
 301 01ac 4806     		se_li %r6,0
 302 01ae 78000001 		e_bl __muldf3
 303              	.LVL62:
 304 01b2 78000001 		e_bl __fixunsdfsi
 305              	.LVL63:
 306 01b6 747B043F 		e_rlwinm %r27,%r3,0,0xffff
 307              	.LVL64:
 308              		.loc 1 68 0
 309 01ba 0183     		se_mr %r3,%r24
 310              	.LVL65:
 311 01bc 78000001 		e_bl __floatunsisf
 312              	.LVL66:
 313 01c0 7088E61C 		e_lis %r4,0x461c
 314 01c4 6514     		se_bseti %r4,17
 315 01c6 78000001 		e_bl __divsf3
 316              	.LVL67:
 317 01ca 78000001 		e_bl __extendsfdf2
 318              	.LVL68:
 319 01ce 78000001 		e_bl log
 320              	.LVL69:
 321 01d2 70D8E000 		e_lis %r6,0xc000
 322 01d6 70A8E02A 		e_lis %r5,0x402a
 323 01da 70B7C18C 		e_or2i %r5,47500
 324 01de 78000001 		e_bl __adddf3
 325              	.LVL70:
 326 01e2 0146     		se_mr %r6,%r4
 327 01e4 0135     		se_mr %r5,%r3
 328 01e6 4804     		se_li %r4,0
 329 01e8 7068E0AF 		e_lis %r3,0x40af
 330 01ec 6523     		se_bseti %r3,18
 331 01ee 78000001 		e_bl __divdf3
 332              	.LVL71:
 333 01f2 70A8E071 		e_lis %r5,0x4071
 334 01f6 70CCE666 		e_lis %r6,0x6666
 335 01fa 70A2C266 		e_or2i %r5,4710
 336 01fe 70CCC666 		e_or2i %r6,26214
 337 0202 78000001 		e_bl __subdf3
 338              	.LVL72:
 339 0206 70A8E024 		e_lis %r5,0x4024
 340 020a 4806     		se_li %r6,0
 341 020c 78000001 		e_bl __muldf3
 342              	.LVL73:
GAS LISTING C:\Users\Vipuls\AppData\Local\Temp\ccD0EkH6.s 			page 7


 343 0210 78000001 		e_bl __fixunsdfsi
 344              	.LVL74:
 345              		.loc 1 73 0
 346 0214 7F89C070 		e_slwi %r9,%r28,24
 347              		.loc 1 68 0
 348 0218 7478043F 		e_rlwinm %r24,%r3,0,0xffff
 349              	.LVL75:
 350              		.loc 1 71 0
 351 021c 7F20F838 		and %r0,%r25,%r31
 352              		.loc 1 72 0
 353 0220 7F4BF838 		and %r11,%r26,%r31
 354 0224 7D200378 		or %r0,%r9,%r0
 355 0228 7D6B6070 		e_slwi %r11,%r11,12
 356              		.loc 1 75 0
 357 022c 7F87F838 		and %r7,%r28,%r31
 358              		.loc 1 72 0
 359 0230 7C005B78 		or %r0,%r0,%r11
 360              		.loc 1 77 0
 361 0234 7F06F838 		and %r6,%r24,%r31
 362              		.loc 1 71 0
 363 0238 D30E     		se_stw %r0,12(%r30)
 364              		.loc 1 79 0
 365 023a 01E5     		se_mr %r5,%r30
 366              		.loc 1 77 0
 367 023c 6D06     		se_slwi %r6, 16
 368              		.loc 1 76 0
 369 023e 77632437 		e_rlwinm %r3,%r27,4,16,27
 370              	.LVL76:
 371              		.loc 1 79 0
 372 0242 2C84     		se_bmaski %r4,8
 373              		.loc 1 75 0
 374 0244 6A87     		se_srawi %r7, 8
 375 0246 4437     		se_or %r7,%r3
 376              		.loc 1 76 0
 377 0248 4467     		se_or %r7,%r6
 378              		.loc 1 75 0
 379 024a D47E     		se_stw %r7,16(%r30)
 380              		.loc 1 79 0
 381 024c 73C0E000 		e_lis %r30,CAND7@ha
 382              	.LVL77:
 383 0250 1FDE0000 		e_la %r30,CAND7@l(%r30)
 384 0254 01E3     		se_mr %r3,%r30
 385 0256 78000001 		e_bl can_lld_transmit
 386              	.LVL78:
 387              		.loc 1 87 0
 388 025a 18618008 		e_addi %r3,%r1,8
 389 025e 18818014 		e_addi %r4,%r1,20
 390 0262 18A18016 		e_addi %r5,%r1,22
 391              		.loc 1 83 0
 392 0266 B491     		se_sth %r25,8(%r1)
 393 0268 B5A1     		se_sth %r26,10(%r1)
 394 026a B6C1     		se_sth %r28,12(%r1)
 395 026c B7B1     		se_sth %r27,14(%r1)
 396 026e B881     		se_sth %r24,16(%r1)
 397              		.loc 1 87 0
 398 0270 18C18012 		e_addi %r6,%r1,18
 399 0274 4857     		se_li %r7,5
GAS LISTING C:\Users\Vipuls\AppData\Local\Temp\ccD0EkH6.s 			page 8


 400 0276 78000001 		e_bl getTemperatureStats
 401              	.LVL79:
 402              		.loc 1 91 0
 403 027a A951     		se_lhz %r5,18(%r1)
 404              		.loc 1 89 0
 405 027c AB61     		se_lhz %r6,22(%r1)
 406              		.loc 1 91 0
 407 027e 7CA4C070 		e_slwi %r4,%r5,24
 408              		.loc 1 90 0
 409 0282 AA71     		se_lhz %r7,20(%r1)
 410              		.loc 1 89 0
 411 0284 46F6     		se_and %r6,%r31
 412              		.loc 1 90 0
 413 0286 46F7     		se_and %r7,%r31
 414 0288 4446     		se_or %r6,%r4
 415              		.loc 1 93 0
 416 028a 465F     		se_and %r31,%r5
 417              		.loc 1 95 0
 418 028c 01E3     		se_mr %r3,%r30
 419              		.loc 1 93 0
 420 028e 6A8F     		se_srawi %r31, 8
 421              		.loc 1 95 0
 422 0290 01D5     		se_mr %r5,%r29
 423              		.loc 1 93 0
 424 0292 D4FD     		se_stw %r31,16(%r29)
 425              		.loc 1 90 0
 426 0294 6CC7     		se_slwi %r7, 12
 427              		.loc 1 95 0
 428 0296 2C84     		se_bmaski %r4,8
 429              		.loc 1 90 0
 430 0298 4467     		se_or %r7,%r6
 431              		.loc 1 89 0
 432 029a D37D     		se_stw %r7,12(%r29)
 433              		.loc 1 95 0
 434 029c 78000001 		e_bl can_lld_transmit
 435              	.LVL80:
 436              		.loc 1 97 0
 437 02a0 CF01     		se_lwz %r0,60(%r1)
 438 02a2 0090     		se_mtlr %r0
 439              		.cfi_restore 65
 440 02a4 1B010818 		e_lmw %r24,24(%r1)
 441              	.LVL81:
 442 02a8 18218038 		e_addi %r1,%r1,56
 443              	.LCFI3:
 444              		.cfi_restore 31
 445              		.cfi_restore 30
 446              		.cfi_restore 29
 447              		.cfi_restore 28
 448              		.cfi_restore 27
 449              		.cfi_restore 26
 450              		.cfi_restore 25
 451              		.cfi_restore 24
 452              		.cfi_def_cfa_offset 0
 453 02ac 0004     		se_blr
 454              		.cfi_endproc
 455              	.LFE4:
 456              		.size	send_temp_data, .-send_temp_data
GAS LISTING C:\Users\Vipuls\AppData\Local\Temp\ccD0EkH6.s 			page 9


 457              		.globl __mulsf3
 458              		.section	.text.send_cell_voltages_CAN,"axv",@progbits
 459              		.align 1
 460              		.p2align 4,,15
 461              		.globl send_cell_voltages_CAN
 462              		.type	send_cell_voltages_CAN, @function
 463              	send_cell_voltages_CAN:
 464              	.LFB5:
 465              		.loc 1 99 0
 466              		.cfi_startproc
 467              	.LVL82:
 468 0000 182106B8 		e_stwu %r1,-72(%r1)
 469              	.LCFI4:
 470              		.cfi_def_cfa_offset 72
 471 0004 0080     		se_mflr %r0
 472 0006 1A21090C 		e_stmw %r17,12(%r1)
 473 000a 5401004C 		e_stw %r0,76(%r1)
 474              		.cfi_offset 65, 4
 475              		.cfi_offset 17, -60
 476              		.cfi_offset 18, -56
 477              		.cfi_offset 19, -52
 478              		.cfi_offset 20, -48
 479              		.cfi_offset 21, -44
 480              		.cfi_offset 22, -40
 481              		.cfi_offset 23, -36
 482              		.cfi_offset 24, -32
 483              		.cfi_offset 25, -28
 484              		.cfi_offset 26, -24
 485              		.cfi_offset 27, -20
 486              		.cfi_offset 28, -16
 487              		.cfi_offset 29, -12
 488              		.cfi_offset 30, -8
 489              		.cfi_offset 31, -4
 490              		.loc 1 99 0
 491 000e 015C     		se_mr %r28,%r5
 492 0010 013F     		se_mr %r31,%r3
 493              	.LVL83:
 494 0012 0148     		se_mr %r24,%r4
 495              		.loc 1 105 0
 496 0014 50630044 		e_lwz %r3,68(%r3)
 497              	.LVL84:
 498 0018 7088E2C8 		e_lis %r4,0x42c8
 499              	.LVL85:
 500 001c 78000001 		e_bl __mulsf3
 501              	.LVL86:
 502 0020 78000001 		e_bl __fixunssfsi
 503              	.LVL87:
 504              		.loc 1 106 0
 505 0024 7088E2C8 		e_lis %r4,0x42c8
 506              		.loc 1 105 0
 507 0028 7477043F 		e_rlwinm %r23,%r3,0,0xffff
 508              	.LVL88:
 509              		.loc 1 106 0
 510 002c 507F0048 		e_lwz %r3,72(%r31)
 511              	.LVL89:
 512              		.loc 1 124 0
 513 0030 7EF3D870 		e_slwi %r19,%r23,27
GAS LISTING C:\Users\Vipuls\AppData\Local\Temp\ccD0EkH6.s 			page 10


 514              		.loc 1 106 0
 515 0034 78000001 		e_bl __mulsf3
 516              	.LVL90:
 517 0038 78000001 		e_bl __fixunssfsi
 518              	.LVL91:
 519              		.loc 1 107 0
 520 003c 7088E2C8 		e_lis %r4,0x42c8
 521              		.loc 1 106 0
 522 0040 7474043F 		e_rlwinm %r20,%r3,0,0xffff
 523              	.LVL92:
 524              		.loc 1 107 0
 525 0044 507F004C 		e_lwz %r3,76(%r31)
 526              	.LVL93:
 527 0048 78000001 		e_bl __mulsf3
 528              	.LVL94:
 529 004c 78000001 		e_bl __fixunssfsi
 530              	.LVL95:
 531              		.loc 1 108 0
 532 0050 7088E2C8 		e_lis %r4,0x42c8
 533              		.loc 1 107 0
 534 0054 7475043F 		e_rlwinm %r21,%r3,0,0xffff
 535              	.LVL96:
 536              		.loc 1 108 0
 537 0058 507F0050 		e_lwz %r3,80(%r31)
 538              	.LVL97:
 539 005c 78000001 		e_bl __mulsf3
 540              	.LVL98:
 541 0060 78000001 		e_bl __fixunssfsi
 542              	.LVL99:
 543              		.loc 1 112 0
 544 0064 7088E2C8 		e_lis %r4,0x42c8
 545              		.loc 1 108 0
 546 0068 7476043F 		e_rlwinm %r22,%r3,0,0xffff
 547              	.LVL100:
 548              		.loc 1 112 0
 549 006c 507F0054 		e_lwz %r3,84(%r31)
 550              	.LVL101:
 551 0070 78000001 		e_bl __mulsf3
 552              	.LVL102:
 553 0074 78000001 		e_bl __fixunssfsi
 554              	.LVL103:
 555              		.loc 1 113 0
 556 0078 7088E2C8 		e_lis %r4,0x42c8
 557              		.loc 1 112 0
 558 007c 7471043F 		e_rlwinm %r17,%r3,0,0xffff
 559              	.LVL104:
 560              		.loc 1 113 0
 561 0080 507F0058 		e_lwz %r3,88(%r31)
 562              	.LVL105:
 563 0084 78000001 		e_bl __mulsf3
 564              	.LVL106:
 565 0088 78000001 		e_bl __fixunssfsi
 566              	.LVL107:
 567              		.loc 1 114 0
 568 008c 7088E2C8 		e_lis %r4,0x42c8
 569              		.loc 1 113 0
 570 0090 747A043F 		e_rlwinm %r26,%r3,0,0xffff
GAS LISTING C:\Users\Vipuls\AppData\Local\Temp\ccD0EkH6.s 			page 11


 571              	.LVL108:
 572              		.loc 1 114 0
 573 0094 507F005C 		e_lwz %r3,92(%r31)
 574              	.LVL109:
 575 0098 78000001 		e_bl __mulsf3
 576              	.LVL110:
 577 009c 78000001 		e_bl __fixunssfsi
 578              	.LVL111:
 579              		.loc 1 115 0
 580 00a0 7088E2C8 		e_lis %r4,0x42c8
 581              		.loc 1 114 0
 582 00a4 747B043F 		e_rlwinm %r27,%r3,0,0xffff
 583              	.LVL112:
 584              		.loc 1 115 0
 585 00a8 507F0060 		e_lwz %r3,96(%r31)
 586              	.LVL113:
 587 00ac 78000001 		e_bl __mulsf3
 588              	.LVL114:
 589 00b0 78000001 		e_bl __fixunssfsi
 590              	.LVL115:
 591              		.loc 1 116 0
 592 00b4 7088E2C8 		e_lis %r4,0x42c8
 593              		.loc 1 115 0
 594 00b8 7479043F 		e_rlwinm %r25,%r3,0,0xffff
 595              	.LVL116:
 596              		.loc 1 116 0
 597 00bc 507F0064 		e_lwz %r3,100(%r31)
 598              	.LVL117:
 599 00c0 78000001 		e_bl __mulsf3
 600              	.LVL118:
 601 00c4 78000001 		e_bl __fixunssfsi
 602              	.LVL119:
 603              		.loc 1 117 0
 604 00c8 7088E2C8 		e_lis %r4,0x42c8
 605              		.loc 1 116 0
 606 00cc 747D043F 		e_rlwinm %r29,%r3,0,0xffff
 607              	.LVL120:
 608              		.loc 1 117 0
 609 00d0 507F0068 		e_lwz %r3,104(%r31)
 610              	.LVL121:
 611 00d4 78000001 		e_bl __mulsf3
 612              	.LVL122:
 613 00d8 78000001 		e_bl __fixunssfsi
 614              	.LVL123:
 615              		.loc 1 118 0
 616 00dc 7088E2C8 		e_lis %r4,0x42c8
 617              		.loc 1 117 0
 618 00e0 747E043F 		e_rlwinm %r30,%r3,0,0xffff
 619              	.LVL124:
 620              		.loc 1 118 0
 621 00e4 507F006C 		e_lwz %r3,108(%r31)
 622              	.LVL125:
 623 00e8 78000001 		e_bl __mulsf3
 624              	.LVL126:
 625 00ec 78000001 		e_bl __fixunssfsi
 626              	.LVL127:
 627              		.loc 1 102 0
GAS LISTING C:\Users\Vipuls\AppData\Local\Temp\ccD0EkH6.s 			page 12


 628 00f0 7088E2C8 		e_lis %r4,0x42c8
 629              		.loc 1 118 0
 630 00f4 7472043F 		e_rlwinm %r18,%r3,0,0xffff
 631              	.LVL128:
 632              		.loc 1 102 0
 633 00f8 507F0038 		e_lwz %r3,56(%r31)
 634              	.LVL129:
 635 00fc 78000001 		e_bl __mulsf3
 636              	.LVL130:
 637 0100 78000001 		e_bl __fixunssfsi
 638              	.LVL131:
 639              		.loc 1 103 0
 640 0104 7088E2C8 		e_lis %r4,0x42c8
 641              		.loc 1 121 0
 642 0108 746705FF 		e_rlwinm %r7,%r3,0,23,31
 643              		.loc 1 103 0
 644 010c 507F003C 		e_lwz %r3,60(%r31)
 645              	.LVL132:
 646 0110 7E733B78 		or %r19,%r19,%r7
 647 0114 78000001 		e_bl __mulsf3
 648              	.LVL133:
 649 0118 78000001 		e_bl __fixunssfsi
 650              	.LVL134:
 651              		.loc 1 104 0
 652 011c 7088E2C8 		e_lis %r4,0x42c8
 653              		.loc 1 122 0
 654 0120 746B4BAD 		e_rlwinm %r11,%r3,9,14,22
 655              		.loc 1 104 0
 656 0124 507F0040 		e_lwz %r3,64(%r31)
 657              	.LVL135:
 658 0128 7E735B78 		or %r19,%r19,%r11
 659              		.loc 1 127 0
 660 012c 76FFDEFF 		e_rlwinm %r31,%r23,27,27,31
 661              	.LVL136:
 662              		.loc 1 104 0
 663 0130 78000001 		e_bl __mulsf3
 664              	.LVL137:
 665 0134 78000001 		e_bl __fixunssfsi
 666              	.LVL138:
 667              		.loc 1 130 0
 668 0138 2C97     		se_bmaski %r7,9
 669              		.loc 1 128 0
 670 013a 768924F7 		e_rlwinm %r9,%r20,4,19,27
 671              		.loc 1 132 0
 672 013e 7E2A3838 		and %r10,%r17,%r7
 673              		.loc 1 129 0
 674 0142 76AB6AA5 		e_rlwinm %r11,%r21,13,10,18
 675              		.loc 1 127 0
 676 0146 7D20FB78 		or %r0,%r9,%r31
 677              		.loc 1 123 0
 678 014a 7463915B 		e_rlwinm %r3,%r3,18,5,13
 679              		.loc 1 130 0
 680 014e 76DFB053 		e_rlwinm %r31,%r22,22,1,9
 681              		.loc 1 123 0
 682 0152 7E651B78 		or %r5,%r19,%r3
 683              		.loc 1 133 0
 684 0156 467A     		se_and %r26,%r7
GAS LISTING C:\Users\Vipuls\AppData\Local\Temp\ccD0EkH6.s 			page 13


 685              	.LVL139:
 686              		.loc 1 121 0
 687 0158 D358     		se_stw %r5,12(%r24)
 688              		.loc 1 138 0
 689 015a 7723DEFF 		e_rlwinm %r3,%r25,27,27,31
 690              		.loc 1 143 0
 691 015e 0185     		se_mr %r5,%r24
 692              		.loc 1 133 0
 693 0160 6C9A     		se_slwi %r26, 9
 694              		.loc 1 134 0
 695 0162 467B     		se_and %r27,%r7
 696              	.LVL140:
 697              		.loc 1 139 0
 698 0164 467D     		se_and %r29,%r7
 699              	.LVL141:
 700              		.loc 1 134 0
 701 0166 6D2B     		se_slwi %r27, 18
 702              		.loc 1 139 0
 703 0168 6C4D     		se_slwi %r29, 4
 704              		.loc 1 140 0
 705 016a 467E     		se_and %r30,%r7
 706              	.LVL142:
 707              		.loc 1 143 0
 708 016c 2C84     		se_bmaski %r4,8
 709              		.loc 1 141 0
 710 016e 7E473838 		and %r7,%r18,%r7
 711              		.loc 1 140 0
 712 0172 6CDE     		se_slwi %r30, 13
 713              		.loc 1 141 0
 714 0174 7CE6B070 		e_slwi %r6,%r7,22
 715              		.loc 1 128 0
 716 0178 7C005B78 		or %r0,%r0,%r11
 717              		.loc 1 135 0
 718 017c 7F27D870 		e_slwi %r7,%r25,27
 719              		.loc 1 129 0
 720 0180 44F0     		se_or %r0,%r31
 721 0182 7CFF5378 		or %r31,%r7,%r10
 722              		.loc 1 127 0
 723 0186 D408     		se_stw %r0,16(%r24)
 724              		.loc 1 138 0
 725 0188 7FA71B78 		or %r7,%r29,%r3
 726 018c 7FE0D378 		or %r0,%r31,%r26
 727              		.loc 1 139 0
 728 0190 44E7     		se_or %r7,%r30
 729              		.loc 1 134 0
 730 0192 44B0     		se_or %r0,%r27
 731              		.loc 1 140 0
 732 0194 4467     		se_or %r7,%r6
 733              		.loc 1 132 0
 734 0196 D30C     		se_stw %r0,12(%r28)
 735              		.loc 1 138 0
 736 0198 D47C     		se_stw %r7,16(%r28)
 737              		.loc 1 143 0
 738 019a 73E0E000 		e_lis %r31,CAND7@ha
 739 019e 1FFF0000 		e_la %r31,CAND7@l(%r31)
 740 01a2 01F3     		se_mr %r3,%r31
 741 01a4 78000001 		e_bl can_lld_transmit
GAS LISTING C:\Users\Vipuls\AppData\Local\Temp\ccD0EkH6.s 			page 14


 742              	.LVL143:
 743              		.loc 1 145 0
 744 01a8 5001004C 		e_lwz %r0,76(%r1)
 745              		.loc 1 144 0
 746 01ac 01F3     		se_mr %r3,%r31
 747 01ae 01C5     		se_mr %r5,%r28
 748 01b0 2C84     		se_bmaski %r4,8
 749              		.loc 1 145 0
 750 01b2 1A21080C 		e_lmw %r17,12(%r1)
 751              	.LVL144:
 752 01b6 0090     		se_mtlr %r0
 753              		.cfi_restore 65
 754 01b8 18218048 		e_addi %r1,%r1,72
 755              	.LCFI5:
 756              		.cfi_restore 31
 757              		.cfi_restore 30
 758              		.cfi_restore 29
 759              		.cfi_restore 28
 760              		.cfi_restore 27
 761              		.cfi_restore 26
 762              		.cfi_restore 25
 763              		.cfi_restore 24
 764              		.cfi_restore 23
 765              		.cfi_restore 22
 766              		.cfi_restore 21
 767              		.cfi_restore 20
 768              		.cfi_restore 19
 769              		.cfi_restore 18
 770              		.cfi_restore 17
 771              		.cfi_def_cfa_offset 0
 772              		.loc 1 144 0
 773 01bc 78000000 		e_b can_lld_transmit
 774              	.LVL145:
 775              		.cfi_endproc
 776              	.LFE5:
 777              		.size	send_cell_voltages_CAN, .-send_cell_voltages_CAN
 778              		.section	.text.AEK_POW_BMS63EN_CAN_Voltage_Transmission,"axv",@progbits
 779              		.align 1
 780              		.p2align 4,,15
 781              		.globl AEK_POW_BMS63EN_CAN_Voltage_Transmission
 782              		.type	AEK_POW_BMS63EN_CAN_Voltage_Transmission, @function
 783              	AEK_POW_BMS63EN_CAN_Voltage_Transmission:
 784              	.LFB6:
 785              		.loc 1 149 0
 786              		.cfi_startproc
 787              		.loc 1 159 0
 788 0000 4887     		se_li %r7,8
 789              		.loc 1 157 0
 790 0002 4806     		se_li %r6,0
 791              		.loc 1 149 0
 792 0004 701F7BD8 		e_li %r0,-1064
 793              		.loc 1 158 0
 794 0008 70A00602 		e_li %r5,1538
 795              		.loc 1 149 0
 796 000c 7C21016E 		stwux %r1,%r1,%r0
 797              	.LCFI6:
 798              		.cfi_def_cfa_offset 1064
GAS LISTING C:\Users\Vipuls\AppData\Local\Temp\ccD0EkH6.s 			page 15


 799              		.loc 1 174 0
 800 0010 4804     		se_li %r4,0
 801              		.loc 1 149 0
 802 0012 0080     		se_mflr %r0
 803              		.loc 1 159 0
 804 0014 34E102C4 		e_stb %r7,708(%r1)
 805              		.loc 1 149 0
 806 0018 5401042C 		e_stw %r0,1068(%r1)
 807              		.loc 1 163 0
 808 001c 34E102B0 		e_stb %r7,688(%r1)
 809              		.loc 1 167 0
 810 0020 34E1029C 		e_stb %r7,668(%r1)
 811              		.loc 1 171 0
 812 0024 34E10288 		e_stb %r7,648(%r1)
 813              		.loc 1 149 0
 814 0028 57E10424 		e_stw %r31,1060(%r1)
 815              		.cfi_offset 65, 4
 816              		.cfi_offset 31, -4
 817              		.loc 1 157 0
 818 002c 34C102BE 		e_stb %r6,702(%r1)
 819              		.loc 1 158 0
 820 0030 54A102C0 		e_stw %r5,704(%r1)
 821              		.loc 1 161 0
 822 0034 34C102AA 		e_stb %r6,682(%r1)
 823              		.loc 1 165 0
 824 0038 34C10296 		e_stb %r6,662(%r1)
 825              		.loc 1 169 0
 826 003c 34C10282 		e_stb %r6,642(%r1)
 827              		.loc 1 174 0
 828 0040 1C6102E0 		e_add16i %r3,%r1,736
 829              		.loc 1 170 0
 830 0044 70C00613 		e_li %r6,1555
 831              		.loc 1 174 0
 832 0048 73E0013C 		e_li %r31,316
 833              		.loc 1 170 0
 834 004c 54C10284 		e_stw %r6,644(%r1)
 835              		.loc 1 162 0
 836 0050 70A00603 		e_li %r5,1539
 837 0054 54A102AC 		e_stw %r5,684(%r1)
 838              		.loc 1 166 0
 839 0058 70A00612 		e_li %r5,1554
 840 005c 54A10298 		e_stw %r5,664(%r1)
 841              		.loc 1 174 0
 842 0060 78000001 		e_bl AEK_POW_BMS63EN_GetModule
 843              	.LVL146:
 844 0064 01F5     		se_mr %r5,%r31
 845 0066 1C8102E0 		e_add16i %r4,%r1,736
 846 006a 1C610144 		e_add16i %r3,%r1,324
 847 006e 78000001 		e_bl memcpy
 848              	.LVL147:
 849              		.loc 1 175 0
 850 0072 1C6102E0 		e_add16i %r3,%r1,736
 851 0076 4814     		se_li %r4,1
 852 0078 78000001 		e_bl AEK_POW_BMS63EN_GetModule
 853              	.LVL148:
 854 007c 1C8102E0 		e_add16i %r4,%r1,736
 855 0080 01F5     		se_mr %r5,%r31
GAS LISTING C:\Users\Vipuls\AppData\Local\Temp\ccD0EkH6.s 			page 16


 856 0082 18618008 		e_addi %r3,%r1,8
 857 0086 78000001 		e_bl memcpy
 858              	.LVL149:
 859              		.loc 1 177 0
 860 008a 1C610144 		e_add16i %r3,%r1,324
 861 008e 1C8102BC 		e_add16i %r4,%r1,700
 862 0092 1CA102A8 		e_add16i %r5,%r1,680
 863 0096 78000001 		e_bl send_cell_voltages_CAN
 864              	.LVL150:
 865              		.loc 1 179 0
 866 009a 18618008 		e_addi %r3,%r1,8
 867 009e 1C810294 		e_add16i %r4,%r1,660
 868 00a2 1CA10280 		e_add16i %r5,%r1,640
 869 00a6 78000001 		e_bl send_cell_voltages_CAN
 870              	.LVL151:
 871              		.loc 1 183 0
 872 00aa 5001042C 		e_lwz %r0,1068(%r1)
 873 00ae 0090     		se_mtlr %r0
 874              		.cfi_restore 65
 875 00b0 53E10424 		e_lwz %r31,1060(%r1)
 876 00b4 1C210428 		e_add16i %r1,%r1,1064
 877              	.LCFI7:
 878              		.cfi_restore 31
 879              		.cfi_def_cfa_offset 0
 880 00b8 0004     		se_blr
 881              		.cfi_endproc
 882              	.LFE6:
 883              		.size	AEK_POW_BMS63EN_CAN_Voltage_Transmission, .-AEK_POW_BMS63EN_CAN_Voltage_Transmission
 884              		.section	.text.AEK_POW_BMS63EN_CAN_Temp_Transmission,"axv",@progbits
 885              		.align 1
 886              		.p2align 4,,15
 887              		.globl AEK_POW_BMS63EN_CAN_Temp_Transmission
 888              		.type	AEK_POW_BMS63EN_CAN_Temp_Transmission, @function
 889              	AEK_POW_BMS63EN_CAN_Temp_Transmission:
 890              	.LFB7:
 891              		.loc 1 186 0
 892              		.cfi_startproc
 893 0000 701F7D40 		e_li %r0,-704
 894              		.loc 1 193 0
 895 0004 4804     		se_li %r4,0
 896              		.loc 1 186 0
 897 0006 7C21016E 		stwux %r1,%r1,%r0
 898              	.LCFI8:
 899              		.cfi_def_cfa_offset 704
 900 000a 0080     		se_mflr %r0
 901              		.loc 1 193 0
 902 000c 1C610180 		e_add16i %r3,%r1,384
 903              		.loc 1 186 0
 904 0010 540102C4 		e_stw %r0,708(%r1)
 905              		.cfi_offset 65, 4
 906              		.loc 1 193 0
 907 0014 78000001 		e_bl AEK_POW_BMS63EN_GetModule
 908              	.LVL152:
 909 0018 1C810180 		e_add16i %r4,%r1,384
 910 001c 70A0013C 		e_li %r5,316
 911 0020 18618008 		e_addi %r3,%r1,8
 912 0024 78000001 		e_bl memcpy
GAS LISTING C:\Users\Vipuls\AppData\Local\Temp\ccD0EkH6.s 			page 17


 913              	.LVL153:
 914              		.loc 1 195 0
 915 0028 4806     		se_li %r6,0
 916              		.loc 1 197 0
 917 002a 4887     		se_li %r7,8
 918              		.loc 1 195 0
 919 002c 34C1015A 		e_stb %r6,346(%r1)
 920              		.loc 1 199 0
 921 0030 34C10146 		e_stb %r6,326(%r1)
 922              		.loc 1 196 0
 923 0034 70A00604 		e_li %r5,1540
 924              		.loc 1 197 0
 925 0038 34E10160 		e_stb %r7,352(%r1)
 926              		.loc 1 196 0
 927 003c 54A1015C 		e_stw %r5,348(%r1)
 928              		.loc 1 200 0
 929 0040 70C00605 		e_li %r6,1541
 930              		.loc 1 201 0
 931 0044 34E1014C 		e_stb %r7,332(%r1)
 932              		.loc 1 200 0
 933 0048 54C10148 		e_stw %r6,328(%r1)
 934              		.loc 1 203 0
 935 004c 18618008 		e_addi %r3,%r1,8
 936 0050 1C810158 		e_add16i %r4,%r1,344
 937 0054 1CA10144 		e_add16i %r5,%r1,324
 938 0058 78000001 		e_bl send_temp_data
 939              	.LVL154:
 940              		.loc 1 205 0
 941 005c 500102C4 		e_lwz %r0,708(%r1)
 942 0060 0090     		se_mtlr %r0
 943              		.cfi_restore 65
 944 0062 1C2102C0 		e_add16i %r1,%r1,704
 945              	.LCFI9:
 946              		.cfi_def_cfa_offset 0
 947 0066 0004     		se_blr
 948              		.cfi_endproc
 949              	.LFE7:
 950              		.size	AEK_POW_BMS63EN_CAN_Temp_Transmission, .-AEK_POW_BMS63EN_CAN_Temp_Transmission
 951              		.section	.text.main_core0,"axv",@progbits
 952              		.align 1
 953              		.p2align 4,,15
 954              		.globl main_core0
 955              		.type	main_core0, @function
 956              	main_core0:
 957              	.LFB8:
 958              		.loc 1 209 0
 959              		.cfi_startproc
 960              	.L15:
 961              		.loc 1 252 0 discriminator 1
 962 0000 78000000 		e_b .L15
 963              		.cfi_endproc
 964              	.LFE8:
 965              		.size	main_core0, .-main_core0
 966              		.section	.text.sbrk,"axv",@progbits
 967              		.align 1
 968              		.p2align 4,,15
 969              		.globl sbrk
GAS LISTING C:\Users\Vipuls\AppData\Local\Temp\ccD0EkH6.s 			page 18


 970              		.type	sbrk, @function
 971              	sbrk:
 972              	.LFB9:
 973              		.loc 1 258 0
 974              		.cfi_startproc
 975              	.LVL155:
 976              		.loc 1 264 0
 977 0000 70C0E000 		e_lis %r6,.LANCHOR1@ha
 978 0004 70A0E000 		e_lis %r5,.LANCHOR0@ha
 979 0008 50E50000 		e_lwz %r7,.LANCHOR0@l(%r5)
 980 000c 0437     		se_add %r7,%r3
 981              		.loc 1 267 0
 982 000e 2C03     		se_bmaski %r3,0
 983              	.LVL156:
 984              		.loc 1 264 0
 985 0010 54E60000 		e_stw %r7,.LANCHOR1@l(%r6)
 986              		.loc 1 265 0
 987 0014 70C0E000 		e_lis %r6,__heap_end__@ha
 988 0018 1CC60000 		e_la %r6,__heap_end__@l(%r6)
 989 001c 0D67     		se_cmpl %r7,%r6
 990 001e 7A11000A 		e_bgt %cr0,.L17
 991              		.loc 1 269 0
 992 0022 54E50000 		e_stw %r7,.LANCHOR0@l(%r5)
 993 0026 0173     		se_mr %r3,%r7
 994              	.L17:
 995              		.loc 1 270 0
 996 0028 0004     		se_blr
 997              		.cfi_endproc
 998              	.LFE9:
 999              		.size	sbrk, .-sbrk
 1000              		.section	.text.int28_irq_cb,"axv",@progbits
 1001              		.align 1
 1002              		.p2align 4,,15
 1003              		.globl int28_irq_cb
 1004              		.type	int28_irq_cb, @function
 1005              	int28_irq_cb:
 1006              	.LFB10:
 1007              		.loc 1 274 0
 1008              		.cfi_startproc
 1009              	.LVL157:
 1010              		.loc 1 276 0
 1011 0000 70C0E000 		e_lis %r6,.LANCHOR2@ha
 1012 0004 30E60000 		e_lbz %r7,.LANCHOR2@l(%r6)
 1013 0008 2007     		se_addi %r7,1
 1014 000a 00C7     		se_extzb %r7
 1015 000c 34E60000 		e_stb %r7,.LANCHOR2@l(%r6)
 1016              		.loc 1 277 0
 1017 0010 30E60000 		e_lbz %r7,.LANCHOR2@l(%r6)
 1018 0014 2217     		se_cmpli %r7,2
 1019 0016 7A120006 		e_beq %cr0,.L21
 1020 001a 0004     		se_blr
 1021              	.L21:
 1022              		.loc 1 277 0 is_stmt 0 discriminator 1
 1023 001c 4807     		se_li %r7,0
 1024 001e 34E60000 		e_stb %r7,.LANCHOR2@l(%r6)
 1025 0022 0004     		se_blr
 1026              		.cfi_endproc
GAS LISTING C:\Users\Vipuls\AppData\Local\Temp\ccD0EkH6.s 			page 19


 1027              	.LFE10:
 1028              		.size	int28_irq_cb, .-int28_irq_cb
 1029              		.globl __eabi
 1030              		.section	.text.startup.main,"axv",@progbits
 1031              		.align 1
 1032              		.p2align 4,,15
 1033              		.globl main
 1034              		.type	main, @function
 1035              	main:
 1036              	.LFB11:
 1037              		.loc 1 282 0 is_stmt 1
 1038              		.cfi_startproc
 1039 0000 182106F0 		e_stwu %r1,-16(%r1)
 1040              	.LCFI10:
 1041              		.cfi_def_cfa_offset 16
 1042 0004 0080     		se_mflr %r0
 1043 0006 D3F1     		se_stw %r31,12(%r1)
 1044 0008 D501     		se_stw %r0,20(%r1)
 1045              		.cfi_offset 65, 4
 1046              		.cfi_offset 31, -4
 1047              		.loc 1 282 0
 1048 000a 78000001 		e_bl __eabi
 1049              	.LVL158:
 1050              		.loc 1 284 0
 1051 000e 78000001 		e_bl componentsInit
 1052              	.LVL159:
 1053              		.loc 1 285 0
 1054              	 # 285 "main.c" 1
 1055 0012 7C008146 		wrteei  1
 1056              	 # 0 "" 2
 1057              		.loc 1 286 0
 1058 0016 7060E000 		e_lis %r3,WKPUD1@ha
 1059 001a 7080E000 		e_lis %r4,wkpu_config_wkpu_cfg@ha
 1060 001e 1C630000 		e_la %r3,WKPUD1@l(%r3)
 1061 0022 1C840000 		e_la %r4,wkpu_config_wkpu_cfg@l(%r4)
 1062              		.loc 1 296 0
 1063 0026 73E0E000 		e_lis %r31,PITD1@ha
 1064              		.loc 1 286 0
 1065 002a 78000001 		e_bl wkpu_lld_start
 1066              	.LVL160:
 1067              		.loc 1 296 0
 1068 002e 1FFF0000 		e_la %r31,PITD1@l(%r31)
 1069              		.loc 1 288 0
 1070 0032 78000001 		e_bl AEK_POW_BMS63EN_init
 1071              	.LVL161:
 1072              		.loc 1 290 0
 1073 0036 78000001 		e_bl AEK_POW_BMS63EN_Start_Mgn_exec
 1074              	.LVL162:
 1075              		.loc 1 292 0
 1076 003a 7060E000 		e_lis %r3,SD5@ha
 1077 003e 7080E000 		e_lis %r4,serial_config_BMS_serial@ha
 1078 0042 1C630000 		e_la %r3,SD5@l(%r3)
 1079 0046 1C840000 		e_la %r4,serial_config_BMS_serial@l(%r4)
 1080 004a 78000001 		e_bl sd_lld_start
 1081              	.LVL163:
 1082              		.loc 1 294 0
 1083 004e 7060E000 		e_lis %r3,CAND7@ha
GAS LISTING C:\Users\Vipuls\AppData\Local\Temp\ccD0EkH6.s 			page 20


 1084 0052 7080E000 		e_lis %r4,can_config_mcanconf@ha
 1085 0056 1C630000 		e_la %r3,CAND7@l(%r3)
 1086 005a 1C840000 		e_la %r4,can_config_mcanconf@l(%r4)
 1087 005e 78000001 		e_bl can_lld_start
 1088              	.LVL164:
 1089              		.loc 1 296 0
 1090 0062 4844     		se_li %r4,4
 1091 0064 01F3     		se_mr %r3,%r31
 1092 0066 78000001 		e_bl pit_lld_channel_start
 1093              	.LVL165:
 1094              		.loc 1 298 0
 1095 006a 01F3     		se_mr %r3,%r31
 1096 006c 4854     		se_li %r4,5
 1097 006e 78000001 		e_bl pit_lld_channel_start
 1098              	.LVL166:
 1099              	.L23:
 1100              		.loc 1 301 0 discriminator 1
 1101 0072 78000000 		e_b .L23
 1102              		.cfi_endproc
 1103              	.LFE11:
 1104              		.size	main, .-main
 1105              		.globl i_device_disp
 1106              		.section	.data.p.22818,"aw",@progbits
 1107              		.align 2
 1108              		.set	.LANCHOR0,. + 0
 1109              		.type	p.22818, @object
 1110              		.size	p.22818, 4
 1111              	p.22818:
 1112 0000 00000000 		.long	__heap_base__
 1113              		.section	.bss.newp.22819,"aw",@nobits
 1114              		.align 2
 1115              		.set	.LANCHOR1,. + 0
 1116              		.type	newp.22819, @object
 1117              		.size	newp.22819, 4
 1118              	newp.22819:
 1119 0000 00000000 		.zero	4
 1120              		.section	.bss.i_device_disp,"aw",@nobits
 1121              		.set	.LANCHOR2,. + 0
 1122              		.type	i_device_disp, @object
 1123              		.size	i_device_disp, 1
 1124              	i_device_disp:
 1125 0000 00       		.zero	1
 1126              		.section	".text","axv"
 1127              	.Letext0:
 1128              		.file 2 "c:\\autodevkitstudio-2.4.0\\eclipse\\plugins\\com.st.tools.spc5.tools.gnu.gcc.ppcvle.win3
 1129              		.file 3 "c:\\autodevkitstudio-2.4.0\\eclipse\\plugins\\com.st.tools.spc5.tools.gnu.gcc.ppcvle.win3
 1130              		.file 4 "c:\\autodevkitstudio-2.4.0\\eclipse\\plugins\\com.st.tools.spc5.tools.gnu.gcc.ppcvle.win3
 1131              		.file 5 "./components/spc58ecxx_platform_component_rla/lib/include/typedefs.h"
 1132              		.file 6 "./components/spc58ecxx_platform_component_rla/lib/include/spc58xcxx.h"
 1133              		.file 7 "./components/spc58ecxx_low_level_drivers_component_rla/lib/include/spc5_pit.h"
 1134              		.file 8 "./components/spc58ecxx_low_level_drivers_component_rla/lib/include/pit_lld.h"
 1135              		.file 9 "./components/spc58ecxx_low_level_drivers_component_rla/lib/include/spc5_linflex.h"
 1136              		.file 10 "./components/spc58ecxx_low_level_drivers_component_rla/lib/include/serial_lld.h"
 1137              		.file 11 "./components/spc58ecxx_low_level_drivers_component_rla/lib/include/can_lld.h"
 1138              		.file 12 "./components/spc58ecxx_low_level_drivers_component_rla/lib/include/spc5_wkpu.h"
 1139              		.file 13 "./components/spc58ecxx_low_level_drivers_component_rla/lib/include/wkpu_lld.h"
 1140              		.file 14 "./components/aek_pow_bms63en_component_rla/lib/include/AEK_POW_BMS63EN_id.h"
GAS LISTING C:\Users\Vipuls\AppData\Local\Temp\ccD0EkH6.s 			page 21


 1141              		.file 15 "./source/AEK_POW_BMS63EN_Appl.h"
 1142              		.file 16 "./components/spc58ecxx_low_level_drivers_component_rla/cfg/wkpu_lld_cfg.h"
 1143              		.file 17 "./components/spc58ecxx_low_level_drivers_component_rla/cfg/serial_lld_cfg.h"
 1144              		.file 18 "./components/spc58ecxx_low_level_drivers_component_rla/cfg/can_lld_cfg.h"
 1145              		.file 19 "./components/components.h"
 1146              		.file 20 "c:\\autodevkitstudio-2.4.0\\eclipse\\plugins\\com.st.tools.spc5.tools.gnu.gcc.ppcvle.win