GAS LISTING C:\Users\Vipuls\AppData\Local\Temp\cccDu31g.s 			page 1


   1              		.file	"pit_lld.c"
   2              		.section	".text","axv"
   3              	.Ltext0:
   4              		.cfi_sections	.debug_frame
   5              		.section	.text.vector229,"axv",@progbits
   6              		.align 1
   7              		.p2align 4,,15
   8              		.globl vector229
   9              		.type	vector229, @function
  10              	vector229:
  11              	.LFB3:
  12              		.file 1 "./components/spc58ecxx_low_level_drivers_component_rla/lib/src/pit_lld.c"
  13              		.loc 1 123 0
  14              		.cfi_startproc
  15 0000 182106F8 		e_stwu %r1,-8(%r1)
  16              	.LCFI0:
  17              		.cfi_def_cfa_offset 8
  18 0004 0080     		se_mflr %r0
  19              		.loc 1 128 0
  20 0006 70E0E000 		e_lis %r7,.LANCHOR0@ha
  21              		.loc 1 123 0
  22 000a D301     		se_stw %r0,12(%r1)
  23              		.cfi_offset 65, 4
  24              		.loc 1 128 0
  25 000c 50E70000 		e_lwz %r7,.LANCHOR0@l(%r7)
  26 0010 CB77     		se_lwz %r7,44(%r7)
  27 0012 2A07     		se_cmpi %r7,0
  28 0014 7A120008 		e_beq %cr0,.L2
  29              		.loc 1 129 0
  30 0018 00B7     		se_mtctr %r7
  31 001a 0007     		se_bctrl
  32              	.LVL0:
  33              	.L2:
  34              		.loc 1 132 0
  35 001c 70E0E000 		e_lis %r7,.LANCHOR0+4@ha
  36 0020 4816     		se_li %r6,1
  37 0022 50E70000 		e_lwz %r7,.LANCHOR0+4@l(%r7)
  38 0026 54C7013C 		e_stw %r6,316(%r7)
  39              		.loc 1 135 0
  40 002a C301     		se_lwz %r0,12(%r1)
  41 002c 0090     		se_mtlr %r0
  42              		.cfi_restore 65
  43 002e 2071     		se_addi %r1,8
  44              	.LCFI1:
  45              		.cfi_def_cfa_offset 0
  46 0030 0004     		se_blr
  47              		.cfi_endproc
  48              	.LFE3:
  49              		.size	vector229, .-vector229
  50              		.section	.text.vector230,"axv",@progbits
  51              		.align 1
  52              		.p2align 4,,15
  53              		.globl vector230
  54              		.type	vector230, @function
  55              	vector230:
  56              	.LFB4:
  57              		.loc 1 144 0
GAS LISTING C:\Users\Vipuls\AppData\Local\Temp\cccDu31g.s 			page 2


  58              		.cfi_startproc
  59 0000 182106F8 		e_stwu %r1,-8(%r1)
  60              	.LCFI2:
  61              		.cfi_def_cfa_offset 8
  62 0004 0080     		se_mflr %r0
  63              		.loc 1 149 0
  64 0006 70E0E000 		e_lis %r7,.LANCHOR0@ha
  65              		.loc 1 144 0
  66 000a D301     		se_stw %r0,12(%r1)
  67              		.cfi_offset 65, 4
  68              		.loc 1 149 0
  69 000c 50E70000 		e_lwz %r7,.LANCHOR0@l(%r7)
  70 0010 CE77     		se_lwz %r7,56(%r7)
  71 0012 2A07     		se_cmpi %r7,0
  72 0014 7A120008 		e_beq %cr0,.L5
  73              		.loc 1 150 0
  74 0018 00B7     		se_mtctr %r7
  75 001a 0007     		se_bctrl
  76              	.LVL1:
  77              	.L5:
  78              		.loc 1 153 0
  79 001c 70E0E000 		e_lis %r7,.LANCHOR0+4@ha
  80 0020 4816     		se_li %r6,1
  81 0022 50E70000 		e_lwz %r7,.LANCHOR0+4@l(%r7)
  82 0026 54C7014C 		e_stw %r6,332(%r7)
  83              		.loc 1 156 0
  84 002a C301     		se_lwz %r0,12(%r1)
  85 002c 0090     		se_mtlr %r0
  86              		.cfi_restore 65
  87 002e 2071     		se_addi %r1,8
  88              	.LCFI3:
  89              		.cfi_def_cfa_offset 0
  90 0030 0004     		se_blr
  91              		.cfi_endproc
  92              	.LFE4:
  93              		.size	vector230, .-vector230
  94              		.section	.text.vector231,"axv",@progbits
  95              		.align 1
  96              		.p2align 4,,15
  97              		.globl vector231
  98              		.type	vector231, @function
  99              	vector231:
 100              	.LFB5:
 101              		.loc 1 165 0
 102              		.cfi_startproc
 103 0000 182106F8 		e_stwu %r1,-8(%r1)
 104              	.LCFI4:
 105              		.cfi_def_cfa_offset 8
 106 0004 0080     		se_mflr %r0
 107              		.loc 1 170 0
 108 0006 70E0E000 		e_lis %r7,.LANCHOR0@ha
 109              		.loc 1 165 0
 110 000a D301     		se_stw %r0,12(%r1)
 111              		.cfi_offset 65, 4
 112              		.loc 1 170 0
 113 000c 50E70000 		e_lwz %r7,.LANCHOR0@l(%r7)
 114 0010 50E70044 		e_lwz %r7,68(%r7)
GAS LISTING C:\Users\Vipuls\AppData\Local\Temp\cccDu31g.s 			page 3


 115 0014 2A07     		se_cmpi %r7,0
 116 0016 7A120008 		e_beq %cr0,.L7
 117              		.loc 1 171 0
 118 001a 00B7     		se_mtctr %r7
 119 001c 0007     		se_bctrl
 120              	.LVL2:
 121              	.L7:
 122              		.loc 1 174 0
 123 001e 70E0E000 		e_lis %r7,.LANCHOR0+4@ha
 124 0022 4816     		se_li %r6,1
 125 0024 50E70000 		e_lwz %r7,.LANCHOR0+4@l(%r7)
 126 0028 54C7015C 		e_stw %r6,348(%r7)
 127              		.loc 1 177 0
 128 002c C301     		se_lwz %r0,12(%r1)
 129 002e 0090     		se_mtlr %r0
 130              		.cfi_restore 65
 131 0030 2071     		se_addi %r1,8
 132              	.LCFI5:
 133              		.cfi_def_cfa_offset 0
 134 0032 0004     		se_blr
 135              		.cfi_endproc
 136              	.LFE5:
 137              		.size	vector231, .-vector231
 138              		.section	.text.pit_lld_init,"axv",@progbits
 139              		.align 1
 140              		.p2align 4,,15
 141              		.globl pit_lld_init
 142              		.type	pit_lld_init, @function
 143              	pit_lld_init:
 144              	.LFB6:
 145              		.loc 1 402 0
 146              		.cfi_startproc
 147              		.loc 1 419 0
 148 0000 70E4000C 		e_li %r7,8204
 149              		.loc 1 416 0
 150 0004 70A40008 		e_li %r5,8200
 151 0008 70DEE404 		e_lis %r6,0xf404
 152 000c 70C8C22A 		e_or2i %r6,16938
 153 0010 B056     		se_sth %r5,0(%r6)
 154              		.loc 1 419 0
 155 0012 B176     		se_sth %r7,2(%r6)
 156              		.loc 1 405 0
 157 0014 70BEE7F8 		e_lis %r5,0xf7f8
 158 0018 70C0E000 		e_lis %r6,.LANCHOR0+4@ha
 159 001c 6515     		se_bseti %r5,17
 160 001e 54A60000 		e_stw %r5,.LANCHOR0+4@l(%r6)
 161              		.loc 1 422 0
 162 0022 70DEE404 		e_lis %r6,0xf404
 163 0026 70C8C22E 		e_or2i %r6,16942
 164 002a B076     		se_sth %r7,0(%r6)
 165 002c 0004     		se_blr
 166              		.cfi_endproc
 167              	.LFE6:
 168              		.size	pit_lld_init, .-pit_lld_init
 169              		.section	.text.pit_lld_start,"axv",@progbits
 170              		.align 1
 171              		.p2align 4,,15
GAS LISTING C:\Users\Vipuls\AppData\Local\Temp\cccDu31g.s 			page 4


 172              		.globl pit_lld_start
 173              		.type	pit_lld_start, @function
 174              	pit_lld_start:
 175              	.LFB7:
 176              		.loc 1 468 0
 177              		.cfi_startproc
 178              	.LVL3:
 179              		.loc 1 470 0
 180 0000 D043     		se_stw %r4,0(%r3)
 181 0002 0004     		se_blr
 182              		.cfi_endproc
 183              	.LFE7:
 184              		.size	pit_lld_start, .-pit_lld_start
 185              		.section	.text.pit_lld_channel_start,"axv",@progbits
 186              		.align 1
 187              		.p2align 4,,15
 188              		.globl pit_lld_channel_start
 189              		.type	pit_lld_channel_start, @function
 190              	pit_lld_channel_start:
 191              	.LFB8:
 192              		.loc 1 498 0
 193              		.cfi_startproc
 194              	.LVL4:
 195 0000 182106E8 		e_stwu %r1,-24(%r1)
 196              	.LCFI6:
 197              		.cfi_def_cfa_offset 24
 198              		.loc 1 502 0
 199 0004 7C872070 		e_slwi %r7,%r4,4
 200              		.loc 1 498 0
 201 0008 1BA1090C 		e_stmw %r29,12(%r1)
 202 000c 0080     		se_mflr %r0
 203              		.cfi_offset 29, -12
 204              		.cfi_offset 30, -8
 205              		.cfi_offset 31, -4
 206              		.cfi_register 65, 0
 207              		.loc 1 502 0
 208 000e 7C9F1070 		e_slwi %r31,%r4,2
 209              		.loc 1 498 0
 210 0012 D701     		se_stw %r0,28(%r1)
 211              		.cfi_offset 65, 4
 212              		.loc 1 502 0
 213 0014 077F     		se_subf %r31, %r7
 214 0016 C063     		se_lwz %r6,0(%r3)
 215 0018 7CE6F8AE 		lbzx %r7,%r6,%r31
 216 001c 04F6     		se_add %r6,%r31
 217 001e 2A17     		se_cmpi %r7,1
 218 0020 7A120010 		e_beq %cr0,.L15
 219              	.LVL5:
 220              	.L10:
 221              		.loc 1 527 0
 222 0024 C701     		se_lwz %r0,28(%r1)
 223 0026 0090     		se_mtlr %r0
 224              		.cfi_remember_state
 225              		.cfi_restore 65
 226 0028 1BA1080C 		e_lmw %r29,12(%r1)
 227 002c 2171     		se_addi %r1,24
 228              	.LCFI7:
GAS LISTING C:\Users\Vipuls\AppData\Local\Temp\cccDu31g.s 			page 5


 229              		.cfi_restore 31
 230              		.cfi_restore 30
 231              		.cfi_restore 29
 232              		.cfi_def_cfa_offset 0
 233 002e 0004     		se_blr
 234              	.LVL6:
 235              	.L15:
 236              	.LCFI8:
 237              		.cfi_restore_state
 238              		.loc 1 504 0
 239 0030 C153     		se_lwz %r5,4(%r3)
 240 0032 18E48010 		e_addi %r7,%r4,16
 241 0036 6C47     		se_slwi %r7, 4
 242 0038 7CE53A14 		add %r7,%r5,%r7
 243 003c C277     		se_lwz %r7,8(%r7)
 244 003e 67D7     		se_btsti %r7,29
 245 0040 7A02FFE4 		e_bne %cr0,.L10
 246 0044 013E     		se_mr %r30,%r3
 247              		.loc 1 506 0
 248 0046 70E0E000 		e_lis %r7,.LANCHOR0@ha
 249 004a 014D     		se_mr %r29,%r4
 250 004c 1CE70000 		e_la %r7,.LANCHOR0@l(%r7)
 251              		.loc 1 500 0
 252 0050 4803     		se_li %r3,0
 253              	.LVL7:
 254              		.loc 1 506 0
 255 0052 0C7E     		se_cmp %r30,%r7
 256 0054 7A12003C 		e_beq %cr0,.L16
 257              	.LVL8:
 258              	.L12:
 259              		.loc 1 520 0
 260 0058 C276     		se_lwz %r7,8(%r6)
 261 005a 7FA42070 		e_slwi %r4,%r29,4
 262              		.loc 1 517 0
 263 005e 4810     		se_li %r0,1
 264 0060 7C852214 		add %r4,%r5,%r4
 265              		.loc 1 520 0
 266 0064 2A07     		se_cmpi %r7,0
 267              		.loc 1 515 0
 268 0066 54640100 		e_stw %r3,256(%r4)
 269              		.loc 1 516 0
 270 006a 54640104 		e_stw %r3,260(%r4)
 271              		.loc 1 517 0
 272 006e 5404010C 		e_stw %r0,268(%r4)
 273              		.loc 1 520 0
 274 0072 7A120016 		e_beq %cr0,.L13
 275              		.loc 1 527 0
 276 0076 C701     		se_lwz %r0,28(%r1)
 277 0078 0090     		se_mtlr %r0
 278              		.cfi_remember_state
 279              		.cfi_restore 65
 280 007a 1BA1080C 		e_lmw %r29,12(%r1)
 281              	.LVL9:
 282              		.loc 1 521 0
 283 007e 4837     		se_li %r7,3
 284 0080 54E40108 		e_stw %r7,264(%r4)
 285              		.loc 1 527 0
GAS LISTING C:\Users\Vipuls\AppData\Local\Temp\cccDu31g.s 			page 6


 286 0084 2171     		se_addi %r1,24
 287              	.LCFI9:
 288              		.cfi_restore 29
 289              		.cfi_restore 30
 290              		.cfi_restore 31
 291              		.cfi_def_cfa_offset 0
 292 0086 0004     		se_blr
 293              	.LVL10:
 294              	.L13:
 295              	.LCFI10:
 296              		.cfi_restore_state
 297              		.loc 1 523 0
 298 0088 54040108 		e_stw %r0,264(%r4)
 299 008c 79FFFF98 		e_b .L10
 300              	.LVL11:
 301              	.L16:
 302              		.loc 1 507 0
 303 0090 78000001 		e_bl SPCGetPeripheralClock
 304              	.LVL12:
 305 0094 C06E     		se_lwz %r6,0(%r30)
 306 0096 C15E     		se_lwz %r5,4(%r30)
 307 0098 04F6     		se_add %r6,%r31
 308 009a C176     		se_lwz %r7,4(%r6)
 309 009c 7C633B96 		divwu %r3,%r3,%r7
 310 00a0 2403     		se_subi %r3, 1
 311              	.LVL13:
 312 00a2 79FFFFB6 		e_b .L12
 313              		.cfi_endproc
 314              	.LFE8:
 315              		.size	pit_lld_channel_start, .-pit_lld_channel_start
 316              		.section	.text.pit_lld_channel_set_freq,"axv",@progbits
 317              		.align 1
 318              		.p2align 4,,15
 319              		.globl pit_lld_channel_set_freq
 320              		.type	pit_lld_channel_set_freq, @function
 321              	pit_lld_channel_set_freq:
 322              	.LFB9:
 323              		.loc 1 538 0
 324              		.cfi_startproc
 325              	.LVL14:
 326 0000 182106E8 		e_stwu %r1,-24(%r1)
 327              	.LCFI11:
 328              		.cfi_def_cfa_offset 24
 329              		.loc 1 542 0
 330 0004 7C872070 		e_slwi %r7,%r4,4
 331              		.loc 1 538 0
 332 0008 1BA1090C 		e_stmw %r29,12(%r1)
 333 000c 0080     		se_mflr %r0
 334              		.cfi_offset 29, -12
 335              		.cfi_offset 30, -8
 336              		.cfi_offset 31, -4
 337              		.cfi_register 65, 0
 338              		.loc 1 542 0
 339 000e 7C9F1070 		e_slwi %r31,%r4,2
 340              		.loc 1 538 0
 341 0012 D701     		se_stw %r0,28(%r1)
 342              		.cfi_offset 65, 4
GAS LISTING C:\Users\Vipuls\AppData\Local\Temp\cccDu31g.s 			page 7


 343              		.loc 1 542 0
 344 0014 077F     		se_subf %r31, %r7
 345 0016 C063     		se_lwz %r6,0(%r3)
 346 0018 7CE6F8AE 		lbzx %r7,%r6,%r31
 347 001c 04F6     		se_add %r6,%r31
 348 001e 2A17     		se_cmpi %r7,1
 349 0020 7A120010 		e_beq %cr0,.L22
 350              	.LVL15:
 351              	.L17:
 352              		.loc 1 567 0
 353 0024 C701     		se_lwz %r0,28(%r1)
 354 0026 0090     		se_mtlr %r0
 355              		.cfi_remember_state
 356              		.cfi_restore 65
 357 0028 1BA1080C 		e_lmw %r29,12(%r1)
 358 002c 2171     		se_addi %r1,24
 359              	.LCFI12:
 360              		.cfi_restore 31
 361              		.cfi_restore 30
 362              		.cfi_restore 29
 363              		.cfi_def_cfa_offset 0
 364 002e 0004     		se_blr
 365              	.LVL16:
 366              	.L22:
 367              	.LCFI13:
 368              		.cfi_restore_state
 369              		.loc 1 544 0
 370 0030 C173     		se_lwz %r7,4(%r3)
 371 0032 013E     		se_mr %r30,%r3
 372 0034 4800     		se_li %r0,0
 373 0036 18648010 		e_addi %r3,%r4,16
 374              	.LVL17:
 375 003a 014D     		se_mr %r29,%r4
 376 003c 6C43     		se_slwi %r3, 4
 377 003e 7C671A14 		add %r3,%r7,%r3
 378 0042 D203     		se_stw %r0,8(%r3)
 379              		.loc 1 546 0
 380 0044 D156     		se_stw %r5,4(%r6)
 381              		.loc 1 540 0
 382 0046 4803     		se_li %r3,0
 383              		.loc 1 548 0
 384 0048 70A0E000 		e_lis %r5,.LANCHOR0@ha
 385              	.LVL18:
 386 004c 1CA50000 		e_la %r5,.LANCHOR0@l(%r5)
 387 0050 0C5E     		se_cmp %r30,%r5
 388 0052 7A12003C 		e_beq %cr0,.L23
 389              	.LVL19:
 390              	.L19:
 391 0056 7FA42070 		e_slwi %r4,%r29,4
 392              		.loc 1 559 0
 393 005a 4815     		se_li %r5,1
 394 005c 7C872214 		add %r4,%r7,%r4
 395              		.loc 1 561 0
 396 0060 C276     		se_lwz %r7,8(%r6)
 397              		.loc 1 557 0
 398 0062 54640100 		e_stw %r3,256(%r4)
 399              		.loc 1 561 0
GAS LISTING C:\Users\Vipuls\AppData\Local\Temp\cccDu31g.s 			page 8


 400 0066 2A07     		se_cmpi %r7,0
 401              		.loc 1 558 0
 402 0068 54640104 		e_stw %r3,260(%r4)
 403              		.loc 1 559 0
 404 006c 54A4010C 		e_stw %r5,268(%r4)
 405              		.loc 1 561 0
 406 0070 7A120016 		e_beq %cr0,.L20
 407              		.loc 1 567 0
 408 0074 C701     		se_lwz %r0,28(%r1)
 409 0076 0090     		se_mtlr %r0
 410              		.cfi_remember_state
 411              		.cfi_restore 65
 412 0078 1BA1080C 		e_lmw %r29,12(%r1)
 413              	.LVL20:
 414              		.loc 1 562 0
 415 007c 4837     		se_li %r7,3
 416 007e 54E40108 		e_stw %r7,264(%r4)
 417              		.loc 1 567 0
 418 0082 2171     		se_addi %r1,24
 419              	.LCFI14:
 420              		.cfi_restore 29
 421              		.cfi_restore 30
 422              		.cfi_restore 31
 423              		.cfi_def_cfa_offset 0
 424 0084 0004     		se_blr
 425              	.LVL21:
 426              	.L20:
 427              	.LCFI15:
 428              		.cfi_restore_state
 429              		.loc 1 564 0
 430 0086 54A40108 		e_stw %r5,264(%r4)
 431 008a 79FFFF9A 		e_b .L17
 432              	.LVL22:
 433              	.L23:
 434              		.loc 1 549 0
 435 008e 78000001 		e_bl SPCGetPeripheralClock
 436              	.LVL23:
 437 0092 C06E     		se_lwz %r6,0(%r30)
 438 0094 C17E     		se_lwz %r7,4(%r30)
 439 0096 04F6     		se_add %r6,%r31
 440 0098 C156     		se_lwz %r5,4(%r6)
 441 009a 7C632B96 		divwu %r3,%r3,%r5
 442 009e 2403     		se_subi %r3, 1
 443              	.LVL24:
 444 00a0 79FFFFB6 		e_b .L19
 445              		.cfi_endproc
 446              	.LFE9:
 447              		.size	pit_lld_channel_set_freq, .-pit_lld_channel_set_freq
 448              		.section	.text.pit_lld_channel_stop,"axv",@progbits
 449              		.align 1
 450              		.p2align 4,,15
 451              		.globl pit_lld_channel_stop
 452              		.type	pit_lld_channel_stop, @function
 453              	pit_lld_channel_stop:
 454              	.LFB10:
 455              		.loc 1 577 0
 456              		.cfi_startproc
GAS LISTING C:\Users\Vipuls\AppData\Local\Temp\cccDu31g.s 			page 9


 457              	.LVL25:
 458              		.loc 1 579 0
 459 0000 7C871070 		e_slwi %r7,%r4,2
 460 0004 C063     		se_lwz %r6,0(%r3)
 461 0006 6C44     		se_slwi %r4, 4
 462              	.LVL26:
 463 0008 0747     		se_subf %r7, %r4
 464 000a 7CE638AE 		lbzx %r7,%r6,%r7
 465 000e 2A17     		se_cmpi %r7,1
 466 0010 7A120006 		e_beq %cr0,.L26
 467              	.L24:
 468 0014 0004     		se_blr
 469              	.L26:
 470 0016 C173     		se_lwz %r7,4(%r3)
 471 0018 7C872214 		add %r4,%r7,%r4
 472              		.loc 1 581 0
 473 001c 50E40108 		e_lwz %r7,264(%r4)
 474 0020 18E6C804 		e_andi. %r6,%r7,4
 475 0024 7A02FFF0 		e_bne %cr0,.L24
 476              		.loc 1 582 0
 477 0028 54C40108 		e_stw %r6,264(%r4)
 478 002c 0004     		se_blr
 479              		.cfi_endproc
 480              	.LFE10:
 481              		.size	pit_lld_channel_stop, .-pit_lld_channel_stop
 482              		.section	.text.pit_lld_channel_get,"axv",@progbits
 483              		.align 1
 484              		.p2align 4,,15
 485              		.globl pit_lld_channel_get
 486              		.type	pit_lld_channel_get, @function
 487              	pit_lld_channel_get:
 488              	.LFB11:
 489              		.loc 1 597 0
 490              		.cfi_startproc
 491              	.LVL27:
 492 0000 182106E8 		e_stwu %r1,-24(%r1)
 493              	.LCFI16:
 494              		.cfi_def_cfa_offset 24
 495 0004 0080     		se_mflr %r0
 496 0006 1BC10910 		e_stmw %r30,16(%r1)
 497 000a D701     		se_stw %r0,28(%r1)
 498              		.cfi_offset 65, 4
 499              		.cfi_offset 30, -8
 500              		.cfi_offset 31, -4
 501              		.loc 1 599 0
 502 000c 18E48010 		e_addi %r7,%r4,16
 503 0010 C163     		se_lwz %r6,4(%r3)
 504 0012 6C47     		se_slwi %r7, 4
 505              		.loc 1 597 0
 506 0014 013F     		se_mr %r31,%r3
 507              		.loc 1 599 0
 508 0016 7CE63A14 		add %r7,%r6,%r7
 509              		.loc 1 600 0
 510 001a 4810     		se_li %r0,1
 511              		.loc 1 599 0
 512 001c C2E7     		se_lwz %r30,8(%r7)
 513              	.LVL28:
GAS LISTING C:\Users\Vipuls\AppData\Local\Temp\cccDu31g.s 			page 10


 514              		.loc 1 604 0
 515 001e 70E0E000 		e_lis %r7,.LANCHOR0@ha
 516 0022 1CE70000 		e_la %r7,.LANCHOR0@l(%r7)
 517 0026 0C73     		se_cmp %r3,%r7
 518 0028 7A120050 		e_beq %cr0,.L34
 519              	.LVL29:
 520              	.L28:
 521              		.loc 1 614 0
 522 002c C05F     		se_lwz %r5,0(%r31)
 523 002e 7C862070 		e_slwi %r6,%r4,4
 524 0032 7C871070 		e_slwi %r7,%r4,2
 525              		.loc 1 601 0
 526 0036 4803     		se_li %r3,0
 527              		.loc 1 614 0
 528 0038 0767     		se_subf %r7, %r6
 529 003a 7CC538AE 		lbzx %r6,%r5,%r7
 530 003e 7CE53A14 		add %r7,%r5,%r7
 531 0042 2A16     		se_cmpi %r6,1
 532 0044 7A120010 		e_beq %cr0,.L35
 533              	.LVL30:
 534              	.L29:
 535              		.loc 1 620 0
 536 0048 C701     		se_lwz %r0,28(%r1)
 537              	.LVL31:
 538 004a 0090     		se_mtlr %r0
 539              		.cfi_remember_state
 540              		.cfi_restore 65
 541 004c 1BC10810 		e_lmw %r30,16(%r1)
 542              	.LVL32:
 543 0050 2171     		se_addi %r1,24
 544              	.LCFI17:
 545              		.cfi_restore 31
 546              		.cfi_restore 30
 547              		.cfi_def_cfa_offset 0
 548 0052 0004     		se_blr
 549              	.LVL33:
 550              	.L35:
 551              	.LCFI18:
 552              		.cfi_restore_state
 553              		.loc 1 614 0 discriminator 1
 554 0054 C277     		se_lwz %r7,8(%r7)
 555 0056 2A07     		se_cmpi %r7,0
 556 0058 7A02FFF0 		e_bne %cr0,.L29
 557              		.loc 1 616 0
 558 005c 2E5E     		se_andi %r30,5
 559              	.LVL34:
 560 005e 220E     		se_cmpli %r30,1
 561 0060 7A02FFE8 		e_bne %cr0,.L29
 562              		.loc 1 617 0
 563 0064 C17F     		se_lwz %r7,4(%r31)
 564 0066 20F4     		se_addi %r4,16
 565 0068 6C44     		se_slwi %r4, 4
 566 006a 7C872214 		add %r4,%r7,%r4
 567 006e C134     		se_lwz %r3,4(%r4)
 568 0070 7C630396 		divwu %r3,%r3,%r0
 569              	.LVL35:
 570 0074 79FFFFD4 		e_b .L29
GAS LISTING C:\Users\Vipuls\AppData\Local\Temp\cccDu31g.s 			page 11


 571              	.LVL36:
 572              	.L34:
 573              		.loc 1 605 0
 574 0078 D241     		se_stw %r4,8(%r1)
 575 007a 4803     		se_li %r3,0
 576              	.LVL37:
 577 007c 78000001 		e_bl SPCGetPeripheralClock
 578              	.LVL38:
 579 0080 70E8E31B 		e_lis %r7,0x431b
 580 0084 C241     		se_lwz %r4,8(%r1)
 581 0086 70FBC683 		e_or2i %r7,56963
 582 008a 7C033816 		mulhwu %r0,%r3,%r7
 583 008e 6920     		se_srwi %r0,18
 584              	.LVL39:
 585 0090 79FFFF9C 		e_b .L28
 586              		.cfi_endproc
 587              	.LFE11:
 588              		.size	pit_lld_channel_get, .-pit_lld_channel_get
 589              		.section	.text.pit_lld_lifetime_start,"axv",@progbits
 590              		.align 1
 591              		.p2align 4,,15
 592              		.globl pit_lld_lifetime_start
 593              		.type	pit_lld_lifetime_start, @function
 594              	pit_lld_lifetime_start:
 595              	.LFB12:
 596              		.loc 1 629 0
 597              		.cfi_startproc
 598              	.LVL40:
 599              		.loc 1 631 0
 600 0000 C173     		se_lwz %r7,4(%r3)
 601 0002 50C70108 		e_lwz %r6,264(%r7)
 602              	.LVL41:
 603              		.loc 1 632 0
 604 0006 50A70118 		e_lwz %r5,280(%r7)
 605              	.LVL42:
 606 000a 4456     		se_or %r6,%r5
 607              	.LVL43:
 608              		.loc 1 635 0
 609 000c 18C5C801 		e_andi. %r5,%r6,1
 610              	.LVL44:
 611 0010 7A02003E 		e_bne %cr0,.L36
 612              		.loc 1 636 0
 613 0014 2C04     		se_bmaski %r4,0
 614 0016 54870110 		e_stw %r4,272(%r7)
 615              		.loc 1 637 0
 616 001a 54A70118 		e_stw %r5,280(%r7)
 617              		.loc 1 638 0
 618 001e 50C70118 		e_lwz %r6,280(%r7)
 619 0022 65D6     		se_bseti %r6,29
 620 0024 54C70118 		e_stw %r6,280(%r7)
 621              		.loc 1 639 0
 622 0028 50C70118 		e_lwz %r6,280(%r7)
 623 002c 65F6     		se_bseti %r6,31
 624 002e 54C70118 		e_stw %r6,280(%r7)
 625              		.loc 1 641 0
 626 0032 54870100 		e_stw %r4,256(%r7)
 627              		.loc 1 642 0
GAS LISTING C:\Users\Vipuls\AppData\Local\Temp\cccDu31g.s 			page 12


 628 0036 54A70108 		e_stw %r5,264(%r7)
 629              		.loc 1 643 0
 630 003a 50C70108 		e_lwz %r6,264(%r7)
 631 003e 65D6     		se_bseti %r6,29
 632 0040 54C70108 		e_stw %r6,264(%r7)
 633              		.loc 1 644 0
 634 0044 50C70108 		e_lwz %r6,264(%r7)
 635 0048 65F6     		se_bseti %r6,31
 636 004a 54C70108 		e_stw %r6,264(%r7)
 637              	.L36:
 638 004e 0004     		se_blr
 639              		.cfi_endproc
 640              	.LFE12:
 641              		.size	pit_lld_lifetime_start, .-pit_lld_lifetime_start
 642              		.section	.text.pit_lld_lifetime_stop,"axv",@progbits
 643              		.align 1
 644              		.p2align 4,,15
 645              		.globl pit_lld_lifetime_stop
 646              		.type	pit_lld_lifetime_stop, @function
 647              	pit_lld_lifetime_stop:
 648              	.LFB13:
 649              		.loc 1 655 0
 650              		.cfi_startproc
 651              	.LVL45:
 652              		.loc 1 657 0
 653 0000 C163     		se_lwz %r6,4(%r3)
 654 0002 50E60108 		e_lwz %r7,264(%r6)
 655              	.LVL46:
 656              		.loc 1 658 0
 657 0006 50A60118 		e_lwz %r5,280(%r6)
 658              	.LVL47:
 659              		.loc 1 661 0
 660 000a 67D7     		se_btsti %r7,29
 661 000c 7A120014 		e_beq %cr0,.L38
 662              		.loc 1 661 0 is_stmt 0 discriminator 1
 663 0010 67D5     		se_btsti %r5,29
 664 0012 7A12000E 		e_beq %cr0,.L38
 665              		.loc 1 662 0 is_stmt 1
 666 0016 4807     		se_li %r7,0
 667              	.LVL48:
 668 0018 54E60108 		e_stw %r7,264(%r6)
 669              		.loc 1 663 0
 670 001c 54E60118 		e_stw %r7,280(%r6)
 671              	.L38:
 672 0020 0004     		se_blr
 673              		.cfi_endproc
 674              	.LFE13:
 675              		.size	pit_lld_lifetime_stop, .-pit_lld_lifetime_stop
 676              		.globl __udivdi3
 677              		.section	.text.pit_lld_lifetime_get,"axv",@progbits
 678              		.align 1
 679              		.p2align 4,,15
 680              		.globl pit_lld_lifetime_get
 681              		.type	pit_lld_lifetime_get, @function
 682              	pit_lld_lifetime_get:
 683              	.LFB14:
 684              		.loc 1 676 0
GAS LISTING C:\Users\Vipuls\AppData\Local\Temp\cccDu31g.s 			page 13


 685              		.cfi_startproc
 686              	.LVL49:
 687 0000 182106F0 		e_stwu %r1,-16(%r1)
 688              	.LCFI19:
 689              		.cfi_def_cfa_offset 16
 690 0004 0136     		se_mr %r6,%r3
 691 0006 0080     		se_mflr %r0
 692 0008 D3F1     		se_stw %r31,12(%r1)
 693 000a D501     		se_stw %r0,20(%r1)
 694              		.cfi_offset 65, 4
 695              		.cfi_offset 31, -4
 696              		.loc 1 679 0
 697 000c 4803     		se_li %r3,0
 698              	.LVL50:
 699              		.loc 1 681 0
 700 000e C176     		se_lwz %r7,4(%r6)
 701              		.loc 1 679 0
 702 0010 4804     		se_li %r4,0
 703              		.loc 1 681 0
 704 0012 50E70118 		e_lwz %r7,280(%r7)
 705 0016 67D7     		se_btsti %r7,29
 706 0018 7A12002C 		e_beq %cr0,.L41
 707 001c 016F     		se_mr %r31,%r6
 708              		.loc 1 682 0
 709 001e 4813     		se_li %r3,1
 710 0020 78000001 		e_bl SPCGetPeripheralClock
 711              	.LVL51:
 712              		.loc 1 683 0
 713 0024 C17F     		se_lwz %r7,4(%r31)
 714 0026 50A700E0 		e_lwz %r5,224(%r7)
 715              	.LVL52:
 716              		.loc 1 685 0
 717 002a 508700E4 		e_lwz %r4,228(%r7)
 718              	.LVL53:
 719              		.loc 1 682 0
 720 002e 70E8E31B 		e_lis %r7,0x431b
 721 0032 70FBC683 		e_or2i %r7,56963
 722 0036 7CC33816 		mulhwu %r6,%r3,%r7
 723              		.loc 1 686 0
 724 003a 0153     		se_mr %r3,%r5
 725              	.LVL54:
 726 003c 6926     		se_srwi %r6,18
 727 003e 4805     		se_li %r5,0
 728              	.LVL55:
 729 0040 78000001 		e_bl __udivdi3
 730              	.LVL56:
 731              	.L41:
 732              		.loc 1 689 0
 733 0044 C501     		se_lwz %r0,20(%r1)
 734 0046 0090     		se_mtlr %r0
 735              		.cfi_restore 65
 736 0048 C3F1     		se_lwz %r31,12(%r1)
 737 004a 20F1     		se_addi %r1,16
 738              	.LCFI20:
 739              		.cfi_restore 31
 740              		.cfi_def_cfa_offset 0
 741 004c 0004     		se_blr
GAS LISTING C:\Users\Vipuls\AppData\Local\Temp\cccDu31g.s 			page 14


 742              		.cfi_endproc
 743              	.LFE14:
 744              		.size	pit_lld_lifetime_get, .-pit_lld_lifetime_get
 745              		.section	.text.pit_lld_stop,"axv",@progbits
 746              		.align 1
 747              		.p2align 4,,15
 748              		.globl pit_lld_stop
 749              		.type	pit_lld_stop, @function
 750              	pit_lld_stop:
 751              	.LFB15:
 752              		.loc 1 698 0
 753              		.cfi_startproc
 754              	.LVL57:
 755              		.loc 1 700 0
 756 0000 4807     		se_li %r7,0
 757 0002 D073     		se_stw %r7,0(%r3)
 758 0004 0004     		se_blr
 759              		.cfi_endproc
 760              	.LFE15:
 761              		.size	pit_lld_stop, .-pit_lld_stop
 762              		.globl PITD1
 763              		.section	.bss.PITD1,"aw",@nobits
 764              		.align 2
 765              		.set	.LANCHOR0,. + 0
 766              		.type	PITD1, @object
 767              		.size	PITD1, 8
 768              	PITD1:
 769 0000 00000000 		.zero	8
 769      00000000 
 770              		.section	".text","axv"
 771              	.Letext0:
 772              		.file 2 "c:\\autodevkitstudio-2.4.0\\eclipse\\plugins\\com.st.tools.spc5.tools.gnu.gcc.ppcvle.win3
 773              		.file 3 "c:\\autodevkitstudio-2.4.0\\eclipse\\plugins\\com.st.tools.spc5.tools.gnu.gcc.ppcvle.win3
 774              		.file 4 "./components/spc58ecxx_platform_component_rla/lib/include/typedefs.h"
 775              		.file 5 "./components/spc58ecxx_clock_component_rla/lib/include/clock.h"
 776              		.file 6 "./components/spc58ecxx_low_level_drivers_component_rla/lib/include/spc5_pit.h"
 777              		.file 7 "./components/spc58ecxx_low_level_drivers_component_rla/lib/include/pit_lld.h"