GAS LISTING C:\Users\Vipuls\AppData\Local\Temp\cctXFpLg.s 			page 1


   1              		.file	"wkpu_lld.c"
   2              		.section	".text","axv"
   3              	.Ltext0:
   4              		.cfi_sections	.debug_frame
   5              		.section	.text.vector247,"axv",@progbits
   6              		.align 1
   7              		.p2align 4,,15
   8              		.globl vector247
   9              		.type	vector247, @function
  10              	vector247:
  11              	.LFB3:
  12              		.file 1 "./components/spc58ecxx_low_level_drivers_component_rla/lib/src/wkpu_lld.c"
  13              		.loc 1 68 0
  14              		.cfi_startproc
  15 0000 182106E8 		e_stwu %r1,-24(%r1)
  16              	.LCFI0:
  17              		.cfi_def_cfa_offset 24
  18 0004 0080     		se_mflr %r0
  19 0006 1BA1090C 		e_stmw %r29,12(%r1)
  20 000a D701     		se_stw %r0,28(%r1)
  21              		.cfi_offset 65, 4
  22              		.cfi_offset 29, -12
  23              		.cfi_offset 30, -8
  24              		.cfi_offset 31, -4
  25              		.loc 1 74 0
  26 000c 73C0E000 		e_lis %r30,.LANCHOR0@ha
  27 0010 480F     		se_li %r31,0
  28 0012 1FDE0000 		e_la %r30,.LANCHOR0@l(%r30)
  29 0016 C17E     		se_lwz %r7,4(%r30)
  30 0018 C5D7     		se_lwz %r29,20(%r7)
  31              	.LVL0:
  32 001a 00CD     		se_extzb %r29
  33              	.LVL1:
  34 001c 7800000C 		e_b .L5
  35              	.LVL2:
  36              	.L3:
  37 0020 200F     		se_addi %r31,1
  38              	.LVL3:
  39              		.loc 1 76 0 discriminator 2
  40 0022 227F     		se_cmpli %r31,8
  41 0024 7A120040 		e_beq %cr0,.L8
  42              	.LVL4:
  43              	.L5:
  44              		.loc 1 77 0
  45 0028 7FA7FE30 		sraw %r7,%r29,%r31
  46 002c 67F7     		se_btsti %r7,31
  47 002e 7A12FFF2 		e_beq %cr0,.L3
  48 0032 C06E     		se_lwz %r6,0(%r30)
  49 0034 7FE71070 		e_slwi %r7,%r31,2
  50 0038 7CE63A14 		add %r7,%r6,%r7
  51              		.loc 1 77 0 is_stmt 0 discriminator 1
  52 003c C467     		se_lwz %r6,16(%r7)
  53 003e 8166     		se_lbz %r6,1(%r6)
  54 0040 2A16     		se_cmpi %r6,1
  55 0042 7A02FFDE 		e_bne %cr0,.L3
  56              		.loc 1 79 0 is_stmt 1
  57 0046 42F6     		se_slw %r6, %r31
GAS LISTING C:\Users\Vipuls\AppData\Local\Temp\cctXFpLg.s 			page 2


  58 0048 C15E     		se_lwz %r5,4(%r30)
  59              		.loc 1 82 0
  60 004a 01E3     		se_mr %r3,%r30
  61              		.loc 1 79 0
  62 004c D565     		se_stw %r6,20(%r5)
  63              		.loc 1 81 0
  64 004e C477     		se_lwz %r7,16(%r7)
  65 0050 C177     		se_lwz %r7,4(%r7)
  66 0052 2A07     		se_cmpi %r7,0
  67 0054 7A12FFCC 		e_beq %cr0,.L3
  68              		.loc 1 82 0
  69 0058 00B7     		se_mtctr %r7
  70 005a 200F     		se_addi %r31,1
  71              	.LVL5:
  72 005c 0007     		se_bctrl
  73              	.LVL6:
  74              		.loc 1 76 0
  75 005e 227F     		se_cmpli %r31,8
  76 0060 7A02FFC8 		e_bne %cr0,.L5
  77              	.L8:
  78              		.loc 1 88 0
  79 0064 C701     		se_lwz %r0,28(%r1)
  80 0066 0090     		se_mtlr %r0
  81              		.cfi_restore 65
  82 0068 1BA1080C 		e_lmw %r29,12(%r1)
  83 006c 2171     		se_addi %r1,24
  84              	.LCFI1:
  85              		.cfi_restore 31
  86              		.cfi_restore 30
  87              		.cfi_restore 29
  88              		.cfi_def_cfa_offset 0
  89 006e 0004     		se_blr
  90              		.cfi_endproc
  91              	.LFE3:
  92              		.size	vector247, .-vector247
  93              		.section	.text.vector248,"axv",@progbits
  94              		.align 1
  95              		.p2align 4,,15
  96              		.globl vector248
  97              		.type	vector248, @function
  98              	vector248:
  99              	.LFB4:
 100              		.loc 1 98 0
 101              		.cfi_startproc
 102 0000 182106E8 		e_stwu %r1,-24(%r1)
 103              	.LCFI2:
 104              		.cfi_def_cfa_offset 24
 105 0004 0080     		se_mflr %r0
 106 0006 1BA1090C 		e_stmw %r29,12(%r1)
 107 000a D701     		se_stw %r0,28(%r1)
 108              		.cfi_offset 65, 4
 109              		.cfi_offset 29, -12
 110              		.cfi_offset 30, -8
 111              		.cfi_offset 31, -4
 112              		.loc 1 104 0
 113 000c 73C0E000 		e_lis %r30,.LANCHOR0@ha
 114 0010 488F     		se_li %r31,8
GAS LISTING C:\Users\Vipuls\AppData\Local\Temp\cctXFpLg.s 			page 3


 115 0012 1FDE0000 		e_la %r30,.LANCHOR0@l(%r30)
 116 0016 C17E     		se_lwz %r7,4(%r30)
 117 0018 C5D7     		se_lwz %r29,20(%r7)
 118              	.LVL7:
 119 001a 77BDC63F 		e_rlwinm %r29,%r29,24,24,31
 120              	.LVL8:
 121 001e 7800000C 		e_b .L13
 122              	.LVL9:
 123              	.L11:
 124 0022 200F     		se_addi %r31,1
 125              	.LVL10:
 126              		.loc 1 106 0 discriminator 2
 127 0024 22FF     		se_cmpli %r31,16
 128 0026 7A120044 		e_beq %cr0,.L15
 129              	.LVL11:
 130              	.L13:
 131 002a 18FF84F8 		e_addi %r7,%r31,-8
 132              		.loc 1 107 0
 133 002e 7FA73E30 		sraw %r7,%r29,%r7
 134 0032 67F7     		se_btsti %r7,31
 135 0034 7A12FFEE 		e_beq %cr0,.L11
 136 0038 C06E     		se_lwz %r6,0(%r30)
 137 003a 7FE71070 		e_slwi %r7,%r31,2
 138 003e 7CE63A14 		add %r7,%r6,%r7
 139              		.loc 1 107 0 is_stmt 0 discriminator 1
 140 0042 C467     		se_lwz %r6,16(%r7)
 141 0044 8166     		se_lbz %r6,1(%r6)
 142 0046 2A16     		se_cmpi %r6,1
 143 0048 7A02FFDA 		e_bne %cr0,.L11
 144              		.loc 1 109 0 is_stmt 1
 145 004c 42F6     		se_slw %r6, %r31
 146 004e C15E     		se_lwz %r5,4(%r30)
 147              		.loc 1 112 0
 148 0050 01E3     		se_mr %r3,%r30
 149              		.loc 1 109 0
 150 0052 D565     		se_stw %r6,20(%r5)
 151              		.loc 1 111 0
 152 0054 C477     		se_lwz %r7,16(%r7)
 153 0056 C177     		se_lwz %r7,4(%r7)
 154 0058 2A07     		se_cmpi %r7,0
 155 005a 7A12FFC8 		e_beq %cr0,.L11
 156              		.loc 1 112 0
 157 005e 00B7     		se_mtctr %r7
 158 0060 200F     		se_addi %r31,1
 159              	.LVL12:
 160 0062 0007     		se_bctrl
 161              	.LVL13:
 162              		.loc 1 106 0
 163 0064 22FF     		se_cmpli %r31,16
 164 0066 7A02FFC4 		e_bne %cr0,.L13
 165              	.L15:
 166              		.loc 1 118 0
 167 006a C701     		se_lwz %r0,28(%r1)
 168 006c 0090     		se_mtlr %r0
 169              		.cfi_restore 65
 170 006e 1BA1080C 		e_lmw %r29,12(%r1)
 171 0072 2171     		se_addi %r1,24
GAS LISTING C:\Users\Vipuls\AppData\Local\Temp\cctXFpLg.s 			page 4


 172              	.LCFI3:
 173              		.cfi_restore 31
 174              		.cfi_restore 30
 175              		.cfi_restore 29
 176              		.cfi_def_cfa_offset 0
 177 0074 0004     		se_blr
 178              		.cfi_endproc
 179              	.LFE4:
 180              		.size	vector248, .-vector248
 181              		.section	.text.vector249,"axv",@progbits
 182              		.align 1
 183              		.p2align 4,,15
 184              		.globl vector249
 185              		.type	vector249, @function
 186              	vector249:
 187              	.LFB5:
 188              		.loc 1 128 0
 189              		.cfi_startproc
 190 0000 182106E8 		e_stwu %r1,-24(%r1)
 191              	.LCFI4:
 192              		.cfi_def_cfa_offset 24
 193 0004 0080     		se_mflr %r0
 194 0006 1BA1090C 		e_stmw %r29,12(%r1)
 195 000a D701     		se_stw %r0,28(%r1)
 196              		.cfi_offset 65, 4
 197              		.cfi_offset 29, -12
 198              		.cfi_offset 30, -8
 199              		.cfi_offset 31, -4
 200              		.loc 1 134 0
 201 000c 73C0E000 		e_lis %r30,.LANCHOR0@ha
 202 0010 490F     		se_li %r31,16
 203 0012 1FDE0000 		e_la %r30,.LANCHOR0@l(%r30)
 204 0016 C17E     		se_lwz %r7,4(%r30)
 205 0018 C5D7     		se_lwz %r29,20(%r7)
 206              	.LVL14:
 207 001a 77BD863F 		e_rlwinm %r29,%r29,16,24,31
 208              	.LVL15:
 209 001e 7800000C 		e_b .L20
 210              	.LVL16:
 211              	.L18:
 212 0022 200F     		se_addi %r31,1
 213              	.LVL17:
 214              		.loc 1 136 0 discriminator 2
 215 0024 237F     		se_cmpli %r31,24
 216 0026 7A120044 		e_beq %cr0,.L22
 217              	.LVL18:
 218              	.L20:
 219 002a 18FF84F0 		e_addi %r7,%r31,-16
 220              		.loc 1 137 0
 221 002e 7FA73E30 		sraw %r7,%r29,%r7
 222 0032 67F7     		se_btsti %r7,31
 223 0034 7A12FFEE 		e_beq %cr0,.L18
 224 0038 C06E     		se_lwz %r6,0(%r30)
 225 003a 7FE71070 		e_slwi %r7,%r31,2
 226 003e 7CE63A14 		add %r7,%r6,%r7
 227              		.loc 1 137 0 is_stmt 0 discriminator 1
 228 0042 C467     		se_lwz %r6,16(%r7)
GAS LISTING C:\Users\Vipuls\AppData\Local\Temp\cctXFpLg.s 			page 5


 229 0044 8166     		se_lbz %r6,1(%r6)
 230 0046 2A16     		se_cmpi %r6,1
 231 0048 7A02FFDA 		e_bne %cr0,.L18
 232              		.loc 1 139 0 is_stmt 1
 233 004c 42F6     		se_slw %r6, %r31
 234 004e C15E     		se_lwz %r5,4(%r30)
 235              		.loc 1 142 0
 236 0050 01E3     		se_mr %r3,%r30
 237              		.loc 1 139 0
 238 0052 D565     		se_stw %r6,20(%r5)
 239              		.loc 1 141 0
 240 0054 C477     		se_lwz %r7,16(%r7)
 241 0056 C177     		se_lwz %r7,4(%r7)
 242 0058 2A07     		se_cmpi %r7,0
 243 005a 7A12FFC8 		e_beq %cr0,.L18
 244              		.loc 1 142 0
 245 005e 00B7     		se_mtctr %r7
 246 0060 200F     		se_addi %r31,1
 247              	.LVL19:
 248 0062 0007     		se_bctrl
 249              	.LVL20:
 250              		.loc 1 136 0
 251 0064 237F     		se_cmpli %r31,24
 252 0066 7A02FFC4 		e_bne %cr0,.L20
 253              	.L22:
 254              		.loc 1 148 0
 255 006a C701     		se_lwz %r0,28(%r1)
 256 006c 0090     		se_mtlr %r0
 257              		.cfi_restore 65
 258 006e 1BA1080C 		e_lmw %r29,12(%r1)
 259 0072 2171     		se_addi %r1,24
 260              	.LCFI5:
 261              		.cfi_restore 31
 262              		.cfi_restore 30
 263              		.cfi_restore 29
 264              		.cfi_def_cfa_offset 0
 265 0074 0004     		se_blr
 266              		.cfi_endproc
 267              	.LFE5:
 268              		.size	vector249, .-vector249
 269              		.section	.text.vector250,"axv",@progbits
 270              		.align 1
 271              		.p2align 4,,15
 272              		.globl vector250
 273              		.type	vector250, @function
 274              	vector250:
 275              	.LFB6:
 276              		.loc 1 158 0
 277              		.cfi_startproc
 278 0000 182106E8 		e_stwu %r1,-24(%r1)
 279              	.LCFI6:
 280              		.cfi_def_cfa_offset 24
 281 0004 0080     		se_mflr %r0
 282 0006 1BA1090C 		e_stmw %r29,12(%r1)
 283 000a D701     		se_stw %r0,28(%r1)
 284              		.cfi_offset 65, 4
 285              		.cfi_offset 29, -12
GAS LISTING C:\Users\Vipuls\AppData\Local\Temp\cctXFpLg.s 			page 6


 286              		.cfi_offset 30, -8
 287              		.cfi_offset 31, -4
 288              		.loc 1 164 0
 289 000c 73C0E000 		e_lis %r30,.LANCHOR0@ha
 290 0010 498F     		se_li %r31,24
 291 0012 1FDE0000 		e_la %r30,.LANCHOR0@l(%r30)
 292 0016 C17E     		se_lwz %r7,4(%r30)
 293 0018 C5D7     		se_lwz %r29,20(%r7)
 294              	.LVL21:
 295 001a 698D     		se_srwi %r29,24
 296              	.LVL22:
 297 001c 7800000C 		e_b .L27
 298              	.LVL23:
 299              	.L25:
 300 0020 200F     		se_addi %r31,1
 301              	.LVL24:
 302              		.loc 1 166 0 discriminator 2
 303 0022 23FF     		se_cmpli %r31,32
 304 0024 7A120044 		e_beq %cr0,.L29
 305              	.LVL25:
 306              	.L27:
 307 0028 18FF84E8 		e_addi %r7,%r31,-24
 308              		.loc 1 167 0
 309 002c 7FA73E30 		sraw %r7,%r29,%r7
 310 0030 67F7     		se_btsti %r7,31
 311 0032 7A12FFEE 		e_beq %cr0,.L25
 312 0036 C06E     		se_lwz %r6,0(%r30)
 313 0038 7FE71070 		e_slwi %r7,%r31,2
 314 003c 7CE63A14 		add %r7,%r6,%r7
 315              		.loc 1 167 0 is_stmt 0 discriminator 1
 316 0040 C467     		se_lwz %r6,16(%r7)
 317 0042 8166     		se_lbz %r6,1(%r6)
 318 0044 2A16     		se_cmpi %r6,1
 319 0046 7A02FFDA 		e_bne %cr0,.L25
 320              		.loc 1 169 0 is_stmt 1
 321 004a 42F6     		se_slw %r6, %r31
 322 004c C15E     		se_lwz %r5,4(%r30)
 323              		.loc 1 172 0
 324 004e 01E3     		se_mr %r3,%r30
 325              		.loc 1 169 0
 326 0050 D565     		se_stw %r6,20(%r5)
 327              		.loc 1 171 0
 328 0052 C477     		se_lwz %r7,16(%r7)
 329 0054 C177     		se_lwz %r7,4(%r7)
 330 0056 2A07     		se_cmpi %r7,0
 331 0058 7A12FFC8 		e_beq %cr0,.L25
 332              		.loc 1 172 0
 333 005c 00B7     		se_mtctr %r7
 334 005e 200F     		se_addi %r31,1
 335              	.LVL26:
 336 0060 0007     		se_bctrl
 337              	.LVL27:
 338              		.loc 1 166 0
 339 0062 23FF     		se_cmpli %r31,32
 340 0064 7A02FFC4 		e_bne %cr0,.L27
 341              	.L29:
 342              		.loc 1 178 0
GAS LISTING C:\Users\Vipuls\AppData\Local\Temp\cctXFpLg.s 			page 7


 343 0068 C701     		se_lwz %r0,28(%r1)
 344 006a 0090     		se_mtlr %r0
 345              		.cfi_restore 65
 346 006c 1BA1080C 		e_lmw %r29,12(%r1)
 347 0070 2171     		se_addi %r1,24
 348              	.LCFI7:
 349              		.cfi_restore 31
 350              		.cfi_restore 30
 351              		.cfi_restore 29
 352              		.cfi_def_cfa_offset 0
 353 0072 0004     		se_blr
 354              		.cfi_endproc
 355              	.LFE6:
 356              		.size	vector250, .-vector250
 357              		.section	.text.wkpu_lld_init,"axv",@progbits
 358              		.align 1
 359              		.p2align 4,,15
 360              		.globl wkpu_lld_init
 361              		.type	wkpu_lld_init, @function
 362              	wkpu_lld_init:
 363              	.LFB7:
 364              		.loc 1 317 0
 365              		.cfi_startproc
 366              		.loc 1 324 0
 367 0000 4806     		se_li %r6,0
 368              		.loc 1 354 0
 369 0002 70A40008 		e_li %r5,8200
 370              		.loc 1 321 0
 371 0006 70FEE7F9 		e_lis %r7,0xf7f9
 372 000a 6507     		se_bseti %r7,16
 373              		.loc 1 324 0
 374 000c D267     		se_stw %r6,8(%r7)
 375              		.loc 1 328 0
 376 000e D667     		se_stw %r6,24(%r7)
 377              		.loc 1 331 0
 378 0010 D767     		se_stw %r6,28(%r7)
 379              		.loc 1 334 0
 380 0012 DA67     		se_stw %r6,40(%r7)
 381              		.loc 1 337 0
 382 0014 DB67     		se_stw %r6,44(%r7)
 383              		.loc 1 340 0
 384 0016 DC67     		se_stw %r6,48(%r7)
 385              		.loc 1 343 0
 386 0018 DD67     		se_stw %r6,52(%r7)
 387              		.loc 1 347 0
 388 001a 70D8E0C0 		e_lis %r6,0xc0c0
 389 001e 70D8C0C0 		e_or2i %r6,49344
 390 0022 D067     		se_stw %r6,0(%r7)
 391              		.loc 1 351 0
 392 0024 2C06     		se_bmaski %r6,0
 393 0026 D567     		se_stw %r6,20(%r7)
 394              		.loc 1 354 0
 395 0028 70DEE404 		e_lis %r6,0xf404
 396 002c 70C8C24E 		e_or2i %r6,16974
 397 0030 B056     		se_sth %r5,0(%r6)
 398              		.loc 1 321 0
 399 0032 70C0E000 		e_lis %r6,.LANCHOR0+4@ha
GAS LISTING C:\Users\Vipuls\AppData\Local\Temp\cctXFpLg.s 			page 8


 400 0036 54E60000 		e_stw %r7,.LANCHOR0+4@l(%r6)
 401              		.loc 1 355 0
 402 003a 70FEE404 		e_lis %r7,0xf404
 403 003e 70E8C250 		e_or2i %r7,16976
 404 0042 B057     		se_sth %r5,0(%r7)
 405              		.loc 1 356 0
 406 0044 B157     		se_sth %r5,2(%r7)
 407              		.loc 1 357 0
 408 0046 B257     		se_sth %r5,4(%r7)
 409 0048 0004     		se_blr
 410              		.cfi_endproc
 411              	.LFE7:
 412              		.size	wkpu_lld_init, .-wkpu_lld_init
 413              		.section	.text.wkpu_lld_start,"axv",@progbits
 414              		.align 1
 415              		.p2align 4,,15
 416              		.globl wkpu_lld_start
 417              		.type	wkpu_lld_start, @function
 418              	wkpu_lld_start:
 419              	.LFB8:
 420              		.loc 1 404 0
 421              		.cfi_startproc
 422              	.LVL28:
 423 0000 182106E8 		e_stwu %r1,-24(%r1)
 424              	.LCFI8:
 425              		.cfi_def_cfa_offset 24
 426 0004 7D800026 		mfcr %r12
 427              		.loc 1 414 0
 428 0008 70E0E000 		e_lis %r7,.LANCHOR0@ha
 429              		.loc 1 404 0
 430 000c 1BA1090C 		e_stmw %r29,12(%r1)
 431              		.loc 1 414 0
 432 0010 1CE70000 		e_la %r7,.LANCHOR0@l(%r7)
 433              		.loc 1 404 0
 434 0014 55810008 		e_stw %r12,8(%r1)
 435              		.cfi_offset 29, -12
 436              		.cfi_offset 30, -8
 437              		.cfi_offset 31, -4
 438              		.cfi_offset 70, -16
 439              		.loc 1 411 0
 440 0018 D043     		se_stw %r4,0(%r3)
 441              		.loc 1 414 0
 442 001a 0C73     		se_cmp %r3,%r7
 443 001c 7A12012A 		e_beq %cr0,.L32
 444              	.LVL29:
 445              	.L40:
 446              		.loc 1 441 0 discriminator 1
 447 0020 4A07     		se_li %r7,32
 448 0022 4805     		se_li %r5,0
 449 0024 00B7     		se_mtctr %r7
 450 0026 78000034 		e_b .L33
 451              	.LVL30:
 452              	.L43:
 453              		.loc 1 456 0
 454 002a 8167     		se_lbz %r6,1(%r7)
 455 002c 2A16     		se_cmpi %r6,1
 456 002e 7A120064 		e_beq %cr0,.L51
GAS LISTING C:\Users\Vipuls\AppData\Local\Temp\cctXFpLg.s 			page 9


 457              	.L44:
 458              		.loc 1 460 0
 459 0032 8867     		se_lbz %r6,8(%r7)
 460 0034 2A16     		se_cmpi %r6,1
 461 0036 7A120080 		e_beq %cr0,.L52
 462              	.L45:
 463              		.loc 1 464 0
 464 003a 8967     		se_lbz %r6,9(%r7)
 465 003c 2A16     		se_cmpi %r6,1
 466 003e 7A12009C 		e_beq %cr0,.L53
 467              	.L46:
 468              		.loc 1 468 0
 469 0042 8A67     		se_lbz %r6,10(%r7)
 470 0044 2A16     		se_cmpi %r6,1
 471 0046 7A1200B8 		e_beq %cr0,.L54
 472              	.L47:
 473              		.loc 1 472 0
 474 004a 8B77     		se_lbz %r7,11(%r7)
 475 004c 2A17     		se_cmpi %r7,1
 476 004e 7A1200D4 		e_beq %cr0,.L55
 477              	.L42:
 478              	.LVL31:
 479 0052 2005     		se_addi %r5,1
 480              		.loc 1 449 0 discriminator 2
 481 0054 7A3000DE 		e_bdz .L56
 482              	.LVL32:
 483              	.L49:
 484 0058 C043     		se_lwz %r4,0(%r3)
 485              	.L33:
 486              	.LVL33:
 487              		.loc 1 450 0
 488 005a 18C58004 		e_addi %r6,%r5,4
 489 005e 0150     		se_mr %r0,%r5
 490 0060 6C26     		se_slwi %r6, 2
 491 0062 7CE4302E 		lwzx %r7,%r4,%r6
 492 0066 2A07     		se_cmpi %r7,0
 493 0068 7A12FFEA 		e_beq %cr0,.L42
 494              		.loc 1 452 0
 495 006c 8047     		se_lbz %r4,0(%r7)
 496 006e 2A14     		se_cmpi %r4,1
 497 0070 7A02FFBA 		e_bne %cr0,.L43
 498              		.loc 1 453 0
 499 0074 51630004 		e_lwz %r11,4(%r3)
 500 0078 4254     		se_slw %r4, %r5
 501 007a 50EB001C 		e_lwz %r7,28(%r11)
 502 007e 4474     		se_or %r4,%r7
 503 0080 548B001C 		e_stw %r4,28(%r11)
 504 0084 C073     		se_lwz %r7,0(%r3)
 505 0086 7CE7302E 		lwzx %r7,%r7,%r6
 506              		.loc 1 456 0
 507 008a 8167     		se_lbz %r6,1(%r7)
 508 008c 2A16     		se_cmpi %r6,1
 509 008e 7A02FFA4 		e_bne %cr0,.L44
 510              	.L51:
 511              		.loc 1 457 0
 512 0092 51630004 		e_lwz %r11,4(%r3)
 513 0096 4206     		se_slw %r6, %r0
GAS LISTING C:\Users\Vipuls\AppData\Local\Temp\cctXFpLg.s 			page 10


 514 0098 508B0018 		e_lwz %r4,24(%r11)
 515 009c 18E08004 		e_addi %r7,%r0,4
 516 00a0 4446     		se_or %r6,%r4
 517 00a2 6C27     		se_slwi %r7, 2
 518 00a4 54CB0018 		e_stw %r6,24(%r11)
 519 00a8 C063     		se_lwz %r6,0(%r3)
 520 00aa 7CE6382E 		lwzx %r7,%r6,%r7
 521              		.loc 1 460 0
 522 00ae 8867     		se_lbz %r6,8(%r7)
 523 00b0 2A16     		se_cmpi %r6,1
 524 00b2 7A02FF88 		e_bne %cr0,.L45
 525              	.LVL34:
 526              	.L52:
 527              		.loc 1 461 0
 528 00b6 51630004 		e_lwz %r11,4(%r3)
 529 00ba 4206     		se_slw %r6, %r0
 530 00bc 508B0028 		e_lwz %r4,40(%r11)
 531 00c0 18E08004 		e_addi %r7,%r0,4
 532 00c4 4446     		se_or %r6,%r4
 533 00c6 6C27     		se_slwi %r7, 2
 534 00c8 54CB0028 		e_stw %r6,40(%r11)
 535 00cc C063     		se_lwz %r6,0(%r3)
 536 00ce 7CE6382E 		lwzx %r7,%r6,%r7
 537              		.loc 1 464 0
 538 00d2 8967     		se_lbz %r6,9(%r7)
 539 00d4 2A16     		se_cmpi %r6,1
 540 00d6 7A02FF6C 		e_bne %cr0,.L46
 541              	.L53:
 542              		.loc 1 465 0
 543 00da 51630004 		e_lwz %r11,4(%r3)
 544 00de 4206     		se_slw %r6, %r0
 545 00e0 508B002C 		e_lwz %r4,44(%r11)
 546 00e4 18E08004 		e_addi %r7,%r0,4
 547 00e8 4446     		se_or %r6,%r4
 548 00ea 6C27     		se_slwi %r7, 2
 549 00ec 54CB002C 		e_stw %r6,44(%r11)
 550 00f0 C063     		se_lwz %r6,0(%r3)
 551 00f2 7CE6382E 		lwzx %r7,%r6,%r7
 552              		.loc 1 468 0
 553 00f6 8A67     		se_lbz %r6,10(%r7)
 554 00f8 2A16     		se_cmpi %r6,1
 555 00fa 7A02FF50 		e_bne %cr0,.L47
 556              	.L54:
 557              		.loc 1 469 0
 558 00fe 51630004 		e_lwz %r11,4(%r3)
 559 0102 4206     		se_slw %r6, %r0
 560 0104 508B0030 		e_lwz %r4,48(%r11)
 561 0108 18E08004 		e_addi %r7,%r0,4
 562 010c 4446     		se_or %r6,%r4
 563 010e 6C27     		se_slwi %r7, 2
 564 0110 54CB0030 		e_stw %r6,48(%r11)
 565 0114 C063     		se_lwz %r6,0(%r3)
 566 0116 7CE6382E 		lwzx %r7,%r6,%r7
 567              		.loc 1 472 0
 568 011a 8B77     		se_lbz %r7,11(%r7)
 569 011c 2A17     		se_cmpi %r7,1
 570 011e 7A02FF34 		e_bne %cr0,.L42
GAS LISTING C:\Users\Vipuls\AppData\Local\Temp\cctXFpLg.s 			page 11


 571              	.L55:
 572              		.loc 1 473 0
 573 0122 C143     		se_lwz %r4,4(%r3)
 574 0124 4207     		se_slw %r7, %r0
 575 0126 CD64     		se_lwz %r6,52(%r4)
 576 0128 2005     		se_addi %r5,1
 577 012a 4467     		se_or %r7,%r6
 578 012c DD74     		se_stw %r7,52(%r4)
 579              	.LVL35:
 580              		.loc 1 449 0
 581 012e 7A20FF2A 		e_bdnz .L49
 582              	.L56:
 583              		.loc 1 478 0
 584 0132 51810008 		e_lwz %r12,8(%r1)
 585              		.cfi_remember_state
 586              		.cfi_register 70, 12
 587 0136 1BA1080C 		e_lmw %r29,12(%r1)
 588 013a 7D820120 		mtcrf 32,%r12
 589 013e 7D810120 		mtcrf 16,%r12
 590              		.cfi_restore 70
 591 0142 2171     		se_addi %r1,24
 592              	.LCFI9:
 593              		.cfi_restore 31
 594              		.cfi_restore 30
 595              		.cfi_restore 29
 596              		.cfi_def_cfa_offset 0
 597 0144 0004     		se_blr
 598              	.LVL36:
 599              	.L32:
 600              	.LCFI10:
 601              		.cfi_restore_state
 602              		.loc 1 420 0
 603 0146 4847     		se_li %r7,4
 604              		.loc 1 441 0
 605 0148 C1F3     		se_lwz %r31,4(%r3)
 606 014a 4800     		se_li %r0,0
 607              		.loc 1 420 0
 608 014c 480D     		se_li %r29,0
 609 014e 481E     		se_li %r30,1
 610 0150 00B7     		se_mtctr %r7
 611              	.L39:
 612              	.LVL37:
 613              		.loc 1 418 0
 614 0152 7CA4002E 		lwzx %r5,%r4,%r0
 615 0156 2A05     		se_cmpi %r5,0
 616 0158 7A120062 		e_beq %cr0,.L34
 617              		.loc 1 420 0
 618 015c 8475     		se_lbz %r7,4(%r5)
 619              		.loc 1 428 0
 620 015e 31050002 		e_lbz %r8,2(%r5)
 621              		.loc 1 432 0
 622 0162 31450000 		e_lbz %r10,0(%r5)
 623              		.loc 1 438 0
 624 0166 31250005 		e_lbz %r9,5(%r5)
 625              		.loc 1 424 0
 626 016a 31850003 		e_lbz %r12,3(%r5)
 627              		.loc 1 436 0
GAS LISTING C:\Users\Vipuls\AppData\Local\Temp\cctXFpLg.s 			page 12


 628 016e 8165     		se_lbz %r6,1(%r5)
 629              		.loc 1 441 0
 630 0170 517F0008 		e_lwz %r11,8(%r31)
 631              		.loc 1 420 0
 632 0174 2A17     		se_cmpi %r7,1
 633              		.loc 1 429 0
 634 0176 18E8A801 		e_cmpli %cr3,%r8,1
 635              		.loc 1 420 0
 636 017a 7CFEE89E 		isel %r7,%r30,%r29,2
 637              	.LVL38:
 638              		.loc 1 433 0
 639 017e 18AAA801 		e_cmpli %cr1,%r10,1
 640              		.loc 1 436 0
 641 0182 6C56     		se_slwi %r6, 5
 642              		.loc 1 439 0
 643 0184 7009A801 		e_cmpl16i %r9,1
 644 0188 7C050870 		e_slwi %r5,%r0,1
 645              		.loc 1 425 0
 646 018c 18CCA801 		e_cmpli %cr2,%r12,1
 647 0190 18E8D002 		e_ori %r8,%r7,2
 648 0194 7CE83A9E 		isel %r7,%r8,%r7,10
 649              	.LVL39:
 650              		.loc 1 429 0
 651 0198 18EAD004 		e_ori %r10,%r7,4
 652 019c 7CEA3B9E 		isel %r7,%r10,%r7,14
 653              	.LVL40:
 654              		.loc 1 433 0
 655 01a0 18E9D010 		e_ori %r9,%r7,16
 656 01a4 7CE9399E 		isel %r7,%r9,%r7,6
 657              	.LVL41:
 658              		.loc 1 436 0
 659 01a8 4467     		se_or %r7,%r6
 660              	.LVL42:
 661              		.loc 1 439 0
 662 01aa 18E6D080 		e_ori %r6,%r7,128
 663 01ae 7CE6389E 		isel %r7,%r6,%r7,2
 664              	.LVL43:
 665              		.loc 1 441 0
 666 01b2 4257     		se_slw %r7, %r5
 667              	.LVL44:
 668 01b4 7CE75B78 		or %r7,%r7,%r11
 669 01b8 D27F     		se_stw %r7,8(%r31)
 670              	.LVL45:
 671              	.L34:
 672 01ba 2030     		se_addi %r0,4
 673              		.loc 1 416 0 discriminator 2
 674 01bc 7A20FF96 		e_bdnz .L39
 675 01c0 70E0E000 		e_lis %r7,.LANCHOR0@ha
 676 01c4 50870000 		e_lwz %r4,.LANCHOR0@l(%r7)
 677              	.LVL46:
 678 01c8 79FFFE58 		e_b .L40
 679              		.cfi_endproc
 680              	.LFE8:
 681              		.size	wkpu_lld_start, .-wkpu_lld_start
 682              		.section	.text.wkpu_lld_stop,"axv",@progbits
 683              		.align 1
 684              		.p2align 4,,15
GAS LISTING C:\Users\Vipuls\AppData\Local\Temp\cctXFpLg.s 			page 13


 685              		.globl wkpu_lld_stop
 686              		.type	wkpu_lld_stop, @function
 687              	wkpu_lld_stop:
 688              	.LFB9:
 689              		.loc 1 487 0
 690              		.cfi_startproc
 691              	.LVL47:
 692              		.loc 1 490 0
 693 0000 70E0E000 		e_lis %r7,.LANCHOR0@ha
 694 0004 1CE70000 		e_la %r7,.LANCHOR0@l(%r7)
 695 0008 0C73     		se_cmp %r3,%r7
 696 000a 7A120026 		e_beq %cr0,.L61
 697              		.loc 1 498 0
 698 000e C163     		se_lwz %r6,4(%r3)
 699 0010 4807     		se_li %r7,0
 700 0012 D676     		se_stw %r7,24(%r6)
 701              		.loc 1 501 0
 702 0014 C163     		se_lwz %r6,4(%r3)
 703 0016 D776     		se_stw %r7,28(%r6)
 704              		.loc 1 504 0
 705 0018 C163     		se_lwz %r6,4(%r3)
 706 001a DA76     		se_stw %r7,40(%r6)
 707              		.loc 1 507 0
 708 001c C163     		se_lwz %r6,4(%r3)
 709 001e DB76     		se_stw %r7,44(%r6)
 710              		.loc 1 510 0
 711 0020 C163     		se_lwz %r6,4(%r3)
 712 0022 DC76     		se_stw %r7,48(%r6)
 713              		.loc 1 513 0
 714 0024 C163     		se_lwz %r6,4(%r3)
 715 0026 DD76     		se_stw %r7,52(%r6)
 716              		.loc 1 525 0
 717 0028 2C06     		se_bmaski %r6,0
 718 002a C173     		se_lwz %r7,4(%r3)
 719 002c D567     		se_stw %r6,20(%r7)
 720 002e 0004     		se_blr
 721              	.L61:
 722              		.loc 1 492 0
 723 0030 C173     		se_lwz %r7,4(%r3)
 724 0032 4806     		se_li %r6,0
 725 0034 D267     		se_stw %r6,8(%r7)
 726              		.loc 1 498 0
 727 0036 D667     		se_stw %r6,24(%r7)
 728              		.loc 1 501 0
 729 0038 D767     		se_stw %r6,28(%r7)
 730              		.loc 1 504 0
 731 003a DA67     		se_stw %r6,40(%r7)
 732              		.loc 1 507 0
 733 003c DB67     		se_stw %r6,44(%r7)
 734              		.loc 1 510 0
 735 003e DC67     		se_stw %r6,48(%r7)
 736              		.loc 1 513 0
 737 0040 DD67     		se_stw %r6,52(%r7)
 738              		.loc 1 519 0
 739 0042 70D8E0C0 		e_lis %r6,0xc0c0
 740 0046 70D8C0C0 		e_or2i %r6,49344
 741 004a D067     		se_stw %r6,0(%r7)
GAS LISTING C:\Users\Vipuls\AppData\Local\Temp\cctXFpLg.s 			page 14


 742              		.loc 1 525 0
 743 004c 2C06     		se_bmaski %r6,0
 744 004e C173     		se_lwz %r7,4(%r3)
 745 0050 D567     		se_stw %r6,20(%r7)
 746 0052 0004     		se_blr
 747              		.cfi_endproc
 748              	.LFE9:
 749              		.size	wkpu_lld_stop, .-wkpu_lld_stop
 750              		.globl WKPUD1
 751              		.section	.bss.WKPUD1,"aw",@nobits
 752              		.align 2
 753              		.set	.LANCHOR0,. + 0
 754              		.type	WKPUD1, @object
 755              		.size	WKPUD1, 8
 756              	WKPUD1:
 757 0000 00000000 		.zero	8
 757      00000000 
 758              		.section	".text","axv"
 759              	.Letext0:
 760              		.file 2 "c:\\autodevkitstudio-2.4.0\\eclipse\\plugins\\com.st.tools.spc5.tools.gnu.gcc.ppcvle.win3
 761              		.file 3 "c:\\autodevkitstudio-2.4.0\\eclipse\\plugins\\com.st.tools.spc5.tools.gnu.gcc.ppcvle.win3
 762              		.file 4 "./components/spc58ecxx_platform_component_rla/lib/include/typedefs.h"
 763              		.file 5 "./components/spc58ecxx_low_level_drivers_component_rla/lib/include/spc5_wkpu.h"
 764              		.file 6 "./components/spc58ecxx_low_level_drivers_component_rla/lib/include/wkpu_lld.h"