Archive member included to satisfy reference by file (symbol)

c:/autodevkitstudio-2.4.0/eclipse/plugins/com.st.tools.spc5.tools.gnu.gcc.ppcvle.win32_4.9.4.20200908161514/toolchain/bin/../lib/gcc/powerpc-eabivle/4.9.4/../../../../powerpc-eabivle/lib/e200z4\libm.a(lib_a-wf_exp.o)
                              build/obj/BMS_Controller.o (expf)
c:/autodevkitstudio-2.4.0/eclipse/plugins/com.st.tools.spc5.tools.gnu.gcc.ppcvle.win32_4.9.4.20200908161514/toolchain/bin/../lib/gcc/powerpc-eabivle/4.9.4/../../../../powerpc-eabivle/lib/e200z4\libm.a(lib_a-w_log.o)
                              build/obj/main.o (log)
c:/autodevkitstudio-2.4.0/eclipse/plugins/com.st.tools.spc5.tools.gnu.gcc.ppcvle.win32_4.9.4.20200908161514/toolchain/bin/../lib/gcc/powerpc-eabivle/4.9.4/../../../../powerpc-eabivle/lib/e200z4\libm.a(lib_a-ef_exp.o)
                              c:/autodevkitstudio-2.4.0/eclipse/plugins/com.st.tools.spc5.tools.gnu.gcc.ppcvle.win32_4.9.4.20200908161514/toolchain/bin/../lib/gcc/powerpc-eabivle/4.9.4/../../../../powerpc-eabivle/lib/e200z4\libm.a(lib_a-wf_exp.o) (__ieee754_expf)
c:/autodevkitstudio-2.4.0/eclipse/plugins/com.st.tools.spc5.tools.gnu.gcc.ppcvle.win32_4.9.4.20200908161514/toolchain/bin/../lib/gcc/powerpc-eabivle/4.9.4/../../../../powerpc-eabivle/lib/e200z4\libm.a(lib_a-e_log.o)
                              c:/autodevkitstudio-2.4.0/eclipse/plugins/com.st.tools.spc5.tools.gnu.gcc.ppcvle.win32_4.9.4.20200908161514/toolchain/bin/../lib/gcc/powerpc-eabivle/4.9.4/../../../../powerpc-eabivle/lib/e200z4\libm.a(lib_a-w_log.o) (__ieee754_log)
c:/autodevkitstudio-2.4.0/eclipse/plugins/com.st.tools.spc5.tools.gnu.gcc.ppcvle.win32_4.9.4.20200908161514/toolchain/bin/../lib/gcc/powerpc-eabivle/4.9.4/../../../../powerpc-eabivle/lib/e200z4\libm.a(lib_a-sf_finite.o)
                              c:/autodevkitstudio-2.4.0/eclipse/plugins/com.st.tools.spc5.tools.gnu.gcc.ppcvle.win32_4.9.4.20200908161514/toolchain/bin/../lib/gcc/powerpc-eabivle/4.9.4/../../../../powerpc-eabivle/lib/e200z4\libm.a(lib_a-wf_exp.o) (finitef)
c:/autodevkitstudio-2.4.0/eclipse/plugins/com.st.tools.spc5.tools.gnu.gcc.ppcvle.win32_4.9.4.20200908161514/toolchain/bin/../lib/gcc/powerpc-eabivle/4.9.4/../../../../powerpc-eabivle/lib/e200z4\libm.a(lib_a-s_fpclassify.o)
                              c:/autodevkitstudio-2.4.0/eclipse/plugins/com.st.tools.spc5.tools.gnu.gcc.ppcvle.win32_4.9.4.20200908161514/toolchain/bin/../lib/gcc/powerpc-eabivle/4.9.4/../../../../powerpc-eabivle/lib/e200z4\libm.a(lib_a-w_log.o) (__fpclassifyd)
c:/autodevkitstudio-2.4.0/eclipse/plugins/com.st.tools.spc5.tools.gnu.gcc.ppcvle.win32_4.9.4.20200908161514/toolchain/bin/../lib/gcc/powerpc-eabivle/4.9.4/../../../../powerpc-eabivle/lib/e200z4\libm.a(lib_a-s_lib_ver.o)
                              c:/autodevkitstudio-2.4.0/eclipse/plugins/com.st.tools.spc5.tools.gnu.gcc.ppcvle.win32_4.9.4.20200908161514/toolchain/bin/../lib/gcc/powerpc-eabivle/4.9.4/../../../../powerpc-eabivle/lib/e200z4\libm.a(lib_a-wf_exp.o) (__fdlib_version)
c:/autodevkitstudio-2.4.0/eclipse/plugins/com.st.tools.spc5.tools.gnu.gcc.ppcvle.win32_4.9.4.20200908161514/toolchain/bin/../lib/gcc/powerpc-eabivle/4.9.4/../../../../powerpc-eabivle/lib/e200z4\libm.a(lib_a-s_matherr.o)
                              c:/autodevkitstudio-2.4.0/eclipse/plugins/com.st.tools.spc5.tools.gnu.gcc.ppcvle.win32_4.9.4.20200908161514/toolchain/bin/../lib/gcc/powerpc-eabivle/4.9.4/../../../../powerpc-eabivle/lib/e200z4\libm.a(lib_a-wf_exp.o) (matherr)
c:/autodevkitstudio-2.4.0/eclipse/plugins/com.st.tools.spc5.tools.gnu.gcc.ppcvle.win32_4.9.4.20200908161514/toolchain/bin/../lib/gcc/powerpc-eabivle/4.9.4/../../../../powerpc-eabivle/lib/e200z4\libm.a(lib_a-s_nan.o)
                              c:/autodevkitstudio-2.4.0/eclipse/plugins/com.st.tools.spc5.tools.gnu.gcc.ppcvle.win32_4.9.4.20200908161514/toolchain/bin/../lib/gcc/powerpc-eabivle/4.9.4/../../../../powerpc-eabivle/lib/e200z4\libm.a(lib_a-w_log.o) (nan)
c:/autodevkitstudio-2.4.0/eclipse/plugins/com.st.tools.spc5.tools.gnu.gcc.ppcvle.win32_4.9.4.20200908161514/toolchain/bin/../lib/gcc/powerpc-eabivle/4.9.4/../../../../powerpc-eabivle/lib/e200z4\libc.a(lib_a-errno.o)
                              c:/autodevkitstudio-2.4.0/eclipse/plugins/com.st.tools.spc5.tools.gnu.gcc.ppcvle.win32_4.9.4.20200908161514/toolchain/bin/../lib/gcc/powerpc-eabivle/4.9.4/../../../../powerpc-eabivle/lib/e200z4\libm.a(lib_a-wf_exp.o) (__errno)
c:/autodevkitstudio-2.4.0/eclipse/plugins/com.st.tools.spc5.tools.gnu.gcc.ppcvle.win32_4.9.4.20200908161514/toolchain/bin/../lib/gcc/powerpc-eabivle/4.9.4/../../../../powerpc-eabivle/lib/e200z4\libc.a(lib_a-impure.o)
                              c:/autodevkitstudio-2.4.0/eclipse/plugins/com.st.tools.spc5.tools.gnu.gcc.ppcvle.win32_4.9.4.20200908161514/toolchain/bin/../lib/gcc/powerpc-eabivle/4.9.4/../../../../powerpc-eabivle/lib/e200z4\libc.a(lib_a-errno.o) (_impure_ptr)
c:/autodevkitstudio-2.4.0/eclipse/plugins/com.st.tools.spc5.tools.gnu.gcc.ppcvle.win32_4.9.4.20200908161514/toolchain/bin/../lib/gcc/powerpc-eabivle/4.9.4/../../../../powerpc-eabivle/lib/e200z4\libc.a(lib_a-memcpy.o)
                              build/obj/main.o (memcpy)
c:/autodevkitstudio-2.4.0/eclipse/plugins/com.st.tools.spc5.tools.gnu.gcc.ppcvle.win32_4.9.4.20200908161514/toolchain/bin/../lib/gcc/powerpc-eabivle/4.9.4/../../../../powerpc-eabivle/lib/e200z4\libc.a(lib_a-memset.o)
                              build/obj/osal.o (memset)
c:/autodevkitstudio-2.4.0/eclipse/plugins/com.st.tools.spc5.tools.gnu.gcc.ppcvle.win32_4.9.4.20200908161514/toolchain/bin/../lib/gcc/powerpc-eabivle/4.9.4/e200z4\libgcc.a(_fixunssfsi.o)
                              build/obj/main.o (__fixunssfsi)
c:/autodevkitstudio-2.4.0/eclipse/plugins/com.st.tools.spc5.tools.gnu.gcc.ppcvle.win32_4.9.4.20200908161514/toolchain/bin/../lib/gcc/powerpc-eabivle/4.9.4/e200z4\libgcc.a(_fixunsdfsi.o)
                              build/obj/AEK_POW_BMS63EN_id.o (__fixunsdfsi)
c:/autodevkitstudio-2.4.0/eclipse/plugins/com.st.tools.spc5.tools.gnu.gcc.ppcvle.win32_4.9.4.20200908161514/toolchain/bin/../lib/gcc/powerpc-eabivle/4.9.4/e200z4\libgcc.a(_udivdi3.o)
                              build/obj/pit_lld.o (__udivdi3)
c:/autodevkitstudio-2.4.0/eclipse/plugins/com.st.tools.spc5.tools.gnu.gcc.ppcvle.win32_4.9.4.20200908161514/toolchain/bin/../lib/gcc/powerpc-eabivle/4.9.4/e200z4\libgcc.a(_addsub_sf.o)
                              build/obj/AEK_POW_BMS63EN_id.o (__addsf3)
c:/autodevkitstudio-2.4.0/eclipse/plugins/com.st.tools.spc5.tools.gnu.gcc.ppcvle.win32_4.9.4.20200908161514/toolchain/bin/../lib/gcc/powerpc-eabivle/4.9.4/e200z4\libgcc.a(_mul_sf.o)
                              build/obj/AEK_POW_BMS63EN_id.o (__mulsf3)
c:/autodevkitstudio-2.4.0/eclipse/plugins/com.st.tools.spc5.tools.gnu.gcc.ppcvle.win32_4.9.4.20200908161514/toolchain/bin/../lib/gcc/powerpc-eabivle/4.9.4/e200z4\libgcc.a(_div_sf.o)
                              build/obj/AEK_POW_BMS63EN_id.o (__divsf3)
c:/autodevkitstudio-2.4.0/eclipse/plugins/com.st.tools.spc5.tools.gnu.gcc.ppcvle.win32_4.9.4.20200908161514/toolchain/bin/../lib/gcc/powerpc-eabivle/4.9.4/e200z4\libgcc.a(_gt_sf.o)
                              build/obj/AEK_POW_BMS63EN_id.o (__gtsf2)
c:/autodevkitstudio-2.4.0/eclipse/plugins/com.st.tools.spc5.tools.gnu.gcc.ppcvle.win32_4.9.4.20200908161514/toolchain/bin/../lib/gcc/powerpc-eabivle/4.9.4/e200z4\libgcc.a(_ge_sf.o)
                              build/obj/BMS_Controller.o (__gesf2)
c:/autodevkitstudio-2.4.0/eclipse/plugins/com.st.tools.spc5.tools.gnu.gcc.ppcvle.win32_4.9.4.20200908161514/toolchain/bin/../lib/gcc/powerpc-eabivle/4.9.4/e200z4\libgcc.a(_lt_sf.o)
                              build/obj/BMS_Controller.o (__ltsf2)
c:/autodevkitstudio-2.4.0/eclipse/plugins/com.st.tools.spc5.tools.gnu.gcc.ppcvle.win32_4.9.4.20200908161514/toolchain/bin/../lib/gcc/powerpc-eabivle/4.9.4/e200z4\libgcc.a(_le_sf.o)
                              build/obj/BMS_Controller.o (__lesf2)
c:/autodevkitstudio-2.4.0/eclipse/plugins/com.st.tools.spc5.tools.gnu.gcc.ppcvle.win32_4.9.4.20200908161514/toolchain/bin/../lib/gcc/powerpc-eabivle/4.9.4/e200z4\libgcc.a(_si_to_sf.o)
                              build/obj/AEK_POW_BMS63EN_id.o (__floatsisf)
c:/autodevkitstudio-2.4.0/eclipse/plugins/com.st.tools.spc5.tools.gnu.gcc.ppcvle.win32_4.9.4.20200908161514/toolchain/bin/../lib/gcc/powerpc-eabivle/4.9.4/e200z4\libgcc.a(_sf_to_si.o)
                              c:/autodevkitstudio-2.4.0/eclipse/plugins/com.st.tools.spc5.tools.gnu.gcc.ppcvle.win32_4.9.4.20200908161514/toolchain/bin/../lib/gcc/powerpc-eabivle/4.9.4/../../../../powerpc-eabivle/lib/e200z4\libm.a(lib_a-ef_exp.o) (__fixsfsi)
c:/autodevkitstudio-2.4.0/eclipse/plugins/com.st.tools.spc5.tools.gnu.gcc.ppcvle.win32_4.9.4.20200908161514/toolchain/bin/../lib/gcc/powerpc-eabivle/4.9.4/e200z4\libgcc.a(_sf_to_df.o)
                              build/obj/AEK_POW_BMS63EN_id.o (__extendsfdf2)
c:/autodevkitstudio-2.4.0/eclipse/plugins/com.st.tools.spc5.tools.gnu.gcc.ppcvle.win32_4.9.4.20200908161514/toolchain/bin/../lib/gcc/powerpc-eabivle/4.9.4/e200z4\libgcc.a(_thenan_sf.o)
                              c:/autodevkitstudio-2.4.0/eclipse/plugins/com.st.tools.spc5.tools.gnu.gcc.ppcvle.win32_4.9.4.20200908161514/toolchain/bin/../lib/gcc/powerpc-eabivle/4.9.4/e200z4\libgcc.a(_addsub_sf.o) (__thenan_sf)
c:/autodevkitstudio-2.4.0/eclipse/plugins/com.st.tools.spc5.tools.gnu.gcc.ppcvle.win32_4.9.4.20200908161514/toolchain/bin/../lib/gcc/powerpc-eabivle/4.9.4/e200z4\libgcc.a(_usi_to_sf.o)
                              build/obj/AEK_POW_BMS63EN_id.o (__floatunsisf)
c:/autodevkitstudio-2.4.0/eclipse/plugins/com.st.tools.spc5.tools.gnu.gcc.ppcvle.win32_4.9.4.20200908161514/toolchain/bin/../lib/gcc/powerpc-eabivle/4.9.4/e200z4\libgcc.a(_addsub_df.o)
                              build/obj/main.o (__adddf3)
c:/autodevkitstudio-2.4.0/eclipse/plugins/com.st.tools.spc5.tools.gnu.gcc.ppcvle.win32_4.9.4.20200908161514/toolchain/bin/../lib/gcc/powerpc-eabivle/4.9.4/e200z4\libgcc.a(_mul_df.o)
                              build/obj/AEK_POW_BMS63EN_id.o (__muldf3)
c:/autodevkitstudio-2.4.0/eclipse/plugins/com.st.tools.spc5.tools.gnu.gcc.ppcvle.win32_4.9.4.20200908161514/toolchain/bin/../lib/gcc/powerpc-eabivle/4.9.4/e200z4\libgcc.a(_div_df.o)
                              build/obj/AEK_POW_BMS63EN_id.o (__divdf3)
c:/autodevkitstudio-2.4.0/eclipse/plugins/com.st.tools.spc5.tools.gnu.gcc.ppcvle.win32_4.9.4.20200908161514/toolchain/bin/../lib/gcc/powerpc-eabivle/4.9.4/e200z4\libgcc.a(_eq_df.o)
                              c:/autodevkitstudio-2.4.0/eclipse/plugins/com.st.tools.spc5.tools.gnu.gcc.ppcvle.win32_4.9.4.20200908161514/toolchain/bin/../lib/gcc/powerpc-eabivle/4.9.4/../../../../powerpc-eabivle/lib/e200z4\libm.a(lib_a-w_log.o) (__eqdf2)
c:/autodevkitstudio-2.4.0/eclipse/plugins/com.st.tools.spc5.tools.gnu.gcc.ppcvle.win32_4.9.4.20200908161514/toolchain/bin/../lib/gcc/powerpc-eabivle/4.9.4/e200z4\libgcc.a(_gt_df.o)
                              c:/autodevkitstudio-2.4.0/eclipse/plugins/com.st.tools.spc5.tools.gnu.gcc.ppcvle.win32_4.9.4.20200908161514/toolchain/bin/../lib/gcc/powerpc-eabivle/4.9.4/../../../../powerpc-eabivle/lib/e200z4\libm.a(lib_a-w_log.o) (__gtdf2)
c:/autodevkitstudio-2.4.0/eclipse/plugins/com.st.tools.spc5.tools.gnu.gcc.ppcvle.win32_4.9.4.20200908161514/toolchain/bin/../lib/gcc/powerpc-eabivle/4.9.4/e200z4\libgcc.a(_ge_df.o)
                              c:/autodevkitstudio-2.4.0/eclipse/plugins/com.st.tools.spc5.tools.gnu.gcc.ppcvle.win32_4.9.4.20200908161514/toolchain/bin/../lib/gcc/powerpc-eabivle/4.9.4/e200z4\libgcc.a(_fixunsdfsi.o) (__gedf2)
c:/autodevkitstudio-2.4.0/eclipse/plugins/com.st.tools.spc5.tools.gnu.gcc.ppcvle.win32_4.9.4.20200908161514/toolchain/bin/../lib/gcc/powerpc-eabivle/4.9.4/e200z4\libgcc.a(_si_to_df.o)
                              build/obj/AEK_POW_BMS63EN_id.o (__floatsidf)
c:/autodevkitstudio-2.4.0/eclipse/plugins/com.st.tools.spc5.tools.gnu.gcc.ppcvle.win32_4.9.4.20200908161514/toolchain/bin/../lib/gcc/powerpc-eabivle/4.9.4/e200z4\libgcc.a(_df_to_si.o)
                              c:/autodevkitstudio-2.4.0/eclipse/plugins/com.st.tools.spc5.tools.gnu.gcc.ppcvle.win32_4.9.4.20200908161514/toolchain/bin/../lib/gcc/powerpc-eabivle/4.9.4/e200z4\libgcc.a(_fixunsdfsi.o) (__fixdfsi)
c:/autodevkitstudio-2.4.0/eclipse/plugins/com.st.tools.spc5.tools.gnu.gcc.ppcvle.win32_4.9.4.20200908161514/toolchain/bin/../lib/gcc/powerpc-eabivle/4.9.4/e200z4\libgcc.a(_make_df.o)
                              c:/autodevkitstudio-2.4.0/eclipse/plugins/com.st.tools.spc5.tools.gnu.gcc.ppcvle.win32_4.9.4.20200908161514/toolchain/bin/../lib/gcc/powerpc-eabivle/4.9.4/e200z4\libgcc.a(_sf_to_df.o) (__make_dp)
c:/autodevkitstudio-2.4.0/eclipse/plugins/com.st.tools.spc5.tools.gnu.gcc.ppcvle.win32_4.9.4.20200908161514/toolchain/bin/../lib/gcc/powerpc-eabivle/4.9.4/e200z4\libgcc.a(_df_to_sf.o)
                              build/obj/AEK_POW_BMS63EN_id.o (__truncdfsf2)
c:/autodevkitstudio-2.4.0/eclipse/plugins/com.st.tools.spc5.tools.gnu.gcc.ppcvle.win32_4.9.4.20200908161514/toolchain/bin/../lib/gcc/powerpc-eabivle/4.9.4/e200z4\libgcc.a(_thenan_df.o)
                              c:/autodevkitstudio-2.4.0/eclipse/plugins/com.st.tools.spc5.tools.gnu.gcc.ppcvle.win32_4.9.4.20200908161514/toolchain/bin/../lib/gcc/powerpc-eabivle/4.9.4/e200z4\libgcc.a(_addsub_df.o) (__thenan_df)
c:/autodevkitstudio-2.4.0/eclipse/plugins/com.st.tools.spc5.tools.gnu.gcc.ppcvle.win32_4.9.4.20200908161514/toolchain/bin/../lib/gcc/powerpc-eabivle/4.9.4/e200z4\libgcc.a(e200crtresxgpr.o)
                              c:/autodevkitstudio-2.4.0/eclipse/plugins/com.st.tools.spc5.tools.gnu.gcc.ppcvle.win32_4.9.4.20200908161514/toolchain/bin/../lib/gcc/powerpc-eabivle/4.9.4/../../../../powerpc-eabivle/lib/e200z4\libm.a(lib_a-e_log.o) (_restgpr_20_x)
c:/autodevkitstudio-2.4.0/eclipse/plugins/com.st.tools.spc5.tools.gnu.gcc.ppcvle.win32_4.9.4.20200908161514/toolchain/bin/../lib/gcc/powerpc-eabivle/4.9.4/e200z4\libgcc.a(_pack_sf.o)
                              c:/autodevkitstudio-2.4.0/eclipse/plugins/com.st.tools.spc5.tools.gnu.gcc.ppcvle.win32_4.9.4.20200908161514/toolchain/bin/../lib/gcc/powerpc-eabivle/4.9.4/e200z4\libgcc.a(_addsub_sf.o) (__pack_f)
c:/autodevkitstudio-2.4.0/eclipse/plugins/com.st.tools.spc5.tools.gnu.gcc.ppcvle.win32_4.9.4.20200908161514/toolchain/bin/../lib/gcc/powerpc-eabivle/4.9.4/e200z4\libgcc.a(_unpack_sf.o)
                              c:/autodevkitstudio-2.4.0/eclipse/plugins/com.st.tools.spc5.tools.gnu.gcc.ppcvle.win32_4.9.4.20200908161514/toolchain/bin/../lib/gcc/powerpc-eabivle/4.9.4/e200z4\libgcc.a(_addsub_sf.o) (__unpack_f)
c:/autodevkitstudio-2.4.0/eclipse/plugins/com.st.tools.spc5.tools.gnu.gcc.ppcvle.win32_4.9.4.20200908161514/toolchain/bin/../lib/gcc/powerpc-eabivle/4.9.4/e200z4\libgcc.a(_fpcmp_parts_sf.o)
                              c:/autodevkitstudio-2.4.0/eclipse/plugins/com.st.tools.spc5.tools.gnu.gcc.ppcvle.win32_4.9.4.20200908161514/toolchain/bin/../lib/gcc/powerpc-eabivle/4.9.4/e200z4\libgcc.a(_gt_sf.o) (__fpcmp_parts_f)
c:/autodevkitstudio-2.4.0/eclipse/plugins/com.st.tools.spc5.tools.gnu.gcc.ppcvle.win32_4.9.4.20200908161514/toolchain/bin/../lib/gcc/powerpc-eabivle/4.9.4/e200z4\libgcc.a(_make_sf.o)
                              c:/autodevkitstudio-2.4.0/eclipse/plugins/com.st.tools.spc5.tools.gnu.gcc.ppcvle.win32_4.9.4.20200908161514/toolchain/bin/../lib/gcc/powerpc-eabivle/4.9.4/e200z4\libgcc.a(_df_to_sf.o) (__make_fp)
c:/autodevkitstudio-2.4.0/eclipse/plugins/com.st.tools.spc5.tools.gnu.gcc.ppcvle.win32_4.9.4.20200908161514/toolchain/bin/../lib/gcc/powerpc-eabivle/4.9.4/e200z4\libgcc.a(_pack_df.o)
                              c:/autodevkitstudio-2.4.0/eclipse/plugins/com.st.tools.spc5.tools.gnu.gcc.ppcvle.win32_4.9.4.20200908161514/toolchain/bin/../lib/gcc/powerpc-eabivle/4.9.4/e200z4\libgcc.a(_addsub_df.o) (__pack_d)
c:/autodevkitstudio-2.4.0/eclipse/plugins/com.st.tools.spc5.tools.gnu.gcc.ppcvle.win32_4.9.4.20200908161514/toolchain/bin/../lib/gcc/powerpc-eabivle/4.9.4/e200z4\libgcc.a(_unpack_df.o)
                              c:/autodevkitstudio-2.4.0/eclipse/plugins/com.st.tools.spc5.tools.gnu.gcc.ppcvle.win32_4.9.4.20200908161514/toolchain/bin/../lib/gcc/powerpc-eabivle/4.9.4/e200z4\libgcc.a(_addsub_df.o) (__unpack_d)
c:/autodevkitstudio-2.4.0/eclipse/plugins/com.st.tools.spc5.tools.gnu.gcc.ppcvle.win32_4.9.4.20200908161514/toolchain/bin/../lib/gcc/powerpc-eabivle/4.9.4/e200z4\libgcc.a(_fpcmp_parts_df.o)
                              c:/autodevkitstudio-2.4.0/eclipse/plugins/com.st.tools.spc5.tools.gnu.gcc.ppcvle.win32_4.9.4.20200908161514/toolchain/bin/../lib/gcc/powerpc-eabivle/4.9.4/e200z4\libgcc.a(_eq_df.o) (__fpcmp_parts_d)

Discarded input sections

 .text          0x00000000        0x0 build/obj/boot.o
 .data          0x00000000        0x0 build/obj/boot.o
 .bss           0x00000000        0x0 build/obj/boot.o
 .text          0x00000000        0x0 build/obj/crt0.o
 .data          0x00000000        0x0 build/obj/crt0.o
 .bss           0x00000000        0x0 build/obj/crt0.o
 .text          0x00000000        0x0 build/obj/vectors.o
 .data          0x00000000        0x0 build/obj/vectors.o
 .bss           0x00000000        0x0 build/obj/vectors.o
 .text          0x00000000        0x0 build/obj/ivor.o
 .data          0x00000000        0x0 build/obj/ivor.o
 .bss           0x00000000        0x0 build/obj/ivor.o
 .text          0x00000000        0x0 build/obj/core0.o
 .data          0x00000000        0x0 build/obj/core0.o
 .bss           0x00000000        0x0 build/obj/core0.o
 .text.runCore0
                0x00000000       0x4e build/obj/core0.o
 .text          0x00000000        0x0 build/obj/cache.o
 .data          0x00000000        0x0 build/obj/cache.o
 .bss           0x00000000        0x0 build/obj/cache.o
 .text.idc_exist
                0x00000000       0x38 build/obj/cache.o
 .text.idc_invalidate.constprop.1
                0x00000000       0xf4 build/obj/cache.o
 .text.cache_get_status
                0x00000000       0x42 build/obj/cache.o
 .text.cache_enable
                0x00000000       0x6a build/obj/cache.o
 .text.cache_set_control
                0x00000000       0x5a build/obj/cache.o
 .text.cache_disable
                0x00000000       0x64 build/obj/cache.o
 .text.cache_get_cfg
                0x00000000       0x2a build/obj/cache.o
 .text.cache_invalidate
                0x00000000       0x3e build/obj/cache.o
 .text.cache_flush_range
                0x00000000       0x26 build/obj/cache.o
 .text.cache_invalidate_range
                0x00000000       0x36 build/obj/cache.o
 .text          0x00000000        0x0 build/obj/spc5_lld.o
 .data          0x00000000        0x0 build/obj/spc5_lld.o
 .bss           0x00000000        0x0 build/obj/spc5_lld.o
 .text          0x00000000        0x0 build/obj/spc5_edma.o
 .data          0x00000000        0x0 build/obj/spc5_edma.o
 .bss           0x00000000        0x0 build/obj/spc5_edma.o
 .text.edmaChannelAllocate
                0x00000000       0xd0 build/obj/spc5_edma.o
 .text.edmaChannelRelease
                0x00000000       0xec build/obj/spc5_edma.o
 .text          0x00000000        0x0 build/obj/can_lld.o
 .data          0x00000000        0x0 build/obj/can_lld.o
 .bss           0x00000000        0x0 build/obj/can_lld.o
 .text.can_lld_stop
                0x00000000       0x76 build/obj/can_lld.o
 .text.can_lld_receive
                0x00000000      0x1b4 build/obj/can_lld.o
 .text          0x00000000        0x0 build/obj/serial_lld.o
 .data          0x00000000        0x0 build/obj/serial_lld.o
 .bss           0x00000000        0x0 build/obj/serial_lld.o
 .text.sd_lld_stop
                0x00000000       0x32 build/obj/serial_lld.o
 .text.sd_lld_write
                0x00000000       0xa8 build/obj/serial_lld.o
 .text.sd_lld_read
                0x00000000       0xec build/obj/serial_lld.o
 .text          0x00000000        0x0 build/obj/pit_lld.o
 .data          0x00000000        0x0 build/obj/pit_lld.o
 .bss           0x00000000        0x0 build/obj/pit_lld.o
 .text.pit_lld_channel_set_freq
                0x00000000       0xa4 build/obj/pit_lld.o
 .text.pit_lld_channel_stop
                0x00000000       0x2e build/obj/pit_lld.o
 .text.pit_lld_channel_get
                0x00000000       0x94 build/obj/pit_lld.o
 .text.pit_lld_lifetime_start
                0x00000000       0x50 build/obj/pit_lld.o
 .text.pit_lld_lifetime_stop
                0x00000000       0x22 build/obj/pit_lld.o
 .text.pit_lld_lifetime_get
                0x00000000       0x4e build/obj/pit_lld.o
 .text.pit_lld_stop
                0x00000000        0x6 build/obj/pit_lld.o
 .text          0x00000000        0x0 build/obj/spi_lld.o
 .data          0x00000000        0x0 build/obj/spi_lld.o
 .bss           0x00000000        0x0 build/obj/spi_lld.o
 .text.spi_lld_stop
                0x00000000       0x3e build/obj/spi_lld.o
 .text.spi_lld_select
                0x00000000       0x18 build/obj/spi_lld.o
 .text.spi_lld_unselect
                0x00000000       0x18 build/obj/spi_lld.o
 .text.spi_lld_ignore
                0x00000000       0x6c build/obj/spi_lld.o
 .text.spi_lld_send
                0x00000000       0x82 build/obj/spi_lld.o
 .text.spi_lld_polled_exchange
                0x00000000       0x54 build/obj/spi_lld.o
 .text          0x00000000        0x0 build/obj/wkpu_lld.o
 .data          0x00000000        0x0 build/obj/wkpu_lld.o
 .bss           0x00000000        0x0 build/obj/wkpu_lld.o
 .text.wkpu_lld_stop
                0x00000000       0x54 build/obj/wkpu_lld.o
 .text          0x00000000        0x0 build/obj/spc5_linflex.o
 .data          0x00000000        0x0 build/obj/spc5_linflex.o
 .bss           0x00000000        0x0 build/obj/spc5_linflex.o
 .text          0x00000000        0x0 build/obj/AEK_COM_ISOSPI1_lld.o
 .data          0x00000000        0x0 build/obj/AEK_COM_ISOSPI1_lld.o
 .bss           0x00000000        0x0 build/obj/AEK_COM_ISOSPI1_lld.o
 .text.l9963t_PALWritePad
                0x00000000       0x44 build/obj/AEK_COM_ISOSPI1_lld.o
 .text.l9963t_PALReadPad
                0x00000000       0x2c build/obj/AEK_COM_ISOSPI1_lld.o
 .text.AEK_COM_ISOSPI_DisableTransceiverComm
                0x00000000       0x3c build/obj/AEK_COM_ISOSPI1_lld.o
 .text.AEK_COM_ISOSPI_SetAsMaster
                0x00000000       0x3c build/obj/AEK_COM_ISOSPI1_lld.o
 .text.AEK_COM_ISOSPI_SampleSDI_firstclk
                0x00000000       0x3c build/obj/AEK_COM_ISOSPI1_lld.o
 .text.AEK_COM_ISOSPI_SampleSDI_secondclk
                0x00000000       0x3c build/obj/AEK_COM_ISOSPI1_lld.o
 .text.AEK_COM_ISOSPI_CPOL_low
                0x00000000       0x3c build/obj/AEK_COM_ISOSPI1_lld.o
 .text.AEK_COM_ISOSPI_CPOL_high
                0x00000000       0x3c build/obj/AEK_COM_ISOSPI1_lld.o
 .text.AEK_COM_ISOSPI_DisableTransceiver
                0x00000000       0x3c build/obj/AEK_COM_ISOSPI1_lld.o
 .text.AEK_COM_ISOSPI_SetISOCommSlow
                0x00000000       0x3c build/obj/AEK_COM_ISOSPI1_lld.o
 .text.AEK_COM_ISOSPI_SetISOCommFast
                0x00000000       0x3c build/obj/AEK_COM_ISOSPI1_lld.o
 .text.AEK_COM_ISOSPI_ISOTX_Amplify
                0x00000000       0x3c build/obj/AEK_COM_ISOSPI1_lld.o
 .text.AEK_COM_ISOSPI_ConfigMode
                0x00000000       0x48 build/obj/AEK_COM_ISOSPI1_lld.o
 .text.AEK_COM_ISOSPI_ConfigISOAmp
                0x00000000       0x48 build/obj/AEK_COM_ISOSPI1_lld.o
 .text.AEK_COM_ISOSPI_ConfigCPOL
                0x00000000       0x48 build/obj/AEK_COM_ISOSPI1_lld.o
 .text.AEK_COM_ISOSPI_ConfigCPHA
                0x00000000       0x48 build/obj/AEK_COM_ISOSPI1_lld.o
 .text.config_Transceiver
                0x00000000       0x56 build/obj/AEK_COM_ISOSPI1_lld.o
 .text.debug_config
                0x00000000      0x1de build/obj/AEK_COM_ISOSPI1_lld.o
 .text.slave_example_config
                0x00000000       0xca build/obj/AEK_COM_ISOSPI1_lld.o
 .text.master_example_config
                0x00000000       0xee build/obj/AEK_COM_ISOSPI1_lld.o
 .text          0x00000000        0x0 build/obj/AEK_POW_BMS63EN_lld.o
 .data          0x00000000        0x0 build/obj/AEK_POW_BMS63EN_lld.o
 .bss           0x00000000        0x0 build/obj/AEK_POW_BMS63EN_lld.o
 .text.AEK_POW_BMS63EN_Stop
                0x00000000       0x4e build/obj/AEK_POW_BMS63EN_lld.o
 .text          0x00000000        0x0 build/obj/AEK_POW_BMS63EN_id.o
 .data          0x00000000        0x0 build/obj/AEK_POW_BMS63EN_id.o
 .bss           0x00000000        0x0 build/obj/AEK_POW_BMS63EN_id.o
 .text.AEK_POW_BMS63EN_ConfigISOFreq
                0x00000000       0x70 build/obj/AEK_POW_BMS63EN_id.o
 .text.AEK_POW_BMS63EN_DisableCommTimeout
                0x00000000       0x42 build/obj/AEK_POW_BMS63EN_id.o
 .text.AEK_POW_BMS63EN_EnableCommTimeout
                0x00000000       0x42 build/obj/AEK_POW_BMS63EN_id.o
 .text.AEK_POW_BMS63EN_EnterSleepMode
                0x00000000       0x9e build/obj/AEK_POW_BMS63EN_id.o
 .text.AEK_POW_BMS63EN_SWReset
                0x00000000       0x4e build/obj/AEK_POW_BMS63EN_id.o
 .text.AEK_POW_BMS63EN_GetState
                0x00000000       0xd4 build/obj/AEK_POW_BMS63EN_id.o
 .text.AEK_POW_BMS63EN_CoulombCounterReset
                0x00000000       0x2a build/obj/AEK_POW_BMS63EN_id.o
 .text.AEK_POW_BMS63EN_CoulombCounting
                0x00000000       0xf4 build/obj/AEK_POW_BMS63EN_id.o
 .text.AEK_POW_BMS63EN_DisableCoulombCounting
                0x00000000       0x42 build/obj/AEK_POW_BMS63EN_id.o
 .text.AEK_POW_BMS63EN_GPIO_OT_UT_Mask
                0x00000000       0x42 build/obj/AEK_POW_BMS63EN_id.o
 .text.AEK_POW_BMS63EN_GPIO_CSA_Mask
                0x00000000       0x58 build/obj/AEK_POW_BMS63EN_id.o
 .text.AEK_POW_BMS63EN_SetADCContinuousMode
                0x00000000       0x42 build/obj/AEK_POW_BMS63EN_id.o
 .text.AEK_POW_BMS63EN_SetADCTcycle
                0x00000000      0x118 build/obj/AEK_POW_BMS63EN_id.o
 .rodata.AEK_POW_BMS63EN_SetADCTcycle
                0x00000000       0x20 build/obj/AEK_POW_BMS63EN_id.o
 .text.AEK_POW_BMS63EN_SetVBattOVCThreshold
                0x00000000       0x66 build/obj/AEK_POW_BMS63EN_id.o
 .text.AEK_POW_BMS63EN_DisableBalCurrentEvenCells
                0x00000000       0x42 build/obj/AEK_POW_BMS63EN_id.o
 .text.AEK_POW_BMS63EN_DisableBalCurrentOddCells
                0x00000000       0x42 build/obj/AEK_POW_BMS63EN_id.o
 .text.AEK_POW_BMS63EN_EnableBalCurrentEvenCells
                0x00000000       0x42 build/obj/AEK_POW_BMS63EN_id.o
 .text.AEK_POW_BMS63EN_EnableBalCurrentOddCells
                0x00000000       0x42 build/obj/AEK_POW_BMS63EN_id.o
 .text.AEK_POW_BMS63EN_GetCalibCurrentMeasurement
                0x00000000       0xb4 build/obj/AEK_POW_BMS63EN_id.o
 .text.AEK_POW_BMS63EN_SetCellTimedBalThreshold
                0x00000000      0x242 build/obj/AEK_POW_BMS63EN_id.o
 .rodata.AEK_POW_BMS63EN_SetCellTimedBalThreshold
                0x00000000       0x38 build/obj/AEK_POW_BMS63EN_id.o
 .text.AEK_POW_BMS63EN_GetVoltageGPIOMeasurement
                0x00000000       0xba build/obj/AEK_POW_BMS63EN_id.o
 .text.AEK_POW_BMS63EN_SetGPIOConv
                0x00000000       0x42 build/obj/AEK_POW_BMS63EN_id.o
 .text          0x00000000        0x0 build/obj/AEK_POW_BMS63EN_diag.o
 .data          0x00000000        0x0 build/obj/AEK_POW_BMS63EN_diag.o
 .bss           0x00000000        0x0 build/obj/AEK_POW_BMS63EN_diag.o
 .text.AEK_POW_BMS63EN_EnableGPIOOpenOnDemandDiagnostic
                0x00000000       0x44 build/obj/AEK_POW_BMS63EN_diag.o
 .text.AEK_POW_BMS63EN_PCBOpenDiagnostic
                0x00000000      0x392 build/obj/AEK_POW_BMS63EN_diag.o
 .text.AEK_POW_BMS63EN_GetCellOpen
                0x00000000       0x34 build/obj/AEK_POW_BMS63EN_diag.o
 .text.AEK_POW_BMS63EN_GetBALUVFaults
                0x00000000       0x34 build/obj/AEK_POW_BMS63EN_diag.o
 .text.AEK_POW_BMS63EN_GetFault1
                0x00000000        0xc build/obj/AEK_POW_BMS63EN_diag.o
 .text.AEK_POW_BMS63EN_GetFault2
                0x00000000        0xc build/obj/AEK_POW_BMS63EN_diag.o
 .text.AEK_POW_BMS63EN_GetVCELLUVFault
                0x00000000        0xc build/obj/AEK_POW_BMS63EN_diag.o
 .text.AEK_POW_BMS63EN_GetVCELLOVFault
                0x00000000        0xc build/obj/AEK_POW_BMS63EN_diag.o
 .text.AEK_POW_BMS63EN_GetGPIOOTUTFault
                0x00000000        0xc build/obj/AEK_POW_BMS63EN_diag.o
 .text.AEK_POW_BMS63EN_GetBALUVFault
                0x00000000        0xc build/obj/AEK_POW_BMS63EN_diag.o
 .bss.AEK_POW_BMS63EN_faultl_state
                0x00000000       0x78 build/obj/AEK_POW_BMS63EN_diag.o
 .bss.AEK_POW_BMS63EN_burst_read
                0x00000000       0x48 build/obj/AEK_POW_BMS63EN_diag.o
 .text          0x00000000        0x0 build/obj/pal.o
 .data          0x00000000        0x0 build/obj/pal.o
 .bss           0x00000000        0x0 build/obj/pal.o
 .text._pal_readgroup
                0x00000000        0x4 build/obj/pal.o
 .text._pal_writegroup
                0x00000000        0x2 build/obj/pal.o
 .text._pal_setgroupmode
                0x00000000       0x28 build/obj/pal.o
 .text          0x00000000        0x0 build/obj/clock.o
 .data          0x00000000        0x0 build/obj/clock.o
 .bss           0x00000000        0x0 build/obj/clock.o
 .text.SPCSetRunMode
                0x00000000       0x2e build/obj/clock.o
 .text.SPCGetSystemClock
                0x00000000       0x80 build/obj/clock.o
 .rodata.SPCGetSystemClock
                0x00000000       0x14 build/obj/clock.o
 .text          0x00000000        0x0 build/obj/irq.o
 .data          0x00000000        0x0 build/obj/irq.o
 .bss           0x00000000        0x0 build/obj/irq.o
 .text          0x00000000        0x0 build/obj/eirq.o
 .data          0x00000000        0x0 build/obj/eirq.o
 .bss           0x00000000        0x0 build/obj/eirq.o
 .text.manage_eirq_interrupt
                0x00000000       0x80 build/obj/eirq.o
 .text          0x00000000        0x0 build/obj/swirq.o
 .data          0x00000000        0x0 build/obj/swirq.o
 .bss           0x00000000        0x0 build/obj/swirq.o
 .text.swirq_enable
                0x00000000       0x18 build/obj/swirq.o
 .text.swirq_disable
                0x00000000       0x16 build/obj/swirq.o
 .text.swirq_set
                0x00000000       0x12 build/obj/swirq.o
 .text.swirq_clear
                0x00000000       0x12 build/obj/swirq.o
 .text          0x00000000        0x0 build/obj/osal.o
 .data          0x00000000        0x0 build/obj/osal.o
 .bss           0x00000000        0x0 build/obj/osal.o
 .text.osalSysTimeSetup
                0x00000000       0x24 build/obj/osal.o
 .text.osalSysTimeReset
                0x00000000        0x4 build/obj/osal.o
 .text.osalThreadDelaySeconds
                0x00000000       0x42 build/obj/osal.o
 .text.osalThreadDelayMicroseconds
                0x00000000       0x60 build/obj/osal.o
 .text.osalThreadGetSeconds
                0x00000000       0x46 build/obj/osal.o
 .text.osalThreadGetMilliseconds
                0x00000000       0x4a build/obj/osal.o
 .text.osalThreadGetMicroseconds
                0x00000000       0x50 build/obj/osal.o
 .text.osalEnterCriticalFromISR
                0x00000000       0x3a build/obj/osal.o
 .text.osalExitCriticalFromISR
                0x00000000       0x3a build/obj/osal.o
 .text          0x00000000        0x0 build/obj/systimer.o
 .data          0x00000000        0x0 build/obj/systimer.o
 .bss           0x00000000        0x0 build/obj/systimer.o
 .text          0x00000000        0x0 build/obj/serial_lld_cfg.o
 .data          0x00000000        0x0 build/obj/serial_lld_cfg.o
 .bss           0x00000000        0x0 build/obj/serial_lld_cfg.o
 .text          0x00000000        0x0 build/obj/can_lld_cfg.o
 .data          0x00000000        0x0 build/obj/can_lld_cfg.o
 .bss           0x00000000        0x0 build/obj/can_lld_cfg.o
 .text          0x00000000        0x0 build/obj/pit_lld_cfg.o
 .data          0x00000000        0x0 build/obj/pit_lld_cfg.o
 .bss           0x00000000        0x0 build/obj/pit_lld_cfg.o
 .text          0x00000000        0x0 build/obj/spi_lld_cfg.o
 .data          0x00000000        0x0 build/obj/spi_lld_cfg.o
 .bss           0x00000000        0x0 build/obj/spi_lld_cfg.o
 .text          0x00000000        0x0 build/obj/wkpu_lld_cfg.o
 .data          0x00000000        0x0 build/obj/wkpu_lld_cfg.o
 .bss           0x00000000        0x0 build/obj/wkpu_lld_cfg.o
 .text          0x00000000        0x0 build/obj/AEK_COM_ISOSPI1_cfg.o
 .data          0x00000000        0x0 build/obj/AEK_COM_ISOSPI1_cfg.o
 .bss           0x00000000        0x0 build/obj/AEK_COM_ISOSPI1_cfg.o
 .text          0x00000000        0x0 build/obj/AEK_POW_BMS63EN_cfg.o
 .data          0x00000000        0x0 build/obj/AEK_POW_BMS63EN_cfg.o
 .bss           0x00000000        0x0 build/obj/AEK_POW_BMS63EN_cfg.o
 .text          0x00000000        0x0 build/obj/board.o
 .data          0x00000000        0x0 build/obj/board.o
 .bss           0x00000000        0x0 build/obj/board.o
 .text          0x00000000        0x0 build/obj/irq_cfg.o
 .data          0x00000000        0x0 build/obj/irq_cfg.o
 .bss           0x00000000        0x0 build/obj/irq_cfg.o
 .text          0x00000000        0x0 build/obj/eirq_cfg.o
 .data          0x00000000        0x0 build/obj/eirq_cfg.o
 .bss           0x00000000        0x0 build/obj/eirq_cfg.o
 .text          0x00000000        0x0 build/obj/swirq_cfg.o
 .data          0x00000000        0x0 build/obj/swirq_cfg.o
 .bss           0x00000000        0x0 build/obj/swirq_cfg.o
 .text          0x00000000        0x0 build/obj/main.o
 .data          0x00000000        0x0 build/obj/main.o
 .bss           0x00000000        0x0 build/obj/main.o
 .text.sbrk     0x00000000       0x2a build/obj/main.o
 .text.int28_irq_cb
                0x00000000       0x24 build/obj/main.o
 .data.p.22818  0x00000000        0x4 build/obj/main.o
 .bss.newp.22819
                0x00000000        0x4 build/obj/main.o
 .bss.i_device_disp
                0x00000000        0x1 build/obj/main.o
 .text          0x00000000        0x0 build/obj/AEK_POW_BMS63EN_Appl.o
 .data          0x00000000        0x0 build/obj/AEK_POW_BMS63EN_Appl.o
 .bss           0x00000000        0x0 build/obj/AEK_POW_BMS63EN_Appl.o
 .text.AEK_POW_BMS63EN_GetSOC_Elab_Sts
                0x00000000        0xa build/obj/AEK_POW_BMS63EN_Appl.o
 .text.AEK_POW_BMS63EN_InitModel
                0x00000000       0x18 build/obj/AEK_POW_BMS63EN_Appl.o
 .bss.buffer    0x00000000       0x1c build/obj/AEK_POW_BMS63EN_Appl.o
 .text          0x00000000        0x0 build/obj/BMS_Controller_data.o
 .data          0x00000000        0x0 build/obj/BMS_Controller_data.o
 .bss           0x00000000        0x0 build/obj/BMS_Controller_data.o
 .text          0x00000000        0x0 build/obj/Cell_Model_parameter.o
 .data          0x00000000        0x0 build/obj/Cell_Model_parameter.o
 .bss           0x00000000        0x0 build/obj/Cell_Model_parameter.o
 .text          0x00000000        0x0 build/obj/BMS_Controller.o
 .data          0x00000000        0x0 build/obj/BMS_Controller.o
 .bss           0x00000000        0x0 build/obj/BMS_Controller.o
 .text          0x00000000        0x0 build/obj/components.o
 .data          0x00000000        0x0 build/obj/components.o
 .bss           0x00000000        0x0 build/obj/components.o
 .text          0x00000000        0x0 c:/autodevkitstudio-2.4.0/eclipse/plugins/com.st.tools.spc5.tools.gnu.gcc.ppcvle.win32_4.9.4.20200908161514/toolchain/bin/../lib/gcc/powerpc-eabivle/4.9.4/../../../../powerpc-eabivle/lib/e200z4\libm.a(lib_a-wf_exp.o)
 .data          0x00000000        0x0 c:/autodevkitstudio-2.4.0/eclipse/plugins/com.st.tools.spc5.tools.gnu.gcc.ppcvle.win32_4.9.4.20200908161514/toolchain/bin/../lib/gcc/powerpc-eabivle/4.9.4/../../../../powerpc-eabivle/lib/e200z4\libm.a(lib_a-wf_exp.o)
 .bss           0x00000000        0x0 c:/autodevkitstudio-2.4.0/eclipse/plugins/com.st.tools.spc5.tools.gnu.gcc.ppcvle.win32_4.9.4.20200908161514/toolchain/bin/../lib/gcc/powerpc-eabivle/4.9.4/../../../../powerpc-eabivle/lib/e200z4\libm.a(lib_a-wf_exp.o)
 .text          0x00000000        0x0 c:/autodevkitstudio-2.4.0/eclipse/plugins/com.st.tools.spc5.tools.gnu.gcc.ppcvle.win32_4.9.4.20200908161514/toolchain/bin/../lib/gcc/powerpc-eabivle/4.9.4/../../../../powerpc-eabivle/lib/e200z4\libm.a(lib_a-w_log.o)
 .data          0x00000000        0x0 c:/autodevkitstudio-2.4.0/eclipse/plugins/com.st.tools.spc5.tools.gnu.gcc.ppcvle.win32_4.9.4.20200908161514/toolchain/bin/../lib/gcc/powerpc-eabivle/4.9.4/../../../../powerpc-eabivle/lib/e200z4\libm.a(lib_a-w_log.o)
 .bss           0x00000000        0x0 c:/autodevkitstudio-2.4.0/eclipse/plugins/com.st.tools.spc5.tools.gnu.gcc.ppcvle.win32_4.9.4.20200908161514/toolchain/bin/../lib/gcc/powerpc-eabivle/4.9.4/../../../../powerpc-eabivle/lib/e200z4\libm.a(lib_a-w_log.o)
 .text          0x00000000        0x0 c:/autodevkitstudio-2.4.0/eclipse/plugins/com.st.tools.spc5.tools.gnu.gcc.ppcvle.win32_4.9.4.20200908161514/toolchain/bin/../lib/gcc/powerpc-eabivle/4.9.4/../../../../powerpc-eabivle/lib/e200z4\libm.a(lib_a-ef_exp.o)
 .data          0x00000000        0x0 c:/autodevkitstudio-2.4.0/eclipse/plugins/com.st.tools.spc5.tools.gnu.gcc.ppcvle.win32_4.9.4.20200908161514/toolchain/bin/../lib/gcc/powerpc-eabivle/4.9.4/../../../../powerpc-eabivle/lib/e200z4\libm.a(lib_a-ef_exp.o)
 .bss           0x00000000        0x0 c:/autodevkitstudio-2.4.0/eclipse/plugins/com.st.tools.spc5.tools.gnu.gcc.ppcvle.win32_4.9.4.20200908161514/toolchain/bin/../lib/gcc/powerpc-eabivle/4.9.4/../../../../powerpc-eabivle/lib/e200z4\libm.a(lib_a-ef_exp.o)
 .text          0x00000000        0x0 c:/autodevkitstudio-2.4.0/eclipse/plugins/com.st.tools.spc5.tools.gnu.gcc.ppcvle.win32_4.9.4.20200908161514/toolchain/bin/../lib/gcc/powerpc-eabivle/4.9.4/../../../../powerpc-eabivle/lib/e200z4\libm.a(lib_a-e_log.o)
 .data          0x00000000        0x0 c:/autodevkitstudio-2.4.0/eclipse/plugins/com.st.tools.spc5.tools.gnu.gcc.ppcvle.win32_4.9.4.20200908161514/toolchain/bin/../lib/gcc/powerpc-eabivle/4.9.4/../../../../powerpc-eabivle/lib/e200z4\libm.a(lib_a-e_log.o)
 .bss           0x00000000        0x0 c:/autodevkitstudio-2.4.0/eclipse/plugins/com.st.tools.spc5.tools.gnu.gcc.ppcvle.win32_4.9.4.20200908161514/toolchain/bin/../lib/gcc/powerpc-eabivle/4.9.4/../../../../powerpc-eabivle/lib/e200z4\libm.a(lib_a-e_log.o)
 .text          0x00000000        0x0 c:/autodevkitstudio-2.4.0/eclipse/plugins/com.st.tools.spc5.tools.gnu.gcc.ppcvle.win32_4.9.4.20200908161514/toolchain/bin/../lib/gcc/powerpc-eabivle/4.9.4/../../../../powerpc-eabivle/lib/e200z4\libm.a(lib_a-sf_finite.o)
 .data          0x00000000        0x0 c:/autodevkitstudio-2.4.0/eclipse/plugins/com.st.tools.spc5.tools.gnu.gcc.ppcvle.win32_4.9.4.20200908161514/toolchain/bin/../lib/gcc/powerpc-eabivle/4.9.4/../../../../powerpc-eabivle/lib/e200z4\libm.a(lib_a-sf_finite.o)
 .bss           0x00000000        0x0 c:/autodevkitstudio-2.4.0/eclipse/plugins/com.st.tools.spc5.tools.gnu.gcc.ppcvle.win32_4.9.4.20200908161514/toolchain/bin/../lib/gcc/powerpc-eabivle/4.9.4/../../../../powerpc-eabivle/lib/e200z4\libm.a(lib_a-sf_finite.o)
 .text          0x00000000        0x0 c:/autodevkitstudio-2.4.0/eclipse/plugins/com.st.tools.spc5.tools.gnu.gcc.ppcvle.win32_4.9.4.20200908161514/toolchain/bin/../lib/gcc/powerpc-eabivle/4.9.4/../../../../powerpc-eabivle/lib/e200z4\libm.a(lib_a-s_fpclassify.o)
 .data          0x00000000        0x0 c:/autodevkitstudio-2.4.0/eclipse/plugins/com.st.tools.spc5.tools.gnu.gcc.ppcvle.win32_4.9.4.20200908161514/toolchain/bin/../lib/gcc/powerpc-eabivle/4.9.4/../../../../powerpc-eabivle/lib/e200z4\libm.a(lib_a-s_fpclassify.o)
 .bss           0x00000000        0x0 c:/autodevkitstudio-2.4.0/eclipse/plugins/com.st.tools.spc5.tools.gnu.gcc.ppcvle.win32_4.9.4.20200908161514/toolchain/bin/../lib/gcc/powerpc-eabivle/4.9.4/../../../../powerpc-eabivle/lib/e200z4\libm.a(lib_a-s_fpclassify.o)
 .text          0x00000000        0x0 c:/autodevkitstudio-2.4.0/eclipse/plugins/com.st.tools.spc5.tools.gnu.gcc.ppcvle.win32_4.9.4.20200908161514/toolchain/bin/../lib/gcc/powerpc-eabivle/4.9.4/../../../../powerpc-eabivle/lib/e200z4\libm.a(lib_a-s_lib_ver.o)
 .data          0x00000000        0x0 c:/autodevkitstudio-2.4.0/eclipse/plugins/com.st.tools.spc5.tools.gnu.gcc.ppcvle.win32_4.9.4.20200908161514/toolchain/bin/../lib/gcc/powerpc-eabivle/4.9.4/../../../../powerpc-eabivle/lib/e200z4\libm.a(lib_a-s_lib_ver.o)
 .bss           0x00000000        0x0 c:/autodevkitstudio-2.4.0/eclipse/plugins/com.st.tools.spc5.tools.gnu.gcc.ppcvle.win32_4.9.4.20200908161514/toolchain/bin/../lib/gcc/powerpc-eabivle/4.9.4/../../../../powerpc-eabivle/lib/e200z4\libm.a(lib_a-s_lib_ver.o)
 .text          0x00000000        0x0 c:/autodevkitstudio-2.4.0/eclipse/plugins/com.st.tools.spc5.tools.gnu.gcc.ppcvle.win32_4.9.4.20200908161514/toolchain/bin/../lib/gcc/powerpc-eabivle/4.9.4/../../../../powerpc-eabivle/lib/e200z4\libm.a(lib_a-s_matherr.o)
 .data          0x00000000        0x0 c:/autodevkitstudio-2.4.0/eclipse/plugins/com.st.tools.spc5.tools.gnu.gcc.ppcvle.win32_4.9.4.20200908161514/toolchain/bin/../lib/gcc/powerpc-eabivle/4.9.4/../../../../powerpc-eabivle/lib/e200z4\libm.a(lib_a-s_matherr.o)
 .bss           0x00000000        0x0 c:/autodevkitstudio-2.4.0/eclipse/plugins/com.st.tools.spc5.tools.gnu.gcc.ppcvle.win32_4.9.4.20200908161514/toolchain/bin/../lib/gcc/powerpc-eabivle/4.9.4/../../../../powerpc-eabivle/lib/e200z4\libm.a(lib_a-s_matherr.o)
 .text          0x00000000        0x0 c:/autodevkitstudio-2.4.0/eclipse/plugins/com.st.tools.spc5.tools.gnu.gcc.ppcvle.win32_4.9.4.20200908161514/toolchain/bin/../lib/gcc/powerpc-eabivle/4.9.4/../../../../powerpc-eabivle/lib/e200z4\libm.a(lib_a-s_nan.o)
 .data          0x00000000        0x0 c:/autodevkitstudio-2.4.0/eclipse/plugins/com.st.tools.spc5.tools.gnu.gcc.ppcvle.win32_4.9.4.20200908161514/toolchain/bin/../lib/gcc/powerpc-eabivle/4.9.4/../../../../powerpc-eabivle/lib/e200z4\libm.a(lib_a-s_nan.o)
 .bss           0x00000000        0x0 c:/autodevkitstudio-2.4.0/eclipse/plugins/com.st.tools.spc5.tools.gnu.gcc.ppcvle.win32_4.9.4.20200908161514/toolchain/bin/../lib/gcc/powerpc-eabivle/4.9.4/../../../../powerpc-eabivle/lib/e200z4\libm.a(lib_a-s_nan.o)
 .text          0x00000000        0x0 c:/autodevkitstudio-2.4.0/eclipse/plugins/com.st.tools.spc5.tools.gnu.gcc.ppcvle.win32_4.9.4.20200908161514/toolchain/bin/../lib/gcc/powerpc-eabivle/4.9.4/../../../../powerpc-eabivle/lib/e200z4\libc.a(lib_a-errno.o)
 .data          0x00000000        0x0 c:/autodevkitstudio-2.4.0/eclipse/plugins/com.st.tools.spc5.tools.gnu.gcc.ppcvle.win32_4.9.4.20200908161514/toolchain/bin/../lib/gcc/powerpc-eabivle/4.9.4/../../../../powerpc-eabivle/lib/e200z4\libc.a(lib_a-errno.o)
 .bss           0x00000000        0x0 c:/autodevkitstudio-2.4.0/eclipse/plugins/com.st.tools.spc5.tools.gnu.gcc.ppcvle.win32_4.9.4.20200908161514/toolchain/bin/../lib/gcc/powerpc-eabivle/4.9.4/../../../../powerpc-eabivle/lib/e200z4\libc.a(lib_a-errno.o)
 .text          0x00000000        0x0 c:/autodevkitstudio-2.4.0/eclipse/plugins/com.st.tools.spc5.tools.gnu.gcc.ppcvle.win32_4.9.4.20200908161514/toolchain/bin/../lib/gcc/powerpc-eabivle/4.9.4/../../../../powerpc-eabivle/lib/e200z4\libc.a(lib_a-impure.o)
 .data          0x00000000        0x0 c:/autodevkitstudio-2.4.0/eclipse/plugins/com.st.tools.spc5.tools.gnu.gcc.ppcvle.win32_4.9.4.20200908161514/toolchain/bin/../lib/gcc/powerpc-eabivle/4.9.4/../../../../powerpc-eabivle/lib/e200z4\libc.a(lib_a-impure.o)
 .bss           0x00000000        0x0 c:/autodevkitstudio-2.4.0/eclipse/plugins/com.st.tools.spc5.tools.gnu.gcc.ppcvle.win32_4.9.4.20200908161514/toolchain/bin/../lib/gcc/powerpc-eabivle/4.9.4/../../../../powerpc-eabivle/lib/e200z4\libc.a(lib_a-impure.o)
 .text          0x00000000        0x0 c:/autodevkitstudio-2.4.0/eclipse/plugins/com.st.tools.spc5.tools.gnu.gcc.ppcvle.win32_4.9.4.20200908161514/toolchain/bin/../lib/gcc/powerpc-eabivle/4.9.4/../../../../powerpc-eabivle/lib/e200z4\libc.a(lib_a-memcpy.o)
 .data          0x00000000        0x0 c:/autodevkitstudio-2.4.0/eclipse/plugins/com.st.tools.spc5.tools.gnu.gcc.ppcvle.win32_4.9.4.20200908161514/toolchain/bin/../lib/gcc/powerpc-eabivle/4.9.4/../../../../powerpc-eabivle/lib/e200z4\libc.a(lib_a-memcpy.o)
 .bss           0x00000000        0x0 c:/autodevkitstudio-2.4.0/eclipse/plugins/com.st.tools.spc5.tools.gnu.gcc.ppcvle.win32_4.9.4.20200908161514/toolchain/bin/../lib/gcc/powerpc-eabivle/4.9.4/../../../../powerpc-eabivle/lib/e200z4\libc.a(lib_a-memcpy.o)
 .text          0x00000000        0x0 c:/autodevkitstudio-2.4.0/eclipse/plugins/com.st.tools.spc5.tools.gnu.gcc.ppcvle.win32_4.9.4.20200908161514/toolchain/bin/../lib/gcc/powerpc-eabivle/4.9.4/../../../../powerpc-eabivle/lib/e200z4\libc.a(lib_a-memset.o)
 .data          0x00000000        0x0 c:/autodevkitstudio-2.4.0/eclipse/plugins/com.st.tools.spc5.tools.gnu.gcc.ppcvle.win32_4.9.4.20200908161514/toolchain/bin/../lib/gcc/powerpc-eabivle/4.9.4/../../../../powerpc-eabivle/lib/e200z4\libc.a(lib_a-memset.o)
 .bss           0x00000000        0x0 c:/autodevkitstudio-2.4.0/eclipse/plugins/com.st.tools.spc5.tools.gnu.gcc.ppcvle.win32_4.9.4.20200908161514/toolchain/bin/../lib/gcc/powerpc-eabivle/4.9.4/../../../../powerpc-eabivle/lib/e200z4\libc.a(lib_a-memset.o)
 .data          0x00000000        0x0 c:/autodevkitstudio-2.4.0/eclipse/plugins/com.st.tools.spc5.tools.gnu.gcc.ppcvle.win32_4.9.4.20200908161514/toolchain/bin/../lib/gcc/powerpc-eabivle/4.9.4/e200z4\libgcc.a(_fixunssfsi.o)
 .bss           0x00000000        0x0 c:/autodevkitstudio-2.4.0/eclipse/plugins/com.st.tools.spc5.tools.gnu.gcc.ppcvle.win32_4.9.4.20200908161514/toolchain/bin/../lib/gcc/powerpc-eabivle/4.9.4/e200z4\libgcc.a(_fixunssfsi.o)
 .data          0x00000000        0x0 c:/autodevkitstudio-2.4.0/eclipse/plugins/com.st.tools.spc5.tools.gnu.gcc.ppcvle.win32_4.9.4.20200908161514/toolchain/bin/../lib/gcc/powerpc-eabivle/4.9.4/e200z4\libgcc.a(_fixunsdfsi.o)
 .bss           0x00000000        0x0 c:/autodevkitstudio-2.4.0/eclipse/plugins/com.st.tools.spc5.tools.gnu.gcc.ppcvle.win32_4.9.4.20200908161514/toolchain/bin/../lib/gcc/powerpc-eabivle/4.9.4/e200z4\libgcc.a(_fixunsdfsi.o)
 .text          0x00000000      0x328 c:/autodevkitstudio-2.4.0/eclipse/plugins/com.st.tools.spc5.tools.gnu.gcc.ppcvle.win32_4.9.4.20200908161514/toolchain/bin/../lib/gcc/powerpc-eabivle/4.9.4/e200z4\libgcc.a(_udivdi3.o)
 .data          0x00000000        0x0 c:/autodevkitstudio-2.4.0/eclipse/plugins/com.st.tools.spc5.tools.gnu.gcc.ppcvle.win32_4.9.4.20200908161514/toolchain/bin/../lib/gcc/powerpc-eabivle/4.9.4/e200z4\libgcc.a(_udivdi3.o)
 .bss           0x00000000        0x0 c:/autodevkitstudio-2.4.0/eclipse/plugins/com.st.tools.spc5.tools.gnu.gcc.ppcvle.win32_4.9.4.20200908161514/toolchain/bin/../lib/gcc/powerpc-eabivle/4.9.4/e200z4\libgcc.a(_udivdi3.o)
 .eh_frame      0x00000000       0x48 c:/autodevkitstudio-2.4.0/eclipse/plugins/com.st.tools.spc5.tools.gnu.gcc.ppcvle.win32_4.9.4.20200908161514/toolchain/bin/../lib/gcc/powerpc-eabivle/4.9.4/e200z4\libgcc.a(_udivdi3.o)
 .data          0x00000000        0x0 c:/autodevkitstudio-2.4.0/eclipse/plugins/com.st.tools.spc5.tools.gnu.gcc.ppcvle.win32_4.9.4.20200908161514/toolchain/bin/../lib/gcc/powerpc-eabivle/4.9.4/e200z4\libgcc.a(_addsub_sf.o)
 .bss           0x00000000        0x0 c:/autodevkitstudio-2.4.0/eclipse/plugins/com.st.tools.spc5.tools.gnu.gcc.ppcvle.win32_4.9.4.20200908161514/toolchain/bin/../lib/gcc/powerpc-eabivle/4.9.4/e200z4\libgcc.a(_addsub_sf.o)
 .data          0x00000000        0x0 c:/autodevkitstudio-2.4.0/eclipse/plugins/com.st.tools.spc5.tools.gnu.gcc.ppcvle.win32_4.9.4.20200908161514/toolchain/bin/../lib/gcc/powerpc-eabivle/4.9.4/e200z4\libgcc.a(_mul_sf.o)
 .bss           0x00000000        0x0 c:/autodevkitstudio-2.4.0/eclipse/plugins/com.st.tools.spc5.tools.gnu.gcc.ppcvle.win32_4.9.4.20200908161514/toolchain/bin/../lib/gcc/powerpc-eabivle/4.9.4/e200z4\libgcc.a(_mul_sf.o)
 .data          0x00000000        0x0 c:/autodevkitstudio-2.4.0/eclipse/plugins/com.st.tools.spc5.tools.gnu.gcc.ppcvle.win32_4.9.4.20200908161514/toolchain/bin/../lib/gcc/powerpc-eabivle/4.9.4/e200z4\libgcc.a(_div_sf.o)
 .bss           0x00000000        0x0 c:/autodevkitstudio-2.4.0/eclipse/plugins/com.st.tools.spc5.tools.gnu.gcc.ppcvle.win32_4.9.4.20200908161514/toolchain/bin/../lib/gcc/powerpc-eabivle/4.9.4/e200z4\libgcc.a(_div_sf.o)
 .data          0x00000000        0x0 c:/autodevkitstudio-2.4.0/eclipse/plugins/com.st.tools.spc5.tools.gnu.gcc.ppcvle.win32_4.9.4.20200908161514/toolchain/bin/../lib/gcc/powerpc-eabivle/4.9.4/e200z4\libgcc.a(_gt_sf.o)
 .bss           0x00000000        0x0 c:/autodevkitstudio-2.4.0/eclipse/plugins/com.st.tools.spc5.tools.gnu.gcc.ppcvle.win32_4.9.4.20200908161514/toolchain/bin/../lib/gcc/powerpc-eabivle/4.9.4/e200z4\libgcc.a(_gt_sf.o)
 .data          0x00000000        0x0 c:/autodevkitstudio-2.4.0/eclipse/plugins/com.st.tools.spc5.tools.gnu.gcc.ppcvle.win32_4.9.4.20200908161514/toolchain/bin/../lib/gcc/powerpc-eabivle/4.9.4/e200z4\libgcc.a(_ge_sf.o)
 .bss           0x00000000        0x0 c:/autodevkitstudio-2.4.0/eclipse/plugins/com.st.tools.spc5.tools.gnu.gcc.ppcvle.win32_4.9.4.20200908161514/toolchain/bin/../lib/gcc/powerpc-eabivle/4.9.4/e200z4\libgcc.a(_ge_sf.o)
 .data          0x00000000        0x0 c:/autodevkitstudio-2.4.0/eclipse/plugins/com.st.tools.spc5.tools.gnu.gcc.ppcvle.win32_4.9.4.20200908161514/toolchain/bin/../lib/gcc/powerpc-eabivle/4.9.4/e200z4\libgcc.a(_lt_sf.o)
 .bss           0x00000000        0x0 c:/autodevkitstudio-2.4.0/eclipse/plugins/com.st.tools.spc5.tools.gnu.gcc.ppcvle.win32_4.9.4.20200908161514/toolchain/bin/../lib/gcc/powerpc-eabivle/4.9.4/e200z4\libgcc.a(_lt_sf.o)
 .data          0x00000000        0x0 c:/autodevkitstudio-2.4.0/eclipse/plugins/com.st.tools.spc5.tools.gnu.gcc.ppcvle.win32_4.9.4.20200908161514/toolchain/bin/../lib/gcc/powerpc-eabivle/4.9.4/e200z4\libgcc.a(_le_sf.o)
 .bss           0x00000000        0x0 c:/autodevkitstudio-2.4.0/eclipse/plugins/com.st.tools.spc5.tools.gnu.gcc.ppcvle.win32_4.9.4.20200908161514/toolchain/bin/../lib/gcc/powerpc-eabivle/4.9.4/e200z4\libgcc.a(_le_sf.o)
 .data          0x00000000        0x0 c:/autodevkitstudio-2.4.0/eclipse/plugins/com.st.tools.spc5.tools.gnu.gcc.ppcvle.win32_4.9.4.20200908161514/toolchain/bin/../lib/gcc/powerpc-eabivle/4.9.4/e200z4\libgcc.a(_si_to_sf.o)
 .bss           0x00000000        0x0 c:/autodevkitstudio-2.4.0/eclipse/plugins/com.st.tools.spc5.tools.gnu.gcc.ppcvle.win32_4.9.4.20200908161514/toolchain/bin/../lib/gcc/powerpc-eabivle/4.9.4/e200z4\libgcc.a(_si_to_sf.o)
 .data          0x00000000        0x0 c:/autodevkitstudio-2.4.0/eclipse/plugins/com.st.tools.spc5.tools.gnu.gcc.ppcvle.win32_4.9.4.20200908161514/toolchain/bin/../lib/gcc/powerpc-eabivle/4.9.4/e200z4\libgcc.a(_sf_to_si.o)
 .bss           0x00000000        0x0 c:/autodevkitstudio-2.4.0/eclipse/plugins/com.st.tools.spc5.tools.gnu.gcc.ppcvle.win32_4.9.4.20200908161514/toolchain/bin/../lib/gcc/powerpc-eabivle/4.9.4/e200z4\libgcc.a(_sf_to_si.o)
 .data          0x00000000        0x0 c:/autodevkitstudio-2.4.0/eclipse/plugins/com.st.tools.spc5.tools.gnu.gcc.ppcvle.win32_4.9.4.20200908161514/toolchain/bin/../lib/gcc/powerpc-eabivle/4.9.4/e200z4\libgcc.a(_sf_to_df.o)
 .bss           0x00000000        0x0 c:/autodevkitstudio-2.4.0/eclipse/plugins/com.st.tools.spc5.tools.gnu.gcc.ppcvle.win32_4.9.4.20200908161514/toolchain/bin/../lib/gcc/powerpc-eabivle/4.9.4/e200z4\libgcc.a(_sf_to_df.o)
 .text          0x00000000        0x0 c:/autodevkitstudio-2.4.0/eclipse/plugins/com.st.tools.spc5.tools.gnu.gcc.ppcvle.win32_4.9.4.20200908161514/toolchain/bin/../lib/gcc/powerpc-eabivle/4.9.4/e200z4\libgcc.a(_thenan_sf.o)
 .data          0x00000000        0x0 c:/autodevkitstudio-2.4.0/eclipse/plugins/com.st.tools.spc5.tools.gnu.gcc.ppcvle.win32_4.9.4.20200908161514/toolchain/bin/../lib/gcc/powerpc-eabivle/4.9.4/e200z4\libgcc.a(_thenan_sf.o)
 .bss           0x00000000        0x0 c:/autodevkitstudio-2.4.0/eclipse/plugins/com.st.tools.spc5.tools.gnu.gcc.ppcvle.win32_4.9.4.20200908161514/toolchain/bin/../lib/gcc/powerpc-eabivle/4.9.4/e200z4\libgcc.a(_thenan_sf.o)
 .data          0x00000000        0x0 c:/autodevkitstudio-2.4.0/eclipse/plugins/com.st.tools.spc5.tools.gnu.gcc.ppcvle.win32_4.9.4.20200908161514/toolchain/bin/../lib/gcc/powerpc-eabivle/4.9.4/e200z4\libgcc.a(_usi_to_sf.o)
 .bss           0x00000000        0x0 c:/autodevkitstudio-2.4.0/eclipse/plugins/com.st.tools.spc5.tools.gnu.gcc.ppcvle.win32_4.9.4.20200908161514/toolchain/bin/../lib/gcc/powerpc-eabivle/4.9.4/e200z4\libgcc.a(_usi_to_sf.o)
 .data          0x00000000        0x0 c:/autodevkitstudio-2.4.0/eclipse/plugins/com.st.tools.spc5.tools.gnu.gcc.ppcvle.win32_4.9.4.20200908161514/toolchain/bin/../lib/gcc/powerpc-eabivle/4.9.4/e200z4\libgcc.a(_addsub_df.o)
 .bss           0x00000000        0x0 c:/autodevkitstudio-2.4.0/eclipse/plugins/com.st.tools.spc5.tools.gnu.gcc.ppcvle.win32_4.9.4.20200908161514/toolchain/bin/../lib/gcc/powerpc-eabivle/4.9.4/e200z4\libgcc.a(_addsub_df.o)
 .data          0x00000000        0x0 c:/autodevkitstudio-2.4.0/eclipse/plugins/com.st.tools.spc5.tools.gnu.gcc.ppcvle.win32_4.9.4.20200908161514/toolchain/bin/../lib/gcc/powerpc-eabivle/4.9.4/e200z4\libgcc.a(_mul_df.o)
 .bss           0x00000000        0x0 c:/autodevkitstudio-2.4.0/eclipse/plugins/com.st.tools.spc5.tools.gnu.gcc.ppcvle.win32_4.9.4.20200908161514/toolchain/bin/../lib/gcc/powerpc-eabivle/4.9.4/e200z4\libgcc.a(_mul_df.o)
 .data          0x00000000        0x0 c:/autodevkitstudio-2.4.0/eclipse/plugins/com.st.tools.spc5.tools.gnu.gcc.ppcvle.win32_4.9.4.20200908161514/toolchain/bin/../lib/gcc/powerpc-eabivle/4.9.4/e200z4\libgcc.a(_div_df.o)
 .bss           0x00000000        0x0 c:/autodevkitstudio-2.4.0/eclipse/plugins/com.st.tools.spc5.tools.gnu.gcc.ppcvle.win32_4.9.4.20200908161514/toolchain/bin/../lib/gcc/powerpc-eabivle/4.9.4/e200z4\libgcc.a(_div_df.o)
 .data          0x00000000        0x0 c:/autodevkitstudio-2.4.0/eclipse/plugins/com.st.tools.spc5.tools.gnu.gcc.ppcvle.win32_4.9.4.20200908161514/toolchain/bin/../lib/gcc/powerpc-eabivle/4.9.4/e200z4\libgcc.a(_eq_df.o)
 .bss           0x00000000        0x0 c:/autodevkitstudio-2.4.0/eclipse/plugins/com.st.tools.spc5.tools.gnu.gcc.ppcvle.win32_4.9.4.20200908161514/toolchain/bin/../lib/gcc/powerpc-eabivle/4.9.4/e200z4\libgcc.a(_eq_df.o)
 .data          0x00000000        0x0 c:/autodevkitstudio-2.4.0/eclipse/plugins/com.st.tools.spc5.tools.gnu.gcc.ppcvle.win32_4.9.4.20200908161514/toolchain/bin/../lib/gcc/powerpc-eabivle/4.9.4/e200z4\libgcc.a(_gt_df.o)
 .bss           0x00000000        0x0 c:/autodevkitstudio-2.4.0/eclipse/plugins/com.st.tools.spc5.tools.gnu.gcc.ppcvle.win32_4.9.4.20200908161514/toolchain/bin/../lib/gcc/powerpc-eabivle/4.9.4/e200z4\libgcc.a(_gt_df.o)
 .data          0x00000000        0x0 c:/autodevkitstudio-2.4.0/eclipse/plugins/com.st.tools.spc5.tools.gnu.gcc.ppcvle.win32_4.9.4.20200908161514/toolchain/bin/../lib/gcc/powerpc-eabivle/4.9.4/e200z4\libgcc.a(_ge_df.o)
 .bss           0x00000000        0x0 c:/autodevkitstudio-2.4.0/eclipse/plugins/com.st.tools.spc5.tools.gnu.gcc.ppcvle.win32_4.9.4.20200908161514/toolchain/bin/../lib/gcc/powerpc-eabivle/4.9.4/e200z4\libgcc.a(_ge_df.o)
 .data          0x00000000        0x0 c:/autodevkitstudio-2.4.0/eclipse/plugins/com.st.tools.spc5.tools.gnu.gcc.ppcvle.win32_4.9.4.20200908161514/toolchain/bin/../lib/gcc/powerpc-eabivle/4.9.4/e200z4\libgcc.a(_si_to_df.o)
 .bss           0x00000000        0x0 c:/autodevkitstudio-2.4.0/eclipse/plugins/com.st.tools.spc5.tools.gnu.gcc.ppcvle.win32_4.9.4.20200908161514/toolchain/bin/../lib/gcc/powerpc-eabivle/4.9.4/e200z4\libgcc.a(_si_to_df.o)
 .data          0x00000000        0x0 c:/autodevkitstudio-2.4.0/eclipse/plugins/com.st.tools.spc5.tools.gnu.gcc.ppcvle.win32_4.9.4.20200908161514/toolchain/bin/../lib/gcc/powerpc-eabivle/4.9.4/e200z4\libgcc.a(_df_to_si.o)
 .bss           0x00000000        0x0 c:/autodevkitstudio-2.4.0/eclipse/plugins/com.st.tools.spc5.tools.gnu.gcc.ppcvle.win32_4.9.4.20200908161514/toolchain/bin/../lib/gcc/powerpc-eabivle/4.9.4/e200z4\libgcc.a(_df_to_si.o)
 .data          0x00000000        0x0 c:/autodevkitstudio-2.4.0/eclipse/plugins/com.st.tools.spc5.tools.gnu.gcc.ppcvle.win32_4.9.4.20200908161514/toolchain/bin/../lib/gcc/powerpc-eabivle/4.9.4/e200z4\libgcc.a(_make_df.o)
 .bss           0x00000000        0x0 c:/autodevkitstudio-2.4.0/eclipse/plugins/com.st.tools.spc5.tools.gnu.gcc.ppcvle.win32_4.9.4.20200908161514/toolchain/bin/../lib/gcc/powerpc-eabivle/4.9.4/e200z4\libgcc.a(_make_df.o)
 .data          0x00000000        0x0 c:/autodevkitstudio-2.4.0/eclipse/plugins/com.st.tools.spc5.tools.gnu.gcc.ppcvle.win32_4.9.4.20200908161514/toolchain/bin/../lib/gcc/powerpc-eabivle/4.9.4/e200z4\libgcc.a(_df_to_sf.o)
 .bss           0x00000000        0x0 c:/autodevkitstudio-2.4.0/eclipse/plugins/com.st.tools.spc5.tools.gnu.gcc.ppcvle.win32_4.9.4.20200908161514/toolchain/bin/../lib/gcc/powerpc-eabivle/4.9.4/e200z4\libgcc.a(_df_to_sf.o)
 .text          0x00000000        0x0 c:/autodevkitstudio-2.4.0/eclipse/plugins/com.st.tools.spc5.tools.gnu.gcc.ppcvle.win32_4.9.4.20200908161514/toolchain/bin/../lib/gcc/powerpc-eabivle/4.9.4/e200z4\libgcc.a(_thenan_df.o)
 .data          0x00000000        0x0 c:/autodevkitstudio-2.4.0/eclipse/plugins/com.st.tools.spc5.tools.gnu.gcc.ppcvle.win32_4.9.4.20200908161514/toolchain/bin/../lib/gcc/powerpc-eabivle/4.9.4/e200z4\libgcc.a(_thenan_df.o)
 .bss           0x00000000        0x0 c:/autodevkitstudio-2.4.0/eclipse/plugins/com.st.tools.spc5.tools.gnu.gcc.ppcvle.win32_4.9.4.20200908161514/toolchain/bin/../lib/gcc/powerpc-eabivle/4.9.4/e200z4\libgcc.a(_thenan_df.o)
 .data          0x00000000        0x0 c:/autodevkitstudio-2.4.0/eclipse/plugins/com.st.tools.spc5.tools.gnu.gcc.ppcvle.win32_4.9.4.20200908161514/toolchain/bin/../lib/gcc/powerpc-eabivle/4.9.4/e200z4\libgcc.a(e200crtresxgpr.o)
 .bss           0x00000000        0x0 c:/autodevkitstudio-2.4.0/eclipse/plugins/com.st.tools.spc5.tools.gnu.gcc.ppcvle.win32_4.9.4.20200908161514/toolchain/bin/../lib/gcc/powerpc-eabivle/4.9.4/e200z4\libgcc.a(e200crtresxgpr.o)
 .eh_frame      0x00000000       0x7c c:/autodevkitstudio-2.4.0/eclipse/plugins/com.st.tools.spc5.tools.gnu.gcc.ppcvle.win32_4.9.4.20200908161514/toolchain/bin/../lib/gcc/powerpc-eabivle/4.9.4/e200z4\libgcc.a(e200crtresxgpr.o)
 .data          0x00000000        0x0 c:/autodevkitstudio-2.4.0/eclipse/plugins/com.st.tools.spc5.tools.gnu.gcc.ppcvle.win32_4.9.4.20200908161514/toolchain/bin/../lib/gcc/powerpc-eabivle/4.9.4/e200z4\libgcc.a(_pack_sf.o)
 .bss           0x00000000        0x0 c:/autodevkitstudio-2.4.0/eclipse/plugins/com.st.tools.spc5.tools.gnu.gcc.ppcvle.win32_4.9.4.20200908161514/toolchain/bin/../lib/gcc/powerpc-eabivle/4.9.4/e200z4\libgcc.a(_pack_sf.o)
 .data          0x00000000        0x0 c:/autodevkitstudio-2.4.0/eclipse/plugins/com.st.tools.spc5.tools.gnu.gcc.ppcvle.win32_4.9.4.20200908161514/toolchain/bin/../lib/gcc/powerpc-eabivle/4.9.4/e200z4\libgcc.a(_unpack_sf.o)
 .bss           0x00000000        0x0 c:/autodevkitstudio-2.4.0/eclipse/plugins/com.st.tools.spc5.tools.gnu.gcc.ppcvle.win32_4.9.4.20200908161514/toolchain/bin/../lib/gcc/powerpc-eabivle/4.9.4/e200z4\libgcc.a(_unpack_sf.o)
 .data          0x00000000        0x0 c:/autodevkitstudio-2.4.0/eclipse/plugins/com.st.tools.spc5.tools.gnu.gcc.ppcvle.win32_4.9.4.20200908161514/toolchain/bin/../lib/gcc/powerpc-eabivle/4.9.4/e200z4\libgcc.a(_fpcmp_parts_sf.o)
 .bss           0x00000000        0x0 c:/autodevkitstudio-2.4.0/eclipse/plugins/com.st.tools.spc5.tools.gnu.gcc.ppcvle.win32_4.9.4.20200908161514/toolchain/bin/../lib/gcc/powerpc-eabivle/4.9.4/e200z4\libgcc.a(_fpcmp_parts_sf.o)
 .data          0x00000000        0x0 c:/autodevkitstudio-2.4.0/eclipse/plugins/com.st.tools.spc5.tools.gnu.gcc.ppcvle.win32_4.9.4.20200908161514/toolchain/bin/../lib/gcc/powerpc-eabivle/4.9.4/e200z4\libgcc.a(_make_sf.o)
 .bss           0x00000000        0x0 c:/autodevkitstudio-2.4.0/eclipse/plugins/com.st.tools.spc5.tools.gnu.gcc.ppcvle.win32_4.9.4.20200908161514/toolchain/bin/../lib/gcc/powerpc-eabivle/4.9.4/e200z4\libgcc.a(_make_sf.o)
 .data          0x00000000        0x0 c:/autodevkitstudio-2.4.0/eclipse/plugins/com.st.tools.spc5.tools.gnu.gcc.ppcvle.win32_4.9.4.20200908161514/toolchain/bin/../lib/gcc/powerpc-eabivle/4.9.4/e200z4\libgcc.a(_pack_df.o)
 .bss           0x00000000        0x0 c:/autodevkitstudio-2.4.0/eclipse/plugins/com.st.tools.spc5.tools.gnu.gcc.ppcvle.win32_4.9.4.20200908161514/toolchain/bin/../lib/gcc/powerpc-eabivle/4.9.4/e200z4\libgcc.a(_pack_df.o)
 .data          0x00000000        0x0 c:/autodevkitstudio-2.4.0/eclipse/plugins/com.st.tools.spc5.tools.gnu.gcc.ppcvle.win32_4.9.4.20200908161514/toolchain/bin/../lib/gcc/powerpc-eabivle/4.9.4/e200z4\libgcc.a(_unpack_df.o)
 .bss           0x00000000        0x0 c:/autodevkitstudio-2.4.0/eclipse/plugins/com.st.tools.spc5.tools.gnu.gcc.ppcvle.win32_4.9.4.20200908161514/toolchain/bin/../lib/gcc/powerpc-eabivle/4.9.4/e200z4\libgcc.a(_unpack_df.o)
 .data          0x00000000        0x0 c:/autodevkitstudio-2.4.0/eclipse/plugins/com.st.tools.spc5.tools.gnu.gcc.ppcvle.win32_4.9.4.20200908161514/toolchain/bin/../lib/gcc/powerpc-eabivle/4.9.4/e200z4\libgcc.a(_fpcmp_parts_df.o)
 .bss           0x00000000        0x0 c:/autodevkitstudio-2.4.0/eclipse/plugins/com.st.tools.spc5.tools.gnu.gcc.ppcvle.win32_4.9.4.20200908161514/toolchain/bin/../lib/gcc/powerpc-eabivle/4.9.4/e200z4\libgcc.a(_fpcmp_parts_df.o)

Memory Configuration

Name             Origin             Length             Attributes
hsmflash         0x0060c000         0x00024000
dataflash        0x00800000         0x00020000
flash            0x00fc0000         0x00400000
ram              0x400a8000         0x00060000
dram0            0x50800000         0x00010000
dram2            0x52800000         0x00010000
*default*        0x00000000         0xffffffff

Linker script and memory map

LOAD build/obj/boot.o
LOAD build/obj/crt0.o
LOAD build/obj/vectors.o
LOAD build/obj/ivor.o
LOAD build/obj/core0.o
LOAD build/obj/cache.o
LOAD build/obj/spc5_lld.o
LOAD build/obj/spc5_edma.o
LOAD build/obj/can_lld.o
LOAD build/obj/serial_lld.o
LOAD build/obj/pit_lld.o
LOAD build/obj/spi_lld.o
LOAD build/obj/wkpu_lld.o
LOAD build/obj/spc5_linflex.o
LOAD build/obj/AEK_COM_ISOSPI1_lld.o
LOAD build/obj/AEK_POW_BMS63EN_lld.o
LOAD build/obj/AEK_POW_BMS63EN_id.o
LOAD build/obj/AEK_POW_BMS63EN_diag.o
LOAD build/obj/pal.o
LOAD build/obj/clock.o
LOAD build/obj/irq.o
LOAD build/obj/eirq.o
LOAD build/obj/swirq.o
LOAD build/obj/osal.o
LOAD build/obj/systimer.o
LOAD build/obj/serial_lld_cfg.o
LOAD build/obj/can_lld_cfg.o
LOAD build/obj/pit_lld_cfg.o
LOAD build/obj/spi_lld_cfg.o
LOAD build/obj/wkpu_lld_cfg.o
LOAD build/obj/AEK_COM_ISOSPI1_cfg.o
LOAD build/obj/AEK_POW_BMS63EN_cfg.o
LOAD build/obj/board.o
LOAD build/obj/irq_cfg.o
LOAD build/obj/eirq_cfg.o
LOAD build/obj/swirq_cfg.o
LOAD build/obj/main.o
LOAD build/obj/AEK_POW_BMS63EN_Appl.o
LOAD build/obj/BMS_Controller_data.o
LOAD build/obj/Cell_Model_parameter.o
LOAD build/obj/BMS_Controller.o
LOAD build/obj/components.o
LOAD c:/autodevkitstudio-2.4.0/eclipse/plugins/com.st.tools.spc5.tools.gnu.gcc.ppcvle.win32_4.9.4.20200908161514/toolchain/bin/../lib/gcc/powerpc-eabivle/4.9.4/../../../../powerpc-eabivle/lib/e200z4\libm.a
LOAD c:/autodevkitstudio-2.4.0/eclipse/plugins/com.st.tools.spc5.tools.gnu.gcc.ppcvle.win32_4.9.4.20200908161514/toolchain/bin/../lib/gcc/powerpc-eabivle/4.9.4/../../../../powerpc-eabivle/lib/e200z4\libc.a
                0x00000000                __irq_stack_size__ = 0x0
                0x00001000                __process_stack_size__ = 0x1000
                0x00000000                __core0_irq_stack_size__ = 0x0
                0x00000800                __core0_process_stack_size__ = 0x800
                0x00400000                __flash_size__ = LENGTH (flash)
                0x00fc0000                __flash_start__ = ORIGIN (flash)
                0x013c0000                __flash_end__ = (ORIGIN (flash) + LENGTH (flash))
                0x00060000                __ram_size__ = LENGTH (ram)
                0x400a8000                __ram_start__ = ORIGIN (ram)
                0x40108000                __ram_end__ = (ORIGIN (ram) + LENGTH (ram))
                0x00010000                __dram0_size__ = LENGTH (dram0)
                0x50800000                __dram0_start__ = ORIGIN (dram0)
                0x50810000                __dram0_end__ = (ORIGIN (dram0) + LENGTH (dram0))
                0x00010000                __dram2_size__ = LENGTH (dram2)
                0x52800000                __dram2_start__ = ORIGIN (dram2)
                0x52810000                __dram2_end__ = (ORIGIN (dram2) + LENGTH (dram2))
                0x00fc0000                . = ORIGIN (flash)

.boot0          0x00fc0000      0x386
 *(.boot)
 .boot          0x00fc0000      0x1f2 build/obj/boot.o
                0x00fc000c                _reset_address0
                0x00fc0030                _reset_address2
 *(.handlers)
 *fill*         0x00fc01f2        0xe 
 .handlers      0x00fc0200        0x6 build/obj/boot.o
                0x00fc0200                _C0_IVOR15
                0x00fc0200                _C0_IVOR13
                0x00fc0200                _C0_IVOR1
                0x00fc0200                _C0_IVOR14
                0x00fc0200                _C0_IVOR12
                0x00fc0200                _C0_IVOR7
                0x00fc0200                _C0_IVOR2
                0x00fc0200                _C0_IVOR8
                0x00fc0200                _C0_IVOR5
                0x00fc0200                _C0_IVOR11
                0x00fc0200                _C0_IVOR9
                0x00fc0200                _C0_IVOR0
                0x00fc0200                _C0_IVOR6
                0x00fc0200                _unhandled_exception0
                0x00fc0200                _C0_IVOR3
                0x00fc0204                _IVOR9
                0x00fc0204                _IVOR0
                0x00fc0204                _IVOR12
                0x00fc0204                _IVOR1
                0x00fc0204                _IVOR14
                0x00fc0204                _unhandled_exception2
                0x00fc0204                _IVOR6
                0x00fc0204                _IVOR15
                0x00fc0204                _IVOR5
                0x00fc0204                _IVOR3
                0x00fc0204                _IVOR7
                0x00fc0204                _IVOR2
                0x00fc0204                _IVOR8
                0x00fc0204                _IVOR11
                0x00fc0204                _IVOR13
 *fill*         0x00fc0206        0xa 
 .handlers      0x00fc0210       0xb2 build/obj/ivor.o
                0x00fc0210                _IVOR4
                0x00fc0270                _C0_IVOR4
 *(.crt0)
 *fill*         0x00fc02c2        0xe 
 .crt0          0x00fc02d0       0xb6 build/obj/crt0.o
                0x00fc02d0                _boot_address
                0x00fc0348                _main_exit_handler
                0x00fc034e                __late_init
                0x00fc0350                __eabi
                0x00fc0360                _boot_address0

.boot1          0x00fc0390     0x1c72
                0x00fc0400                . = ALIGN (0x100)
 *fill*         0x00fc0390       0x70 
                0x00fc0400                __ivpr0_base__ = .
 *(.core0_ivors)
 .core0_ivors   0x00fc0400       0xf4 build/obj/boot.o
                0x00fc0400                C0_IVORS
                0x00fc0500                . = ALIGN (0x100)
 *fill*         0x00fc04f4        0xc 
                0x00fc0500                __ivpr2_base__ = .
 *(.core2_ivors)
 .core2_ivors   0x00fc0500       0xf4 build/obj/boot.o
                0x00fc0500                IVORS
                0x00fc1000                . = ALIGN (0x1000)
 *fill*         0x00fc05f4      0xa0c 
 *(.vectors)
 .vectors       0x00fc1000     0x1002 build/obj/vectors.o
                0x00fc1000                _vectors
                0x00fc2000                vector971
                0x00fc2000                vector120
                0x00fc2000                vector646
                0x00fc2000                vector276
                0x00fc2000                vector827
                0x00fc2000                vector198
                0x00fc2000                vector464
                0x00fc2000                vector234
                0x00fc2000                vector689
                0x00fc2000                vector25
                0x00fc2000                vector710
                0x00fc2000                vector548
                0x00fc2000                vector403
                0x00fc2000                vector444
                0x00fc2000                vector837
                0x00fc2000                vector487
                0x00fc2000                vector725
                0x00fc2000                vector722
                0x00fc2000                vector769
                0x00fc2000                vector569
                0x00fc2000                vector151
                0x00fc2000                vector501
                0x00fc2000                vector937
                0x00fc2000                vector50
                0x00fc2000                vector15
                0x00fc2000                vector848
                0x00fc2000                vector1017
                0x00fc2000                vector604
                0x00fc2000                vector723
                0x00fc2000                vector774
                0x00fc2000                vector407
                0x00fc2000                vector878
                0x00fc2000                vector387
                0x00fc2000                vector933
                0x00fc2000                vector602
                0x00fc2000                vector149
                0x00fc2000                vector342
                0x00fc2000                vector582
                0x00fc2000                vector8
                0x00fc2000                vector757
                0x00fc2000                vector772
                0x00fc2000                vector729
                0x00fc2000                vector232
                0x00fc2000                vector635
                0x00fc2000                vector265
                0x00fc2000                vector513
                0x00fc2000                vector163
                0x00fc2000                vector1003
                0x00fc2000                vector759
                0x00fc2000                vector982
                0x00fc2000                vector421
                0x00fc2000                vector835
                0x00fc2000                vector880
                0x00fc2000                vector401
                0x00fc2000                vector351
                0x00fc2000                vector481
                0x00fc2000                vector220
                0x00fc2000                vector664
                0x00fc2000                vector294
                0x00fc2000                vector680
                0x00fc2000                vector225
                0x00fc2000                vector886
                0x00fc2000                vector909
                0x00fc2000                vector308
                0x00fc2000                vector467
                0x00fc2000                vector843
                0x00fc2000                vector386
                0x00fc2000                vector556
                0x00fc2000                vector494
                0x00fc2000                vector599
                0x00fc2000                vector424
                0x00fc2000                vector537
                0x00fc2000                vector187
                0x00fc2000                vector1015
                0x00fc2000                vector382
                0x00fc2000                vector883
                0x00fc2000                vector127
                0x00fc2000                vector551
                0x00fc2000                vector1009
                0x00fc2000                vector841
                0x00fc2000                vector30
                0x00fc2000                vector804
                0x00fc2000                vector370
                0x00fc2000                vector337
                0x00fc2000                vector739
                0x00fc2000                vector302
                0x00fc2000                vector367
                0x00fc2000                vector325
                0x00fc2000                vector292
                0x00fc2000                vector268
                0x00fc2000                vector34
                0x00fc2000                vector46
                0x00fc2000                vector988
                0x00fc2000                vector743
                0x00fc2000                vector638
                0x00fc2000                vector794
                0x00fc2000                vector529
                0x00fc2000                vector179
                0x00fc2000                vector764
                0x00fc2000                vector990
                0x00fc2000                vector786
                0x00fc2000                vector437
                0x00fc2000                vector1023
                0x00fc2000                vector134
                0x00fc2000                vector713
                0x00fc2000                vector341
                0x00fc2000                vector218
                0x00fc2000                vector994
                0x00fc2000                vector662
                0x00fc2000                vector888
                0x00fc2000                vector322
                0x00fc2000                vector223
                0x00fc2000                vector881
                0x00fc2000                vector945
                0x00fc2000                vector892
                0x00fc2000                vector410
                0x00fc2000                vector978
                0x00fc2000                vector222
                0x00fc2000                vector704
                0x00fc2000                vector258
                0x00fc2000                vector927
                0x00fc2000                vector887
                0x00fc2000                vector634
                0x00fc2000                vector264
                0x00fc2000                vector628
                0x00fc2000                vector472
                0x00fc2000                vector364
                0x00fc2000                vector205
                0x00fc2000                vector908
                0x00fc2000                vector511
                0x00fc2000                vector161
                0x00fc2000                vector916
                0x00fc2000                vector842
                0x00fc2000                vector510
                0x00fc2000                vector507
                0x00fc2000                vector157
                0x00fc2000                vector416
                0x00fc2000                vector490
                0x00fc2000                vector727
                0x00fc2000                vector389
                0x00fc2000                vector347
                0x00fc2000                vector160
                0x00fc2000                vector344
                0x00fc2000                vector559
                0x00fc2000                vector215
                0x00fc2000                vector352
                0x00fc2000                vector690
                0x00fc2000                vector37
                0x00fc2000                vector920
                0x00fc2000                vector547
                0x00fc2000                vector197
                0x00fc2000                vector596
                0x00fc2000                vector555
                0x00fc2000                vector455
                0x00fc2000                vector129
                0x00fc2000                vector649
                0x00fc2000                vector279
                0x00fc2000                vector6
                0x00fc2000                vector893
                0x00fc2000                vector553
                0x00fc2000                vector681
                0x00fc2000                vector904
                0x00fc2000                vector850
                0x00fc2000                vector415
                0x00fc2000                vector339
                0x00fc2000                vector459
                0x00fc2000                vector823
                0x00fc2000                vector868
                0x00fc2000                vector761
                0x00fc2000                vector600
                0x00fc2000                vector502
                0x00fc2000                vector152
                0x00fc2000                vector838
                0x00fc2000                vector972
                0x00fc2000                vector598
                0x00fc2000                vector423
                0x00fc2000                vector995
                0x00fc2000                vector826
                0x00fc2000                vector49
                0x00fc2000                vector44
                0x00fc2000                vector643
                0x00fc2000                vector469
                0x00fc2000                vector273
                0x00fc2000                vector670
                0x00fc2000                vector991
                0x00fc2000                vector572
                0x00fc2000                vector818
                0x00fc2000                vector943
                0x00fc2000                vector731
                0x00fc2000                vector830
                0x00fc2000                vector523
                0x00fc2000                vector173
                0x00fc2000                vector637
                0x00fc2000                vector686
                0x00fc2000                vector379
                0x00fc2000                vector426
                0x00fc2000                vector485
                0x00fc2000                vector675
                0x00fc2000                vector336
                0x00fc2000                vector911
                0x00fc2000                vector267
                0x00fc2000                vector117
                0x00fc2000                vector566
                0x00fc2000                vector956
                0x00fc2000                vector442
                0x00fc2000                vector456
                0x00fc2000                vector491
                0x00fc2000                vector719
                0x00fc2000                vector309
                0x00fc2000                vector712
                0x00fc2000                vector321
                0x00fc2000                vector575
                0x00fc2000                vector1007
                0x00fc2000                vector12
                0x00fc2000                vector532
                0x00fc2000                vector182
                0x00fc2000                vector466
                0x00fc2000                vector950
                0x00fc2000                vector1000
                0x00fc2000                vector1002
                0x00fc2000                vector383
                0x00fc2000                vector20
                0x00fc2000                vector286
                0x00fc2000                vector417
                0x00fc2000                vector18
                0x00fc2000                vector366
                0x00fc2000                vector776
                0x00fc2000                vector303
                0x00fc2000                vector656
                0x00fc2000                vector986
                0x00fc2000                vector863
                0x00fc2000                vector319
                0x00fc2000                vector907
                0x00fc2000                vector873
                0x00fc2000                vector814
                0x00fc2000                vector542
                0x00fc2000                vector489
                0x00fc2000                vector931
                0x00fc2000                vector658
                0x00fc2000                vector288
                0x00fc2000                vector564
                0x00fc2000                vector861
                0x00fc2000                vector906
                0x00fc2000                vector184
                0x00fc2000                vector577
                0x00fc2000                vector683
                0x00fc2000                vector358
                0x00fc2000                vector446
                0x00fc2000                vector326
                0x00fc2000                vector207
                0x00fc2000                vector915
                0x00fc2000                vector585
                0x00fc2000                vector636
                0x00fc2000                vector266
                0x00fc2000                vector411
                0x00fc2000                vector692
                0x00fc2000                vector188
                0x00fc2000                vector538
                0x00fc2000                vector540
                0x00fc2000                vector190
                0x00fc2000                vector609
                0x00fc2000                vector239
                0x00fc2000                vector567
                0x00fc2000                vector534
                0x00fc2000                vector360
                0x00fc2000                vector654
                0x00fc2000                vector284
                0x00fc2000                vector452
                0x00fc2000                vector782
                0x00fc2000                vector768
                0x00fc2000                vector1005
                0x00fc2000                vector831
                0x00fc2000                vector766
                0x00fc2000                vector633
                0x00fc2000                vector581
                0x00fc2000                vector882
                0x00fc2000                vector685
                0x00fc2000                vector869
                0x00fc2000                vector992
                0x00fc2000                vector699
                0x00fc2000                vector976
                0x00fc2000                vector640
                0x00fc2000                vector270
                0x00fc2000                vector717
                0x00fc2000                vector17
                0x00fc2000                vector315
                0x00fc2000                vector755
                0x00fc2000                vector439
                0x00fc2000                vector721
                0x00fc2000                vector497
                0x00fc2000                vector824
                0x00fc2000                vector735
                0x00fc2000                vector847
                0x00fc2000                vector48
                0x00fc2000                vector659
                0x00fc2000                vector926
                0x00fc2000                vector781
                0x00fc2000                vector984
                0x00fc2000                vector462
                0x00fc2000                vector586
                0x00fc2000                vector299
                0x00fc2000                vector669
                0x00fc2000                vector146
                0x00fc2000                vector897
                0x00fc2000                vector815
                0x00fc2000                vector541
                0x00fc2000                vector191
                0x00fc2000                vector350
                0x00fc2000                vector997
                0x00fc2000                vector854
                0x00fc2000                vector447
                0x00fc2000                vector11
                0x00fc2000                vector14
                0x00fc2000                vector952
                0x00fc2000                vector499
                0x00fc2000                vector480
                0x00fc2000                vector397
                0x00fc2000                vector941
                0x00fc2000                vector454
                0x00fc2000                vector708
                0x00fc2000                vector679
                0x00fc2000                vector406
                0x00fc2000                vector969
                0x00fc2000                vector338
                0x00fc2000                vector148
                0x00fc2000                vector221
                0x00fc2000                vector912
                0x00fc2000                vector353
                0x00fc2000                vector521
                0x00fc2000                vector936
                0x00fc2000                vector219
                0x00fc2000                vector289
                0x00fc2000                vector663
                0x00fc2000                vector293
                0x00fc2000                vector957
                0x00fc2000                vector310
                0x00fc2000                vector171
                0x00fc2000                vector504
                0x00fc2000                vector154
                0x00fc2000                vector851
                0x00fc2000                vector449
                0x00fc2000                vector405
                0x00fc2000                vector800
                0x00fc2000                vector385
                0x00fc2000                vector340
                0x00fc2000                vector716
                0x00fc2000                vector36
                0x00fc2000                vector894
                0x00fc2000                vector605
                0x00fc2000                vector235
                0x00fc2000                vector849
                0x00fc2000                vector874
                0x00fc2000                vector272
                0x00fc2000                vector642
                0x00fc2000                vector164
                0x00fc2000                vector973
                0x00fc2000                vector1012
                0x00fc2000                vector879
                0x00fc2000                vector914
                0x00fc2000                vector514
                0x00fc2000                vector153
                0x00fc2000                vector959
                0x00fc2000                vector684
                0x00fc2000                vector987
                0x00fc2000                vector139
                0x00fc2000                vector503
                0x00fc2000                vector563
                0x00fc2000                vector902
                0x00fc2000                vector949
                0x00fc2000                vector944
                0x00fc2000                vector505
                0x00fc2000                vector155
                0x00fc2000                vector822
                0x00fc2000                vector619
                0x00fc2000                vector167
                0x00fc2000                vector517
                0x00fc2000                vector121
                0x00fc2000                vector867
                0x00fc2000                vector754
                0x00fc2000                vector5
                0x00fc2000                vector320
                0x00fc2000                vector203
                0x00fc2000                vector799
                0x00fc2000                vector195
                0x00fc2000                vector587
                0x00fc2000                vector500
                0x00fc2000                vector150
                0x00fc2000                vector304
                0x00fc2000                vector545
                0x00fc2000                vector590
                0x00fc2000                vector192
                0x00fc2000                vector516
                0x00fc2000                vector166
                0x00fc2000                vector434
                0x00fc2000                vector594
                0x00fc2000                vector618
                0x00fc2000                vector479
                0x00fc2000                vector343
                0x00fc2000                vector271
                0x00fc2000                vector820
                0x00fc2000                vector939
                0x00fc2000                vector31
                0x00fc2000                vector388
                0x00fc2000                vector641
                0x00fc2000                vector891
                0x00fc2000                vector123
                0x00fc2000                vector865
                0x00fc2000                vector665
                0x00fc2000                vector295
                0x00fc2000                vector427
                0x00fc2000                vector938
                0x00fc2000                vector836
                0x00fc2000                vector318
                0x00fc2000                vector910
                0x00fc2000                vector785
                0x00fc2000                vector471
                0x00fc2000                vector28
                0x00fc2000                vector703
                0x00fc2000                vector126
                0x00fc2000                vector934
                0x00fc2000                vector202
                0x00fc2000                vector323
                0x00fc2000                vector744
                0x00fc2000                vector955
                0x00fc2000                vector368
                0x00fc2000                vector550
                0x00fc2000                vector519
                0x00fc2000                vector169
                0x00fc2000                vector413
                0x00fc2000                vector866
                0x00fc2000                vector821
                0x00fc2000                vector457
                0x00fc2000                vector147
                0x00fc2000                vector780
                0x00fc2000                vector742
                0x00fc2000                vector809
                0x00fc2000                vector474
                0x00fc2000                vector603
                0x00fc2000                vector233
                0x00fc2000                vector593
                0x00fc2000                vector373
                0x00fc2000                vector1019
                0x00fc2000                vector204
                0x00fc2000                vector698
                0x00fc2000                vector441
                0x00fc2000                vector756
                0x00fc2000                vector787
                0x00fc2000                vector726
                0x00fc2000                vector283
                0x00fc2000                vector365
                0x00fc2000                vector620
                0x00fc2000                vector591
                0x00fc2000                vector124
                0x00fc2000                vector653
                0x00fc2000                vector749
                0x00fc2000                vector966
                0x00fc2000                vector484
                0x00fc2000                vector668
                0x00fc2000                vector298
                0x00fc2000                vector657
                0x00fc2000                vector287
                0x00fc2000                vector22
                0x00fc2000                vector617
                0x00fc2000                vector923
                0x00fc2000                vector630
                0x00fc2000                vector137
                0x00fc2000                vector979
                0x00fc2000                vector330
                0x00fc2000                vector561
                0x00fc2000                vector963
                0x00fc2000                vector855
                0x00fc2000                vector647
                0x00fc2000                vector277
                0x00fc2000                vector607
                0x00fc2000                vector237
                0x00fc2000                vector27
                0x00fc2000                vector579
                0x00fc2000                vector477
                0x00fc2000                vector177
                0x00fc2000                vector425
                0x00fc2000                vector118
                0x00fc2000                vector328
                0x00fc2000                vector918
                0x00fc2000                vector468
                0x00fc2000                vector701
                0x00fc2000                vector312
                0x00fc2000                vector1013
                0x00fc2000                vector217
                0x00fc2000                vector355
                0x00fc2000                vector661
                0x00fc2000                vector291
                0x00fc2000                vector186
                0x00fc2000                vector536
                0x00fc2000                vector132
                0x00fc2000                vector372
                0x00fc2000                vector583
                0x00fc2000                vector807
                0x00fc2000                vector390
                0x00fc2000                vector527
                0x00fc2000                vector803
                0x00fc2000                vector316
                0x00fc2000                vector905
                0x00fc2000                vector375
                0x00fc2000                vector1022
                0x00fc2000                vector335
                0x00fc2000                vector671
                0x00fc2000                vector210
                0x00fc2000                vector332
                0x00fc2000                vector227
                0x00fc2000                vector834
                0x00fc2000                vector363
                0x00fc2000                vector983
                0x00fc2000                vector307
                0x00fc2000                vector1011
                0x00fc2000                vector224
                0x00fc2000                vector872
                0x00fc2000                vector432
                0x00fc2000                vector1018
                0x00fc2000                vector728
                0x00fc2000                vector21
                0x00fc2000                vector41
                0x00fc2000                vector378
                0x00fc2000                vector790
                0x00fc2000                vector381
                0x00fc2000                vector346
                0x00fc2000                vector940
                0x00fc2000                vector738
                0x00fc2000                vector970
                0x00fc2000                vector998
                0x00fc2000                vector436
                0x00fc2000                vector524
                0x00fc2000                vector174
                0x00fc2000                vector924
                0x00fc2000                vector993
                0x00fc2000                vector613
                0x00fc2000                vector450
                0x00fc2000                vector889
                0x00fc2000                vector300
                0x00fc2000                vector798
                0x00fc2000                vector362
                0x00fc2000                vector211
                0x00fc2000                vector418
                0x00fc2000                vector492
                0x00fc2000                vector495
                0x00fc2000                vector128
                0x00fc2000                vector460
                0x00fc2000                vector51
                0x00fc2000                vector16
                0x00fc2000                vector960
                0x00fc2000                vector714
                0x00fc2000                vector13
                0x00fc2000                vector677
                0x00fc2000                vector753
                0x00fc2000                vector844
                0x00fc2000                vector552
                0x00fc2000                vector765
                0x00fc2000                vector1008
                0x00fc2000                vector1001
                0x00fc2000                vector763
                0x00fc2000                vector953
                0x00fc2000                vector652
                0x00fc2000                vector282
                0x00fc2000                vector608
                0x00fc2000                vector238
                0x00fc2000                vector38
                0x00fc2000                vector178
                0x00fc2000                vector650
                0x00fc2000                vector280
                0x00fc2000                vector980
                0x00fc2000                vector1
                0x00fc2000                vector528
                0x00fc2000                vector557
                0x00fc2000                vector697
                0x00fc2000                vector311
                0x00fc2000                vector929
                0x00fc2000                vector349
                0x00fc2000                vector354
                0x00fc2000                vector624
                0x00fc2000                vector254
                0x00fc2000                vector687
                0x00fc2000                vector967
                0x00fc2000                vector133
                0x00fc2000                vector144
                0x00fc2000                vector644
                0x00fc2000                vector274
                0x00fc2000                vector737
                0x00fc2000                vector269
                0x00fc2000                vector639
                0x00fc2000                vector568
                0x00fc2000                vector165
                0x00fc2000                vector571
                0x00fc2000                vector535
                0x00fc2000                vector185
                0x00fc2000                vector760
                0x00fc2000                vector515
                0x00fc2000                vector496
                0x00fc2000                vector682
                0x00fc2000                vector451
                0x00fc2000                vector900
                0x00fc2000                vector750
                0x00fc2000                vector435
                0x00fc2000                vector942
                0x00fc2000                vector748
                0x00fc2000                vector580
                0x00fc2000                vector709
                0x00fc2000                vector398
                0x00fc2000                vector430
                0x00fc2000                vector506
                0x00fc2000                vector156
                0x00fc2000                vector676
                0x00fc2000                vector412
                0x00fc2000                vector333
                0x00fc2000                vector817
                0x00fc2000                vector578
                0x00fc2000                vector122
                0x00fc2000                vector376
                0x00fc2000                vector43
                0x00fc2000                vector493
                0x00fc2000                vector256
                0x00fc2000                vector621
                0x00fc2000                vector251
                0x00fc2000                vector429
                0x00fc2000                _unhandled_irq
                0x00fc2000                vector626
                0x00fc2000                vector720
                0x00fc2000                vector767
                0x00fc2000                vector612
                0x00fc2000                vector242
                0x00fc2000                vector119
                0x00fc2000                vector829
                0x00fc2000                vector584
                0x00fc2000                vector345
                0x00fc2000                vector718
                0x00fc2000                vector296
                0x00fc2000                vector715
                0x00fc2000                vector213
                0x00fc2000                vector985
                0x00fc2000                vector947
                0x00fc2000                vector666
                0x00fc2000                vector419
                0x00fc2000                vector762
                0x00fc2000                vector795
                0x00fc2000                vector33
                0x00fc2000                vector512
                0x00fc2000                vector162
                0x00fc2000                vector975
                0x00fc2000                vector615
                0x00fc2000                vector816
                0x00fc2000                vector141
                0x00fc2000                vector812
                0x00fc2000                vector859
                0x00fc2000                vector961
                0x00fc2000                vector740
                0x00fc2000                vector348
                0x00fc2000                vector404
                0x00fc2000                vector783
                0x00fc2000                vector214
                0x00fc2000                vector870
                0x00fc2000                vector770
                0x00fc2000                vector954
                0x00fc2000                vector919
                0x00fc2000                vector522
                0x00fc2000                vector172
                0x00fc2000                vector3
                0x00fc2000                vector2
                0x00fc2000                vector359
                0x00fc2000                vector833
                0x00fc2000                vector565
                0x00fc2000                vector253
                0x00fc2000                vector623
                0x00fc2000                vector877
                0x00fc2000                vector461
                0x00fc2000                vector611
                0x00fc2000                vector241
                0x00fc2000                vector876
                0x00fc2000                vector819
                0x00fc2000                vector999
                0x00fc2000                vector431
                0x00fc2000                vector380
                0x00fc2000                vector862
                0x00fc2000                vector24
                0x00fc2000                vector711
                0x00fc2000                vector802
                0x00fc2000                vector7
                0x00fc2000                vector306
                0x00fc2000                vector1014
                0x00fc2000                vector539
                0x00fc2000                vector475
                0x00fc2000                vector189
                0x00fc2000                vector930
                0x00fc2000                vector200
                0x00fc2000                vector655
                0x00fc2000                vector773
                0x00fc2000                vector138
                0x00fc2000                vector864
                0x00fc2000                vector627
                0x00fc2000                vector257
                0x00fc2000                vector562
                0x00fc2000                vector974
                0x00fc2000                vector285
                0x00fc2000                vector414
                0x00fc2000                vector476
                0x00fc2000                vector736
                0x00fc2000                vector928
                0x00fc2000                vector595
                0x00fc2000                vector946
                0x00fc2000                vector1020
                0x00fc2000                vector648
                0x00fc2000                vector278
                0x00fc2000                vector384
                0x00fc2000                vector734
                0x00fc2000                vector236
                0x00fc2000                vector606
                0x00fc2000                vector779
                0x00fc2000                vector488
                0x00fc2000                vector932
                0x00fc2000                vector329
                0x00fc2000                vector747
                0x00fc2000                vector601
                0x00fc2000                vector968
                0x00fc2000                vector29
                0x00fc2000                vector408
                0x00fc2000                vector530
                0x00fc2000                vector463
                0x00fc2000                vector180
                0x00fc2000                vector632
                0x00fc2000                vector925
                0x00fc2000                vector357
                0x00fc2000                vector135
                0x00fc2000                vector796
                0x00fc2000                vector420
                0x00fc2000                vector314
                0x00fc2000                vector771
                0x00fc2000                vector23
                0x00fc2000                vector473
                0x00fc2000                vector458
                0x00fc2000                vector811
                0x00fc2000                vector962
                0x00fc2000                vector903
                0x00fc2000                vector554
                0x00fc2000                vector142
                0x00fc2000                vector860
                0x00fc2000                vector616
                0x00fc2000                vector858
                0x00fc2000                vector705
                0x00fc2000                vector331
                0x00fc2000                vector9
                0x00fc2000                vector327
                0x00fc2000                vector374
                0x00fc2000                vector201
                0x00fc2000                vector445
                0x00fc2000                vector678
                0x00fc2000                vector470
                0x00fc2000                vector758
                0x00fc2000                vector977
                0x00fc2000                vector631
                0x00fc2000                vector845
                0x00fc2000                vector745
                0x00fc2000                vector935
                0x00fc2000                vector792
                0x00fc2000                vector597
                0x00fc2000                vector361
                0x00fc2000                vector262
                0x00fc2000                vector996
                0x00fc2000                vector751
                0x00fc2000                vector570
                0x00fc2000                vector422
                0x00fc2000                vector853
                0x00fc2000                vector696
                0x00fc2000                vector443
                0x00fc2000                vector1021
                0x00fc2000                vector805
                0x00fc2000                vector297
                0x00fc2000                vector730
                0x00fc2000                vector896
                0x00fc2000                vector651
                0x00fc2000                vector281
                0x00fc2000                vector145
                0x00fc2000                vector777
                0x00fc2000                vector964
                0x00fc2000                vector700
                0x00fc2000                vector921
                0x00fc2000                vector1010
                0x00fc2000                vector724
                0x00fc2000                vector746
                0x00fc2000                vector301
                0x00fc2000                vector789
                0x00fc2000                vector40
                0x00fc2000                vector732
                0x00fc2000                vector486
                0x00fc2000                vector465
                0x00fc2000                vector898
                0x00fc2000                vector667
                0x00fc2000                vector828
                0x00fc2000                vector396
                0x00fc2000                vector526
                0x00fc2000                vector176
                0x00fc2000                vector857
                0x00fc2000                vector544
                0x00fc2000                vector402
                0x00fc2000                vector784
                0x00fc2000                vector208
                0x00fc2000                vector482
                0x00fc2000                vector438
                0x00fc2000                vector573
                0x00fc2000                vector707
                0x00fc2000                vector194
                0x00fc2000                vector32
                0x00fc2000                vector693
                0x00fc2000                vector131
                0x00fc2000                vector775
                0x00fc2000                vector622
                0x00fc2000                vector252
                0x00fc2000                vector0
                0x00fc2000                vector589
                0x00fc2000                vector448
                0x00fc2000                vector951
                0x00fc2000                vector810
                0x00fc2000                vector549
                0x00fc2000                vector199
                0x00fc2000                vector741
                0x00fc2000                vector788
                0x00fc2000                vector130
                0x00fc2000                vector377
                0x00fc2000                vector840
                0x00fc2000                vector409
                0x00fc2000                vector688
                0x00fc2000                vector313
                0x00fc2000                vector895
                0x00fc2000                vector440
                0x00fc2000                vector793
                0x00fc2000                vector885
                0x00fc2000                vector125
                0x00fc2000                vector1016
                0x00fc2000                vector645
                0x00fc2000                vector275
                0x00fc2000                vector483
                0x00fc2000                vector813
                0x00fc2000                vector702
                0x00fc2000                vector543
                0x00fc2000                vector193
                0x00fc2000                vector546
                0x00fc2000                vector196
                0x00fc2000                vector588
                0x00fc2000                vector875
                0x00fc2000                vector26
                0x00fc2000                vector391
                0x00fc2000                vector324
                0x00fc2000                vector981
                0x00fc2000                vector356
                0x00fc2000                vector216
                0x00fc2000                vector35
                0x00fc2000                vector871
                0x00fc2000                vector846
                0x00fc2000                vector305
                0x00fc2000                vector733
                0x00fc2000                vector778
                0x00fc2000                vector614
                0x00fc2000                vector453
                0x00fc2000                vector19
                0x00fc2000                vector839
                0x00fc2000                vector989
                0x00fc2000                vector610
                0x00fc2000                vector240
                0x00fc2000                vector791
                0x00fc2000                vector1006
                0x00fc2000                vector140
                0x00fc2000                vector498
                0x00fc2000                vector428
                0x00fc2000                vector39
                0x00fc2000                vector518
                0x00fc2000                vector168
                0x00fc2000                vector592
                0x00fc2000                vector673
                0x00fc2000                vector752
                0x00fc2000                vector806
                0x00fc2000                vector797
                0x00fc2000                vector45
                0x00fc2000                vector508
                0x00fc2000                vector158
                0x00fc2000                vector660
                0x00fc2000                vector290
                0x00fc2000                vector629
                0x00fc2000                vector183
                0x00fc2000                vector509
                0x00fc2000                vector159
                0x00fc2000                vector212
                0x00fc2000                vector856
                0x00fc2000                vector533
                0x00fc2000                vector825
                0x00fc2000                vector181
                0x00fc2000                vector890
                0x00fc2000                vector801
                0x00fc2000                vector558
                0x00fc2000                vector574
                0x00fc2000                vector672
                0x00fc2000                vector576
                0x00fc2000                vector899
                0x00fc2000                vector525
                0x00fc2000                vector175
                0x00fc2000                vector143
                0x00fc2000                vector913
                0x00fc2000                vector958
                0x00fc2000                vector674
                0x00fc2000                vector901
                0x00fc2000                vector47
                0x00fc2000                vector948
                0x00fc2000                vector228
                0x00fc2000                vector42
                0x00fc2000                vector334
                0x00fc2000                vector531
                0x00fc2000                vector371
                0x00fc2000                vector965
                0x00fc2000                vector691
                0x00fc2000                vector4
                0x00fc2000                vector706
                0x00fc2000                vector399
                0x00fc2000                vector478
                0x00fc2000                vector852
                0x00fc2000                vector259
                0x00fc2000                vector209
                0x00fc2000                vector369
                0x00fc2000                vector433
                0x00fc2000                vector917
                0x00fc2000                vector1004
                0x00fc2000                vector832
                0x00fc2000                vector395
                0x00fc2000                vector922
                0x00fc2000                vector625
                0x00fc2000                vector255
                0x00fc2000                vector400
                0x00fc2000                vector317
                0x00fc2000                vector560
                0x00fc2000                vector206
                0x00fc2000                vector520
                0x00fc2000                vector170
                0x00fc2000                vector136
                0x00fc2000                vector10
                0x00fc2000                vector808
                0x00fc2000                vector884

constructors    0x00fc2004        0x0
                [!provide]                PROVIDE (__init_array_start, .)
 *(SORT(.init_array.*))
 *(.init_array)
                [!provide]                PROVIDE (__init_array_end, .)

destructors     0x00fc2004        0x0
                [!provide]                PROVIDE (__fini_array_start, .)
 *(.fini_array)
 *(SORT(.fini_array.*))
                [!provide]                PROVIDE (__fini_array_end, .)

.text_vle
 *(.text_vle)
 *(.text_vle.*)
 *(.gnu.linkonce.t_vle.*)

.text           0x00fc2010     0xb426
 *(.text)
 .text          0x00fc2010       0x44 c:/autodevkitstudio-2.4.0/eclipse/plugins/com.st.tools.spc5.tools.gnu.gcc.ppcvle.win32_4.9.4.20200908161514/toolchain/bin/../lib/gcc/powerpc-eabivle/4.9.4/e200z4\libgcc.a(_fixunssfsi.o)
                0x00fc2010                __fixunssfsi
 *fill*         0x00fc2054        0xc 
 .text          0x00fc2060       0x56 c:/autodevkitstudio-2.4.0/eclipse/plugins/com.st.tools.spc5.tools.gnu.gcc.ppcvle.win32_4.9.4.20200908161514/toolchain/bin/../lib/gcc/powerpc-eabivle/4.9.4/e200z4\libgcc.a(_fixunsdfsi.o)
                0x00fc2060                __fixunsdfsi
 *fill*         0x00fc20b6        0xa 
 .text          0x00fc20c0      0x242 c:/autodevkitstudio-2.4.0/eclipse/plugins/com.st.tools.spc5.tools.gnu.gcc.ppcvle.win32_4.9.4.20200908161514/toolchain/bin/../lib/gcc/powerpc-eabivle/4.9.4/e200z4\libgcc.a(_addsub_sf.o)
                0x00fc2264                __addsf3
                0x00fc22b0                __subsf3
 *fill*         0x00fc2302        0xe 
 .text          0x00fc2310      0x17e c:/autodevkitstudio-2.4.0/eclipse/plugins/com.st.tools.spc5.tools.gnu.gcc.ppcvle.win32_4.9.4.20200908161514/toolchain/bin/../lib/gcc/powerpc-eabivle/4.9.4/e200z4\libgcc.a(_mul_sf.o)
                0x00fc2310                __mulsf3
 *fill*         0x00fc248e        0x2 
 .text          0x00fc2490       0xfc c:/autodevkitstudio-2.4.0/eclipse/plugins/com.st.tools.spc5.tools.gnu.gcc.ppcvle.win32_4.9.4.20200908161514/toolchain/bin/../lib/gcc/powerpc-eabivle/4.9.4/e200z4\libgcc.a(_div_sf.o)
                0x00fc2490                __divsf3
 *fill*         0x00fc258c        0x4 
 .text          0x00fc2590       0x5a c:/autodevkitstudio-2.4.0/eclipse/plugins/com.st.tools.spc5.tools.gnu.gcc.ppcvle.win32_4.9.4.20200908161514/toolchain/bin/../lib/gcc/powerpc-eabivle/4.9.4/e200z4\libgcc.a(_gt_sf.o)
                0x00fc2590                __gtsf2
 *fill*         0x00fc25ea        0x6 
 .text          0x00fc25f0       0x5a c:/autodevkitstudio-2.4.0/eclipse/plugins/com.st.tools.spc5.tools.gnu.gcc.ppcvle.win32_4.9.4.20200908161514/toolchain/bin/../lib/gcc/powerpc-eabivle/4.9.4/e200z4\libgcc.a(_ge_sf.o)
                0x00fc25f0                __gesf2
 *fill*         0x00fc264a        0x6 
 .text          0x00fc2650       0x5a c:/autodevkitstudio-2.4.0/eclipse/plugins/com.st.tools.spc5.tools.gnu.gcc.ppcvle.win32_4.9.4.20200908161514/toolchain/bin/../lib/gcc/powerpc-eabivle/4.9.4/e200z4\libgcc.a(_lt_sf.o)
                0x00fc2650                __ltsf2
 *fill*         0x00fc26aa        0x6 
 .text          0x00fc26b0       0x5a c:/autodevkitstudio-2.4.0/eclipse/plugins/com.st.tools.spc5.tools.gnu.gcc.ppcvle.win32_4.9.4.20200908161514/toolchain/bin/../lib/gcc/powerpc-eabivle/4.9.4/e200z4\libgcc.a(_le_sf.o)
                0x00fc26b0                __lesf2
 *fill*         0x00fc270a        0x6 
 .text          0x00fc2710       0x6a c:/autodevkitstudio-2.4.0/eclipse/plugins/com.st.tools.spc5.tools.gnu.gcc.ppcvle.win32_4.9.4.20200908161514/toolchain/bin/../lib/gcc/powerpc-eabivle/4.9.4/e200z4\libgcc.a(_si_to_sf.o)
                0x00fc2710                __floatsisf
 *fill*         0x00fc277a        0x6 
 .text          0x00fc2780       0x88 c:/autodevkitstudio-2.4.0/eclipse/plugins/com.st.tools.spc5.tools.gnu.gcc.ppcvle.win32_4.9.4.20200908161514/toolchain/bin/../lib/gcc/powerpc-eabivle/4.9.4/e200z4\libgcc.a(_sf_to_si.o)
                0x00fc2780                __fixsfsi
 *fill*         0x00fc2808        0x8 
 .text          0x00fc2810       0x38 c:/autodevkitstudio-2.4.0/eclipse/plugins/com.st.tools.spc5.tools.gnu.gcc.ppcvle.win32_4.9.4.20200908161514/toolchain/bin/../lib/gcc/powerpc-eabivle/4.9.4/e200z4\libgcc.a(_sf_to_df.o)
                0x00fc2810                __extendsfdf2
 *fill*         0x00fc2848        0x8 
 .text          0x00fc2850       0x84 c:/autodevkitstudio-2.4.0/eclipse/plugins/com.st.tools.spc5.tools.gnu.gcc.ppcvle.win32_4.9.4.20200908161514/toolchain/bin/../lib/gcc/powerpc-eabivle/4.9.4/e200z4\libgcc.a(_usi_to_sf.o)
                0x00fc2850                __floatunsisf
 *fill*         0x00fc28d4        0xc 
 .text          0x00fc28e0      0x376 c:/autodevkitstudio-2.4.0/eclipse/plugins/com.st.tools.spc5.tools.gnu.gcc.ppcvle.win32_4.9.4.20200908161514/toolchain/bin/../lib/gcc/powerpc-eabivle/4.9.4/e200z4\libgcc.a(_addsub_df.o)
                0x00fc2b98                __adddf3
                0x00fc2bf4                __subdf3
 *fill*         0x00fc2c56        0xa 
 .text          0x00fc2c60      0x264 c:/autodevkitstudio-2.4.0/eclipse/plugins/com.st.tools.spc5.tools.gnu.gcc.ppcvle.win32_4.9.4.20200908161514/toolchain/bin/../lib/gcc/powerpc-eabivle/4.9.4/e200z4\libgcc.a(_mul_df.o)
                0x00fc2c60                __muldf3
 *fill*         0x00fc2ec4        0xc 
 .text          0x00fc2ed0      0x17e c:/autodevkitstudio-2.4.0/eclipse/plugins/com.st.tools.spc5.tools.gnu.gcc.ppcvle.win32_4.9.4.20200908161514/toolchain/bin/../lib/gcc/powerpc-eabivle/4.9.4/e200z4\libgcc.a(_div_df.o)
                0x00fc2ed0                __divdf3
 *fill*         0x00fc304e        0x2 
 .text          0x00fc3050       0x64 c:/autodevkitstudio-2.4.0/eclipse/plugins/com.st.tools.spc5.tools.gnu.gcc.ppcvle.win32_4.9.4.20200908161514/toolchain/bin/../lib/gcc/powerpc-eabivle/4.9.4/e200z4\libgcc.a(_eq_df.o)
                0x00fc3050                __eqdf2
 *fill*         0x00fc30b4        0xc 
 .text          0x00fc30c0       0x64 c:/autodevkitstudio-2.4.0/eclipse/plugins/com.st.tools.spc5.tools.gnu.gcc.ppcvle.win32_4.9.4.20200908161514/toolchain/bin/../lib/gcc/powerpc-eabivle/4.9.4/e200z4\libgcc.a(_gt_df.o)
                0x00fc30c0                __gtdf2
 *fill*         0x00fc3124        0xc 
 .text          0x00fc3130       0x64 c:/autodevkitstudio-2.4.0/eclipse/plugins/com.st.tools.spc5.tools.gnu.gcc.ppcvle.win32_4.9.4.20200908161514/toolchain/bin/../lib/gcc/powerpc-eabivle/4.9.4/e200z4\libgcc.a(_ge_df.o)
                0x00fc3130                __gedf2
 *fill*         0x00fc3194        0xc 
 .text          0x00fc31a0       0x80 c:/autodevkitstudio-2.4.0/eclipse/plugins/com.st.tools.spc5.tools.gnu.gcc.ppcvle.win32_4.9.4.20200908161514/toolchain/bin/../lib/gcc/powerpc-eabivle/4.9.4/e200z4\libgcc.a(_si_to_df.o)
                0x00fc31a0                __floatsidf
 .text          0x00fc3220       0xa4 c:/autodevkitstudio-2.4.0/eclipse/plugins/com.st.tools.spc5.tools.gnu.gcc.ppcvle.win32_4.9.4.20200908161514/toolchain/bin/../lib/gcc/powerpc-eabivle/4.9.4/e200z4\libgcc.a(_df_to_si.o)
                0x00fc3220                __fixdfsi
 *fill*         0x00fc32c4        0xc 
 .text          0x00fc32d0       0x26 c:/autodevkitstudio-2.4.0/eclipse/plugins/com.st.tools.spc5.tools.gnu.gcc.ppcvle.win32_4.9.4.20200908161514/toolchain/bin/../lib/gcc/powerpc-eabivle/4.9.4/e200z4\libgcc.a(_make_df.o)
                0x00fc32d0                __make_dp
 *fill*         0x00fc32f6        0xa 
 .text          0x00fc3300       0x46 c:/autodevkitstudio-2.4.0/eclipse/plugins/com.st.tools.spc5.tools.gnu.gcc.ppcvle.win32_4.9.4.20200908161514/toolchain/bin/../lib/gcc/powerpc-eabivle/4.9.4/e200z4\libgcc.a(_df_to_sf.o)
                0x00fc3300                __truncdfsf2
 *fill*         0x00fc3346        0xa 
 .text          0x00fc3350       0x52 c:/autodevkitstudio-2.4.0/eclipse/plugins/com.st.tools.spc5.tools.gnu.gcc.ppcvle.win32_4.9.4.20200908161514/toolchain/bin/../lib/gcc/powerpc-eabivle/4.9.4/e200z4\libgcc.a(e200crtresxgpr.o)
                0x00fc3350                _restgpr_14_x
                0x00fc3354                _restgpr_15_x
                0x00fc3358                _restgpr_16_x
                0x00fc335c                _restgpr_17_x
                0x00fc3360                _restgpr_18_x
                0x00fc3364                _restgpr_19_x
                0x00fc3368                _restgpr_20_x
                0x00fc336c                _restgpr_21_x
                0x00fc3370                _restgpr_22_x
                0x00fc3374                _restgpr_23_x
                0x00fc3378                _restgpr_24_x
                0x00fc337c                _restgpr_25_x
                0x00fc3380                _restgpr_26_x
                0x00fc3384                _restgpr_27_x
                0x00fc3388                _restgpr_28_x
                0x00fc338c                _restgpr_29_x
                0x00fc3390                _restgpr_30_x
                0x00fc3394                _restgpr_31_x
 *fill*         0x00fc33a2        0xe 
 .text          0x00fc33b0      0x118 c:/autodevkitstudio-2.4.0/eclipse/plugins/com.st.tools.spc5.tools.gnu.gcc.ppcvle.win32_4.9.4.20200908161514/toolchain/bin/../lib/gcc/powerpc-eabivle/4.9.4/e200z4\libgcc.a(_pack_sf.o)
                0x00fc33b0                __pack_f
 *fill*         0x00fc34c8        0x8 
 .text          0x00fc34d0       0x80 c:/autodevkitstudio-2.4.0/eclipse/plugins/com.st.tools.spc5.tools.gnu.gcc.ppcvle.win32_4.9.4.20200908161514/toolchain/bin/../lib/gcc/powerpc-eabivle/4.9.4/e200z4\libgcc.a(_unpack_sf.o)
                0x00fc34d0                __unpack_f
 .text          0x00fc3550       0xa2 c:/autodevkitstudio-2.4.0/eclipse/plugins/com.st.tools.spc5.tools.gnu.gcc.ppcvle.win32_4.9.4.20200908161514/toolchain/bin/../lib/gcc/powerpc-eabivle/4.9.4/e200z4\libgcc.a(_fpcmp_parts_sf.o)
                0x00fc3550                __fpcmp_parts_f
 *fill*         0x00fc35f2        0xe 
 .text          0x00fc3600       0x20 c:/autodevkitstudio-2.4.0/eclipse/plugins/com.st.tools.spc5.tools.gnu.gcc.ppcvle.win32_4.9.4.20200908161514/toolchain/bin/../lib/gcc/powerpc-eabivle/4.9.4/e200z4\libgcc.a(_make_sf.o)
                0x00fc3600                __make_fp
 .text          0x00fc3620      0x1fc c:/autodevkitstudio-2.4.0/eclipse/plugins/com.st.tools.spc5.tools.gnu.gcc.ppcvle.win32_4.9.4.20200908161514/toolchain/bin/../lib/gcc/powerpc-eabivle/4.9.4/e200z4\libgcc.a(_pack_df.o)
                0x00fc3620                __pack_d
 *fill*         0x00fc381c        0x4 
 .text          0x00fc3820       0xb0 c:/autodevkitstudio-2.4.0/eclipse/plugins/com.st.tools.spc5.tools.gnu.gcc.ppcvle.win32_4.9.4.20200908161514/toolchain/bin/../lib/gcc/powerpc-eabivle/4.9.4/e200z4\libgcc.a(_unpack_df.o)
                0x00fc3820                __unpack_d
 .text          0x00fc38d0       0xba c:/autodevkitstudio-2.4.0/eclipse/plugins/com.st.tools.spc5.tools.gnu.gcc.ppcvle.win32_4.9.4.20200908161514/toolchain/bin/../lib/gcc/powerpc-eabivle/4.9.4/e200z4\libgcc.a(_fpcmp_parts_df.o)
                0x00fc38d0                __fpcmp_parts_d
 *(.text.*)
 *fill*         0x00fc398a        0x6 
 .text.spc5LLDInit
                0x00fc3990       0x26 build/obj/spc5_lld.o
                0x00fc3990                spc5LLDInit
 *fill*         0x00fc39b6        0xa 
 .text.vector52
                0x00fc39c0       0x9a build/obj/spc5_edma.o
                0x00fc39c0                vector52
 *fill*         0x00fc3a5a        0x6 
 .text.vector53
                0x00fc3a60       0x5c build/obj/spc5_edma.o
                0x00fc3a60                vector53
 *fill*         0x00fc3abc        0x4 
 .text.vector54
                0x00fc3ac0       0x5c build/obj/spc5_edma.o
                0x00fc3ac0                vector54
 *fill*         0x00fc3b1c        0x4 
 .text.vector55
                0x00fc3b20       0x5c build/obj/spc5_edma.o
                0x00fc3b20                vector55
 *fill*         0x00fc3b7c        0x4 
 .text.vector56
                0x00fc3b80       0x5c build/obj/spc5_edma.o
                0x00fc3b80                vector56
 *fill*         0x00fc3bdc        0x4 
 .text.vector57
                0x00fc3be0       0x5c build/obj/spc5_edma.o
                0x00fc3be0                vector57
 *fill*         0x00fc3c3c        0x4 
 .text.vector58
                0x00fc3c40       0x5c build/obj/spc5_edma.o
                0x00fc3c40                vector58
 *fill*         0x00fc3c9c        0x4 
 .text.vector59
                0x00fc3ca0       0x5c build/obj/spc5_edma.o
                0x00fc3ca0                vector59
 *fill*         0x00fc3cfc        0x4 
 .text.vector60
                0x00fc3d00       0x5c build/obj/spc5_edma.o
                0x00fc3d00                vector60
 *fill*         0x00fc3d5c        0x4 
 .text.vector61
                0x00fc3d60       0x5c build/obj/spc5_edma.o
                0x00fc3d60                vector61
 *fill*         0x00fc3dbc        0x4 
 .text.vector62
                0x00fc3dc0       0x5c build/obj/spc5_edma.o
                0x00fc3dc0                vector62
 *fill*         0x00fc3e1c        0x4 
 .text.vector63
                0x00fc3e20       0x5c build/obj/spc5_edma.o
                0x00fc3e20                vector63
 *fill*         0x00fc3e7c        0x4 
 .text.vector64
                0x00fc3e80       0x5c build/obj/spc5_edma.o
                0x00fc3e80                vector64
 *fill*         0x00fc3edc        0x4 
 .text.vector65
                0x00fc3ee0       0x5c build/obj/spc5_edma.o
                0x00fc3ee0                vector65
 *fill*         0x00fc3f3c        0x4 
 .text.vector66
                0x00fc3f40       0x5c build/obj/spc5_edma.o
                0x00fc3f40                vector66
 *fill*         0x00fc3f9c        0x4 
 .text.vector67
                0x00fc3fa0       0x5c build/obj/spc5_edma.o
                0x00fc3fa0                vector67
 *fill*         0x00fc3ffc        0x4 
 .text.vector68
                0x00fc4000       0x5c build/obj/spc5_edma.o
                0x00fc4000                vector68
 *fill*         0x00fc405c        0x4 
 .text.vector69
                0x00fc4060       0x60 build/obj/spc5_edma.o
                0x00fc4060                vector69
 .text.vector70
                0x00fc40c0       0x60 build/obj/spc5_edma.o
                0x00fc40c0                vector70
 .text.vector71
                0x00fc4120       0x60 build/obj/spc5_edma.o
                0x00fc4120                vector71
 .text.vector72
                0x00fc4180       0x60 build/obj/spc5_edma.o
                0x00fc4180                vector72
 .text.vector73
                0x00fc41e0       0x60 build/obj/spc5_edma.o
                0x00fc41e0                vector73
 .text.vector74
                0x00fc4240       0x60 build/obj/spc5_edma.o
                0x00fc4240                vector74
 .text.vector75
                0x00fc42a0       0x60 build/obj/spc5_edma.o
                0x00fc42a0                vector75
 .text.vector76
                0x00fc4300       0x60 build/obj/spc5_edma.o
                0x00fc4300                vector76
 .text.vector77
                0x00fc4360       0x60 build/obj/spc5_edma.o
                0x00fc4360                vector77
 .text.vector78
                0x00fc43c0       0x60 build/obj/spc5_edma.o
                0x00fc43c0                vector78
 .text.vector79
                0x00fc4420       0x60 build/obj/spc5_edma.o
                0x00fc4420                vector79
 .text.vector80
                0x00fc4480       0x60 build/obj/spc5_edma.o
                0x00fc4480                vector80
 .text.vector81
                0x00fc44e0       0x60 build/obj/spc5_edma.o
                0x00fc44e0                vector81
 .text.vector82
                0x00fc4540       0x60 build/obj/spc5_edma.o
                0x00fc4540                vector82
 .text.vector83
                0x00fc45a0       0x60 build/obj/spc5_edma.o
                0x00fc45a0                vector83
 .text.vector84
                0x00fc4600       0x60 build/obj/spc5_edma.o
                0x00fc4600                vector84
 .text.vector85
                0x00fc4660       0x60 build/obj/spc5_edma.o
                0x00fc4660                vector85
 .text.vector86
                0x00fc46c0       0x60 build/obj/spc5_edma.o
                0x00fc46c0                vector86
 .text.vector87
                0x00fc4720       0x60 build/obj/spc5_edma.o
                0x00fc4720                vector87
 .text.vector88
                0x00fc4780       0x60 build/obj/spc5_edma.o
                0x00fc4780                vector88
 .text.vector89
                0x00fc47e0       0x60 build/obj/spc5_edma.o
                0x00fc47e0                vector89
 .text.vector90
                0x00fc4840       0x60 build/obj/spc5_edma.o
                0x00fc4840                vector90
 .text.vector91
                0x00fc48a0       0x60 build/obj/spc5_edma.o
                0x00fc48a0                vector91
 .text.vector92
                0x00fc4900       0x60 build/obj/spc5_edma.o
                0x00fc4900                vector92
 .text.vector93
                0x00fc4960       0x60 build/obj/spc5_edma.o
                0x00fc4960                vector93
 .text.vector94
                0x00fc49c0       0x60 build/obj/spc5_edma.o
                0x00fc49c0                vector94
 .text.vector95
                0x00fc4a20       0x60 build/obj/spc5_edma.o
                0x00fc4a20                vector95
 .text.vector96
                0x00fc4a80       0x60 build/obj/spc5_edma.o
                0x00fc4a80                vector96
 .text.vector97
                0x00fc4ae0       0x60 build/obj/spc5_edma.o
                0x00fc4ae0                vector97
 .text.vector98
                0x00fc4b40       0x60 build/obj/spc5_edma.o
                0x00fc4b40                vector98
 .text.vector99
                0x00fc4ba0       0x60 build/obj/spc5_edma.o
                0x00fc4ba0                vector99
 .text.vector100
                0x00fc4c00       0x60 build/obj/spc5_edma.o
                0x00fc4c00                vector100
 .text.vector101
                0x00fc4c60       0x60 build/obj/spc5_edma.o
                0x00fc4c60                vector101
 .text.vector102
                0x00fc4cc0       0x60 build/obj/spc5_edma.o
                0x00fc4cc0                vector102
 .text.vector103
                0x00fc4d20       0x60 build/obj/spc5_edma.o
                0x00fc4d20                vector103
 .text.vector104
                0x00fc4d80       0x60 build/obj/spc5_edma.o
                0x00fc4d80                vector104
 .text.vector105
                0x00fc4de0       0x60 build/obj/spc5_edma.o
                0x00fc4de0                vector105
 .text.vector106
                0x00fc4e40       0x60 build/obj/spc5_edma.o
                0x00fc4e40                vector106
 .text.vector107
                0x00fc4ea0       0x60 build/obj/spc5_edma.o
                0x00fc4ea0                vector107
 .text.vector108
                0x00fc4f00       0x60 build/obj/spc5_edma.o
                0x00fc4f00                vector108
 .text.vector109
                0x00fc4f60       0x60 build/obj/spc5_edma.o
                0x00fc4f60                vector109
 .text.vector110
                0x00fc4fc0       0x60 build/obj/spc5_edma.o
                0x00fc4fc0                vector110
 .text.vector111
                0x00fc5020       0x60 build/obj/spc5_edma.o
                0x00fc5020                vector111
 .text.vector112
                0x00fc5080       0x60 build/obj/spc5_edma.o
                0x00fc5080                vector112
 .text.vector113
                0x00fc50e0       0x60 build/obj/spc5_edma.o
                0x00fc50e0                vector113
 .text.vector114
                0x00fc5140       0x60 build/obj/spc5_edma.o
                0x00fc5140                vector114
 .text.vector115
                0x00fc51a0       0x60 build/obj/spc5_edma.o
                0x00fc51a0                vector115
 .text.vector116
                0x00fc5200       0x60 build/obj/spc5_edma.o
                0x00fc5200                vector116
 .text.edmaInit
                0x00fc5260       0xd2 build/obj/spc5_edma.o
                0x00fc5260                edmaInit
 *fill*         0x00fc5332        0xe 
 .text.can_lld_getframesize
                0x00fc5340       0x3e build/obj/can_lld.o
                0x00fc5340                can_lld_getframesize
 *fill*         0x00fc537e        0x2 
 .text.can_lld_readBuffer
                0x00fc5380      0x12a build/obj/can_lld.o
                0x00fc5380                can_lld_readBuffer
 *fill*         0x00fc54aa        0x6 
 .text.can_lld_getDLC
                0x00fc54b0       0x48 build/obj/can_lld.o
                0x00fc54b0                can_lld_getDLC
 *fill*         0x00fc54f8        0x8 
 .text.can_lld_writeTxBuffer
                0x00fc5500      0x108 build/obj/can_lld.o
                0x00fc5500                can_lld_writeTxBuffer
 *fill*         0x00fc5608        0x8 
 .text.vector694
                0x00fc5610      0x4e6 build/obj/can_lld.o
                0x00fc5610                vector694
 *fill*         0x00fc5af6        0xa 
 .text.vector695
                0x00fc5b00      0x4a4 build/obj/can_lld.o
                0x00fc5b00                vector695
 *fill*         0x00fc5fa4        0xc 
 .text.can_lld_init
                0x00fc5fb0       0x5e build/obj/can_lld.o
                0x00fc5fb0                can_lld_init
 *fill*         0x00fc600e        0x2 
 .text.can_lld_start
                0x00fc6010      0x734 build/obj/can_lld.o
                0x00fc6010                can_lld_start
 *fill*         0x00fc6744        0xc 
 .text.can_lld_transmit
                0x00fc6750      0x120 build/obj/can_lld.o
                0x00fc6750                can_lld_transmit
 .text.spc5xx_serve_rxi_interrupt
                0x00fc6870       0xbe build/obj/serial_lld.o
 *fill*         0x00fc692e        0x2 
 .text.spc5xx_serve_txi_interrupt
                0x00fc6930       0x70 build/obj/serial_lld.o
 .text.spc5xx_serve_err_interrupt
                0x00fc69a0        0xa build/obj/serial_lld.o
 *fill*         0x00fc69aa        0x6 
 .text.sd_lld_init
                0x00fc69b0       0x4e build/obj/serial_lld.o
                0x00fc69b0                sd_lld_init
 *fill*         0x00fc69fe        0x2 
 .text.sd_lld_start
                0x00fc6a00       0x9c build/obj/serial_lld.o
                0x00fc6a00                sd_lld_start
 *fill*         0x00fc6a9c        0x4 
 .text.vector229
                0x00fc6aa0       0x32 build/obj/pit_lld.o
                0x00fc6aa0                vector229
 *fill*         0x00fc6ad2        0xe 
 .text.vector230
                0x00fc6ae0       0x32 build/obj/pit_lld.o
                0x00fc6ae0                vector230
 *fill*         0x00fc6b12        0xe 
 .text.vector231
                0x00fc6b20       0x34 build/obj/pit_lld.o
                0x00fc6b20                vector231
 *fill*         0x00fc6b54        0xc 
 .text.pit_lld_init
                0x00fc6b60       0x2e build/obj/pit_lld.o
                0x00fc6b60                pit_lld_init
 *fill*         0x00fc6b8e        0x2 
 .text.pit_lld_start
                0x00fc6b90        0x4 build/obj/pit_lld.o
                0x00fc6b90                pit_lld_start
 *fill*         0x00fc6b94        0xc 
 .text.pit_lld_channel_start
                0x00fc6ba0       0xa6 build/obj/pit_lld.o
                0x00fc6ba0                pit_lld_channel_start
 *fill*         0x00fc6c46        0xa 
 .text.spi_dspi_prefill_txfifo_idle
                0x00fc6c50       0xac build/obj/spi_lld.o
 *fill*         0x00fc6cfc        0x4 
 .text.spi_dspi_prefill_txfifo8
                0x00fc6d00       0x8c build/obj/spi_lld.o
 *fill*         0x00fc6d8c        0x4 
 .text.spi_dspi_prefill_txfifo16
                0x00fc6d90       0xa8 build/obj/spi_lld.o
 *fill*         0x00fc6e38        0x8 
 .text.spi_dspi_prefill_txfifo32
                0x00fc6e40       0xe0 build/obj/spi_lld.o
 .text.spi_start_tx8
                0x00fc6f20       0x5a build/obj/spi_lld.o
 *fill*         0x00fc6f7a        0x6 
 .text.spi_start_tx16
                0x00fc6f80       0x5a build/obj/spi_lld.o
 *fill*         0x00fc6fda        0x6 
 .text.spi_start_tx32
                0x00fc6fe0       0x5a build/obj/spi_lld.o
 *fill*         0x00fc703a        0x6 
 .text.vector263
                0x00fc7040      0x13c build/obj/spi_lld.o
                0x00fc7040                vector263
 *fill*         0x00fc717c        0x4 
 .text.vector260
                0x00fc7180      0x106 build/obj/spi_lld.o
                0x00fc7180                vector260
 *fill*         0x00fc7286        0xa 
 .text.vector261
                0x00fc7290       0xa8 build/obj/spi_lld.o
                0x00fc7290                vector261
 *fill*         0x00fc7338        0x8 
 .text.spi_lld_init
                0x00fc7340       0x32 build/obj/spi_lld.o
                0x00fc7340                spi_lld_init
 *fill*         0x00fc7372        0xe 
 .text.spi_lld_start
                0x00fc7380       0xae build/obj/spi_lld.o
                0x00fc7380                spi_lld_start
 *fill*         0x00fc742e        0x2 
 .text.spi_lld_exchange
                0x00fc7430       0x8c build/obj/spi_lld.o
                0x00fc7430                spi_lld_exchange
 *fill*         0x00fc74bc        0x4 
 .text.spi_lld_receive
                0x00fc74c0       0xa4 build/obj/spi_lld.o
                0x00fc74c0                spi_lld_receive
 *fill*         0x00fc7564        0xc 
 .text.vector247
                0x00fc7570       0x70 build/obj/wkpu_lld.o
                0x00fc7570                vector247
 .text.vector248
                0x00fc75e0       0x76 build/obj/wkpu_lld.o
                0x00fc75e0                vector248
 *fill*         0x00fc7656        0xa 
 .text.vector249
                0x00fc7660       0x76 build/obj/wkpu_lld.o
                0x00fc7660                vector249
 *fill*         0x00fc76d6        0xa 
 .text.vector250
                0x00fc76e0       0x74 build/obj/wkpu_lld.o
                0x00fc76e0                vector250
 *fill*         0x00fc7754        0xc 
 .text.wkpu_lld_init
                0x00fc7760       0x4a build/obj/wkpu_lld.o
                0x00fc7760                wkpu_lld_init
 *fill*         0x00fc77aa        0x6 
 .text.wkpu_lld_start
                0x00fc77b0      0x1cc build/obj/wkpu_lld.o
                0x00fc77b0                wkpu_lld_start
 *fill*         0x00fc797c        0x4 
 .text.vector392
                0x00fc7980       0x12 build/obj/spc5_linflex.o
                0x00fc7980                vector392
 *fill*         0x00fc7992        0xe 
 .text.vector393
                0x00fc79a0       0x12 build/obj/spc5_linflex.o
                0x00fc79a0                vector393
 *fill*         0x00fc79b2        0xe 
 .text.vector394
                0x00fc79c0       0x12 build/obj/spc5_linflex.o
                0x00fc79c0                vector394
 *fill*         0x00fc79d2        0xe 
 .text.linflex_lld_init
                0x00fc79e0       0x28 build/obj/spc5_linflex.o
                0x00fc79e0                linflex_lld_init
 *fill*         0x00fc7a08        0x8 
 .text.AEK_COM_ISOSPI_SetAsSlave
                0x00fc7a10       0x3c build/obj/AEK_COM_ISOSPI1_lld.o
                0x00fc7a10                AEK_COM_ISOSPI_SetAsSlave
 *fill*         0x00fc7a4c        0x4 
 .text.AEK_COM_ISOSPI_EnableTransceiverComm
                0x00fc7a50       0x3c build/obj/AEK_COM_ISOSPI1_lld.o
                0x00fc7a50                AEK_COM_ISOSPI_EnableTransceiverComm
 *fill*         0x00fc7a8c        0x4 
 .text.AEK_COM_ISOSPI_EnableTransceiver
                0x00fc7a90       0x3c build/obj/AEK_COM_ISOSPI1_lld.o
                0x00fc7a90                AEK_COM_ISOSPI_EnableTransceiver
 *fill*         0x00fc7acc        0x4 
 .text.AEK_COM_ISOSPI_ISOTX_Attenuate
                0x00fc7ad0       0x3c build/obj/AEK_COM_ISOSPI1_lld.o
                0x00fc7ad0                AEK_COM_ISOSPI_ISOTX_Attenuate
 *fill*         0x00fc7b0c        0x4 
 .text.AEK_COM_ISOSPI_GetFault
                0x00fc7b10       0x60 build/obj/AEK_COM_ISOSPI1_lld.o
                0x00fc7b10                AEK_COM_ISOSPI_GetFault
 .text.AEK_COM_ISOSPI_ConfigISOFreq
                0x00fc7b70       0x48 build/obj/AEK_COM_ISOSPI1_lld.o
                0x00fc7b70                AEK_COM_ISOSPI_ConfigISOFreq
 *fill*         0x00fc7bb8        0x8 
 .text.AEK_POW_BMS63EN_SetUpSPIData
                0x00fc7bc0      0x140 build/obj/AEK_POW_BMS63EN_lld.o
 .text.AEK_POW_BMS63EN_ObjectInit
                0x00fc7d00       0x10 build/obj/AEK_POW_BMS63EN_lld.o
                0x00fc7d00                AEK_POW_BMS63EN_ObjectInit
 .text.AEK_POW_BMS63EN_Start
                0x00fc7d10       0x54 build/obj/AEK_POW_BMS63EN_lld.o
                0x00fc7d10                AEK_POW_BMS63EN_Start
 *fill*         0x00fc7d64        0xc 
 .text.AEK_POW_BMS63EN_SPIQueuedAccess
                0x00fc7d70       0x98 build/obj/AEK_POW_BMS63EN_lld.o
                0x00fc7d70                AEK_POW_BMS63EN_SPIQueuedAccess
 *fill*         0x00fc7e08        0x8 
 .text.AEK_POW_BMS63EN_SPIBurstAccess
                0x00fc7e10       0xd2 build/obj/AEK_POW_BMS63EN_lld.o
                0x00fc7e10                AEK_POW_BMS63EN_SPIBurstAccess
 *fill*         0x00fc7ee2        0xe 
 .text.AEK_POW_BMS63EN_SPIWriteRegister
                0x00fc7ef0       0x36 build/obj/AEK_POW_BMS63EN_lld.o
                0x00fc7ef0                AEK_POW_BMS63EN_SPIWriteRegister
 *fill*         0x00fc7f26        0xa 
 .text.AEK_POW_BMS63EN_SPIBroadcastAccess
                0x00fc7f30       0x2e build/obj/AEK_POW_BMS63EN_lld.o
                0x00fc7f30                AEK_POW_BMS63EN_SPIBroadcastAccess
 *fill*         0x00fc7f5e        0x2 
 .text.AEK_POW_BMS63EN_SPIReadRegister
                0x00fc7f60       0x4a build/obj/AEK_POW_BMS63EN_lld.o
                0x00fc7f60                AEK_POW_BMS63EN_SPIReadRegister
 *fill*         0x00fc7faa        0x6 
 .text.AEK_POW_BMS63EN_Get_Conf_OVL
                0x00fc7fb0       0x3a build/obj/AEK_POW_BMS63EN_id.o
                0x00fc7fb0                AEK_POW_BMS63EN_Get_Conf_OVL
 *fill*         0x00fc7fea        0x6 
 .text.AEK_POW_BMS63EN_EnableCoulombCounting
                0x00fc7ff0       0x42 build/obj/AEK_POW_BMS63EN_id.o
                0x00fc7ff0                AEK_POW_BMS63EN_EnableCoulombCounting
 *fill*         0x00fc8032        0xe 
 .text.AEK_POW_BMS63EN_GPIO7_OT_UT_Mask
                0x00fc8040       0x42 build/obj/AEK_POW_BMS63EN_id.o
                0x00fc8040                AEK_POW_BMS63EN_GPIO7_OT_UT_Mask
 *fill*         0x00fc8082        0xe 
 .text.AEK_POW_BMS63EN_SetADCFilterSOC
                0x00fc8090       0x48 build/obj/AEK_POW_BMS63EN_id.o
                0x00fc8090                AEK_POW_BMS63EN_SetADCFilterSOC
 *fill*         0x00fc80d8        0x8 
 .text.AEK_POW_BMS63EN_SetVBattOVThreshold
                0x00fc80e0       0x5e build/obj/AEK_POW_BMS63EN_id.o
                0x00fc80e0                AEK_POW_BMS63EN_SetVBattOVThreshold
 *fill*         0x00fc813e        0x2 
 .text.AEK_POW_BMS63EN_SetVBattUVThreshold
                0x00fc8140       0x5c build/obj/AEK_POW_BMS63EN_id.o
                0x00fc8140                AEK_POW_BMS63EN_SetVBattUVThreshold
 *fill*         0x00fc819c        0x4 
 .text.AEK_POW_BMS63EN_SetVCellOVThreshold
                0x00fc81a0       0x68 build/obj/AEK_POW_BMS63EN_id.o
                0x00fc81a0                AEK_POW_BMS63EN_SetVCellOVThreshold
 *fill*         0x00fc8208        0x8 
 .text.AEK_POW_BMS63EN_SetVCellUVThreshold
                0x00fc8210       0x66 build/obj/AEK_POW_BMS63EN_id.o
                0x00fc8210                AEK_POW_BMS63EN_SetVCellUVThreshold
 *fill*         0x00fc8276        0xa 
 .text.AEK_POW_BMS63EN_GetVTREFVoltMeasurement
                0x00fc8280       0x50 build/obj/AEK_POW_BMS63EN_id.o
                0x00fc8280                AEK_POW_BMS63EN_GetVTREFVoltMeasurement
 .text.AEK_POW_BMS63EN_SetVTREFAlwaysEnabled
                0x00fc82d0       0x58 build/obj/AEK_POW_BMS63EN_id.o
                0x00fc82d0                AEK_POW_BMS63EN_SetVTREFAlwaysEnabled
 *fill*         0x00fc8328        0x8 
 .text.AEK_POW_BMS63EN_SetVTREFEnabled
                0x00fc8330       0x56 build/obj/AEK_POW_BMS63EN_id.o
                0x00fc8330                AEK_POW_BMS63EN_SetVTREFEnabled
 *fill*         0x00fc8386        0xa 
 .text.AEK_POW_BMS63EN_SetVTREFDisabled
                0x00fc8390       0x42 build/obj/AEK_POW_BMS63EN_id.o
                0x00fc8390                AEK_POW_BMS63EN_SetVTREFDisabled
 *fill*         0x00fc83d2        0xe 
 .text.AEK_POW_BMS63EN_StartUpWKUP
                0x00fc83e0      0x17e build/obj/AEK_POW_BMS63EN_id.o
                0x00fc83e0                AEK_POW_BMS63EN_StartUpWKUP
 *fill*         0x00fc855e        0x2 
 .text.AEK_POW_BMS63EN_StartManualConversion
                0x00fc8560      0x144 build/obj/AEK_POW_BMS63EN_id.o
                0x00fc8560                AEK_POW_BMS63EN_StartManualConversion
 *fill*         0x00fc86a4        0xc 
 .text.AEK_POW_BMS63EN_DisableCell
                0x00fc86b0       0xd6 build/obj/AEK_POW_BMS63EN_id.o
                0x00fc86b0                AEK_POW_BMS63EN_DisableCell
 *fill*         0x00fc8786        0xa 
 .text.AEK_POW_BMS63EN_DisableCellBalancing
                0x00fc8790      0x172 build/obj/AEK_POW_BMS63EN_id.o
                0x00fc8790                AEK_POW_BMS63EN_DisableCellBalancing
 *fill*         0x00fc8902        0xe 
 .text.AEK_POW_BMS63EN_EnableCellBalancing
                0x00fc8910      0x172 build/obj/AEK_POW_BMS63EN_id.o
                0x00fc8910                AEK_POW_BMS63EN_EnableCellBalancing
 *fill*         0x00fc8a82        0xe 
 .text.AEK_POW_BMS63EN_EnableCell
                0x00fc8a90       0xbe build/obj/AEK_POW_BMS63EN_id.o
                0x00fc8a90                AEK_POW_BMS63EN_EnableCell
 *fill*         0x00fc8b4e        0x2 
 .text.AEK_POW_BMS63EN_GetBalancingStatus
                0x00fc8b50       0x38 build/obj/AEK_POW_BMS63EN_id.o
                0x00fc8b50                AEK_POW_BMS63EN_GetBalancingStatus
 *fill*         0x00fc8b88        0x8 
 .text.AEK_POW_BMS63EN_GetInstCurrentMeasurement
                0x00fc8b90       0xc8 build/obj/AEK_POW_BMS63EN_id.o
                0x00fc8b90                AEK_POW_BMS63EN_GetInstCurrentMeasurement
 *fill*         0x00fc8c58        0x8 
 .text.AEK_POW_BMS63EN_GetCellVoltMeasurement
                0x00fc8c60       0x54 build/obj/AEK_POW_BMS63EN_id.o
                0x00fc8c60                AEK_POW_BMS63EN_GetCellVoltMeasurement
 *fill*         0x00fc8cb4        0xc 
 .text.AEK_POW_BMS63EN_GetBatteryPackVoltMeasurement
                0x00fc8cc0       0x6a build/obj/AEK_POW_BMS63EN_id.o
                0x00fc8cc0                AEK_POW_BMS63EN_GetBatteryPackVoltMeasurement
 *fill*         0x00fc8d2a        0x6 
 .text.AEK_POW_BMS63EN_SetBalancingMode
                0x00fc8d30       0x9e build/obj/AEK_POW_BMS63EN_id.o
                0x00fc8d30                AEK_POW_BMS63EN_SetBalancingMode
 *fill*         0x00fc8dce        0x2 
 .text.AEK_POW_BMS63EN_StartCellBalancing
                0x00fc8dd0       0x44 build/obj/AEK_POW_BMS63EN_id.o
                0x00fc8dd0                AEK_POW_BMS63EN_StartCellBalancing
 *fill*         0x00fc8e14        0xc 
 .text.AEK_POW_BMS63EN_StopCellBalancing
                0x00fc8e20       0x44 build/obj/AEK_POW_BMS63EN_id.o
                0x00fc8e20                AEK_POW_BMS63EN_StopCellBalancing
 *fill*         0x00fc8e64        0xc 
 .text.AEK_POW_BMS63EN_GetNTCMeasurement
                0x00fc8e70       0xe0 build/obj/AEK_POW_BMS63EN_id.o
                0x00fc8e70                AEK_POW_BMS63EN_GetNTCMeasurement
 .text.AEK_POW_BMS63EN_SetOvercurrentThreshold
                0x00fc8f50       0x54 build/obj/AEK_POW_BMS63EN_id.o
                0x00fc8f50                AEK_POW_BMS63EN_SetOvercurrentThreshold
 *fill*         0x00fc8fa4        0xc 
 .text.AEK_POW_BMS63EN_ConfigGPIO
                0x00fc8fb0      0x368 build/obj/AEK_POW_BMS63EN_id.o
                0x00fc8fb0                AEK_POW_BMS63EN_ConfigGPIO
 *fill*         0x00fc9318        0x8 
 .text.AEK_POW_BMS63EN_SetGPIOModeAbsolute
                0x00fc9320      0x264 build/obj/AEK_POW_BMS63EN_id.o
                0x00fc9320                AEK_POW_BMS63EN_SetGPIOModeAbsolute
 *fill*         0x00fc9584        0xc 
 .text.AEK_POW_BMS63EN_SetGPIOModeRatiometric
                0x00fc9590      0x264 build/obj/AEK_POW_BMS63EN_id.o
                0x00fc9590                AEK_POW_BMS63EN_SetGPIOModeRatiometric
 *fill*         0x00fc97f4        0xc 
 .text.AEK_POW_BMS63EN_SetGPIOOVThreshold
                0x00fc9800      0x1e2 build/obj/AEK_POW_BMS63EN_id.o
                0x00fc9800                AEK_POW_BMS63EN_SetGPIOOVThreshold
 *fill*         0x00fc99e2        0xe 
 .text.AEK_POW_BMS63EN_SetGPIOUVThreshold
                0x00fc99f0      0x1de build/obj/AEK_POW_BMS63EN_id.o
                0x00fc99f0                AEK_POW_BMS63EN_SetGPIOUVThreshold
 *fill*         0x00fc9bce        0x2 
 .text.AEK_POW_BMS63EN_ParameterConfiguration
                0x00fc9bd0      0x2d4 build/obj/AEK_POW_BMS63EN_id.o
                0x00fc9bd0                AEK_POW_BMS63EN_ParameterConfiguration
 *fill*         0x00fc9ea4        0xc 
 .text.AEK_POW_BMS63EN_Init
                0x00fc9eb0       0x5e build/obj/AEK_POW_BMS63EN_id.o
                0x00fc9eb0                AEK_POW_BMS63EN_Init
 *fill*         0x00fc9f0e        0x2 
 .text.AEK_POW_BMS63EN_isEnabled
                0x00fc9f10       0x22 build/obj/AEK_POW_BMS63EN_id.o
                0x00fc9f10                AEK_POW_BMS63EN_isEnabled
 *fill*         0x00fc9f32        0xe 
 .text.AEK_POW_BMS63EN_GetFaults1
                0x00fc9f40       0x34 build/obj/AEK_POW_BMS63EN_diag.o
                0x00fc9f40                AEK_POW_BMS63EN_GetFaults1
 *fill*         0x00fc9f74        0xc 
 .text.AEK_POW_BMS63EN_GetFaults2
                0x00fc9f80       0x34 build/obj/AEK_POW_BMS63EN_diag.o
                0x00fc9f80                AEK_POW_BMS63EN_GetFaults2
 *fill*         0x00fc9fb4        0xc 
 .text.AEK_POW_BMS63EN_GetVCELLUVFaults
                0x00fc9fc0       0x34 build/obj/AEK_POW_BMS63EN_diag.o
                0x00fc9fc0                AEK_POW_BMS63EN_GetVCELLUVFaults
 *fill*         0x00fc9ff4        0xc 
 .text.AEK_POW_BMS63EN_GetVCELLOVFaults
                0x00fca000       0x34 build/obj/AEK_POW_BMS63EN_diag.o
                0x00fca000                AEK_POW_BMS63EN_GetVCELLOVFaults
 *fill*         0x00fca034        0xc 
 .text.AEK_POW_BMS63EN_GetGPIOOTUTFaults
                0x00fca040       0x34 build/obj/AEK_POW_BMS63EN_diag.o
                0x00fca040                AEK_POW_BMS63EN_GetGPIOOTUTFaults
 *fill*         0x00fca074        0xc 
 .text.pal_init
                0x00fca080      0x104 build/obj/pal.o
                0x00fca080                pal_init
 *fill*         0x00fca184        0xc 
 .text.clockInit
                0x00fca190       0x32 build/obj/clock.o
                0x00fca190                clockInit
 *fill*         0x00fca1c2        0xe 
 .text.spc_clock_init
                0x00fca1d0      0x328 build/obj/clock.o
                0x00fca1d0                spc_clock_init
 *fill*         0x00fca4f8        0x8 
 .text.__early_init
                0x00fca500        0x4 build/obj/clock.o
                0x00fca500                __early_init
 *fill*         0x00fca504        0xc 
 .text.SPCSetPeripheralClockMode
                0x00fca510       0x40 build/obj/clock.o
                0x00fca510                SPCSetPeripheralClockMode
 .text.SPCGetPeripheralClock
                0x00fca550       0x10 build/obj/clock.o
                0x00fca550                SPCGetPeripheralClock
 .text.irqInit  0x00fca560       0x40 build/obj/irq.o
                0x00fca560                irqInit
 .text.irqSysHalt
                0x00fca5a0        0x8 build/obj/irq.o
                0x00fca5a0                irqSysHalt
 *fill*         0x00fca5a8        0x8 
 .text.vector243
                0x00fca5b0       0xa6 build/obj/eirq.o
                0x00fca5b0                vector243
 *fill*         0x00fca656        0xa 
 .text.vector244
                0x00fca660       0xa6 build/obj/eirq.o
                0x00fca660                vector244
 *fill*         0x00fca706        0xa 
 .text.vector245
                0x00fca710       0xa6 build/obj/eirq.o
                0x00fca710                vector245
 *fill*         0x00fca7b6        0xa 
 .text.vector246
                0x00fca7c0       0xa6 build/obj/eirq.o
                0x00fca7c0                vector246
 *fill*         0x00fca866        0xa 
 .text.eirqInit
                0x00fca870       0xf4 build/obj/eirq.o
                0x00fca870                eirqInit
 *fill*         0x00fca964        0xc 
 .text.swirqInit
                0x00fca970        0x4 build/obj/swirq.o
                0x00fca970                swirqInit
 *fill*         0x00fca974        0xc 
 .text.osalSysTimeDelayTicks
                0x00fca980       0x18 build/obj/osal.o
 *fill*         0x00fca998        0x8 
 .text.osalSysTimeGetTicks
                0x00fca9a0        0xa build/obj/osal.o
 *fill*         0x00fca9aa        0x6 
 .text.osalIsrEnable
                0x00fca9b0       0x2a build/obj/osal.o
 *fill*         0x00fca9da        0x6 
 .text.osalIsrDisable
                0x00fca9e0       0x32 build/obj/osal.o
 *fill*         0x00fcaa12        0xe 
 .text.vector226
                0x00fcaa20       0x76 build/obj/osal.o
                0x00fcaa20                vector226
 *fill*         0x00fcaa96        0xa 
 .text.osalThreadDelayMilliseconds
                0x00fcaaa0       0x60 build/obj/osal.o
                0x00fcaaa0                osalThreadDelayMilliseconds
 .text.osalEnterCritical
                0x00fcab00       0x3a build/obj/osal.o
                0x00fcab00                osalEnterCritical
 *fill*         0x00fcab3a        0x6 
 .text.osalExitCritical
                0x00fcab40       0x3a build/obj/osal.o
                0x00fcab40                osalExitCritical
 *fill*         0x00fcab7a        0x6 
 .text.osalInit
                0x00fcab80       0x74 build/obj/osal.o
                0x00fcab80                osalInit
 *fill*         0x00fcabf4        0xc 
 .text.sysTimeSetup
                0x00fcac00       0x58 build/obj/systimer.o
                0x00fcac00                sysTimeSetup
 *fill*         0x00fcac58        0x8 
 .text.sysTimeReset
                0x00fcac60       0x18 build/obj/systimer.o
                0x00fcac60                sysTimeReset
 *fill*         0x00fcac78        0x8 
 .text.AEK_COM_ISOSPI1Board0_CN2_FAULT_callback
                0x00fcac80       0x1c build/obj/AEK_COM_ISOSPI1_cfg.o
                0x00fcac80                AEK_COM_ISOSPI1Board0_CN2_FAULT_callback
 *fill*         0x00fcac9c        0x4 
 .text.AEK_POW_BMS63EN_cfg_objects_init
                0x00fcaca0        0xc build/obj/AEK_POW_BMS63EN_cfg.o
                0x00fcaca0                AEK_POW_BMS63EN_cfg_objects_init
 *fill*         0x00fcacac        0x4 
 .text.boardInit
                0x00fcacb0        0xc build/obj/board.o
                0x00fcacb0                boardInit
 *fill*         0x00fcacbc        0x4 
 .text.irq_cfg_init
                0x00fcacc0        0x2 build/obj/irq_cfg.o
                0x00fcacc0                irq_cfg_init
 *fill*         0x00fcacc2        0xe 
 .text.swirq_init_prio
                0x00fcacd0        0x2 build/obj/swirq_cfg.o
                0x00fcacd0                swirq_init_prio
 *fill*         0x00fcacd2        0xe 
 .text.getTemperatureStats
                0x00fcace0       0x42 build/obj/main.o
                0x00fcace0                getTemperatureStats
 *fill*         0x00fcad22        0xe 
 .text.send_temp_data
                0x00fcad30      0x2ae build/obj/main.o
                0x00fcad30                send_temp_data
 *fill*         0x00fcafde        0x2 
 .text.send_cell_voltages_CAN
                0x00fcafe0      0x1c0 build/obj/main.o
                0x00fcafe0                send_cell_voltages_CAN
 .text.AEK_POW_BMS63EN_CAN_Voltage_Transmission
                0x00fcb1a0       0xba build/obj/main.o
                0x00fcb1a0                AEK_POW_BMS63EN_CAN_Voltage_Transmission
 *fill*         0x00fcb25a        0x6 
 .text.AEK_POW_BMS63EN_CAN_Temp_Transmission
                0x00fcb260       0x68 build/obj/main.o
                0x00fcb260                AEK_POW_BMS63EN_CAN_Temp_Transmission
 *fill*         0x00fcb2c8        0x8 
 .text.main_core0
                0x00fcb2d0        0x4 build/obj/main.o
                0x00fcb2d0                main_core0
 *fill*         0x00fcb2d4        0xc 
 .text.startup.main
                0x00fcb2e0       0x76 build/obj/main.o
                0x00fcb2e0                main
 *fill*         0x00fcb356        0xa 
 .text.AEK_POW_BMS63EN_GetModule
                0x00fcb360       0x28 build/obj/AEK_POW_BMS63EN_Appl.o
                0x00fcb360                AEK_POW_BMS63EN_GetModule
 *fill*         0x00fcb388        0x8 
 .text.AEK_POW_BMS63EN_Balancing
                0x00fcb390       0xee build/obj/AEK_POW_BMS63EN_Appl.o
                0x00fcb390                AEK_POW_BMS63EN_Balancing
 *fill*         0x00fcb47e        0x2 
 .text.AEK_POW_BMS63EN_init
                0x00fcb480       0xb8 build/obj/AEK_POW_BMS63EN_Appl.o
                0x00fcb480                AEK_POW_BMS63EN_init
 *fill*         0x00fcb538        0x8 
 .text.AEK_POW_BMS63EN_Start_Mgn_exec
                0x00fcb540        0xe build/obj/AEK_POW_BMS63EN_Appl.o
                0x00fcb540                AEK_POW_BMS63EN_Start_Mgn_exec
 *fill*         0x00fcb54e        0x2 
 .text.AEK_POW_BMS63EN_VA_Measurement
                0x00fcb550       0x9c build/obj/AEK_POW_BMS63EN_Appl.o
                0x00fcb550                AEK_POW_BMS63EN_VA_Measurement
 *fill*         0x00fcb5ec        0x4 
 .text.AEK_POW_BMS63EN_TEMP_Measurement
                0x00fcb5f0       0xce build/obj/AEK_POW_BMS63EN_Appl.o
                0x00fcb5f0                AEK_POW_BMS63EN_TEMP_Measurement
 *fill*         0x00fcb6be        0x2 
 .text.AEK_POW_BMS63EN_DIAG_Measurement
                0x00fcb6c0       0x8c build/obj/AEK_POW_BMS63EN_Appl.o
                0x00fcb6c0                AEK_POW_BMS63EN_DIAG_Measurement
 *fill*         0x00fcb74c        0x4 
 .text.AEK_POW_BMS63EN_Model_exec
                0x00fcb750       0x64 build/obj/AEK_POW_BMS63EN_Appl.o
                0x00fcb750                AEK_POW_BMS63EN_Model_exec
 *fill*         0x00fcb7b4        0xc 
 .text.AEK_POW_BMS63EN_Mgn_exec
                0x00fcb7c0       0x64 build/obj/AEK_POW_BMS63EN_Appl.o
                0x00fcb7c0                AEK_POW_BMS63EN_Mgn_exec
 *fill*         0x00fcb824        0xc 
 .text.look2_iflf_binlx.constprop.4
                0x00fcb830      0x290 build/obj/BMS_Controller.o
 .text.BMS_Controller_p
                0x00fcbac0      0xeda build/obj/BMS_Controller.o
 *fill*         0x00fcc99a        0x6 
 .text.BMS_Controller_step
                0x00fcc9a0       0x32 build/obj/BMS_Controller.o
                0x00fcc9a0                BMS_Controller_step
 *fill*         0x00fcc9d2        0xe 
 .text.BMS_Controller_initialize
                0x00fcc9e0       0x58 build/obj/BMS_Controller.o
                0x00fcc9e0                BMS_Controller_initialize
 *fill*         0x00fcca38        0x8 
 .text.componentsInit
                0x00fcca40       0x2a build/obj/components.o
                0x00fcca40                componentsInit
 *fill*         0x00fcca6a        0x6 
 .text.expf     0x00fcca70      0x112 c:/autodevkitstudio-2.4.0/eclipse/plugins/com.st.tools.spc5.tools.gnu.gcc.ppcvle.win32_4.9.4.20200908161514/toolchain/bin/../lib/gcc/powerpc-eabivle/4.9.4/../../../../powerpc-eabivle/lib/e200z4\libm.a(lib_a-wf_exp.o)
                0x00fcca70                expf
 *fill*         0x00fccb82        0xe 
 .text.log      0x00fccb90      0x134 c:/autodevkitstudio-2.4.0/eclipse/plugins/com.st.tools.spc5.tools.gnu.gcc.ppcvle.win32_4.9.4.20200908161514/toolchain/bin/../lib/gcc/powerpc-eabivle/4.9.4/../../../../powerpc-eabivle/lib/e200z4\libm.a(lib_a-w_log.o)
                0x00fccb90                log
 *fill*         0x00fcccc4        0xc 
 .text.__ieee754_expf
                0x00fcccd0      0x246 c:/autodevkitstudio-2.4.0/eclipse/plugins/com.st.tools.spc5.tools.gnu.gcc.ppcvle.win32_4.9.4.20200908161514/toolchain/bin/../lib/gcc/powerpc-eabivle/4.9.4/../../../../powerpc-eabivle/lib/e200z4\libm.a(lib_a-ef_exp.o)
                0x00fcccd0                __ieee754_expf
 *fill*         0x00fccf16        0xa 
 .text.__ieee754_log
                0x00fccf20      0x43e c:/autodevkitstudio-2.4.0/eclipse/plugins/com.st.tools.spc5.tools.gnu.gcc.ppcvle.win32_4.9.4.20200908161514/toolchain/bin/../lib/gcc/powerpc-eabivle/4.9.4/../../../../powerpc-eabivle/lib/e200z4\libm.a(lib_a-e_log.o)
                0x00fccf20                __ieee754_log
 *fill*         0x00fcd35e        0x2 
 .text.finitef  0x00fcd360       0x14 c:/autodevkitstudio-2.4.0/eclipse/plugins/com.st.tools.spc5.tools.gnu.gcc.ppcvle.win32_4.9.4.20200908161514/toolchain/bin/../lib/gcc/powerpc-eabivle/4.9.4/../../../../powerpc-eabivle/lib/e200z4\libm.a(lib_a-sf_finite.o)
                0x00fcd360                finitef
 *fill*         0x00fcd374        0xc 
 .text.__fpclassifyd
                0x00fcd380       0x50 c:/autodevkitstudio-2.4.0/eclipse/plugins/com.st.tools.spc5.tools.gnu.gcc.ppcvle.win32_4.9.4.20200908161514/toolchain/bin/../lib/gcc/powerpc-eabivle/4.9.4/../../../../powerpc-eabivle/lib/e200z4\libm.a(lib_a-s_fpclassify.o)
                0x00fcd380                __fpclassifyd
 .text.matherr  0x00fcd3d0        0x4 c:/autodevkitstudio-2.4.0/eclipse/plugins/com.st.tools.spc5.tools.gnu.gcc.ppcvle.win32_4.9.4.20200908161514/toolchain/bin/../lib/gcc/powerpc-eabivle/4.9.4/../../../../powerpc-eabivle/lib/e200z4\libm.a(lib_a-s_matherr.o)
                0x00fcd3d0                matherr
 *fill*         0x00fcd3d4        0xc 
 .text.nan      0x00fcd3e0        0x8 c:/autodevkitstudio-2.4.0/eclipse/plugins/com.st.tools.spc5.tools.gnu.gcc.ppcvle.win32_4.9.4.20200908161514/toolchain/bin/../lib/gcc/powerpc-eabivle/4.9.4/../../../../powerpc-eabivle/lib/e200z4\libm.a(lib_a-s_nan.o)
                0x00fcd3e0                nan
 *fill*         0x00fcd3e8        0x8 
 .text.__errno  0x00fcd3f0        0xa c:/autodevkitstudio-2.4.0/eclipse/plugins/com.st.tools.spc5.tools.gnu.gcc.ppcvle.win32_4.9.4.20200908161514/toolchain/bin/../lib/gcc/powerpc-eabivle/4.9.4/../../../../powerpc-eabivle/lib/e200z4\libc.a(lib_a-errno.o)
                0x00fcd3f0                __errno
 *fill*         0x00fcd3fa        0x6 
 .text.memcpy   0x00fcd400       0x1a c:/autodevkitstudio-2.4.0/eclipse/plugins/com.st.tools.spc5.tools.gnu.gcc.ppcvle.win32_4.9.4.20200908161514/toolchain/bin/../lib/gcc/powerpc-eabivle/4.9.4/../../../../powerpc-eabivle/lib/e200z4\libc.a(lib_a-memcpy.o)
                0x00fcd400                memcpy
                0x00fcd400                largememcpy
 *fill*         0x00fcd41a        0x6 
 .text.memset   0x00fcd420       0x16 c:/autodevkitstudio-2.4.0/eclipse/plugins/com.st.tools.spc5.tools.gnu.gcc.ppcvle.win32_4.9.4.20200908161514/toolchain/bin/../lib/gcc/powerpc-eabivle/4.9.4/../../../../powerpc-eabivle/lib/e200z4\libc.a(lib_a-memset.o)
                0x00fcd420                memset
 *(.gnu.linkonce.t.*)

.glink          0x00fcd436        0x0
 .glink         0x00fcd436        0x0 build/obj/boot.o

.rodata         0x00fcd440      0x574
 *(.glue_7t)
 *(.glue_7)
 *(.gcc*)
 *(.rodata)
 .rodata        0x00fcd440       0x10 c:/autodevkitstudio-2.4.0/eclipse/plugins/com.st.tools.spc5.tools.gnu.gcc.ppcvle.win32_4.9.4.20200908161514/toolchain/bin/../lib/gcc/powerpc-eabivle/4.9.4/e200z4\libgcc.a(_thenan_sf.o)
                0x00fcd440                __thenan_sf
 .rodata        0x00fcd450       0x18 c:/autodevkitstudio-2.4.0/eclipse/plugins/com.st.tools.spc5.tools.gnu.gcc.ppcvle.win32_4.9.4.20200908161514/toolchain/bin/../lib/gcc/powerpc-eabivle/4.9.4/e200z4\libgcc.a(_thenan_df.o)
                0x00fcd450                __thenan_df
 *(.rodata.*)
 *fill*         0x00fcd468        0x8 
 .rodata.dma1_g0
                0x00fcd470       0x10 build/obj/spc5_edma.o
 .rodata.dma1_g1
                0x00fcd480       0x10 build/obj/spc5_edma.o
 .rodata.dma1_g2
                0x00fcd490       0x10 build/obj/spc5_edma.o
 .rodata.dma1_g3
                0x00fcd4a0       0x10 build/obj/spc5_edma.o
 .rodata.can_lld_getframesize
                0x00fcd4b0       0x1c build/obj/can_lld.o
 *fill*         0x00fcd4cc        0x4 
 .rodata.CSWTCH.15
                0x00fcd4d0        0x4 build/obj/AEK_POW_BMS63EN_lld.o
 *fill*         0x00fcd4d4        0xc 
 .rodata.AEK_POW_BMS63EN_DisableCellBalancing
                0x00fcd4e0       0x38 build/obj/AEK_POW_BMS63EN_id.o
 *fill*         0x00fcd518        0x8 
 .rodata.AEK_POW_BMS63EN_EnableCellBalancing
                0x00fcd520       0x38 build/obj/AEK_POW_BMS63EN_id.o
 *fill*         0x00fcd558        0x8 
 .rodata.AEK_POW_BMS63EN_ConfigGPIO
                0x00fcd560       0x1c build/obj/AEK_POW_BMS63EN_id.o
 *fill*         0x00fcd57c        0x4 
 .rodata.AEK_POW_BMS63EN_SetGPIOModeAbsolute
                0x00fcd580       0x1c build/obj/AEK_POW_BMS63EN_id.o
 *fill*         0x00fcd59c        0x4 
 .rodata.AEK_POW_BMS63EN_SetGPIOModeRatiometric
                0x00fcd5a0       0x1c build/obj/AEK_POW_BMS63EN_id.o
 *fill*         0x00fcd5bc        0x4 
 .rodata.AEK_POW_BMS63EN_SetGPIOOVThreshold
                0x00fcd5c0       0x1c build/obj/AEK_POW_BMS63EN_id.o
 *fill*         0x00fcd5dc        0x4 
 .rodata.AEK_POW_BMS63EN_SetGPIOUVThreshold
                0x00fcd5e0       0x1c build/obj/AEK_POW_BMS63EN_id.o
 *fill*         0x00fcd5fc        0x4 
 .rodata.rtConstP
                0x00fcd600      0x340 build/obj/BMS_Controller_data.o
                0x00fcd600                rtConstP
 .rodata.cst4   0x00fcd940       0x14 build/obj/BMS_Controller.o
 *fill*         0x00fcd954        0xc 
 .rodata.str1.4
                0x00fcd960        0x5 c:/autodevkitstudio-2.4.0/eclipse/plugins/com.st.tools.spc5.tools.gnu.gcc.ppcvle.win32_4.9.4.20200908161514/toolchain/bin/../lib/gcc/powerpc-eabivle/4.9.4/../../../../powerpc-eabivle/lib/e200z4\libm.a(lib_a-wf_exp.o)
 *fill*         0x00fcd965        0xb 
 .rodata.str1.4
                0x00fcd970        0x4 c:/autodevkitstudio-2.4.0/eclipse/plugins/com.st.tools.spc5.tools.gnu.gcc.ppcvle.win32_4.9.4.20200908161514/toolchain/bin/../lib/gcc/powerpc-eabivle/4.9.4/../../../../powerpc-eabivle/lib/e200z4\libm.a(lib_a-w_log.o)
                                  0x5 (size before relaxing)
 *fill*         0x00fcd974        0xc 
 .rodata.halF   0x00fcd980        0x8 c:/autodevkitstudio-2.4.0/eclipse/plugins/com.st.tools.spc5.tools.gnu.gcc.ppcvle.win32_4.9.4.20200908161514/toolchain/bin/../lib/gcc/powerpc-eabivle/4.9.4/../../../../powerpc-eabivle/lib/e200z4\libm.a(lib_a-ef_exp.o)
 *fill*         0x00fcd988        0x8 
 .rodata.ln2LO  0x00fcd990        0x8 c:/autodevkitstudio-2.4.0/eclipse/plugins/com.st.tools.spc5.tools.gnu.gcc.ppcvle.win32_4.9.4.20200908161514/toolchain/bin/../lib/gcc/powerpc-eabivle/4.9.4/../../../../powerpc-eabivle/lib/e200z4\libm.a(lib_a-ef_exp.o)
 *fill*         0x00fcd998        0x8 
 .rodata.ln2HI  0x00fcd9a0        0x8 c:/autodevkitstudio-2.4.0/eclipse/plugins/com.st.tools.spc5.tools.gnu.gcc.ppcvle.win32_4.9.4.20200908161514/toolchain/bin/../lib/gcc/powerpc-eabivle/4.9.4/../../../../powerpc-eabivle/lib/e200z4\libm.a(lib_a-ef_exp.o)
 *fill*         0x00fcd9a8        0x8 
 .rodata.str1.4
                0x00fcd9b0        0x4 c:/autodevkitstudio-2.4.0/eclipse/plugins/com.st.tools.spc5.tools.gnu.gcc.ppcvle.win32_4.9.4.20200908161514/toolchain/bin/../lib/gcc/powerpc-eabivle/4.9.4/../../../../powerpc-eabivle/lib/e200z4\libc.a(lib_a-impure.o)
                                  0x2 (size before relaxing)
 *(.rodata1)

.sdata2         0x00fcd9c0        0x0
                0x00fd59c0                __sdata2_start__ = (. + 0x8000)
 *(.sdata2)
 .sdata2        0x00fcd9c0        0x0 build/obj/boot.o
 *(.sdata2.*)
 *(.gnu.linkonce.s2.*)
 *(.sbss2)
 *(.sbss2.*)
 *(.gnu.linkonce.sb2.*)

.eh_frame_hdr   0x00fcd9c0        0x0
 *(.eh_frame_hdr)
 .eh_frame_hdr  0x00fcd9c0        0x0 c:/autodevkitstudio-2.4.0/eclipse/plugins/com.st.tools.spc5.tools.gnu.gcc.ppcvle.win32_4.9.4.20200908161514/toolchain/bin/../lib/gcc/powerpc-eabivle/4.9.4/e200z4\libgcc.a(_udivdi3.o)

.eh_frame       0x00fcd9c0        0x0
 *(.eh_frame)
 .eh_frame      0x00fcd9c0        0x0 build/obj/boot.o

.rela.dyn       0x00fcd9c0        0x0
 .rela.iplt     0x00fcd9c0        0x0 build/obj/boot.o
 .rela.vectors  0x00fcd9c0        0x0 build/obj/boot.o
 .rela.text.sd_lld_init
                0x00fcd9c0        0x0 build/obj/boot.o
 .rela.text.AEK_COM_ISOSPI_SetAsSlave
                0x00fcd9c0        0x0 build/obj/boot.o
 .rela.text.AEK_COM_ISOSPI_EnableTransceiverComm
                0x00fcd9c0        0x0 build/obj/boot.o
 .rela.text.AEK_COM_ISOSPI_DisableTransceiverComm
                0x00fcd9c0        0x0 build/obj/boot.o
 .rela.text.AEK_COM_ISOSPI_SetAsMaster
                0x00fcd9c0        0x0 build/obj/boot.o
 .rela.text.AEK_COM_ISOSPI_SampleSDI_firstclk
                0x00fcd9c0        0x0 build/obj/boot.o
 .rela.text.AEK_COM_ISOSPI_SampleSDI_secondclk
                0x00fcd9c0        0x0 build/obj/boot.o
 .rela.text.AEK_COM_ISOSPI_CPOL_low
                0x00fcd9c0        0x0 build/obj/boot.o
 .rela.text.AEK_COM_ISOSPI_CPOL_high
                0x00fcd9c0        0x0 build/obj/boot.o
 .rela.text.AEK_COM_ISOSPI_EnableTransceiver
                0x00fcd9c0        0x0 build/obj/boot.o
 .rela.text.AEK_COM_ISOSPI_DisableTransceiver
                0x00fcd9c0        0x0 build/obj/boot.o
 .rela.text.AEK_COM_ISOSPI_SetISOCommSlow
                0x00fcd9c0        0x0 build/obj/boot.o
 .rela.text.AEK_COM_ISOSPI_SetISOCommFast
                0x00fcd9c0        0x0 build/obj/boot.o
 .rela.text.AEK_COM_ISOSPI_ISOTX_Attenuate
                0x00fcd9c0        0x0 build/obj/boot.o
 .rela.text.AEK_COM_ISOSPI_ISOTX_Amplify
                0x00fcd9c0        0x0 build/obj/boot.o
 .rela.text.AEK_COM_ISOSPI_GetFault
                0x00fcd9c0        0x0 build/obj/boot.o
 .rela.text.AEK_COM_ISOSPI_ConfigMode
                0x00fcd9c0        0x0 build/obj/boot.o
 .rela.text.AEK_COM_ISOSPI_ConfigISOFreq
                0x00fcd9c0        0x0 build/obj/boot.o
 .rela.text.AEK_COM_ISOSPI_ConfigISOAmp
                0x00fcd9c0        0x0 build/obj/boot.o
 .rela.text.AEK_COM_ISOSPI_ConfigCPOL
                0x00fcd9c0        0x0 build/obj/boot.o
 .rela.text.AEK_COM_ISOSPI_ConfigCPHA
                0x00fcd9c0        0x0 build/obj/boot.o
 .rela.text.debug_config
                0x00fcd9c0        0x0 build/obj/boot.o
 .rela.text.slave_example_config
                0x00fcd9c0        0x0 build/obj/boot.o
 .rela.text.master_example_config
                0x00fcd9c0        0x0 build/obj/boot.o
 .rela.text.AEK_POW_BMS63EN_ConfigISOFreq
                0x00fcd9c0        0x0 build/obj/boot.o
 .rela.text.AEK_POW_BMS63EN_DisableCommTimeout
                0x00fcd9c0        0x0 build/obj/boot.o
 .rela.text.AEK_POW_BMS63EN_EnableCommTimeout
                0x00fcd9c0        0x0 build/obj/boot.o
 .rela.text.AEK_POW_BMS63EN_EnterSleepMode
                0x00fcd9c0        0x0 build/obj/boot.o
 .rela.text.AEK_POW_BMS63EN_SWReset
                0x00fcd9c0        0x0 build/obj/boot.o
 .rela.text.AEK_POW_BMS63EN_GetState
                0x00fcd9c0        0x0 build/obj/boot.o
 .rela.text.AEK_POW_BMS63EN_CoulombCounterReset
                0x00fcd9c0        0x0 build/obj/boot.o
 .rela.text.AEK_POW_BMS63EN_CoulombCounting
                0x00fcd9c0        0x0 build/obj/boot.o
 .rela.text.AEK_POW_BMS63EN_Get_Conf_OVL
                0x00fcd9c0        0x0 build/obj/boot.o
 .rela.text.AEK_POW_BMS63EN_DisableCoulombCounting
                0x00fcd9c0        0x0 build/obj/boot.o
 .rela.text.AEK_POW_BMS63EN_EnableCoulombCounting
                0x00fcd9c0        0x0 build/obj/boot.o
 .rela.text.AEK_POW_BMS63EN_GPIO7_OT_UT_Mask
                0x00fcd9c0        0x0 build/obj/boot.o
 .rela.text.AEK_POW_BMS63EN_GPIO_OT_UT_Mask
                0x00fcd9c0        0x0 build/obj/boot.o
 .rela.text.AEK_POW_BMS63EN_GPIO_CSA_Mask
                0x00fcd9c0        0x0 build/obj/boot.o
 .rela.text.AEK_POW_BMS63EN_SetADCContinuousMode
                0x00fcd9c0        0x0 build/obj/boot.o
 .rela.text.AEK_POW_BMS63EN_SetADCFilterSOC
                0x00fcd9c0        0x0 build/obj/boot.o
 .rela.text.AEK_POW_BMS63EN_SetADCTcycle
                0x00fcd9c0        0x0 build/obj/boot.o
 .rela.text.AEK_POW_BMS63EN_SetVBattOVCThreshold
                0x00fcd9c0        0x0 build/obj/boot.o
 .rela.text.AEK_POW_BMS63EN_SetVBattOVThreshold
                0x00fcd9c0        0x0 build/obj/boot.o
 .rela.text.AEK_POW_BMS63EN_SetVBattUVThreshold
                0x00fcd9c0        0x0 build/obj/boot.o
 .rela.text.AEK_POW_BMS63EN_SetVCellOVThreshold
                0x00fcd9c0        0x0 build/obj/boot.o
 .rela.text.AEK_POW_BMS63EN_SetVCellUVThreshold
                0x00fcd9c0        0x0 build/obj/boot.o
 .rela.text.AEK_POW_BMS63EN_GetVTREFVoltMeasurement
                0x00fcd9c0        0x0 build/obj/boot.o
 .rela.text.AEK_POW_BMS63EN_SetVTREFAlwaysEnabled
                0x00fcd9c0        0x0 build/obj/boot.o
 .rela.text.AEK_POW_BMS63EN_SetVTREFEnabled
                0x00fcd9c0        0x0 build/obj/boot.o
 .rela.text.AEK_POW_BMS63EN_SetVTREFDisabled
                0x00fcd9c0        0x0 build/obj/boot.o
 .rela.text.AEK_POW_BMS63EN_StartUpWKUP
                0x00fcd9c0        0x0 build/obj/boot.o
 .rela.text.AEK_POW_BMS63EN_StartManualConversion
                0x00fcd9c0        0x0 build/obj/boot.o
 .rela.text.AEK_POW_BMS63EN_DisableCell
                0x00fcd9c0        0x0 build/obj/boot.o
 .rela.text.AEK_POW_BMS63EN_DisableCellBalancing
                0x00fcd9c0        0x0 build/obj/boot.o
 .rela.text.AEK_POW_BMS63EN_EnableCellBalancing
                0x00fcd9c0        0x0 build/obj/boot.o
 .rela.text.AEK_POW_BMS63EN_DisableBalCurrentEvenCells
                0x00fcd9c0        0x0 build/obj/boot.o
 .rela.text.AEK_POW_BMS63EN_DisableBalCurrentOddCells
                0x00fcd9c0        0x0 build/obj/boot.o
 .rela.text.AEK_POW_BMS63EN_EnableBalCurrentEvenCells
                0x00fcd9c0        0x0 build/obj/boot.o
 .rela.text.AEK_POW_BMS63EN_EnableBalCurrentOddCells
                0x00fcd9c0        0x0 build/obj/boot.o
 .rela.text.AEK_POW_BMS63EN_EnableCell
                0x00fcd9c0        0x0 build/obj/boot.o
 .rela.text.AEK_POW_BMS63EN_GetBalancingStatus
                0x00fcd9c0        0x0 build/obj/boot.o
 .rela.text.AEK_POW_BMS63EN_GetCalibCurrentMeasurement
                0x00fcd9c0        0x0 build/obj/boot.o
 .rela.text.AEK_POW_BMS63EN_GetInstCurrentMeasurement
                0x00fcd9c0        0x0 build/obj/boot.o
 .rela.text.AEK_POW_BMS63EN_GetCellVoltMeasurement
                0x00fcd9c0        0x0 build/obj/boot.o
 .rela.text.AEK_POW_BMS63EN_GetBatteryPackVoltMeasurement
                0x00fcd9c0        0x0 build/obj/boot.o
 .rela.text.AEK_POW_BMS63EN_SetBalancingMode
                0x00fcd9c0        0x0 build/obj/boot.o
 .rela.text.AEK_POW_BMS63EN_SetCellTimedBalThreshold
                0x00fcd9c0        0x0 build/obj/boot.o
 .rela.text.AEK_POW_BMS63EN_StartCellBalancing
                0x00fcd9c0        0x0 build/obj/boot.o
 .rela.text.AEK_POW_BMS63EN_StopCellBalancing
                0x00fcd9c0        0x0 build/obj/boot.o
 .rela.text.AEK_POW_BMS63EN_GetVoltageGPIOMeasurement
                0x00fcd9c0        0x0 build/obj/boot.o
 .rela.text.AEK_POW_BMS63EN_GetNTCMeasurement
                0x00fcd9c0        0x0 build/obj/boot.o
 .rela.text.AEK_POW_BMS63EN_SetOvercurrentThreshold
                0x00fcd9c0        0x0 build/obj/boot.o
 .rela.text.AEK_POW_BMS63EN_SetGPIOConv
                0x00fcd9c0        0x0 build/obj/boot.o
 .rela.text.AEK_POW_BMS63EN_ConfigGPIO
                0x00fcd9c0        0x0 build/obj/boot.o
 .rela.text.AEK_POW_BMS63EN_SetGPIOModeAbsolute
                0x00fcd9c0        0x0 build/obj/boot.o
 .rela.text.AEK_POW_BMS63EN_SetGPIOModeRatiometric
                0x00fcd9c0        0x0 build/obj/boot.o
 .rela.text.AEK_POW_BMS63EN_SetGPIOOVThreshold
                0x00fcd9c0        0x0 build/obj/boot.o
 .rela.text.AEK_POW_BMS63EN_SetGPIOUVThreshold
                0x00fcd9c0        0x0 build/obj/boot.o
 .rela.text.AEK_POW_BMS63EN_ParameterConfiguration
                0x00fcd9c0        0x0 build/obj/boot.o
 .rela.text.AEK_POW_BMS63EN_Init
                0x00fcd9c0        0x0 build/obj/boot.o
 .rela.text.AEK_POW_BMS63EN_isEnabled
                0x00fcd9c0        0x0 build/obj/boot.o
 .rela.text.AEK_POW_BMS63EN_EnableGPIOOpenOnDemandDiagnostic
                0x00fcd9c0        0x0 build/obj/boot.o
 .rela.text.AEK_POW_BMS63EN_PCBOpenDiagnostic
                0x00fcd9c0        0x0 build/obj/boot.o
 .rela.text.AEK_POW_BMS63EN_GetCellOpen
                0x00fcd9c0        0x0 build/obj/boot.o
 .rela.text.AEK_POW_BMS63EN_GetFaults1
                0x00fcd9c0        0x0 build/obj/boot.o
 .rela.text.AEK_POW_BMS63EN_GetFaults2
                0x00fcd9c0        0x0 build/obj/boot.o
 .rela.text.AEK_POW_BMS63EN_GetVCELLUVFaults
                0x00fcd9c0        0x0 build/obj/boot.o
 .rela.text.AEK_POW_BMS63EN_GetVCELLOVFaults
                0x00fcd9c0        0x0 build/obj/boot.o
 .rela.text.AEK_POW_BMS63EN_GetGPIOOTUTFaults
                0x00fcd9c0        0x0 build/obj/boot.o
 .rela.text.AEK_POW_BMS63EN_GetBALUVFaults
                0x00fcd9c0        0x0 build/obj/boot.o
 .rela.text.manage_eirq_interrupt
                0x00fcd9c0        0x0 build/obj/boot.o
 .rela.text.vector243
                0x00fcd9c0        0x0 build/obj/boot.o
 .rela.text.vector244
                0x00fcd9c0        0x0 build/obj/boot.o
 .rela.text.vector245
                0x00fcd9c0        0x0 build/obj/boot.o
 .rela.text.vector246
                0x00fcd9c0        0x0 build/obj/boot.o
 .rela.text.eirqInit
                0x00fcd9c0        0x0 build/obj/boot.o
 .rela.data.pit0_config
                0x00fcd9c0        0x0 build/obj/boot.o
 .rela.text.sbrk
                0x00fcd9c0        0x0 build/obj/boot.o
 .rela.data.p.22818
                0x00fcd9c0        0x0 build/obj/boot.o
 .rela.text.expf
                0x00fcd9c0        0x0 build/obj/boot.o
 .rela.text.log
                0x00fcd9c0        0x0 build/obj/boot.o
 .rela.text.__errno
                0x00fcd9c0        0x0 build/obj/boot.o
 .rela.text     0x00fcd9c0        0x0 build/obj/boot.o

.romdata        0x00fcd9c0        0x0
                0x00fcd9c0                __romdata_start__ = .

.core0_stacks   0x50800000      0x800
                0x50800000                . = ALIGN (0x8)
                0x50800000                __core0_irq_stack_base__ = .
                0x50800000                . = (. + __core0_irq_stack_size__)
                0x50800000                . = ALIGN (0x8)
                0x50800000                __core0_irq_stack_end__ = .
                0x50800000                __core0_process_stack_base__ = .
                0x50800000                __core0_main_thread_stack_base__ = .
                0x50800800                . = (. + __core0_process_stack_size__)
 *fill*         0x50800000      0x800 
                0x50800800                . = ALIGN (0x8)
                0x50800800                __core0_process_stack_end__ = .
                0x50800800                __core0_main_thread_stack_end__ = .

.core2_stacks   0x52800000     0x1000
                0x52800000                . = ALIGN (0x8)
                0x52800000                __irq_stack_base__ = .
                0x52800000                . = (. + __irq_stack_size__)
                0x52800000                . = ALIGN (0x8)
                0x52800000                __irq_stack_end__ = .
                0x52800000                __process_stack_base__ = .
                0x52800000                __main_thread_stack_base__ = .
                0x52801000                . = (. + __process_stack_size__)
 *fill*         0x52800000     0x1000 
                0x52801000                . = ALIGN (0x8)
                0x52801000                __process_stack_end__ = .
                0x52801000                __main_thread_stack_end__ = .

.data           0x400a8000     0x10e0 load address 0x00fcd9c0
                0x400a8000                . = ALIGN (0x4)
                0x400a8000                __data_start__ = .
 *(.data)
 *(.data.*)
 .data.default_config
                0x400a8000       0x20 build/obj/serial_lld.o
 .data.serial_config_BMS_serial
                0x400a8020       0x20 build/obj/serial_lld_cfg.o
                0x400a8020                serial_config_BMS_serial
 .data.can_config_mcanconf
                0x400a8040       0xb8 build/obj/can_lld_cfg.o
                0x400a8040                can_config_mcanconf
 .data.pit0_config
                0x400a80f8       0x60 build/obj/pit_lld_cfg.o
                0x400a80f8                pit0_config
 .data.spi_config_spi_config_AEK_COM_ISOSPI1_dev0
                0x400a8158       0x1c build/obj/spi_lld_cfg.o
                0x400a8158                spi_config_spi_config_AEK_COM_ISOSPI1_dev0
 .data.wkpu_config_wkpu_cfg_wk_INT28
                0x400a8174        0xc build/obj/wkpu_lld_cfg.o
                0x400a8174                wkpu_config_wkpu_cfg_wk_INT28
 .data.wkpu_config_wkpu_cfg
                0x400a8180       0x90 build/obj/wkpu_lld_cfg.o
                0x400a8180                wkpu_config_wkpu_cfg
 .data.AEK_ISOSPI_ARRAY_DRIVER
                0x400a8210       0x28 build/obj/AEK_COM_ISOSPI1_cfg.o
                0x400a8210                AEK_ISOSPI_ARRAY_DRIVER
 .data.isospi_pad_list_dev_0
                0x400a8238        0xe build/obj/AEK_COM_ISOSPI1_cfg.o
 *fill*         0x400a8246        0x2 
 .data.AEK_POW_BMS63EN_ParamConf_dev
                0x400a8248       0xa8 build/obj/AEK_POW_BMS63EN_cfg.o
 .data.AEK_POW_BMS63EN_dev_status
                0x400a82f0       0x18 build/obj/AEK_POW_BMS63EN_cfg.o
 .data.AEK_POW_BMS63EN_config
                0x400a8308       0x10 build/obj/AEK_POW_BMS63EN_cfg.o
                0x400a8308                AEK_POW_BMS63EN_config
 .data.AEK_POW_BMS63EN_cell_stack_state_dev1
                0x400a8318       0xe0 build/obj/AEK_POW_BMS63EN_cfg.o
 .data.AEK_POW_BMS63EN_cell_stack_state_dev2
                0x400a83f8       0xe0 build/obj/AEK_POW_BMS63EN_cfg.o
 .data.AEK_POW_BMS63EN_Drv
                0x400a84d8        0xc build/obj/AEK_POW_BMS63EN_cfg.o
                0x400a84d8                AEK_POW_BMS63EN_Drv
 .data.AEK_POW_BMS63EN_status
                0x400a84e4        0x8 build/obj/AEK_POW_BMS63EN_cfg.o
 .data.spc_mscr_io_init
                0x400a84ec       0xd8 build/obj/board.o
 .data.pal_default_config
                0x400a85c4        0x8 build/obj/board.o
 .data.spc_mscr_mux_init
                0x400a85cc       0x20 build/obj/board.o
 .data.eirqconf
                0x400a85ec       0x10 build/obj/eirq_cfg.o
                0x400a85ec                eirqconf
 .data.Temperature_Vector
                0x400a85fc       0x14 build/obj/Cell_Model_parameter.o
                0x400a85fc                Temperature_Vector
 .data.SOH_MAX  0x400a8610        0x4 build/obj/Cell_Model_parameter.o
                0x400a8610                SOH_MAX
 .data.Cap_Nom  0x400a8614        0x4 build/obj/Cell_Model_parameter.o
                0x400a8614                Cap_Nom
 .data.SOC_MIN  0x400a8618        0x4 build/obj/Cell_Model_parameter.o
                0x400a8618                SOC_MIN
 .data.SOC_MAX  0x400a861c        0x4 build/obj/Cell_Model_parameter.o
                0x400a861c                SOC_MAX
 .data.R0_EOL_Vector
                0x400a8620      0x154 build/obj/Cell_Model_parameter.o
                0x400a8620                R0_EOL_Vector
 .data.KELVIN_CON
                0x400a8774        0x4 build/obj/Cell_Model_parameter.o
                0x400a8774                KELVIN_CON
 .data.SOH_MIN  0x400a8778        0x4 build/obj/Cell_Model_parameter.o
                0x400a8778                SOH_MIN
 .data.NTC_Temp_Vector
                0x400a877c       0x84 build/obj/Cell_Model_parameter.o
                0x400a877c                NTC_Temp_Vector
 .data.NTC_Vector
                0x400a8800       0x84 build/obj/Cell_Model_parameter.o
                0x400a8800                NTC_Vector
 .data.SOC_Vector
                0x400a8884       0x44 build/obj/Cell_Model_parameter.o
                0x400a8884                SOC_Vector
 .data.R0_Vector
                0x400a88c8      0x154 build/obj/Cell_Model_parameter.o
                0x400a88c8                R0_Vector
 .data.OCV_Vector
                0x400a8a1c      0x154 build/obj/Cell_Model_parameter.o
                0x400a8a1c                OCV_Vector
 .data.R1_Vector
                0x400a8b70      0x154 build/obj/Cell_Model_parameter.o
                0x400a8b70                R1_Vector
 .data.TH_Bal   0x400a8cc4        0x1 build/obj/BMS_Controller.o
                0x400a8cc4                TH_Bal
 *fill*         0x400a8cc5        0x3 
 .data.impure_data
                0x400a8cc8      0x418 c:/autodevkitstudio-2.4.0/eclipse/plugins/com.st.tools.spc5.tools.gnu.gcc.ppcvle.win32_4.9.4.20200908161514/toolchain/bin/../lib/gcc/powerpc-eabivle/4.9.4/../../../../powerpc-eabivle/lib/e200z4\libc.a(lib_a-impure.o)
 *(.gnu.linkonce.d.*)

.sdata          0x400a90e0        0xc load address 0x00fceaa0
                0x400a90e0                . = ALIGN (0x4)
                0x400b10e0                __sdata_start__ = (. + 0x8000)
 *(.sdata)
 .sdata         0x400a90e0        0x0 build/obj/boot.o
                0x400b10e0                _SDA_BASE_
 .sdata         0x400a90e0        0x8 c:/autodevkitstudio-2.4.0/eclipse/plugins/com.st.tools.spc5.tools.gnu.gcc.ppcvle.win32_4.9.4.20200908161514/toolchain/bin/../lib/gcc/powerpc-eabivle/4.9.4/../../../../powerpc-eabivle/lib/e200z4\libc.a(lib_a-impure.o)
                0x400a90e0                _global_impure_ptr
                0x400a90e4                _impure_ptr
 *(.sdata.*)
 .sdata.__fdlib_version
                0x400a90e8        0x4 c:/autodevkitstudio-2.4.0/eclipse/plugins/com.st.tools.spc5.tools.gnu.gcc.ppcvle.win32_4.9.4.20200908161514/toolchain/bin/../lib/gcc/powerpc-eabivle/4.9.4/../../../../powerpc-eabivle/lib/e200z4\libm.a(lib_a-s_lib_ver.o)
                0x400a90e8                __fdlib_version
 *(.gnu.linkonce.s.*)
                0x400a90ec                __data_end__ = .

.sbss           0x400a90ec        0x0
                0x400a90ec                __bss_start__ = .
 *(.sbss)
 *(.sbss.*)
 *(.gnu.linkonce.sb.*)
 *(.scommon)

.bss            0x400a90ec      0xb28 load address 0x00fceaac
 *(.bss)
 *(.bss.*)
 .bss.channels  0x400a90ec      0x100 build/obj/spc5_edma.o
 .bss.CAND7     0x400a91ec       0x10 build/obj/can_lld.o
                0x400a91ec                CAND7
 .bss.SD5       0x400a91fc       0x30 build/obj/serial_lld.o
                0x400a91fc                SD5
 .bss.PITD1     0x400a922c        0x8 build/obj/pit_lld.o
                0x400a922c                PITD1
 .bss.SPID1     0x400a9234       0x1c build/obj/spi_lld.o
                0x400a9234                SPID1
 .bss.WKPUD1    0x400a9250        0x8 build/obj/wkpu_lld.o
                0x400a9250                WKPUD1
 .bss.linflex_initialization
                0x400a9258        0x1 build/obj/spc5_linflex.o
 *fill*         0x400a9259        0x3 
 .bss.LinflexD5
                0x400a925c       0x10 build/obj/spc5_linflex.o
                0x400a925c                LinflexD5
 .bss.AEK_POW_BMS63EN_gpio_state
                0x400a926c      0x118 build/obj/AEK_POW_BMS63EN_diag.o
                0x400a926c                AEK_POW_BMS63EN_gpio_state
 .bss.osalIsExtIntEnable
                0x400a9384        0x4 build/obj/osal.o
 .bss.osalsystime
                0x400a9388        0x4 build/obj/osal.o
 .bss.osal_ticks_per_sec
                0x400a938c        0x4 build/obj/osal.o
 .bss.osalTimeOps
                0x400a9390       0x30 build/obj/osal.o
 .bss.osalIsrCnt
                0x400a93c0        0x4 build/obj/osal.o
 .bss.AEK_POW_BMS63EN_soc_elab_sts
                0x400a93c4        0x4 build/obj/AEK_POW_BMS63EN_Appl.o
                0x400a93c4                AEK_POW_BMS63EN_soc_elab_sts
 .bss.rtDWdev1  0x400a93c8      0x5cc build/obj/AEK_POW_BMS63EN_Appl.o
 .bss.rtMdev1_  0x400a9994        0x8 build/obj/AEK_POW_BMS63EN_Appl.o
 .bss.AEK_POW_BMS63EN_BatteryModules
                0x400a999c      0x278 build/obj/AEK_POW_BMS63EN_Appl.o
                0x400a999c                AEK_POW_BMS63EN_BatteryModules
 *(.gnu.linkonce.b.*)
 *(COMMON)
                0x400a9c14                __bss_end__ = .
                0x400a9c14                __heap_base__ = __bss_end__
                0x40108000                __heap_end__ = __ram_end__
LOAD c:/autodevkitstudio-2.4.0/eclipse/plugins/com.st.tools.spc5.tools.gnu.gcc.ppcvle.win32_4.9.4.20200908161514/toolchain/bin/../lib/gcc/powerpc-eabivle/4.9.4/e200z4\libgcc.a
LOAD c:/autodevkitstudio-2.4.0/eclipse/plugins/com.st.tools.spc5.tools.gnu.gcc.ppcvle.win32_4.9.4.20200908161514/toolchain/bin/../lib/gcc/powerpc-eabivle/4.9.4/../../../../powerpc-eabivle/lib/e200z4\libc.a
LOAD c:/autodevkitstudio-2.4.0/eclipse/plugins/com.st.tools.spc5.tools.gnu.gcc.ppcvle.win32_4.9.4.20200908161514/toolchain/bin/../lib/gcc/powerpc-eabivle/4.9.4/e200z4\libgcc.a
OUTPUT(build/out.elf elf32-powerpc)

.iplt           0x400a9c20        0x0 load address 0x00fcf5e0
 .iplt          0x400a9c20        0x0 build/obj/boot.o

.PPC.EMB.apuinfo
                0x00000000       0x1c
 .PPC.EMB.apuinfo
                0x00000000       0x18 build/obj/boot.o
 .PPC.EMB.apuinfo
                0x00000018       0x18 build/obj/crt0.o
 .PPC.EMB.apuinfo
                0x00000030       0x18 build/obj/vectors.o
 .PPC.EMB.apuinfo
                0x00000048       0x18 build/obj/ivor.o
 .PPC.EMB.apuinfo
                0x00000060       0x18 build/obj/core0.o
 .PPC.EMB.apuinfo
                0x00000078       0x1c build/obj/cache.o
 .PPC.EMB.apuinfo
                0x00000094       0x18 build/obj/spc5_lld.o
 .PPC.EMB.apuinfo
                0x000000ac       0x18 build/obj/spc5_edma.o
 .PPC.EMB.apuinfo
                0x000000c4       0x1c build/obj/can_lld.o
 .PPC.EMB.apuinfo
                0x000000e0       0x18 build/obj/serial_lld.o
 .PPC.EMB.apuinfo
                0x000000f8       0x18 build/obj/pit_lld.o
 .PPC.EMB.apuinfo
                0x00000110       0x18 build/obj/spi_lld.o
 .PPC.EMB.apuinfo
                0x00000128       0x1c build/obj/wkpu_lld.o
 .PPC.EMB.apuinfo
                0x00000144       0x18 build/obj/spc5_linflex.o
 .PPC.EMB.apuinfo
                0x0000015c       0x18 build/obj/AEK_COM_ISOSPI1_lld.o
 .PPC.EMB.apuinfo
                0x00000174       0x18 build/obj/AEK_POW_BMS63EN_lld.o
 .PPC.EMB.apuinfo
                0x0000018c       0x1c build/obj/AEK_POW_BMS63EN_id.o
 .PPC.EMB.apuinfo
                0x000001a8       0x18 build/obj/AEK_POW_BMS63EN_diag.o
 .PPC.EMB.apuinfo
                0x000001c0       0x18 build/obj/pal.o
 .PPC.EMB.apuinfo
                0x000001d8       0x1c build/obj/clock.o
 .PPC.EMB.apuinfo
                0x000001f4       0x18 build/obj/irq.o
 .PPC.EMB.apuinfo
                0x0000020c       0x18 build/obj/eirq.o
 .PPC.EMB.apuinfo
                0x00000224       0x18 build/obj/swirq.o
 .PPC.EMB.apuinfo
                0x0000023c       0x18 build/obj/osal.o
 .PPC.EMB.apuinfo
                0x00000254       0x18 build/obj/systimer.o
 .PPC.EMB.apuinfo
                0x0000026c       0x18 build/obj/AEK_COM_ISOSPI1_cfg.o
 .PPC.EMB.apuinfo
                0x00000284       0x18 build/obj/AEK_POW_BMS63EN_cfg.o
 .PPC.EMB.apuinfo
                0x0000029c       0x18 build/obj/board.o
 .PPC.EMB.apuinfo
                0x000002b4       0x18 build/obj/irq_cfg.o
 .PPC.EMB.apuinfo
                0x000002cc       0x18 build/obj/swirq_cfg.o
 .PPC.EMB.apuinfo
                0x000002e4       0x18 build/obj/main.o
 .PPC.EMB.apuinfo
                0x000002fc       0x18 build/obj/AEK_POW_BMS63EN_Appl.o
 .PPC.EMB.apuinfo
                0x00000314       0x1c build/obj/BMS_Controller.o
 .PPC.EMB.apuinfo
                0x00000330       0x18 build/obj/components.o
 .PPC.EMB.apuinfo
                0x00000348       0x18 c:/autodevkitstudio-2.4.0/eclipse/plugins/com.st.tools.spc5.tools.gnu.gcc.ppcvle.win32_4.9.4.20200908161514/toolchain/bin/../lib/gcc/powerpc-eabivle/4.9.4/../../../../powerpc-eabivle/lib/e200z4\libm.a(lib_a-wf_exp.o)
 .PPC.EMB.apuinfo
                0x00000360       0x18 c:/autodevkitstudio-2.4.0/eclipse/plugins/com.st.tools.spc5.tools.gnu.gcc.ppcvle.win32_4.9.4.20200908161514/toolchain/bin/../lib/gcc/powerpc-eabivle/4.9.4/../../../../powerpc-eabivle/lib/e200z4\libm.a(lib_a-w_log.o)
 .PPC.EMB.apuinfo
                0x00000378       0x18 c:/autodevkitstudio-2.4.0/eclipse/plugins/com.st.tools.spc5.tools.gnu.gcc.ppcvle.win32_4.9.4.20200908161514/toolchain/bin/../lib/gcc/powerpc-eabivle/4.9.4/../../../../powerpc-eabivle/lib/e200z4\libm.a(lib_a-ef_exp.o)
 .PPC.EMB.apuinfo
                0x00000390       0x18 c:/autodevkitstudio-2.4.0/eclipse/plugins/com.st.tools.spc5.tools.gnu.gcc.ppcvle.win32_4.9.4.20200908161514/toolchain/bin/../lib/gcc/powerpc-eabivle/4.9.4/../../../../powerpc-eabivle/lib/e200z4\libm.a(lib_a-e_log.o)
 .PPC.EMB.apuinfo
                0x000003a8       0x1c c:/autodevkitstudio-2.4.0/eclipse/plugins/com.st.tools.spc5.tools.gnu.gcc.ppcvle.win32_4.9.4.20200908161514/toolchain/bin/../lib/gcc/powerpc-eabivle/4.9.4/../../../../powerpc-eabivle/lib/e200z4\libm.a(lib_a-sf_finite.o)
 .PPC.EMB.apuinfo
                0x000003c4       0x18 c:/autodevkitstudio-2.4.0/eclipse/plugins/com.st.tools.spc5.tools.gnu.gcc.ppcvle.win32_4.9.4.20200908161514/toolchain/bin/../lib/gcc/powerpc-eabivle/4.9.4/../../../../powerpc-eabivle/lib/e200z4\libm.a(lib_a-s_fpclassify.o)
 .PPC.EMB.apuinfo
                0x000003dc       0x18 c:/autodevkitstudio-2.4.0/eclipse/plugins/com.st.tools.spc5.tools.gnu.gcc.ppcvle.win32_4.9.4.20200908161514/toolchain/bin/../lib/gcc/powerpc-eabivle/4.9.4/../../../../powerpc-eabivle/lib/e200z4\libm.a(lib_a-s_matherr.o)
 .PPC.EMB.apuinfo
                0x000003f4       0x18 c:/autodevkitstudio-2.4.0/eclipse/plugins/com.st.tools.spc5.tools.gnu.gcc.ppcvle.win32_4.9.4.20200908161514/toolchain/bin/../lib/gcc/powerpc-eabivle/4.9.4/../../../../powerpc-eabivle/lib/e200z4\libm.a(lib_a-s_nan.o)
 .PPC.EMB.apuinfo
                0x0000040c       0x18 c:/autodevkitstudio-2.4.0/eclipse/plugins/com.st.tools.spc5.tools.gnu.gcc.ppcvle.win32_4.9.4.20200908161514/toolchain/bin/../lib/gcc/powerpc-eabivle/4.9.4/../../../../powerpc-eabivle/lib/e200z4\libc.a(lib_a-errno.o)
 .PPC.EMB.apuinfo
                0x00000424       0x18 c:/autodevkitstudio-2.4.0/eclipse/plugins/com.st.tools.spc5.tools.gnu.gcc.ppcvle.win32_4.9.4.20200908161514/toolchain/bin/../lib/gcc/powerpc-eabivle/4.9.4/../../../../powerpc-eabivle/lib/e200z4\libc.a(lib_a-memcpy.o)
 .PPC.EMB.apuinfo
                0x0000043c       0x18 c:/autodevkitstudio-2.4.0/eclipse/plugins/com.st.tools.spc5.tools.gnu.gcc.ppcvle.win32_4.9.4.20200908161514/toolchain/bin/../lib/gcc/powerpc-eabivle/4.9.4/../../../../powerpc-eabivle/lib/e200z4\libc.a(lib_a-memset.o)
 .PPC.EMB.apuinfo
                0x00000454       0x18 c:/autodevkitstudio-2.4.0/eclipse/plugins/com.st.tools.spc5.tools.gnu.gcc.ppcvle.win32_4.9.4.20200908161514/toolchain/bin/../lib/gcc/powerpc-eabivle/4.9.4/e200z4\libgcc.a(_fixunssfsi.o)
 .PPC.EMB.apuinfo
                0x0000046c       0x18 c:/autodevkitstudio-2.4.0/eclipse/plugins/com.st.tools.spc5.tools.gnu.gcc.ppcvle.win32_4.9.4.20200908161514/toolchain/bin/../lib/gcc/powerpc-eabivle/4.9.4/e200z4\libgcc.a(_fixunsdfsi.o)
 .PPC.EMB.apuinfo
                0x00000484       0x1c c:/autodevkitstudio-2.4.0/eclipse/plugins/com.st.tools.spc5.tools.gnu.gcc.ppcvle.win32_4.9.4.20200908161514/toolchain/bin/../lib/gcc/powerpc-eabivle/4.9.4/e200z4\libgcc.a(_udivdi3.o)
 .PPC.EMB.apuinfo
                0x000004a0       0x1c c:/autodevkitstudio-2.4.0/eclipse/plugins/com.st.tools.spc5.tools.gnu.gcc.ppcvle.win32_4.9.4.20200908161514/toolchain/bin/../lib/gcc/powerpc-eabivle/4.9.4/e200z4\libgcc.a(_addsub_sf.o)
 .PPC.EMB.apuinfo
                0x000004bc       0x1c c:/autodevkitstudio-2.4.0/eclipse/plugins/com.st.tools.spc5.tools.gnu.gcc.ppcvle.win32_4.9.4.20200908161514/toolchain/bin/../lib/gcc/powerpc-eabivle/4.9.4/e200z4\libgcc.a(_mul_sf.o)
 .PPC.EMB.apuinfo
                0x000004d8       0x18 c:/autodevkitstudio-2.4.0/eclipse/plugins/com.st.tools.spc5.tools.gnu.gcc.ppcvle.win32_4.9.4.20200908161514/toolchain/bin/../lib/gcc/powerpc-eabivle/4.9.4/e200z4\libgcc.a(_div_sf.o)
 .PPC.EMB.apuinfo
                0x000004f0       0x18 c:/autodevkitstudio-2.4.0/eclipse/plugins/com.st.tools.spc5.tools.gnu.gcc.ppcvle.win32_4.9.4.20200908161514/toolchain/bin/../lib/gcc/powerpc-eabivle/4.9.4/e200z4\libgcc.a(_gt_sf.o)
 .PPC.EMB.apuinfo
                0x00000508       0x18 c:/autodevkitstudio-2.4.0/eclipse/plugins/com.st.tools.spc5.tools.gnu.gcc.ppcvle.win32_4.9.4.20200908161514/toolchain/bin/../lib/gcc/powerpc-eabivle/4.9.4/e200z4\libgcc.a(_ge_sf.o)
 .PPC.EMB.apuinfo
                0x00000520       0x18 c:/autodevkitstudio-2.4.0/eclipse/plugins/com.st.tools.spc5.tools.gnu.gcc.ppcvle.win32_4.9.4.20200908161514/toolchain/bin/../lib/gcc/powerpc-eabivle/4.9.4/e200z4\libgcc.a(_lt_sf.o)
 .PPC.EMB.apuinfo
                0x00000538       0x18 c:/autodevkitstudio-2.4.0/eclipse/plugins/com.st.tools.spc5.tools.gnu.gcc.ppcvle.win32_4.9.4.20200908161514/toolchain/bin/../lib/gcc/powerpc-eabivle/4.9.4/e200z4\libgcc.a(_le_sf.o)
 .PPC.EMB.apuinfo
                0x00000550       0x18 c:/autodevkitstudio-2.4.0/eclipse/plugins/com.st.tools.spc5.tools.gnu.gcc.ppcvle.win32_4.9.4.20200908161514/toolchain/bin/../lib/gcc/powerpc-eabivle/4.9.4/e200z4\libgcc.a(_si_to_sf.o)
 .PPC.EMB.apuinfo
                0x00000568       0x1c c:/autodevkitstudio-2.4.0/eclipse/plugins/com.st.tools.spc5.tools.gnu.gcc.ppcvle.win32_4.9.4.20200908161514/toolchain/bin/../lib/gcc/powerpc-eabivle/4.9.4/e200z4\libgcc.a(_sf_to_si.o)
 .PPC.EMB.apuinfo
                0x00000584       0x18 c:/autodevkitstudio-2.4.0/eclipse/plugins/com.st.tools.spc5.tools.gnu.gcc.ppcvle.win32_4.9.4.20200908161514/toolchain/bin/../lib/gcc/powerpc-eabivle/4.9.4/e200z4\libgcc.a(_sf_to_df.o)
 .PPC.EMB.apuinfo
                0x0000059c       0x18 c:/autodevkitstudio-2.4.0/eclipse/plugins/com.st.tools.spc5.tools.gnu.gcc.ppcvle.win32_4.9.4.20200908161514/toolchain/bin/../lib/gcc/powerpc-eabivle/4.9.4/e200z4\libgcc.a(_usi_to_sf.o)
 .PPC.EMB.apuinfo
                0x000005b4       0x1c c:/autodevkitstudio-2.4.0/eclipse/plugins/com.st.tools.spc5.tools.gnu.gcc.ppcvle.win32_4.9.4.20200908161514/toolchain/bin/../lib/gcc/powerpc-eabivle/4.9.4/e200z4\libgcc.a(_addsub_df.o)
 .PPC.EMB.apuinfo
                0x000005d0       0x1c c:/autodevkitstudio-2.4.0/eclipse/plugins/com.st.tools.spc5.tools.gnu.gcc.ppcvle.win32_4.9.4.20200908161514/toolchain/bin/../lib/gcc/powerpc-eabivle/4.9.4/e200z4\libgcc.a(_mul_df.o)
 .PPC.EMB.apuinfo
                0x000005ec       0x18 c:/autodevkitstudio-2.4.0/eclipse/plugins/com.st.tools.spc5.tools.gnu.gcc.ppcvle.win32_4.9.4.20200908161514/toolchain/bin/../lib/gcc/powerpc-eabivle/4.9.4/e200z4\libgcc.a(_div_df.o)
 .PPC.EMB.apuinfo
                0x00000604       0x18 c:/autodevkitstudio-2.4.0/eclipse/plugins/com.st.tools.spc5.tools.gnu.gcc.ppcvle.win32_4.9.4.20200908161514/toolchain/bin/../lib/gcc/powerpc-eabivle/4.9.4/e200z4\libgcc.a(_eq_df.o)
 .PPC.EMB.apuinfo
                0x0000061c       0x18 c:/autodevkitstudio-2.4.0/eclipse/plugins/com.st.tools.spc5.tools.gnu.gcc.ppcvle.win32_4.9.4.20200908161514/toolchain/bin/../lib/gcc/powerpc-eabivle/4.9.4/e200z4\libgcc.a(_gt_df.o)
 .PPC.EMB.apuinfo
                0x00000634       0x18 c:/autodevkitstudio-2.4.0/eclipse/plugins/com.st.tools.spc5.tools.gnu.gcc.ppcvle.win32_4.9.4.20200908161514/toolchain/bin/../lib/gcc/powerpc-eabivle/4.9.4/e200z4\libgcc.a(_ge_df.o)
 .PPC.EMB.apuinfo
                0x0000064c       0x1c c:/autodevkitstudio-2.4.0/eclipse/plugins/com.st.tools.spc5.tools.gnu.gcc.ppcvle.win32_4.9.4.20200908161514/toolchain/bin/../lib/gcc/powerpc-eabivle/4.9.4/e200z4\libgcc.a(_si_to_df.o)
 .PPC.EMB.apuinfo
                0x00000668       0x1c c:/autodevkitstudio-2.4.0/eclipse/plugins/com.st.tools.spc5.tools.gnu.gcc.ppcvle.win32_4.9.4.20200908161514/toolchain/bin/../lib/gcc/powerpc-eabivle/4.9.4/e200z4\libgcc.a(_df_to_si.o)
 .PPC.EMB.apuinfo
                0x00000684       0x18 c:/autodevkitstudio-2.4.0/eclipse/plugins/com.st.tools.spc5.tools.gnu.gcc.ppcvle.win32_4.9.4.20200908161514/toolchain/bin/../lib/gcc/powerpc-eabivle/4.9.4/e200z4\libgcc.a(_make_df.o)
 .PPC.EMB.apuinfo
                0x0000069c       0x1c c:/autodevkitstudio-2.4.0/eclipse/plugins/com.st.tools.spc5.tools.gnu.gcc.ppcvle.win32_4.9.4.20200908161514/toolchain/bin/../lib/gcc/powerpc-eabivle/4.9.4/e200z4\libgcc.a(_df_to_sf.o)
 .PPC.EMB.apuinfo
                0x000006b8       0x18 c:/autodevkitstudio-2.4.0/eclipse/plugins/com.st.tools.spc5.tools.gnu.gcc.ppcvle.win32_4.9.4.20200908161514/toolchain/bin/../lib/gcc/powerpc-eabivle/4.9.4/e200z4\libgcc.a(e200crtresxgpr.o)
 .PPC.EMB.apuinfo
                0x000006d0       0x18 c:/autodevkitstudio-2.4.0/eclipse/plugins/com.st.tools.spc5.tools.gnu.gcc.ppcvle.win32_4.9.4.20200908161514/toolchain/bin/../lib/gcc/powerpc-eabivle/4.9.4/e200z4\libgcc.a(_pack_sf.o)
 .PPC.EMB.apuinfo
                0x000006e8       0x18 c:/autodevkitstudio-2.4.0/eclipse/plugins/com.st.tools.spc5.tools.gnu.gcc.ppcvle.win32_4.9.4.20200908161514/toolchain/bin/../lib/gcc/powerpc-eabivle/4.9.4/e200z4\libgcc.a(_unpack_sf.o)
 .PPC.EMB.apuinfo
                0x00000700       0x1c c:/autodevkitstudio-2.4.0/eclipse/plugins/com.st.tools.spc5.tools.gnu.gcc.ppcvle.win32_4.9.4.20200908161514/toolchain/bin/../lib/gcc/powerpc-eabivle/4.9.4/e200z4\libgcc.a(_fpcmp_parts_sf.o)
 .PPC.EMB.apuinfo
                0x0000071c       0x18 c:/autodevkitstudio-2.4.0/eclipse/plugins/com.st.tools.spc5.tools.gnu.gcc.ppcvle.win32_4.9.4.20200908161514/toolchain/bin/../lib/gcc/powerpc-eabivle/4.9.4/e200z4\libgcc.a(_make_sf.o)
 .PPC.EMB.apuinfo
                0x00000734       0x1c c:/autodevkitstudio-2.4.0/eclipse/plugins/com.st.tools.spc5.tools.gnu.gcc.ppcvle.win32_4.9.4.20200908161514/toolchain/bin/../lib/gcc/powerpc-eabivle/4.9.4/e200z4\libgcc.a(_pack_df.o)
 .PPC.EMB.apuinfo
                0x00000750       0x18 c:/autodevkitstudio-2.4.0/eclipse/plugins/com.st.tools.spc5.tools.gnu.gcc.ppcvle.win32_4.9.4.20200908161514/toolchain/bin/../lib/gcc/powerpc-eabivle/4.9.4/e200z4\libgcc.a(_unpack_df.o)
 .PPC.EMB.apuinfo
                0x00000768       0x1c c:/autodevkitstudio-2.4.0/eclipse/plugins/com.st.tools.spc5.tools.gnu.gcc.ppcvle.win32_4.9.4.20200908161514/toolchain/bin/../lib/gcc/powerpc-eabivle/4.9.4/e200z4\libgcc.a(_fpcmp_parts_df.o)

.comment        0x00000000       0x8e
 .comment       0x00000000       0x8e build/obj/core0.o
                                 0x8f (size before relaxing)
 .comment       0x0000008e       0x8f build/obj/cache.o
 .comment       0x0000008e       0x8f build/obj/spc5_lld.o
 .comment       0x0000008e       0x8f build/obj/spc5_edma.o
 .comment       0x0000008e       0x8f build/obj/can_lld.o
 .comment       0x0000008e       0x8f build/obj/serial_lld.o
 .comment       0x0000008e       0x8f build/obj/pit_lld.o
 .comment       0x0000008e       0x8f build/obj/spi_lld.o
 .comment       0x0000008e       0x8f build/obj/wkpu_lld.o
 .comment       0x0000008e       0x8f build/obj/spc5_linflex.o
 .comment       0x0000008e       0x8f build/obj/AEK_COM_ISOSPI1_lld.o
 .comment       0x0000008e       0x8f build/obj/AEK_POW_BMS63EN_lld.o
 .comment       0x0000008e       0x8f build/obj/AEK_POW_BMS63EN_id.o
 .comment       0x0000008e       0x8f build/obj/AEK_POW_BMS63EN_diag.o
 .comment       0x0000008e       0x8f build/obj/pal.o
 .comment       0x0000008e       0x8f build/obj/clock.o
 .comment       0x0000008e       0x8f build/obj/irq.o
 .comment       0x0000008e       0x8f build/obj/eirq.o
 .comment       0x0000008e       0x8f build/obj/swirq.o
 .comment       0x0000008e       0x8f build/obj/osal.o
 .comment       0x0000008e       0x8f build/obj/systimer.o
 .comment       0x0000008e       0x8f build/obj/serial_lld_cfg.o
 .comment       0x0000008e       0x8f build/obj/can_lld_cfg.o
 .comment       0x0000008e       0x8f build/obj/pit_lld_cfg.o
 .comment       0x0000008e       0x8f build/obj/spi_lld_cfg.o
 .comment       0x0000008e       0x8f build/obj/wkpu_lld_cfg.o
 .comment       0x0000008e       0x8f build/obj/AEK_COM_ISOSPI1_cfg.o
 .comment       0x0000008e       0x8f build/obj/AEK_POW_BMS63EN_cfg.o
 .comment       0x0000008e       0x8f build/obj/board.o
 .comment       0x0000008e       0x8f build/obj/irq_cfg.o
 .comment       0x0000008e       0x8f build/obj/eirq_cfg.o
 .comment       0x0000008e       0x8f build/obj/swirq_cfg.o
 .comment       0x0000008e       0x8f build/obj/main.o
 .comment       0x0000008e       0x8f build/obj/AEK_POW_BMS63EN_Appl.o
 .comment       0x0000008e       0x8f build/obj/BMS_Controller_data.o
 .comment       0x0000008e       0x8f build/obj/Cell_Model_parameter.o
 .comment       0x0000008e       0x8f build/obj/BMS_Controller.o
 .comment       0x0000008e       0x8f build/obj/components.o

.gnu.attributes
                0x00000000       0x10
 .gnu.attributes
                0x00000000       0x10 build/obj/AEK_POW_BMS63EN_id.o
 .gnu.attributes
                0x00000010       0x10 build/obj/main.o
 .gnu.attributes
                0x00000020       0x10 build/obj/AEK_POW_BMS63EN_Appl.o
 .gnu.attributes
                0x00000030       0x10 build/obj/BMS_Controller.o
 .gnu.attributes
                0x00000040       0x10 c:/autodevkitstudio-2.4.0/eclipse/plugins/com.st.tools.spc5.tools.gnu.gcc.ppcvle.win32_4.9.4.20200908161514/toolchain/bin/../lib/gcc/powerpc-eabivle/4.9.4/../../../../powerpc-eabivle/lib/e200z4\libm.a(lib_a-wf_exp.o)
 .gnu.attributes
                0x00000050       0x10 c:/autodevkitstudio-2.4.0/eclipse/plugins/com.st.tools.spc5.tools.gnu.gcc.ppcvle.win32_4.9.4.20200908161514/toolchain/bin/../lib/gcc/powerpc-eabivle/4.9.4/../../../../powerpc-eabivle/lib/e200z4\libm.a(lib_a-w_log.o)
 .gnu.attributes
                0x00000060       0x10 c:/autodevkitstudio-2.4.0/eclipse/plugins/com.st.tools.spc5.tools.gnu.gcc.ppcvle.win32_4.9.4.20200908161514/toolchain/bin/../lib/gcc/powerpc-eabivle/4.9.4/../../../../powerpc-eabivle/lib/e200z4\libm.a(lib_a-ef_exp.o)
 .gnu.attributes
                0x00000070       0x10 c:/autodevkitstudio-2.4.0/eclipse/plugins/com.st.tools.spc5.tools.gnu.gcc.ppcvle.win32_4.9.4.20200908161514/toolchain/bin/../lib/gcc/powerpc-eabivle/4.9.4/../../../../powerpc-eabivle/lib/e200z4\libm.a(lib_a-e_log.o)
 .gnu.attributes
                0x00000080       0x10 c:/autodevkitstudio-2.4.0/eclipse/plugins/com.st.tools.spc5.tools.gnu.gcc.ppcvle.win32_4.9.4.20200908161514/toolchain/bin/../lib/gcc/powerpc-eabivle/4.9.4/../../../../powerpc-eabivle/lib/e200z4\libm.a(lib_a-sf_finite.o)
 .gnu.attributes
                0x00000090       0x10 c:/autodevkitstudio-2.4.0/eclipse/plugins/com.st.tools.spc5.tools.gnu.gcc.ppcvle.win32_4.9.4.20200908161514/toolchain/bin/../lib/gcc/powerpc-eabivle/4.9.4/../../../../powerpc-eabivle/lib/e200z4\libm.a(lib_a-s_fpclassify.o)
 .gnu.attributes
                0x000000a0       0x10 c:/autodevkitstudio-2.4.0/eclipse/plugins/com.st.tools.spc5.tools.gnu.gcc.ppcvle.win32_4.9.4.20200908161514/toolchain/bin/../lib/gcc/powerpc-eabivle/4.9.4/../../../../powerpc-eabivle/lib/e200z4\libm.a(lib_a-s_nan.o)
 .gnu.attributes
                0x000000b0       0x10 c:/autodevkitstudio-2.4.0/eclipse/plugins/com.st.tools.spc5.tools.gnu.gcc.ppcvle.win32_4.9.4.20200908161514/toolchain/bin/../lib/gcc/powerpc-eabivle/4.9.4/e200z4\libgcc.a(_fixunssfsi.o)
 .gnu.attributes
                0x000000c0       0x10 c:/autodevkitstudio-2.4.0/eclipse/plugins/com.st.tools.spc5.tools.gnu.gcc.ppcvle.win32_4.9.4.20200908161514/toolchain/bin/../lib/gcc/powerpc-eabivle/4.9.4/e200z4\libgcc.a(_fixunsdfsi.o)
 .gnu.attributes
                0x000000d0       0x10 c:/autodevkitstudio-2.4.0/eclipse/plugins/com.st.tools.spc5.tools.gnu.gcc.ppcvle.win32_4.9.4.20200908161514/toolchain/bin/../lib/gcc/powerpc-eabivle/4.9.4/e200z4\libgcc.a(_addsub_sf.o)
 .gnu.attributes
                0x000000e0       0x10 c:/autodevkitstudio-2.4.0/eclipse/plugins/com.st.tools.spc5.tools.gnu.gcc.ppcvle.win32_4.9.4.20200908161514/toolchain/bin/../lib/gcc/powerpc-eabivle/4.9.4/e200z4\libgcc.a(_mul_sf.o)
 .gnu.attributes
                0x000000f0       0x10 c:/autodevkitstudio-2.4.0/eclipse/plugins/com.st.tools.spc5.tools.gnu.gcc.ppcvle.win32_4.9.4.20200908161514/toolchain/bin/../lib/gcc/powerpc-eabivle/4.9.4/e200z4\libgcc.a(_div_sf.o)
 .gnu.attributes
                0x00000100       0x10 c:/autodevkitstudio-2.4.0/eclipse/plugins/com.st.tools.spc5.tools.gnu.gcc.ppcvle.win32_4.9.4.20200908161514/toolchain/bin/../lib/gcc/powerpc-eabivle/4.9.4/e200z4\libgcc.a(_gt_sf.o)
 .gnu.attributes
                0x00000110       0x10 c:/autodevkitstudio-2.4.0/eclipse/plugins/com.st.tools.spc5.tools.gnu.gcc.ppcvle.win32_4.9.4.20200908161514/toolchain/bin/../lib/gcc/powerpc-eabivle/4.9.4/e200z4\libgcc.a(_ge_sf.o)
 .gnu.attributes
                0x00000120       0x10 c:/autodevkitstudio-2.4.0/eclipse/plugins/com.st.tools.spc5.tools.gnu.gcc.ppcvle.win32_4.9.4.20200908161514/toolchain/bin/../lib/gcc/powerpc-eabivle/4.9.4/e200z4\libgcc.a(_lt_sf.o)
 .gnu.attributes
                0x00000130       0x10 c:/autodevkitstudio-2.4.0/eclipse/plugins/com.st.tools.spc5.tools.gnu.gcc.ppcvle.win32_4.9.4.20200908161514/toolchain/bin/../lib/gcc/powerpc-eabivle/4.9.4/e200z4\libgcc.a(_le_sf.o)
 .gnu.attributes
                0x00000140       0x10 c:/autodevkitstudio-2.4.0/eclipse/plugins/com.st.tools.spc5.tools.gnu.gcc.ppcvle.win32_4.9.4.20200908161514/toolchain/bin/../lib/gcc/powerpc-eabivle/4.9.4/e200z4\libgcc.a(_si_to_sf.o)
 .gnu.attributes
                0x00000150       0x10 c:/autodevkitstudio-2.4.0/eclipse/plugins/com.st.tools.spc5.tools.gnu.gcc.ppcvle.win32_4.9.4.20200908161514/toolchain/bin/../lib/gcc/powerpc-eabivle/4.9.4/e200z4\libgcc.a(_sf_to_si.o)
 .gnu.attributes
                0x00000160       0x10 c:/autodevkitstudio-2.4.0/eclipse/plugins/com.st.tools.spc5.tools.gnu.gcc.ppcvle.win32_4.9.4.20200908161514/toolchain/bin/../lib/gcc/powerpc-eabivle/4.9.4/e200z4\libgcc.a(_sf_to_df.o)
 .gnu.attributes
                0x00000170       0x10 c:/autodevkitstudio-2.4.0/eclipse/plugins/com.st.tools.spc5.tools.gnu.gcc.ppcvle.win32_4.9.4.20200908161514/toolchain/bin/../lib/gcc/powerpc-eabivle/4.9.4/e200z4\libgcc.a(_usi_to_sf.o)
 .gnu.attributes
                0x00000180       0x10 c:/autodevkitstudio-2.4.0/eclipse/plugins/com.st.tools.spc5.tools.gnu.gcc.ppcvle.win32_4.9.4.20200908161514/toolchain/bin/../lib/gcc/powerpc-eabivle/4.9.4/e200z4\libgcc.a(_addsub_df.o)
 .gnu.attributes
                0x00000190       0x10 c:/autodevkitstudio-2.4.0/eclipse/plugins/com.st.tools.spc5.tools.gnu.gcc.ppcvle.win32_4.9.4.20200908161514/toolchain/bin/../lib/gcc/powerpc-eabivle/4.9.4/e200z4\libgcc.a(_mul_df.o)
 .gnu.attributes
                0x000001a0       0x10 c:/autodevkitstudio-2.4.0/eclipse/plugins/com.st.tools.spc5.tools.gnu.gcc.ppcvle.win32_4.9.4.20200908161514/toolchain/bin/../lib/gcc/powerpc-eabivle/4.9.4/e200z4\libgcc.a(_div_df.o)
 .gnu.attributes
                0x000001b0       0x10 c:/autodevkitstudio-2.4.0/eclipse/plugins/com.st.tools.spc5.tools.gnu.gcc.ppcvle.win32_4.9.4.20200908161514/toolchain/bin/../lib/gcc/powerpc-eabivle/4.9.4/e200z4\libgcc.a(_eq_df.o)
 .gnu.attributes
                0x000001c0       0x10 c:/autodevkitstudio-2.4.0/eclipse/plugins/com.st.tools.spc5.tools.gnu.gcc.ppcvle.win32_4.9.4.20200908161514/toolchain/bin/../lib/gcc/powerpc-eabivle/4.9.4/e200z4\libgcc.a(_gt_df.o)
 .gnu.attributes
                0x000001d0       0x10 c:/autodevkitstudio-2.4.0/eclipse/plugins/com.st.tools.spc5.tools.gnu.gcc.ppcvle.win32_4.9.4.20200908161514/toolchain/bin/../lib/gcc/powerpc-eabivle/4.9.4/e200z4\libgcc.a(_ge_df.o)
 .gnu.attributes
                0x000001e0       0x10 c:/autodevkitstudio-2.4.0/eclipse/plugins/com.st.tools.spc5.tools.gnu.gcc.ppcvle.win32_4.9.4.20200908161514/toolchain/bin/../lib/gcc/powerpc-eabivle/4.9.4/e200z4\libgcc.a(_si_to_df.o)
 .gnu.attributes
                0x000001f0       0x10 c:/autodevkitstudio-2.4.0/eclipse/plugins/com.st.tools.spc5.tools.gnu.gcc.ppcvle.win32_4.9.4.20200908161514/toolchain/bin/../lib/gcc/powerpc-eabivle/4.9.4/e200z4\libgcc.a(_df_to_si.o)
 .gnu.attributes
                0x00000200       0x10 c:/autodevkitstudio-2.4.0/eclipse/plugins/com.st.tools.spc5.tools.gnu.gcc.ppcvle.win32_4.9.4.20200908161514/toolchain/bin/../lib/gcc/powerpc-eabivle/4.9.4/e200z4\libgcc.a(_make_df.o)
 .gnu.attributes
                0x00000210       0x10 c:/autodevkitstudio-2.4.0/eclipse/plugins/com.st.tools.spc5.tools.gnu.gcc.ppcvle.win32_4.9.4.20200908161514/toolchain/bin/../lib/gcc/powerpc-eabivle/4.9.4/e200z4\libgcc.a(_df_to_sf.o)
 .gnu.attributes
                0x00000220       0x10 c:/autodevkitstudio-2.4.0/eclipse/plugins/com.st.tools.spc5.tools.gnu.gcc.ppcvle.win32_4.9.4.20200908161514/toolchain/bin/../lib/gcc/powerpc-eabivle/4.9.4/e200z4\libgcc.a(_pack_sf.o)
 .gnu.attributes
                0x00000230       0x10 c:/autodevkitstudio-2.4.0/eclipse/plugins/com.st.tools.spc5.tools.gnu.gcc.ppcvle.win32_4.9.4.20200908161514/toolchain/bin/../lib/gcc/powerpc-eabivle/4.9.4/e200z4\libgcc.a(_make_sf.o)
 .gnu.attributes
                0x00000240       0x10 c:/autodevkitstudio-2.4.0/eclipse/plugins/com.st.tools.spc5.tools.gnu.gcc.ppcvle.win32_4.9.4.20200908161514/toolchain/bin/../lib/gcc/powerpc-eabivle/4.9.4/e200z4\libgcc.a(_pack_df.o)

.debug_info     0x00000000    0x3f862
 .debug_info    0x00000000     0x21e4 build/obj/core0.o
 .debug_info    0x000021e4      0x673 build/obj/cache.o
 .debug_info    0x00002857      0x10b build/obj/spc5_lld.o
 .debug_info    0x00002962     0x35a1 build/obj/spc5_edma.o
 .debug_info    0x00005f03     0x4532 build/obj/can_lld.o
 .debug_info    0x0000a435     0x16c0 build/obj/serial_lld.o
 .debug_info    0x0000baf5      0x752 build/obj/pit_lld.o
 .debug_info    0x0000c247     0x315b build/obj/spi_lld.o
 .debug_info    0x0000f3a2     0x184d build/obj/wkpu_lld.o
 .debug_info    0x00010bef      0x1a5 build/obj/spc5_linflex.o
 .debug_info    0x00010d94     0x388f build/obj/AEK_COM_ISOSPI1_lld.o
 .debug_info    0x00014623     0x1c69 build/obj/AEK_POW_BMS63EN_lld.o
 .debug_info    0x0001628c     0x53ec build/obj/AEK_POW_BMS63EN_id.o
 .debug_info    0x0001b678     0x248f build/obj/AEK_POW_BMS63EN_diag.o
 .debug_info    0x0001db07     0x1aef build/obj/pal.o
 .debug_info    0x0001f5f6     0x8e00 build/obj/clock.o
 .debug_info    0x000283f6      0x104 build/obj/irq.o
 .debug_info    0x000284fa     0x1af7 build/obj/eirq.o
 .debug_info    0x00029ff1      0x1a7 build/obj/swirq.o
 .debug_info    0x0002a198      0x8b9 build/obj/osal.o
 .debug_info    0x0002aa51      0x5ad build/obj/systimer.o
 .debug_info    0x0002affe     0x10f0 build/obj/serial_lld_cfg.o
 .debug_info    0x0002c0ee     0x37c9 build/obj/can_lld_cfg.o
 .debug_info    0x0002f8b7      0x110 build/obj/pit_lld_cfg.o
 .debug_info    0x0002f9c7      0xe42 build/obj/spi_lld_cfg.o
 .debug_info    0x00030809     0x169a build/obj/wkpu_lld_cfg.o
 .debug_info    0x00031ea3     0x106a build/obj/AEK_COM_ISOSPI1_cfg.o
 .debug_info    0x00032f0d     0x16c5 build/obj/AEK_POW_BMS63EN_cfg.o
 .debug_info    0x000345d2      0x20a build/obj/board.o
 .debug_info    0x000347dc       0x8c build/obj/irq_cfg.o
 .debug_info    0x00034868      0x126 build/obj/eirq_cfg.o
 .debug_info    0x0003498e       0x8c build/obj/swirq_cfg.o
 .debug_info    0x00034a1a     0x6b7b build/obj/main.o
 .debug_info    0x0003b595     0x2bed build/obj/AEK_POW_BMS63EN_Appl.o
 .debug_info    0x0003e182      0x14a build/obj/BMS_Controller_data.o
 .debug_info    0x0003e2cc      0x1b9 build/obj/Cell_Model_parameter.o
 .debug_info    0x0003e485     0x12c4 build/obj/BMS_Controller.o
 .debug_info    0x0003f749      0x119 build/obj/components.o

.debug_abbrev   0x00000000     0x48df
 .debug_abbrev  0x00000000       0xf7 build/obj/core0.o
 .debug_abbrev  0x000000f7      0x257 build/obj/cache.o
 .debug_abbrev  0x0000034e       0x70 build/obj/spc5_lld.o
 .debug_abbrev  0x000003be      0x334 build/obj/spc5_edma.o
 .debug_abbrev  0x000006f2      0x377 build/obj/can_lld.o
 .debug_abbrev  0x00000a69      0x355 build/obj/serial_lld.o
 .debug_abbrev  0x00000dbe      0x262 build/obj/pit_lld.o
 .debug_abbrev  0x00001020      0x3d5 build/obj/spi_lld.o
 .debug_abbrev  0x000013f5      0x21a build/obj/wkpu_lld.o
 .debug_abbrev  0x0000160f       0xca build/obj/spc5_linflex.o
 .debug_abbrev  0x000016d9      0x37b build/obj/AEK_COM_ISOSPI1_lld.o
 .debug_abbrev  0x00001a54      0x325 build/obj/AEK_POW_BMS63EN_lld.o
 .debug_abbrev  0x00001d79      0x44b build/obj/AEK_POW_BMS63EN_id.o
 .debug_abbrev  0x000021c4      0x2f4 build/obj/AEK_POW_BMS63EN_diag.o
 .debug_abbrev  0x000024b8      0x1b9 build/obj/pal.o
 .debug_abbrev  0x00002671      0x281 build/obj/clock.o
 .debug_abbrev  0x000028f2       0xaa build/obj/irq.o
 .debug_abbrev  0x0000299c      0x1cc build/obj/eirq.o
 .debug_abbrev  0x00002b68       0x9f build/obj/swirq.o
 .debug_abbrev  0x00002c07      0x352 build/obj/osal.o
 .debug_abbrev  0x00002f59      0x14f build/obj/systimer.o
 .debug_abbrev  0x000030a8       0xfe build/obj/serial_lld_cfg.o
 .debug_abbrev  0x000031a6      0x19c build/obj/can_lld_cfg.o
 .debug_abbrev  0x00003342       0x8f build/obj/pit_lld_cfg.o
 .debug_abbrev  0x000033d1      0x1b2 build/obj/spi_lld_cfg.o
 .debug_abbrev  0x00003583      0x13f build/obj/wkpu_lld_cfg.o
 .debug_abbrev  0x000036c2      0x215 build/obj/AEK_COM_ISOSPI1_cfg.o
 .debug_abbrev  0x000038d7      0x244 build/obj/AEK_POW_BMS63EN_cfg.o
 .debug_abbrev  0x00003b1b       0xcd build/obj/board.o
 .debug_abbrev  0x00003be8       0x44 build/obj/irq_cfg.o
 .debug_abbrev  0x00003c2c       0x82 build/obj/eirq_cfg.o
 .debug_abbrev  0x00003cae       0x44 build/obj/swirq_cfg.o
 .debug_abbrev  0x00003cf2      0x410 build/obj/main.o
 .debug_abbrev  0x00004102      0x3ac build/obj/AEK_POW_BMS63EN_Appl.o
 .debug_abbrev  0x000044ae       0x79 build/obj/BMS_Controller_data.o
 .debug_abbrev  0x00004527       0x56 build/obj/Cell_Model_parameter.o
 .debug_abbrev  0x0000457d      0x2e1 build/obj/BMS_Controller.o
 .debug_abbrev  0x0000485e       0x81 build/obj/components.o

.debug_aranges  0x00000000      0xdb0
 .debug_aranges
                0x00000000       0x20 build/obj/core0.o
 .debug_aranges
                0x00000020       0x68 build/obj/cache.o
 .debug_aranges
                0x00000088       0x20 build/obj/spc5_lld.o
 .debug_aranges
                0x000000a8      0x238 build/obj/spc5_edma.o
 .debug_aranges
                0x000002e0       0x70 build/obj/can_lld.o
 .debug_aranges
                0x00000350       0x58 build/obj/serial_lld.o
 .debug_aranges
                0x000003a8       0x80 build/obj/pit_lld.o
 .debug_aranges
                0x00000428       0xb8 build/obj/spi_lld.o
 .debug_aranges
                0x000004e0       0x50 build/obj/wkpu_lld.o
 .debug_aranges
                0x00000530       0x38 build/obj/spc5_linflex.o
 .debug_aranges
                0x00000568       0xe8 build/obj/AEK_COM_ISOSPI1_lld.o
 .debug_aranges
                0x00000650       0x60 build/obj/AEK_POW_BMS63EN_lld.o
 .debug_aranges
                0x000006b0      0x1e0 build/obj/AEK_POW_BMS63EN_id.o
 .debug_aranges
                0x00000890       0x90 build/obj/AEK_POW_BMS63EN_diag.o
 .debug_aranges
                0x00000920       0x38 build/obj/pal.o
 .debug_aranges
                0x00000958       0x50 build/obj/clock.o
 .debug_aranges
                0x000009a8       0x28 build/obj/irq.o
 .debug_aranges
                0x000009d0       0x48 build/obj/eirq.o
 .debug_aranges
                0x00000a18       0x40 build/obj/swirq.o
 .debug_aranges
                0x00000a58       0xa8 build/obj/osal.o
 .debug_aranges
                0x00000b00       0x28 build/obj/systimer.o
 .debug_aranges
                0x00000b28       0x18 build/obj/serial_lld_cfg.o
 .debug_aranges
                0x00000b40       0x18 build/obj/can_lld_cfg.o
 .debug_aranges
                0x00000b58       0x18 build/obj/pit_lld_cfg.o
 .debug_aranges
                0x00000b70       0x18 build/obj/spi_lld_cfg.o
 .debug_aranges
                0x00000b88       0x18 build/obj/wkpu_lld_cfg.o
 .debug_aranges
                0x00000ba0       0x20 build/obj/AEK_COM_ISOSPI1_cfg.o
 .debug_aranges
                0x00000bc0       0x20 build/obj/AEK_POW_BMS63EN_cfg.o
 .debug_aranges
                0x00000be0       0x20 build/obj/board.o
 .debug_aranges
                0x00000c00       0x20 build/obj/irq_cfg.o
 .debug_aranges
                0x00000c20       0x18 build/obj/eirq_cfg.o
 .debug_aranges
                0x00000c38       0x20 build/obj/swirq_cfg.o
 .debug_aranges
                0x00000c58       0x60 build/obj/main.o
 .debug_aranges
                0x00000cb8       0x70 build/obj/AEK_POW_BMS63EN_Appl.o
 .debug_aranges
                0x00000d28       0x18 build/obj/BMS_Controller_data.o
 .debug_aranges
                0x00000d40       0x18 build/obj/Cell_Model_parameter.o
 .debug_aranges
                0x00000d58       0x38 build/obj/BMS_Controller.o
 .debug_aranges
                0x00000d90       0x20 build/obj/components.o

.debug_ranges   0x00000000     0x1450
 .debug_ranges  0x00000000       0x10 build/obj/core0.o
 .debug_ranges  0x00000010       0xb8 build/obj/cache.o
 .debug_ranges  0x000000c8       0x10 build/obj/spc5_lld.o
 .debug_ranges  0x000000d8      0x268 build/obj/spc5_edma.o
 .debug_ranges  0x00000340       0xe0 build/obj/can_lld.o
 .debug_ranges  0x00000420       0xb8 build/obj/serial_lld.o
 .debug_ranges  0x000004d8       0x70 build/obj/pit_lld.o
 .debug_ranges  0x00000548      0x248 build/obj/spi_lld.o
 .debug_ranges  0x00000790       0x40 build/obj/wkpu_lld.o
 .debug_ranges  0x000007d0       0x28 build/obj/spc5_linflex.o
 .debug_ranges  0x000007f8       0xd8 build/obj/AEK_COM_ISOSPI1_lld.o
 .debug_ranges  0x000008d0       0x50 build/obj/AEK_POW_BMS63EN_lld.o
 .debug_ranges  0x00000920      0x1f0 build/obj/AEK_POW_BMS63EN_id.o
 .debug_ranges  0x00000b10       0x80 build/obj/AEK_POW_BMS63EN_diag.o
 .debug_ranges  0x00000b90       0x28 build/obj/pal.o
 .debug_ranges  0x00000bb8      0x108 build/obj/clock.o
 .debug_ranges  0x00000cc0       0x18 build/obj/irq.o
 .debug_ranges  0x00000cd8       0xb8 build/obj/eirq.o
 .debug_ranges  0x00000d90       0x30 build/obj/swirq.o
 .debug_ranges  0x00000dc0      0x2d0 build/obj/osal.o
 .debug_ranges  0x00001090       0x18 build/obj/systimer.o
 .debug_ranges  0x000010a8       0x10 build/obj/AEK_COM_ISOSPI1_cfg.o
 .debug_ranges  0x000010b8       0x10 build/obj/AEK_POW_BMS63EN_cfg.o
 .debug_ranges  0x000010c8       0x10 build/obj/board.o
 .debug_ranges  0x000010d8       0x10 build/obj/irq_cfg.o
 .debug_ranges  0x000010e8       0x10 build/obj/swirq_cfg.o
 .debug_ranges  0x000010f8       0x68 build/obj/main.o
 .debug_ranges  0x00001160       0x60 build/obj/AEK_POW_BMS63EN_Appl.o
 .debug_ranges  0x000011c0      0x280 build/obj/BMS_Controller.o
 .debug_ranges  0x00001440       0x10 build/obj/components.o

.debug_line     0x00000000     0x9a2e
 .debug_line    0x00000000      0x21e build/obj/core0.o
 .debug_line    0x0000021e      0x398 build/obj/cache.o
 .debug_line    0x000005b6      0x11d build/obj/spc5_lld.o
 .debug_line    0x000006d3      0xcfd build/obj/spc5_edma.o
 .debug_line    0x000013d0      0x80d build/obj/can_lld.o
 .debug_line    0x00001bdd      0x4ae build/obj/serial_lld.o
 .debug_line    0x0000208b      0x406 build/obj/pit_lld.o
 .debug_line    0x00002491      0x7c1 build/obj/spi_lld.o
 .debug_line    0x00002c52      0x3c0 build/obj/wkpu_lld.o
 .debug_line    0x00003012      0x25c build/obj/spc5_linflex.o
 .debug_line    0x0000326e      0x60d build/obj/AEK_COM_ISOSPI1_lld.o
 .debug_line    0x0000387b      0x589 build/obj/AEK_POW_BMS63EN_lld.o
 .debug_line    0x00003e04     0x1186 build/obj/AEK_POW_BMS63EN_id.o
 .debug_line    0x00004f8a      0x624 build/obj/AEK_POW_BMS63EN_diag.o
 .debug_line    0x000055ae      0x2f8 build/obj/pal.o
 .debug_line    0x000058a6      0x468 build/obj/clock.o
 .debug_line    0x00005d0e      0x24e build/obj/irq.o
 .debug_line    0x00005f5c      0x381 build/obj/eirq.o
 .debug_line    0x000062dd      0x22e build/obj/swirq.o
 .debug_line    0x0000650b      0x5e6 build/obj/osal.o
 .debug_line    0x00006af1      0x26f build/obj/systimer.o
 .debug_line    0x00006d60      0x25d build/obj/serial_lld_cfg.o
 .debug_line    0x00006fbd      0x254 build/obj/can_lld_cfg.o
 .debug_line    0x00007211      0x1fd build/obj/pit_lld_cfg.o
 .debug_line    0x0000740e      0x34b build/obj/spi_lld_cfg.o
 .debug_line    0x00007759      0x256 build/obj/wkpu_lld_cfg.o
 .debug_line    0x000079af      0x3c2 build/obj/AEK_COM_ISOSPI1_cfg.o
 .debug_line    0x00007d71      0x3f6 build/obj/AEK_POW_BMS63EN_cfg.o
 .debug_line    0x00008167      0x20b build/obj/board.o
 .debug_line    0x00008372       0x66 build/obj/irq_cfg.o
 .debug_line    0x000083d8      0x1db build/obj/eirq_cfg.o
 .debug_line    0x000085b3       0x68 build/obj/swirq_cfg.o
 .debug_line    0x0000861b      0x5f7 build/obj/main.o
 .debug_line    0x00008c12      0x609 build/obj/AEK_POW_BMS63EN_Appl.o
 .debug_line    0x0000921b       0x6a build/obj/BMS_Controller_data.o
 .debug_line    0x00009285       0x57 build/obj/Cell_Model_parameter.o
 .debug_line    0x000092dc      0x592 build/obj/BMS_Controller.o
 .debug_line    0x0000986e      0x1c0 build/obj/components.o

.debug_str      0x00000000     0xaae2
 .debug_str     0x00000000      0x992 build/obj/core0.o
                                0x9fe (size before relaxing)
 .debug_str     0x00000992      0x1b7 build/obj/cache.o
                                0x410 (size before relaxing)
 .debug_str     0x00000b49       0xa0 build/obj/spc5_lld.o
                                0x2be (size before relaxing)
 .debug_str     0x00000be9      0xc72 build/obj/spc5_edma.o
                                0xf1c (size before relaxing)
 .debug_str     0x0000185b      0xeb9 build/obj/can_lld.o
                               0x120d (size before relaxing)
 .debug_str     0x00002714      0x5dd build/obj/serial_lld.o
                                0x8b8 (size before relaxing)
 .debug_str     0x00002cf1      0x221 build/obj/pit_lld.o
                                0x4cf (size before relaxing)
 .debug_str     0x00002f12      0xcb5 build/obj/spi_lld.o
                               0x107c (size before relaxing)
 .debug_str     0x00003bc7      0x39f build/obj/wkpu_lld.o
                                0xa71 (size before relaxing)
 .debug_str     0x00003f66       0x83 build/obj/spc5_linflex.o
                                0x349 (size before relaxing)
 .debug_str     0x00003fe9      0x608 build/obj/AEK_COM_ISOSPI1_lld.o
                               0x13f6 (size before relaxing)
 .debug_str     0x000045f1     0x11a3 build/obj/AEK_POW_BMS63EN_lld.o
                               0x1893 (size before relaxing)
 .debug_str     0x00005794     0x1182 build/obj/AEK_POW_BMS63EN_id.o
                               0x2940 (size before relaxing)
 .debug_str     0x00006916      0xc5a build/obj/AEK_POW_BMS63EN_diag.o
                               0x23ee (size before relaxing)
 .debug_str     0x00007570       0xfb build/obj/pal.o
                                0xb69 (size before relaxing)
 .debug_str     0x0000766b     0x1bab build/obj/clock.o
                               0x265c (size before relaxing)
 .debug_str     0x00009216       0x4d build/obj/irq.o
                                0x2a4 (size before relaxing)
 .debug_str     0x00009263       0xe3 build/obj/eirq.o
                                0xb01 (size before relaxing)
 .debug_str     0x00009346       0x89 build/obj/swirq.o
                                0x2e6 (size before relaxing)
 .debug_str     0x000093cf      0x2ef build/obj/osal.o
                                0x5a7 (size before relaxing)
 .debug_str     0x000096be       0x84 build/obj/systimer.o
                                0x371 (size before relaxing)
 .debug_str     0x00009742       0x65 build/obj/serial_lld_cfg.o
                                0x737 (size before relaxing)
 .debug_str     0x000097a7       0x5d build/obj/can_lld_cfg.o
                               0x1025 (size before relaxing)
 .debug_str     0x00009804       0x55 build/obj/pit_lld_cfg.o
                                0x2d0 (size before relaxing)
 .debug_str     0x00009859       0x74 build/obj/spi_lld_cfg.o
                                0x6b5 (size before relaxing)
 .debug_str     0x000098cd       0x7d build/obj/wkpu_lld_cfg.o
                                0xa1e (size before relaxing)
 .debug_str     0x0000994a       0x84 build/obj/AEK_COM_ISOSPI1_cfg.o
                                0x90b (size before relaxing)
 .debug_str     0x000099ce       0xe1 build/obj/AEK_POW_BMS63EN_cfg.o
                               0x16ed (size before relaxing)
 .debug_str     0x00009aaf       0x86 build/obj/board.o
                                0x341 (size before relaxing)
 .debug_str     0x00009b35       0x37 build/obj/irq_cfg.o
                                0x262 (size before relaxing)
 .debug_str     0x00009b6c       0x38 build/obj/eirq_cfg.o
                                0x2d4 (size before relaxing)
 .debug_str     0x00009ba4       0x39 build/obj/swirq_cfg.o
                                0x267 (size before relaxing)
 .debug_str     0x00009bdd      0x577 build/obj/main.o
                               0x22b8 (size before relaxing)
 .debug_str     0x0000a154      0x38e build/obj/AEK_POW_BMS63EN_Appl.o
                               0x1c3c (size before relaxing)
 .debug_str     0x0000a4e2       0xbb build/obj/BMS_Controller_data.o
                                0x2e7 (size before relaxing)
 .debug_str     0x0000a59d       0xc2 build/obj/Cell_Model_parameter.o
                                0x2de (size before relaxing)
 .debug_str     0x0000a65f      0x469 build/obj/BMS_Controller.o
                                0x9bb (size before relaxing)
 .debug_str     0x0000aac8       0x1a build/obj/components.o
                                0x28b (size before relaxing)

.debug_frame    0x00000000     0x3b70
 .debug_frame   0x00000000       0x20 build/obj/core0.o
 .debug_frame   0x00000020      0x174 build/obj/cache.o
 .debug_frame   0x00000194       0x30 build/obj/spc5_lld.o
 .debug_frame   0x000001c4      0xc80 build/obj/spc5_edma.o
 .debug_frame   0x00000e44      0x208 build/obj/can_lld.o
 .debug_frame   0x0000104c       0xf8 build/obj/serial_lld.o
 .debug_frame   0x00001144      0x1a8 build/obj/pit_lld.o
 .debug_frame   0x000012ec      0x278 build/obj/spi_lld.o
 .debug_frame   0x00001564      0x118 build/obj/wkpu_lld.o
 .debug_frame   0x0000167c       0x50 build/obj/spc5_linflex.o
 .debug_frame   0x000016cc      0x1dc build/obj/AEK_COM_ISOSPI1_lld.o
 .debug_frame   0x000018a8      0x194 build/obj/AEK_POW_BMS63EN_lld.o
 .debug_frame   0x00001a3c      0xbf0 build/obj/AEK_POW_BMS63EN_id.o
 .debug_frame   0x0000262c      0x1f8 build/obj/AEK_POW_BMS63EN_diag.o
 .debug_frame   0x00002824       0x64 build/obj/pal.o
 .debug_frame   0x00002888       0xa0 build/obj/clock.o
 .debug_frame   0x00002928       0x40 build/obj/irq.o
 .debug_frame   0x00002968      0x184 build/obj/eirq.o
 .debug_frame   0x00002aec       0x60 build/obj/swirq.o
 .debug_frame   0x00002b4c      0x208 build/obj/osal.o
 .debug_frame   0x00002d54       0x44 build/obj/systimer.o
 .debug_frame   0x00002d98       0x20 build/obj/AEK_COM_ISOSPI1_cfg.o
 .debug_frame   0x00002db8       0x20 build/obj/AEK_POW_BMS63EN_cfg.o
 .debug_frame   0x00002dd8       0x20 build/obj/board.o
 .debug_frame   0x00002df8       0x20 build/obj/irq_cfg.o
 .debug_frame   0x00002e18       0x20 build/obj/swirq_cfg.o
 .debug_frame   0x00002e38      0x170 build/obj/main.o
 .debug_frame   0x00002fa8      0x1d4 build/obj/AEK_POW_BMS63EN_Appl.o
 .debug_frame   0x0000317c      0x104 build/obj/BMS_Controller.o
 .debug_frame   0x00003280       0x30 build/obj/components.o
 .debug_frame   0x000032b0       0x34 c:/autodevkitstudio-2.4.0/eclipse/plugins/com.st.tools.spc5.tools.gnu.gcc.ppcvle.win32_4.9.4.20200908161514/toolchain/bin/../lib/gcc/powerpc-eabivle/4.9.4/../../../../powerpc-eabivle/lib/e200z4\libm.a(lib_a-wf_exp.o)
 .debug_frame   0x000032e4       0x3c c:/autodevkitstudio-2.4.0/eclipse/plugins/com.st.tools.spc5.tools.gnu.gcc.ppcvle.win32_4.9.4.20200908161514/toolchain/bin/../lib/gcc/powerpc-eabivle/4.9.4/../../../../powerpc-eabivle/lib/e200z4\libm.a(lib_a-w_log.o)
 .debug_frame   0x00003320       0x3c c:/autodevkitstudio-2.4.0/eclipse/plugins/com.st.tools.spc5.tools.gnu.gcc.ppcvle.win32_4.9.4.20200908161514/toolchain/bin/../lib/gcc/powerpc-eabivle/4.9.4/../../../../powerpc-eabivle/lib/e200z4\libm.a(lib_a-ef_exp.o)
 .debug_frame   0x0000335c       0x5c c:/autodevkitstudio-2.4.0/eclipse/plugins/com.st.tools.spc5.tools.gnu.gcc.ppcvle.win32_4.9.4.20200908161514/toolchain/bin/../lib/gcc/powerpc-eabivle/4.9.4/../../../../powerpc-eabivle/lib/e200z4\libm.a(lib_a-e_log.o)
 .debug_frame   0x000033b8       0x20 c:/autodevkitstudio-2.4.0/eclipse/plugins/com.st.tools.spc5.tools.gnu.gcc.ppcvle.win32_4.9.4.20200908161514/toolchain/bin/../lib/gcc/powerpc-eabivle/4.9.4/../../../../powerpc-eabivle/lib/e200z4\libm.a(lib_a-sf_finite.o)
 .debug_frame   0x000033d8       0x20 c:/autodevkitstudio-2.4.0/eclipse/plugins/com.st.tools.spc5.tools.gnu.gcc.ppcvle.win32_4.9.4.20200908161514/toolchain/bin/../lib/gcc/powerpc-eabivle/4.9.4/../../../../powerpc-eabivle/lib/e200z4\libm.a(lib_a-s_fpclassify.o)
 .debug_frame   0x000033f8       0x20 c:/autodevkitstudio-2.4.0/eclipse/plugins/com.st.tools.spc5.tools.gnu.gcc.ppcvle.win32_4.9.4.20200908161514/toolchain/bin/../lib/gcc/powerpc-eabivle/4.9.4/../../../../powerpc-eabivle/lib/e200z4\libm.a(lib_a-s_matherr.o)
 .debug_frame   0x00003418       0x20 c:/autodevkitstudio-2.4.0/eclipse/plugins/com.st.tools.spc5.tools.gnu.gcc.ppcvle.win32_4.9.4.20200908161514/toolchain/bin/../lib/gcc/powerpc-eabivle/4.9.4/../../../../powerpc-eabivle/lib/e200z4\libm.a(lib_a-s_nan.o)
 .debug_frame   0x00003438       0x20 c:/autodevkitstudio-2.4.0/eclipse/plugins/com.st.tools.spc5.tools.gnu.gcc.ppcvle.win32_4.9.4.20200908161514/toolchain/bin/../lib/gcc/powerpc-eabivle/4.9.4/../../../../powerpc-eabivle/lib/e200z4\libc.a(lib_a-errno.o)
 .debug_frame   0x00003458       0x20 c:/autodevkitstudio-2.4.0/eclipse/plugins/com.st.tools.spc5.tools.gnu.gcc.ppcvle.win32_4.9.4.20200908161514/toolchain/bin/../lib/gcc/powerpc-eabivle/4.9.4/../../../../powerpc-eabivle/lib/e200z4\libc.a(lib_a-memcpy.o)
 .debug_frame   0x00003478       0x20 c:/autodevkitstudio-2.4.0/eclipse/plugins/com.st.tools.spc5.tools.gnu.gcc.ppcvle.win32_4.9.4.20200908161514/toolchain/bin/../lib/gcc/powerpc-eabivle/4.9.4/../../../../powerpc-eabivle/lib/e200z4\libc.a(lib_a-memset.o)
 .debug_frame   0x00003498       0x3c c:/autodevkitstudio-2.4.0/eclipse/plugins/com.st.tools.spc5.tools.gnu.gcc.ppcvle.win32_4.9.4.20200908161514/toolchain/bin/../lib/gcc/powerpc-eabivle/4.9.4/e200z4\libgcc.a(_fixunssfsi.o)
 .debug_frame   0x000034d4       0x40 c:/autodevkitstudio-2.4.0/eclipse/plugins/com.st.tools.spc5.tools.gnu.gcc.ppcvle.win32_4.9.4.20200908161514/toolchain/bin/../lib/gcc/powerpc-eabivle/4.9.4/e200z4\libgcc.a(_fixunsdfsi.o)
 .debug_frame   0x00003514       0x7c c:/autodevkitstudio-2.4.0/eclipse/plugins/com.st.tools.spc5.tools.gnu.gcc.ppcvle.win32_4.9.4.20200908161514/toolchain/bin/../lib/gcc/powerpc-eabivle/4.9.4/e200z4\libgcc.a(_addsub_sf.o)
 .debug_frame   0x00003590       0x3c c:/autodevkitstudio-2.4.0/eclipse/plugins/com.st.tools.spc5.tools.gnu.gcc.ppcvle.win32_4.9.4.20200908161514/toolchain/bin/../lib/gcc/powerpc-eabivle/4.9.4/e200z4\libgcc.a(_mul_sf.o)
 .debug_frame   0x000035cc       0x30 c:/autodevkitstudio-2.4.0/eclipse/plugins/com.st.tools.spc5.tools.gnu.gcc.ppcvle.win32_4.9.4.20200908161514/toolchain/bin/../lib/gcc/powerpc-eabivle/4.9.4/e200z4\libgcc.a(_div_sf.o)
 .debug_frame   0x000035fc       0x38 c:/autodevkitstudio-2.4.0/eclipse/plugins/com.st.tools.spc5.tools.gnu.gcc.ppcvle.win32_4.9.4.20200908161514/toolchain/bin/../lib/gcc/powerpc-eabivle/4.9.4/e200z4\libgcc.a(_gt_sf.o)
 .debug_frame   0x00003634       0x38 c:/autodevkitstudio-2.4.0/eclipse/plugins/com.st.tools.spc5.tools.gnu.gcc.ppcvle.win32_4.9.4.20200908161514/toolchain/bin/../lib/gcc/powerpc-eabivle/4.9.4/e200z4\libgcc.a(_ge_sf.o)
 .debug_frame   0x0000366c       0x38 c:/autodevkitstudio-2.4.0/eclipse/plugins/com.st.tools.spc5.tools.gnu.gcc.ppcvle.win32_4.9.4.20200908161514/toolchain/bin/../lib/gcc/powerpc-eabivle/4.9.4/e200z4\libgcc.a(_lt_sf.o)
 .debug_frame   0x000036a4       0x38 c:/autodevkitstudio-2.4.0/eclipse/plugins/com.st.tools.spc5.tools.gnu.gcc.ppcvle.win32_4.9.4.20200908161514/toolchain/bin/../lib/gcc/powerpc-eabivle/4.9.4/e200z4\libgcc.a(_le_sf.o)
 .debug_frame   0x000036dc       0x30 c:/autodevkitstudio-2.4.0/eclipse/plugins/com.st.tools.spc5.tools.gnu.gcc.ppcvle.win32_4.9.4.20200908161514/toolchain/bin/../lib/gcc/powerpc-eabivle/4.9.4/e200z4\libgcc.a(_si_to_sf.o)
 .debug_frame   0x0000370c       0x40 c:/autodevkitstudio-2.4.0/eclipse/plugins/com.st.tools.spc5.tools.gnu.gcc.ppcvle.win32_4.9.4.20200908161514/toolchain/bin/../lib/gcc/powerpc-eabivle/4.9.4/e200z4\libgcc.a(_sf_to_si.o)
 .debug_frame   0x0000374c       0x30 c:/autodevkitstudio-2.4.0/eclipse/plugins/com.st.tools.spc5.tools.gnu.gcc.ppcvle.win32_4.9.4.20200908161514/toolchain/bin/../lib/gcc/powerpc-eabivle/4.9.4/e200z4\libgcc.a(_sf_to_df.o)
 .debug_frame   0x0000377c       0x44 c:/autodevkitstudio-2.4.0/eclipse/plugins/com.st.tools.spc5.tools.gnu.gcc.ppcvle.win32_4.9.4.20200908161514/toolchain/bin/../lib/gcc/powerpc-eabivle/4.9.4/e200z4\libgcc.a(_usi_to_sf.o)
 .debug_frame   0x000037c0       0x9c c:/autodevkitstudio-2.4.0/eclipse/plugins/com.st.tools.spc5.tools.gnu.gcc.ppcvle.win32_4.9.4.20200908161514/toolchain/bin/../lib/gcc/powerpc-eabivle/4.9.4/e200z4\libgcc.a(_addsub_df.o)
 .debug_frame   0x0000385c       0x4c c:/autodevkitstudio-2.4.0/eclipse/plugins/com.st.tools.spc5.tools.gnu.gcc.ppcvle.win32_4.9.4.20200908161514/toolchain/bin/../lib/gcc/powerpc-eabivle/4.9.4/e200z4\libgcc.a(_mul_df.o)
 .debug_frame   0x000038a8       0x38 c:/autodevkitstudio-2.4.0/eclipse/plugins/com.st.tools.spc5.tools.gnu.gcc.ppcvle.win32_4.9.4.20200908161514/toolchain/bin/../lib/gcc/powerpc-eabivle/4.9.4/e200z4\libgcc.a(_div_df.o)
 .debug_frame   0x000038e0       0x38 c:/autodevkitstudio-2.4.0/eclipse/plugins/com.st.tools.spc5.tools.gnu.gcc.ppcvle.win32_4.9.4.20200908161514/toolchain/bin/../lib/gcc/powerpc-eabivle/4.9.4/e200z4\libgcc.a(_eq_df.o)
 .debug_frame   0x00003918       0x38 c:/autodevkitstudio-2.4.0/eclipse/plugins/com.st.tools.spc5.tools.gnu.gcc.ppcvle.win32_4.9.4.20200908161514/toolchain/bin/../lib/gcc/powerpc-eabivle/4.9.4/e200z4\libgcc.a(_gt_df.o)
 .debug_frame   0x00003950       0x38 c:/autodevkitstudio-2.4.0/eclipse/plugins/com.st.tools.spc5.tools.gnu.gcc.ppcvle.win32_4.9.4.20200908161514/toolchain/bin/../lib/gcc/powerpc-eabivle/4.9.4/e200z4\libgcc.a(_ge_df.o)
 .debug_frame   0x00003988       0x30 c:/autodevkitstudio-2.4.0/eclipse/plugins/com.st.tools.spc5.tools.gnu.gcc.ppcvle.win32_4.9.4.20200908161514/toolchain/bin/../lib/gcc/powerpc-eabivle/4.9.4/e200z4\libgcc.a(_si_to_df.o)
 .debug_frame   0x000039b8       0x40 c:/autodevkitstudio-2.4.0/eclipse/plugins/com.st.tools.spc5.tools.gnu.gcc.ppcvle.win32_4.9.4.20200908161514/toolchain/bin/../lib/gcc/powerpc-eabivle/4.9.4/e200z4\libgcc.a(_df_to_si.o)
 .debug_frame   0x000039f8       0x30 c:/autodevkitstudio-2.4.0/eclipse/plugins/com.st.tools.spc5.tools.gnu.gcc.ppcvle.win32_4.9.4.20200908161514/toolchain/bin/../lib/gcc/powerpc-eabivle/4.9.4/e200z4\libgcc.a(_make_df.o)
 .debug_frame   0x00003a28       0x30 c:/autodevkitstudio-2.4.0/eclipse/plugins/com.st.tools.spc5.tools.gnu.gcc.ppcvle.win32_4.9.4.20200908161514/toolchain/bin/../lib/gcc/powerpc-eabivle/4.9.4/e200z4\libgcc.a(_df_to_sf.o)
 .debug_frame   0x00003a58       0x20 c:/autodevkitstudio-2.4.0/eclipse/plugins/com.st.tools.spc5.tools.gnu.gcc.ppcvle.win32_4.9.4.20200908161514/toolchain/bin/../lib/gcc/powerpc-eabivle/4.9.4/e200z4\libgcc.a(_pack_sf.o)
 .debug_frame   0x00003a78       0x20 c:/autodevkitstudio-2.4.0/eclipse/plugins/com.st.tools.spc5.tools.gnu.gcc.ppcvle.win32_4.9.4.20200908161514/toolchain/bin/../lib/gcc/powerpc-eabivle/4.9.4/e200z4\libgcc.a(_unpack_sf.o)
 .debug_frame   0x00003a98       0x20 c:/autodevkitstudio-2.4.0/eclipse/plugins/com.st.tools.spc5.tools.gnu.gcc.ppcvle.win32_4.9.4.20200908161514/toolchain/bin/../lib/gcc/powerpc-eabivle/4.9.4/e200z4\libgcc.a(_fpcmp_parts_sf.o)
 .debug_frame   0x00003ab8       0x30 c:/autodevkitstudio-2.4.0/eclipse/plugins/com.st.tools.spc5.tools.gnu.gcc.ppcvle.win32_4.9.4.20200908161514/toolchain/bin/../lib/gcc/powerpc-eabivle/4.9.4/e200z4\libgcc.a(_make_sf.o)
 .debug_frame   0x00003ae8       0x48 c:/autodevkitstudio-2.4.0/eclipse/plugins/com.st.tools.spc5.tools.gnu.gcc.ppcvle.win32_4.9.4.20200908161514/toolchain/bin/../lib/gcc/powerpc-eabivle/4.9.4/e200z4\libgcc.a(_pack_df.o)
 .debug_frame   0x00003b30       0x20 c:/autodevkitstudio-2.4.0/eclipse/plugins/com.st.tools.spc5.tools.gnu.gcc.ppcvle.win32_4.9.4.20200908161514/toolchain/bin/../lib/gcc/powerpc-eabivle/4.9.4/e200z4\libgcc.a(_unpack_df.o)
 .debug_frame   0x00003b50       0x20 c:/autodevkitstudio-2.4.0/eclipse/plugins/com.st.tools.spc5.tools.gnu.gcc.ppcvle.win32_4.9.4.20200908161514/toolchain/bin/../lib/gcc/powerpc-eabivle/4.9.4/e200z4\libgcc.a(_fpcmp_parts_df.o)

.debug_loc      0x00000000     0xe0cd
 .debug_loc     0x00000000      0x9a6 build/obj/cache.o
 .debug_loc     0x000009a6       0x2c build/obj/spc5_lld.o
 .debug_loc     0x000009d2     0x12d8 build/obj/spc5_edma.o
 .debug_loc     0x00001caa      0xfd8 build/obj/can_lld.o
 .debug_loc     0x00002c82      0x5ad build/obj/serial_lld.o
 .debug_loc     0x0000322f      0x5ef build/obj/pit_lld.o
 .debug_loc     0x0000381e      0xdb0 build/obj/spi_lld.o
 .debug_loc     0x000045ce      0x302 build/obj/wkpu_lld.o
 .debug_loc     0x000048d0      0xd00 build/obj/AEK_COM_ISOSPI1_lld.o
 .debug_loc     0x000055d0      0x94d build/obj/AEK_POW_BMS63EN_lld.o
 .debug_loc     0x00005f1d     0x4ef1 build/obj/AEK_POW_BMS63EN_id.o
 .debug_loc     0x0000ae0e      0x704 build/obj/AEK_POW_BMS63EN_diag.o
 .debug_loc     0x0000b512       0xbb build/obj/pal.o
 .debug_loc     0x0000b5cd      0x186 build/obj/clock.o
 .debug_loc     0x0000b753       0x2c build/obj/irq.o
 .debug_loc     0x0000b77f      0x3a5 build/obj/eirq.o
 .debug_loc     0x0000bb24       0xe9 build/obj/swirq.o
 .debug_loc     0x0000bc0d      0x3af build/obj/osal.o
 .debug_loc     0x0000bfbc       0x58 build/obj/systimer.o
 .debug_loc     0x0000c014      0x645 build/obj/main.o
 .debug_loc     0x0000c659      0x3a7 build/obj/AEK_POW_BMS63EN_Appl.o
 .debug_loc     0x0000ca00     0x16a1 build/obj/BMS_Controller.o
 .debug_loc     0x0000e0a1       0x2c build/obj/components.o

Cross Reference Table

Symbol                                            File
AEK_COM_ISOSPI1Board0_CN2_FAULT_callback          build/obj/AEK_COM_ISOSPI1_cfg.o
                                                  build/obj/eirq_cfg.o
AEK_COM_ISOSPI_CPOL_high                          build/obj/AEK_COM_ISOSPI1_lld.o
AEK_COM_ISOSPI_CPOL_low                           build/obj/AEK_COM_ISOSPI1_lld.o
AEK_COM_ISOSPI_ConfigCPHA                         build/obj/AEK_COM_ISOSPI1_lld.o
AEK_COM_ISOSPI_ConfigCPOL                         build/obj/AEK_COM_ISOSPI1_lld.o
AEK_COM_ISOSPI_ConfigISOAmp                       build/obj/AEK_COM_ISOSPI1_lld.o
AEK_COM_ISOSPI_ConfigISOFreq                      build/obj/AEK_COM_ISOSPI1_lld.o
                                                  build/obj/AEK_POW_BMS63EN_id.o
AEK_COM_ISOSPI_ConfigMode                         build/obj/AEK_COM_ISOSPI1_lld.o
AEK_COM_ISOSPI_DisableTransceiver                 build/obj/AEK_COM_ISOSPI1_lld.o
AEK_COM_ISOSPI_DisableTransceiverComm             build/obj/AEK_COM_ISOSPI1_lld.o
AEK_COM_ISOSPI_EnableTransceiver                  build/obj/AEK_COM_ISOSPI1_lld.o
                                                  build/obj/AEK_POW_BMS63EN_id.o
AEK_COM_ISOSPI_EnableTransceiverComm              build/obj/AEK_COM_ISOSPI1_lld.o
                                                  build/obj/AEK_POW_BMS63EN_id.o
AEK_COM_ISOSPI_GetFault                           build/obj/AEK_COM_ISOSPI1_lld.o
                                                  build/obj/AEK_POW_BMS63EN_Appl.o
                                                  build/obj/AEK_POW_BMS63EN_id.o
AEK_COM_ISOSPI_ISOTX_Amplify                      build/obj/AEK_COM_ISOSPI1_lld.o
AEK_COM_ISOSPI_ISOTX_Attenuate                    build/obj/AEK_COM_ISOSPI1_lld.o
                                                  build/obj/AEK_POW_BMS63EN_id.o
AEK_COM_ISOSPI_SampleSDI_firstclk                 build/obj/AEK_COM_ISOSPI1_lld.o
AEK_COM_ISOSPI_SampleSDI_secondclk                build/obj/AEK_COM_ISOSPI1_lld.o
AEK_COM_ISOSPI_SetAsMaster                        build/obj/AEK_COM_ISOSPI1_lld.o
AEK_COM_ISOSPI_SetAsSlave                         build/obj/AEK_COM_ISOSPI1_lld.o
                                                  build/obj/AEK_POW_BMS63EN_id.o
AEK_COM_ISOSPI_SetISOCommFast                     build/obj/AEK_COM_ISOSPI1_lld.o
AEK_COM_ISOSPI_SetISOCommSlow                     build/obj/AEK_COM_ISOSPI1_lld.o
AEK_ISOSPI_ARRAY_DRIVER                           build/obj/AEK_COM_ISOSPI1_cfg.o
                                                  build/obj/AEK_COM_ISOSPI1_lld.o
AEK_POW_BMS63EN_Balancing                         build/obj/AEK_POW_BMS63EN_Appl.o
AEK_POW_BMS63EN_BatteryModules                    build/obj/AEK_POW_BMS63EN_Appl.o
AEK_POW_BMS63EN_CAN_Temp_Transmission             build/obj/main.o
                                                  build/obj/pit_lld_cfg.o
AEK_POW_BMS63EN_CAN_Voltage_Transmission          build/obj/main.o
                                                  build/obj/pit_lld_cfg.o
AEK_POW_BMS63EN_ConfigGPIO                        build/obj/AEK_POW_BMS63EN_id.o
AEK_POW_BMS63EN_ConfigISOFreq                     build/obj/AEK_POW_BMS63EN_id.o
AEK_POW_BMS63EN_CoulombCounterReset               build/obj/AEK_POW_BMS63EN_id.o
AEK_POW_BMS63EN_CoulombCounting                   build/obj/AEK_POW_BMS63EN_id.o
AEK_POW_BMS63EN_DIAG_Measurement                  build/obj/AEK_POW_BMS63EN_Appl.o
AEK_POW_BMS63EN_DisableBalCurrentEvenCells        build/obj/AEK_POW_BMS63EN_id.o
AEK_POW_BMS63EN_DisableBalCurrentOddCells         build/obj/AEK_POW_BMS63EN_id.o
AEK_POW_BMS63EN_DisableCell                       build/obj/AEK_POW_BMS63EN_id.o
AEK_POW_BMS63EN_DisableCellBalancing              build/obj/AEK_POW_BMS63EN_id.o
                                                  build/obj/AEK_POW_BMS63EN_Appl.o
AEK_POW_BMS63EN_DisableCommTimeout                build/obj/AEK_POW_BMS63EN_id.o
AEK_POW_BMS63EN_DisableCoulombCounting            build/obj/AEK_POW_BMS63EN_id.o
AEK_POW_BMS63EN_Drv                               build/obj/AEK_POW_BMS63EN_cfg.o
                                                  build/obj/AEK_POW_BMS63EN_diag.o
                                                  build/obj/AEK_POW_BMS63EN_id.o
AEK_POW_BMS63EN_EnableBalCurrentEvenCells         build/obj/AEK_POW_BMS63EN_id.o
AEK_POW_BMS63EN_EnableBalCurrentOddCells          build/obj/AEK_POW_BMS63EN_id.o
AEK_POW_BMS63EN_EnableCell                        build/obj/AEK_POW_BMS63EN_id.o
AEK_POW_BMS63EN_EnableCellBalancing               build/obj/AEK_POW_BMS63EN_id.o
                                                  build/obj/AEK_POW_BMS63EN_Appl.o
AEK_POW_BMS63EN_EnableCommTimeout                 build/obj/AEK_POW_BMS63EN_id.o
AEK_POW_BMS63EN_EnableCoulombCounting             build/obj/AEK_POW_BMS63EN_id.o
AEK_POW_BMS63EN_EnableGPIOOpenOnDemandDiagnostic  build/obj/AEK_POW_BMS63EN_diag.o
AEK_POW_BMS63EN_EnterSleepMode                    build/obj/AEK_POW_BMS63EN_id.o
AEK_POW_BMS63EN_GPIO7_OT_UT_Mask                  build/obj/AEK_POW_BMS63EN_id.o
AEK_POW_BMS63EN_GPIO_CSA_Mask                     build/obj/AEK_POW_BMS63EN_id.o
AEK_POW_BMS63EN_GPIO_OT_UT_Mask                   build/obj/AEK_POW_BMS63EN_id.o
AEK_POW_BMS63EN_GetBALUVFault                     build/obj/AEK_POW_BMS63EN_diag.o
AEK_POW_BMS63EN_GetBALUVFaults                    build/obj/AEK_POW_BMS63EN_diag.o
AEK_POW_BMS63EN_GetBalancingStatus                build/obj/AEK_POW_BMS63EN_id.o
                                                  build/obj/AEK_POW_BMS63EN_Appl.o
AEK_POW_BMS63EN_GetBatteryPackVoltMeasurement     build/obj/AEK_POW_BMS63EN_id.o
                                                  build/obj/AEK_POW_BMS63EN_Appl.o
AEK_POW_BMS63EN_GetCalibCurrentMeasurement        build/obj/AEK_POW_BMS63EN_id.o
AEK_POW_BMS63EN_GetCellOpen                       build/obj/AEK_POW_BMS63EN_diag.o
AEK_POW_BMS63EN_GetCellVoltMeasurement            build/obj/AEK_POW_BMS63EN_id.o
                                                  build/obj/AEK_POW_BMS63EN_Appl.o
AEK_POW_BMS63EN_GetFault1                         build/obj/AEK_POW_BMS63EN_diag.o
AEK_POW_BMS63EN_GetFault2                         build/obj/AEK_POW_BMS63EN_diag.o
AEK_POW_BMS63EN_GetFaults1                        build/obj/AEK_POW_BMS63EN_diag.o
                                                  build/obj/AEK_POW_BMS63EN_Appl.o
AEK_POW_BMS63EN_GetFaults2                        build/obj/AEK_POW_BMS63EN_diag.o
                                                  build/obj/AEK_POW_BMS63EN_Appl.o
AEK_POW_BMS63EN_GetGPIOOTUTFault                  build/obj/AEK_POW_BMS63EN_diag.o
AEK_POW_BMS63EN_GetGPIOOTUTFaults                 build/obj/AEK_POW_BMS63EN_diag.o
                                                  build/obj/AEK_POW_BMS63EN_Appl.o
AEK_POW_BMS63EN_GetInstCurrentMeasurement         build/obj/AEK_POW_BMS63EN_id.o
                                                  build/obj/AEK_POW_BMS63EN_Appl.o
AEK_POW_BMS63EN_GetModule                         build/obj/AEK_POW_BMS63EN_Appl.o
                                                  build/obj/main.o
AEK_POW_BMS63EN_GetNTCMeasurement                 build/obj/AEK_POW_BMS63EN_id.o
                                                  build/obj/AEK_POW_BMS63EN_Appl.o
AEK_POW_BMS63EN_GetSOC_Elab_Sts                   build/obj/AEK_POW_BMS63EN_Appl.o
AEK_POW_BMS63EN_GetState                          build/obj/AEK_POW_BMS63EN_id.o
AEK_POW_BMS63EN_GetVCELLOVFault                   build/obj/AEK_POW_BMS63EN_diag.o
AEK_POW_BMS63EN_GetVCELLOVFaults                  build/obj/AEK_POW_BMS63EN_diag.o
                                                  build/obj/AEK_POW_BMS63EN_Appl.o
AEK_POW_BMS63EN_GetVCELLUVFault                   build/obj/AEK_POW_BMS63EN_diag.o
AEK_POW_BMS63EN_GetVCELLUVFaults                  build/obj/AEK_POW_BMS63EN_diag.o
                                                  build/obj/AEK_POW_BMS63EN_Appl.o
AEK_POW_BMS63EN_GetVTREFVoltMeasurement           build/obj/AEK_POW_BMS63EN_id.o
                                                  build/obj/AEK_POW_BMS63EN_Appl.o
AEK_POW_BMS63EN_GetVoltageGPIOMeasurement         build/obj/AEK_POW_BMS63EN_id.o
AEK_POW_BMS63EN_Get_Conf_OVL                      build/obj/AEK_POW_BMS63EN_id.o
                                                  build/obj/AEK_POW_BMS63EN_Appl.o
AEK_POW_BMS63EN_Init                              build/obj/AEK_POW_BMS63EN_id.o
                                                  build/obj/AEK_POW_BMS63EN_Appl.o
AEK_POW_BMS63EN_InitModel                         build/obj/AEK_POW_BMS63EN_Appl.o
AEK_POW_BMS63EN_Mgn_exec                          build/obj/AEK_POW_BMS63EN_Appl.o
                                                  build/obj/pit_lld_cfg.o
AEK_POW_BMS63EN_Model_exec                        build/obj/AEK_POW_BMS63EN_Appl.o
AEK_POW_BMS63EN_ObjectInit                        build/obj/AEK_POW_BMS63EN_lld.o
                                                  build/obj/AEK_POW_BMS63EN_cfg.o
AEK_POW_BMS63EN_PCBOpenDiagnostic                 build/obj/AEK_POW_BMS63EN_diag.o
AEK_POW_BMS63EN_ParameterConfiguration            build/obj/AEK_POW_BMS63EN_id.o
AEK_POW_BMS63EN_SPIBroadcastAccess                build/obj/AEK_POW_BMS63EN_lld.o
                                                  build/obj/AEK_POW_BMS63EN_id.o
AEK_POW_BMS63EN_SPIBurstAccess                    build/obj/AEK_POW_BMS63EN_lld.o
                                                  build/obj/AEK_POW_BMS63EN_diag.o
                                                  build/obj/AEK_POW_BMS63EN_id.o
AEK_POW_BMS63EN_SPIQueuedAccess                   build/obj/AEK_POW_BMS63EN_lld.o
AEK_POW_BMS63EN_SPIReadRegister                   build/obj/AEK_POW_BMS63EN_lld.o
                                                  build/obj/AEK_POW_BMS63EN_diag.o
                                                  build/obj/AEK_POW_BMS63EN_id.o
AEK_POW_BMS63EN_SPIWriteRegister                  build/obj/AEK_POW_BMS63EN_lld.o
                                                  build/obj/AEK_POW_BMS63EN_diag.o
                                                  build/obj/AEK_POW_BMS63EN_id.o
AEK_POW_BMS63EN_SWReset                           build/obj/AEK_POW_BMS63EN_id.o
AEK_POW_BMS63EN_SetADCContinuousMode              build/obj/AEK_POW_BMS63EN_id.o
AEK_POW_BMS63EN_SetADCFilterSOC                   build/obj/AEK_POW_BMS63EN_id.o
AEK_POW_BMS63EN_SetADCTcycle                      build/obj/AEK_POW_BMS63EN_id.o
AEK_POW_BMS63EN_SetBalancingMode                  build/obj/AEK_POW_BMS63EN_id.o
AEK_POW_BMS63EN_SetCellTimedBalThreshold          build/obj/AEK_POW_BMS63EN_id.o
AEK_POW_BMS63EN_SetGPIOConv                       build/obj/AEK_POW_BMS63EN_id.o
AEK_POW_BMS63EN_SetGPIOModeAbsolute               build/obj/AEK_POW_BMS63EN_id.o
AEK_POW_BMS63EN_SetGPIOModeRatiometric            build/obj/AEK_POW_BMS63EN_id.o
AEK_POW_BMS63EN_SetGPIOOVThreshold                build/obj/AEK_POW_BMS63EN_id.o
AEK_POW_BMS63EN_SetGPIOUVThreshold                build/obj/AEK_POW_BMS63EN_id.o
AEK_POW_BMS63EN_SetOvercurrentThreshold           build/obj/AEK_POW_BMS63EN_id.o
                                                  build/obj/AEK_POW_BMS63EN_Appl.o
AEK_POW_BMS63EN_SetVBattOVCThreshold              build/obj/AEK_POW_BMS63EN_id.o
AEK_POW_BMS63EN_SetVBattOVThreshold               build/obj/AEK_POW_BMS63EN_id.o
AEK_POW_BMS63EN_SetVBattUVThreshold               build/obj/AEK_POW_BMS63EN_id.o
AEK_POW_BMS63EN_SetVCellOVThreshold               build/obj/AEK_POW_BMS63EN_id.o
AEK_POW_BMS63EN_SetVCellUVThreshold               build/obj/AEK_POW_BMS63EN_id.o
AEK_POW_BMS63EN_SetVTREFAlwaysEnabled             build/obj/AEK_POW_BMS63EN_id.o
AEK_POW_BMS63EN_SetVTREFDisabled                  build/obj/AEK_POW_BMS63EN_id.o
AEK_POW_BMS63EN_SetVTREFEnabled                   build/obj/AEK_POW_BMS63EN_id.o
AEK_POW_BMS63EN_Start                             build/obj/AEK_POW_BMS63EN_lld.o
                                                  build/obj/AEK_POW_BMS63EN_id.o
AEK_POW_BMS63EN_StartCellBalancing                build/obj/AEK_POW_BMS63EN_id.o
                                                  build/obj/AEK_POW_BMS63EN_Appl.o
AEK_POW_BMS63EN_StartManualConversion             build/obj/AEK_POW_BMS63EN_id.o
                                                  build/obj/AEK_POW_BMS63EN_Appl.o
AEK_POW_BMS63EN_StartUpWKUP                       build/obj/AEK_POW_BMS63EN_id.o
AEK_POW_BMS63EN_Start_Mgn_exec                    build/obj/AEK_POW_BMS63EN_Appl.o
                                                  build/obj/main.o
AEK_POW_BMS63EN_Stop                              build/obj/AEK_POW_BMS63EN_lld.o
AEK_POW_BMS63EN_StopCellBalancing                 build/obj/AEK_POW_BMS63EN_id.o
                                                  build/obj/AEK_POW_BMS63EN_Appl.o
AEK_POW_BMS63EN_TEMP_Measurement                  build/obj/AEK_POW_BMS63EN_Appl.o
AEK_POW_BMS63EN_VA_Measurement                    build/obj/AEK_POW_BMS63EN_Appl.o
AEK_POW_BMS63EN_cfg_objects_init                  build/obj/AEK_POW_BMS63EN_cfg.o
                                                  build/obj/AEK_POW_BMS63EN_id.o
AEK_POW_BMS63EN_config                            build/obj/AEK_POW_BMS63EN_cfg.o
                                                  build/obj/AEK_POW_BMS63EN_id.o
AEK_POW_BMS63EN_faultl_state                      build/obj/AEK_POW_BMS63EN_diag.o
AEK_POW_BMS63EN_gpio_state                        build/obj/AEK_POW_BMS63EN_diag.o
                                                  build/obj/AEK_POW_BMS63EN_id.o
AEK_POW_BMS63EN_init                              build/obj/AEK_POW_BMS63EN_Appl.o
                                                  build/obj/main.o
AEK_POW_BMS63EN_isEnabled                         build/obj/AEK_POW_BMS63EN_id.o
                                                  build/obj/AEK_POW_BMS63EN_Appl.o
AEK_POW_BMS63EN_soc_elab_sts                      build/obj/AEK_POW_BMS63EN_Appl.o
BMS_Controller_initialize                         build/obj/BMS_Controller.o
                                                  build/obj/AEK_POW_BMS63EN_Appl.o
BMS_Controller_step                               build/obj/BMS_Controller.o
                                                  build/obj/AEK_POW_BMS63EN_Appl.o
C0_IVORS                                          build/obj/boot.o
CAND7                                             build/obj/can_lld.o
                                                  build/obj/main.o
Cap_Nom                                           build/obj/Cell_Model_parameter.o
                                                  build/obj/BMS_Controller.o
IVORS                                             build/obj/boot.o
KELVIN_CON                                        build/obj/Cell_Model_parameter.o
                                                  build/obj/BMS_Controller.o
LinflexD5                                         build/obj/spc5_linflex.o
                                                  build/obj/serial_lld.o
NTC_Temp_Vector                                   build/obj/Cell_Model_parameter.o
                                                  build/obj/BMS_Controller.o
NTC_Vector                                        build/obj/Cell_Model_parameter.o
                                                  build/obj/BMS_Controller.o
OCV_Vector                                        build/obj/Cell_Model_parameter.o
                                                  build/obj/BMS_Controller.o
PITD1                                             build/obj/pit_lld.o
                                                  build/obj/AEK_POW_BMS63EN_Appl.o
                                                  build/obj/main.o
R0_EOL_Vector                                     build/obj/Cell_Model_parameter.o
                                                  build/obj/BMS_Controller.o
R0_Vector                                         build/obj/Cell_Model_parameter.o
                                                  build/obj/BMS_Controller.o
R1_Vector                                         build/obj/Cell_Model_parameter.o
                                                  build/obj/BMS_Controller.o
SD5                                               build/obj/serial_lld.o
                                                  build/obj/main.o
SOC_MAX                                           build/obj/Cell_Model_parameter.o
                                                  build/obj/BMS_Controller.o
SOC_MIN                                           build/obj/Cell_Model_parameter.o
                                                  build/obj/BMS_Controller.o
SOC_Vector                                        build/obj/Cell_Model_parameter.o
                                                  build/obj/BMS_Controller.o
SOH_MAX                                           build/obj/Cell_Model_parameter.o
                                                  build/obj/BMS_Controller.o
SOH_MIN                                           build/obj/Cell_Model_parameter.o
                                                  build/obj/BMS_Controller.o
SPCGetPeripheralClock                             build/obj/clock.o
                                                  build/obj/pit_lld.o
SPCGetSystemClock                                 build/obj/clock.o
SPCSetPeripheralClockMode                         build/obj/clock.o
                                                  build/obj/systimer.o
                                                  build/obj/pal.o
                                                  build/obj/spi_lld.o
                                                  build/obj/serial_lld.o
                                                  build/obj/can_lld.o
                                                  build/obj/spc5_edma.o
SPCSetRunMode                                     build/obj/clock.o
SPID1                                             build/obj/spi_lld.o
                                                  build/obj/AEK_POW_BMS63EN_cfg.o
                                                  build/obj/AEK_COM_ISOSPI1_cfg.o
TH_Bal                                            build/obj/BMS_Controller.o
Temperature_Vector                                build/obj/Cell_Model_parameter.o
                                                  build/obj/BMS_Controller.o
WKPUD1                                            build/obj/wkpu_lld.o
                                                  build/obj/main.o
_C0_IVOR0                                         build/obj/boot.o
_C0_IVOR1                                         build/obj/boot.o
_C0_IVOR10                                        build/obj/boot.o
_C0_IVOR11                                        build/obj/boot.o
_C0_IVOR12                                        build/obj/boot.o
_C0_IVOR13                                        build/obj/boot.o
_C0_IVOR14                                        build/obj/boot.o
_C0_IVOR15                                        build/obj/boot.o
_C0_IVOR2                                         build/obj/boot.o
_C0_IVOR3                                         build/obj/boot.o
_C0_IVOR4                                         build/obj/ivor.o
                                                  build/obj/boot.o
_C0_IVOR5                                         build/obj/boot.o
_C0_IVOR6                                         build/obj/boot.o
_C0_IVOR7                                         build/obj/boot.o
_C0_IVOR8                                         build/obj/boot.o
_C0_IVOR9                                         build/obj/boot.o
_IVOR0                                            build/obj/boot.o
_IVOR1                                            build/obj/boot.o
_IVOR10                                           build/obj/boot.o
_IVOR11                                           build/obj/boot.o
_IVOR12                                           build/obj/boot.o
_IVOR13                                           build/obj/boot.o
_IVOR14                                           build/obj/boot.o
_IVOR15                                           build/obj/boot.o
_IVOR2                                            build/obj/boot.o
_IVOR3                                            build/obj/boot.o
_IVOR4                                            build/obj/ivor.o
                                                  build/obj/boot.o
_IVOR5                                            build/obj/boot.o
_IVOR6                                            build/obj/boot.o
_IVOR7                                            build/obj/boot.o
_IVOR8                                            build/obj/boot.o
_IVOR9                                            build/obj/boot.o
_SDA2_BASE_                                       build/obj/boot.o
_SDA_BASE_                                        build/obj/boot.o
__adddf3                                          c:/autodevkitstudio-2.4.0/eclipse/plugins/com.st.tools.spc5.tools.gnu.gcc.ppcvle.win32_4.9.4.20200908161514/toolchain/bin/../lib/gcc/powerpc-eabivle/4.9.4/e200z4\libgcc.a(_addsub_df.o)
                                                  c:/autodevkitstudio-2.4.0/eclipse/plugins/com.st.tools.spc5.tools.gnu.gcc.ppcvle.win32_4.9.4.20200908161514/toolchain/bin/../lib/gcc/powerpc-eabivle/4.9.4/../../../../powerpc-eabivle/lib/e200z4\libm.a(lib_a-e_log.o)
                                                  build/obj/main.o
__addsf3                                          c:/autodevkitstudio-2.4.0/eclipse/plugins/com.st.tools.spc5.tools.gnu.gcc.ppcvle.win32_4.9.4.20200908161514/toolchain/bin/../lib/gcc/powerpc-eabivle/4.9.4/e200z4\libgcc.a(_addsub_sf.o)
                                                  c:/autodevkitstudio-2.4.0/eclipse/plugins/com.st.tools.spc5.tools.gnu.gcc.ppcvle.win32_4.9.4.20200908161514/toolchain/bin/../lib/gcc/powerpc-eabivle/4.9.4/../../../../powerpc-eabivle/lib/e200z4\libm.a(lib_a-ef_exp.o)
                                                  build/obj/BMS_Controller.o
                                                  build/obj/AEK_POW_BMS63EN_id.o
__bss_end__                                       build/obj/crt0.o
__bss_start__                                     build/obj/crt0.o
__core0_process_stack_end__                       build/obj/crt0.o
__data_end__                                      build/obj/crt0.o
__data_start__                                    build/obj/crt0.o
__divdf3                                          c:/autodevkitstudio-2.4.0/eclipse/plugins/com.st.tools.spc5.tools.gnu.gcc.ppcvle.win32_4.9.4.20200908161514/toolchain/bin/../lib/gcc/powerpc-eabivle/4.9.4/e200z4\libgcc.a(_div_df.o)
                                                  c:/autodevkitstudio-2.4.0/eclipse/plugins/com.st.tools.spc5.tools.gnu.gcc.ppcvle.win32_4.9.4.20200908161514/toolchain/bin/../lib/gcc/powerpc-eabivle/4.9.4/../../../../powerpc-eabivle/lib/e200z4\libm.a(lib_a-e_log.o)
                                                  build/obj/main.o
                                                  build/obj/AEK_POW_BMS63EN_id.o
__divsf3                                          c:/autodevkitstudio-2.4.0/eclipse/plugins/com.st.tools.spc5.tools.gnu.gcc.ppcvle.win32_4.9.4.20200908161514/toolchain/bin/../lib/gcc/powerpc-eabivle/4.9.4/e200z4\libgcc.a(_div_sf.o)
                                                  c:/autodevkitstudio-2.4.0/eclipse/plugins/com.st.tools.spc5.tools.gnu.gcc.ppcvle.win32_4.9.4.20200908161514/toolchain/bin/../lib/gcc/powerpc-eabivle/4.9.4/../../../../powerpc-eabivle/lib/e200z4\libm.a(lib_a-ef_exp.o)
                                                  build/obj/BMS_Controller.o
                                                  build/obj/main.o
                                                  build/obj/AEK_POW_BMS63EN_id.o
__dram0_end__                                     build/obj/boot.o
__dram0_start__                                   build/obj/boot.o
__dram2_end__                                     build/obj/boot.o
__dram2_start__                                   build/obj/boot.o
__eabi                                            build/obj/crt0.o
                                                  build/obj/main.o
__early_init                                      build/obj/clock.o
                                                  build/obj/crt0.o
__eqdf2                                           c:/autodevkitstudio-2.4.0/eclipse/plugins/com.st.tools.spc5.tools.gnu.gcc.ppcvle.win32_4.9.4.20200908161514/toolchain/bin/../lib/gcc/powerpc-eabivle/4.9.4/e200z4\libgcc.a(_eq_df.o)
                                                  c:/autodevkitstudio-2.4.0/eclipse/plugins/com.st.tools.spc5.tools.gnu.gcc.ppcvle.win32_4.9.4.20200908161514/toolchain/bin/../lib/gcc/powerpc-eabivle/4.9.4/../../../../powerpc-eabivle/lib/e200z4\libm.a(lib_a-e_log.o)
                                                  c:/autodevkitstudio-2.4.0/eclipse/plugins/com.st.tools.spc5.tools.gnu.gcc.ppcvle.win32_4.9.4.20200908161514/toolchain/bin/../lib/gcc/powerpc-eabivle/4.9.4/../../../../powerpc-eabivle/lib/e200z4\libm.a(lib_a-w_log.o)
__errno                                           c:/autodevkitstudio-2.4.0/eclipse/plugins/com.st.tools.spc5.tools.gnu.gcc.ppcvle.win32_4.9.4.20200908161514/toolchain/bin/../lib/gcc/powerpc-eabivle/4.9.4/../../../../powerpc-eabivle/lib/e200z4\libc.a(lib_a-errno.o)
                                                  c:/autodevkitstudio-2.4.0/eclipse/plugins/com.st.tools.spc5.tools.gnu.gcc.ppcvle.win32_4.9.4.20200908161514/toolchain/bin/../lib/gcc/powerpc-eabivle/4.9.4/../../../../powerpc-eabivle/lib/e200z4\libm.a(lib_a-w_log.o)
                                                  c:/autodevkitstudio-2.4.0/eclipse/plugins/com.st.tools.spc5.tools.gnu.gcc.ppcvle.win32_4.9.4.20200908161514/toolchain/bin/../lib/gcc/powerpc-eabivle/4.9.4/../../../../powerpc-eabivle/lib/e200z4\libm.a(lib_a-wf_exp.o)
__extendsfdf2                                     c:/autodevkitstudio-2.4.0/eclipse/plugins/com.st.tools.spc5.tools.gnu.gcc.ppcvle.win32_4.9.4.20200908161514/toolchain/bin/../lib/gcc/powerpc-eabivle/4.9.4/e200z4\libgcc.a(_sf_to_df.o)
                                                  c:/autodevkitstudio-2.4.0/eclipse/plugins/com.st.tools.spc5.tools.gnu.gcc.ppcvle.win32_4.9.4.20200908161514/toolchain/bin/../lib/gcc/powerpc-eabivle/4.9.4/../../../../powerpc-eabivle/lib/e200z4\libm.a(lib_a-wf_exp.o)
                                                  build/obj/main.o
                                                  build/obj/AEK_POW_BMS63EN_id.o
__fdlib_version                                   c:/autodevkitstudio-2.4.0/eclipse/plugins/com.st.tools.spc5.tools.gnu.gcc.ppcvle.win32_4.9.4.20200908161514/toolchain/bin/../lib/gcc/powerpc-eabivle/4.9.4/../../../../powerpc-eabivle/lib/e200z4\libm.a(lib_a-s_lib_ver.o)
                                                  c:/autodevkitstudio-2.4.0/eclipse/plugins/com.st.tools.spc5.tools.gnu.gcc.ppcvle.win32_4.9.4.20200908161514/toolchain/bin/../lib/gcc/powerpc-eabivle/4.9.4/../../../../powerpc-eabivle/lib/e200z4\libm.a(lib_a-w_log.o)
                                                  c:/autodevkitstudio-2.4.0/eclipse/plugins/com.st.tools.spc5.tools.gnu.gcc.ppcvle.win32_4.9.4.20200908161514/toolchain/bin/../lib/gcc/powerpc-eabivle/4.9.4/../../../../powerpc-eabivle/lib/e200z4\libm.a(lib_a-wf_exp.o)
__fixdfsi                                         c:/autodevkitstudio-2.4.0/eclipse/plugins/com.st.tools.spc5.tools.gnu.gcc.ppcvle.win32_4.9.4.20200908161514/toolchain/bin/../lib/gcc/powerpc-eabivle/4.9.4/e200z4\libgcc.a(_df_to_si.o)
                                                  c:/autodevkitstudio-2.4.0/eclipse/plugins/com.st.tools.spc5.tools.gnu.gcc.ppcvle.win32_4.9.4.20200908161514/toolchain/bin/../lib/gcc/powerpc-eabivle/4.9.4/e200z4\libgcc.a(_fixunsdfsi.o)
__fixsfsi                                         c:/autodevkitstudio-2.4.0/eclipse/plugins/com.st.tools.spc5.tools.gnu.gcc.ppcvle.win32_4.9.4.20200908161514/toolchain/bin/../lib/gcc/powerpc-eabivle/4.9.4/e200z4\libgcc.a(_sf_to_si.o)
                                                  c:/autodevkitstudio-2.4.0/eclipse/plugins/com.st.tools.spc5.tools.gnu.gcc.ppcvle.win32_4.9.4.20200908161514/toolchain/bin/../lib/gcc/powerpc-eabivle/4.9.4/e200z4\libgcc.a(_fixunssfsi.o)
                                                  c:/autodevkitstudio-2.4.0/eclipse/plugins/com.st.tools.spc5.tools.gnu.gcc.ppcvle.win32_4.9.4.20200908161514/toolchain/bin/../lib/gcc/powerpc-eabivle/4.9.4/../../../../powerpc-eabivle/lib/e200z4\libm.a(lib_a-ef_exp.o)
__fixunsdfsi                                      c:/autodevkitstudio-2.4.0/eclipse/plugins/com.st.tools.spc5.tools.gnu.gcc.ppcvle.win32_4.9.4.20200908161514/toolchain/bin/../lib/gcc/powerpc-eabivle/4.9.4/e200z4\libgcc.a(_fixunsdfsi.o)
                                                  build/obj/main.o
                                                  build/obj/AEK_POW_BMS63EN_id.o
__fixunssfsi                                      c:/autodevkitstudio-2.4.0/eclipse/plugins/com.st.tools.spc5.tools.gnu.gcc.ppcvle.win32_4.9.4.20200908161514/toolchain/bin/../lib/gcc/powerpc-eabivle/4.9.4/e200z4\libgcc.a(_fixunssfsi.o)
                                                  build/obj/BMS_Controller.o
                                                  build/obj/main.o
__floatsidf                                       c:/autodevkitstudio-2.4.0/eclipse/plugins/com.st.tools.spc5.tools.gnu.gcc.ppcvle.win32_4.9.4.20200908161514/toolchain/bin/../lib/gcc/powerpc-eabivle/4.9.4/e200z4\libgcc.a(_si_to_df.o)
                                                  c:/autodevkitstudio-2.4.0/eclipse/plugins/com.st.tools.spc5.tools.gnu.gcc.ppcvle.win32_4.9.4.20200908161514/toolchain/bin/../lib/gcc/powerpc-eabivle/4.9.4/../../../../powerpc-eabivle/lib/e200z4\libm.a(lib_a-e_log.o)
                                                  build/obj/AEK_POW_BMS63EN_id.o
__floatsisf                                       c:/autodevkitstudio-2.4.0/eclipse/plugins/com.st.tools.spc5.tools.gnu.gcc.ppcvle.win32_4.9.4.20200908161514/toolchain/bin/../lib/gcc/powerpc-eabivle/4.9.4/e200z4\libgcc.a(_si_to_sf.o)
                                                  c:/autodevkitstudio-2.4.0/eclipse/plugins/com.st.tools.spc5.tools.gnu.gcc.ppcvle.win32_4.9.4.20200908161514/toolchain/bin/../lib/gcc/powerpc-eabivle/4.9.4/../../../../powerpc-eabivle/lib/e200z4\libm.a(lib_a-ef_exp.o)
                                                  build/obj/AEK_POW_BMS63EN_id.o
__floatunsisf                                     c:/autodevkitstudio-2.4.0/eclipse/plugins/com.st.tools.spc5.tools.gnu.gcc.ppcvle.win32_4.9.4.20200908161514/toolchain/bin/../lib/gcc/powerpc-eabivle/4.9.4/e200z4\libgcc.a(_usi_to_sf.o)
                                                  build/obj/main.o
                                                  build/obj/AEK_POW_BMS63EN_id.o
__fpclassifyd                                     c:/autodevkitstudio-2.4.0/eclipse/plugins/com.st.tools.spc5.tools.gnu.gcc.ppcvle.win32_4.9.4.20200908161514/toolchain/bin/../lib/gcc/powerpc-eabivle/4.9.4/../../../../powerpc-eabivle/lib/e200z4\libm.a(lib_a-s_fpclassify.o)
                                                  c:/autodevkitstudio-2.4.0/eclipse/plugins/com.st.tools.spc5.tools.gnu.gcc.ppcvle.win32_4.9.4.20200908161514/toolchain/bin/../lib/gcc/powerpc-eabivle/4.9.4/../../../../powerpc-eabivle/lib/e200z4\libm.a(lib_a-w_log.o)
__fpcmp_parts_d                                   c:/autodevkitstudio-2.4.0/eclipse/plugins/com.st.tools.spc5.tools.gnu.gcc.ppcvle.win32_4.9.4.20200908161514/toolchain/bin/../lib/gcc/powerpc-eabivle/4.9.4/e200z4\libgcc.a(_fpcmp_parts_df.o)
                                                  c:/autodevkitstudio-2.4.0/eclipse/plugins/com.st.tools.spc5.tools.gnu.gcc.ppcvle.win32_4.9.4.20200908161514/toolchain/bin/../lib/gcc/powerpc-eabivle/4.9.4/e200z4\libgcc.a(_ge_df.o)
                                                  c:/autodevkitstudio-2.4.0/eclipse/plugins/com.st.tools.spc5.tools.gnu.gcc.ppcvle.win32_4.9.4.20200908161514/toolchain/bin/../lib/gcc/powerpc-eabivle/4.9.4/e200z4\libgcc.a(_gt_df.o)
                                                  c:/autodevkitstudio-2.4.0/eclipse/plugins/com.st.tools.spc5.tools.gnu.gcc.ppcvle.win32_4.9.4.20200908161514/toolchain/bin/../lib/gcc/powerpc-eabivle/4.9.4/e200z4\libgcc.a(_eq_df.o)
__fpcmp_parts_f                                   c:/autodevkitstudio-2.4.0/eclipse/plugins/com.st.tools.spc5.tools.gnu.gcc.ppcvle.win32_4.9.4.20200908161514/toolchain/bin/../lib/gcc/powerpc-eabivle/4.9.4/e200z4\libgcc.a(_fpcmp_parts_sf.o)
                                                  c:/autodevkitstudio-2.4.0/eclipse/plugins/com.st.tools.spc5.tools.gnu.gcc.ppcvle.win32_4.9.4.20200908161514/toolchain/bin/../lib/gcc/powerpc-eabivle/4.9.4/e200z4\libgcc.a(_le_sf.o)
                                                  c:/autodevkitstudio-2.4.0/eclipse/plugins/com.st.tools.spc5.tools.gnu.gcc.ppcvle.win32_4.9.4.20200908161514/toolchain/bin/../lib/gcc/powerpc-eabivle/4.9.4/e200z4\libgcc.a(_lt_sf.o)
                                                  c:/autodevkitstudio-2.4.0/eclipse/plugins/com.st.tools.spc5.tools.gnu.gcc.ppcvle.win32_4.9.4.20200908161514/toolchain/bin/../lib/gcc/powerpc-eabivle/4.9.4/e200z4\libgcc.a(_ge_sf.o)
                                                  c:/autodevkitstudio-2.4.0/eclipse/plugins/com.st.tools.spc5.tools.gnu.gcc.ppcvle.win32_4.9.4.20200908161514/toolchain/bin/../lib/gcc/powerpc-eabivle/4.9.4/e200z4\libgcc.a(_gt_sf.o)
__gedf2                                           c:/autodevkitstudio-2.4.0/eclipse/plugins/com.st.tools.spc5.tools.gnu.gcc.ppcvle.win32_4.9.4.20200908161514/toolchain/bin/../lib/gcc/powerpc-eabivle/4.9.4/e200z4\libgcc.a(_ge_df.o)
                                                  c:/autodevkitstudio-2.4.0/eclipse/plugins/com.st.tools.spc5.tools.gnu.gcc.ppcvle.win32_4.9.4.20200908161514/toolchain/bin/../lib/gcc/powerpc-eabivle/4.9.4/e200z4\libgcc.a(_fixunsdfsi.o)
__gesf2                                           c:/autodevkitstudio-2.4.0/eclipse/plugins/com.st.tools.spc5.tools.gnu.gcc.ppcvle.win32_4.9.4.20200908161514/toolchain/bin/../lib/gcc/powerpc-eabivle/4.9.4/e200z4\libgcc.a(_ge_sf.o)
                                                  c:/autodevkitstudio-2.4.0/eclipse/plugins/com.st.tools.spc5.tools.gnu.gcc.ppcvle.win32_4.9.4.20200908161514/toolchain/bin/../lib/gcc/powerpc-eabivle/4.9.4/e200z4\libgcc.a(_fixunssfsi.o)
                                                  build/obj/BMS_Controller.o
__gtdf2                                           c:/autodevkitstudio-2.4.0/eclipse/plugins/com.st.tools.spc5.tools.gnu.gcc.ppcvle.win32_4.9.4.20200908161514/toolchain/bin/../lib/gcc/powerpc-eabivle/4.9.4/e200z4\libgcc.a(_gt_df.o)
                                                  c:/autodevkitstudio-2.4.0/eclipse/plugins/com.st.tools.spc5.tools.gnu.gcc.ppcvle.win32_4.9.4.20200908161514/toolchain/bin/../lib/gcc/powerpc-eabivle/4.9.4/../../../../powerpc-eabivle/lib/e200z4\libm.a(lib_a-w_log.o)
__gtsf2                                           c:/autodevkitstudio-2.4.0/eclipse/plugins/com.st.tools.spc5.tools.gnu.gcc.ppcvle.win32_4.9.4.20200908161514/toolchain/bin/../lib/gcc/powerpc-eabivle/4.9.4/e200z4\libgcc.a(_gt_sf.o)
                                                  c:/autodevkitstudio-2.4.0/eclipse/plugins/com.st.tools.spc5.tools.gnu.gcc.ppcvle.win32_4.9.4.20200908161514/toolchain/bin/../lib/gcc/powerpc-eabivle/4.9.4/../../../../powerpc-eabivle/lib/e200z4\libm.a(lib_a-ef_exp.o)
                                                  c:/autodevkitstudio-2.4.0/eclipse/plugins/com.st.tools.spc5.tools.gnu.gcc.ppcvle.win32_4.9.4.20200908161514/toolchain/bin/../lib/gcc/powerpc-eabivle/4.9.4/../../../../powerpc-eabivle/lib/e200z4\libm.a(lib_a-wf_exp.o)
                                                  build/obj/BMS_Controller.o
                                                  build/obj/AEK_POW_BMS63EN_id.o
__heap_base__                                     build/obj/main.o
__heap_end__                                      build/obj/main.o
__ieee754_expf                                    c:/autodevkitstudio-2.4.0/eclipse/plugins/com.st.tools.spc5.tools.gnu.gcc.ppcvle.win32_4.9.4.20200908161514/toolchain/bin/../lib/gcc/powerpc-eabivle/4.9.4/../../../../powerpc-eabivle/lib/e200z4\libm.a(lib_a-ef_exp.o)
                                                  c:/autodevkitstudio-2.4.0/eclipse/plugins/com.st.tools.spc5.tools.gnu.gcc.ppcvle.win32_4.9.4.20200908161514/toolchain/bin/../lib/gcc/powerpc-eabivle/4.9.4/../../../../powerpc-eabivle/lib/e200z4\libm.a(lib_a-wf_exp.o)
__ieee754_log                                     c:/autodevkitstudio-2.4.0/eclipse/plugins/com.st.tools.spc5.tools.gnu.gcc.ppcvle.win32_4.9.4.20200908161514/toolchain/bin/../lib/gcc/powerpc-eabivle/4.9.4/../../../../powerpc-eabivle/lib/e200z4\libm.a(lib_a-e_log.o)
                                                  c:/autodevkitstudio-2.4.0/eclipse/plugins/com.st.tools.spc5.tools.gnu.gcc.ppcvle.win32_4.9.4.20200908161514/toolchain/bin/../lib/gcc/powerpc-eabivle/4.9.4/../../../../powerpc-eabivle/lib/e200z4\libm.a(lib_a-w_log.o)
__ivpr0_base__                                    build/obj/boot.o
__ivpr2_base__                                    build/obj/boot.o
__late_init                                       build/obj/crt0.o
__lesf2                                           c:/autodevkitstudio-2.4.0/eclipse/plugins/com.st.tools.spc5.tools.gnu.gcc.ppcvle.win32_4.9.4.20200908161514/toolchain/bin/../lib/gcc/powerpc-eabivle/4.9.4/e200z4\libgcc.a(_le_sf.o)
                                                  build/obj/BMS_Controller.o
__ltsf2                                           c:/autodevkitstudio-2.4.0/eclipse/plugins/com.st.tools.spc5.tools.gnu.gcc.ppcvle.win32_4.9.4.20200908161514/toolchain/bin/../lib/gcc/powerpc-eabivle/4.9.4/e200z4\libgcc.a(_lt_sf.o)
                                                  c:/autodevkitstudio-2.4.0/eclipse/plugins/com.st.tools.spc5.tools.gnu.gcc.ppcvle.win32_4.9.4.20200908161514/toolchain/bin/../lib/gcc/powerpc-eabivle/4.9.4/../../../../powerpc-eabivle/lib/e200z4\libm.a(lib_a-wf_exp.o)
                                                  build/obj/BMS_Controller.o
__make_dp                                         c:/autodevkitstudio-2.4.0/eclipse/plugins/com.st.tools.spc5.tools.gnu.gcc.ppcvle.win32_4.9.4.20200908161514/toolchain/bin/../lib/gcc/powerpc-eabivle/4.9.4/e200z4\libgcc.a(_make_df.o)
                                                  c:/autodevkitstudio-2.4.0/eclipse/plugins/com.st.tools.spc5.tools.gnu.gcc.ppcvle.win32_4.9.4.20200908161514/toolchain/bin/../lib/gcc/powerpc-eabivle/4.9.4/e200z4\libgcc.a(_sf_to_df.o)
__make_fp                                         c:/autodevkitstudio-2.4.0/eclipse/plugins/com.st.tools.spc5.tools.gnu.gcc.ppcvle.win32_4.9.4.20200908161514/toolchain/bin/../lib/gcc/powerpc-eabivle/4.9.4/e200z4\libgcc.a(_make_sf.o)
                                                  c:/autodevkitstudio-2.4.0/eclipse/plugins/com.st.tools.spc5.tools.gnu.gcc.ppcvle.win32_4.9.4.20200908161514/toolchain/bin/../lib/gcc/powerpc-eabivle/4.9.4/e200z4\libgcc.a(_df_to_sf.o)
__muldf3                                          c:/autodevkitstudio-2.4.0/eclipse/plugins/com.st.tools.spc5.tools.gnu.gcc.ppcvle.win32_4.9.4.20200908161514/toolchain/bin/../lib/gcc/powerpc-eabivle/4.9.4/e200z4\libgcc.a(_mul_df.o)
                                                  c:/autodevkitstudio-2.4.0/eclipse/plugins/com.st.tools.spc5.tools.gnu.gcc.ppcvle.win32_4.9.4.20200908161514/toolchain/bin/../lib/gcc/powerpc-eabivle/4.9.4/../../../../powerpc-eabivle/lib/e200z4\libm.a(lib_a-e_log.o)
                                                  build/obj/main.o
                                                  build/obj/AEK_POW_BMS63EN_id.o
__mulsf3                                          c:/autodevkitstudio-2.4.0/eclipse/plugins/com.st.tools.spc5.tools.gnu.gcc.ppcvle.win32_4.9.4.20200908161514/toolchain/bin/../lib/gcc/powerpc-eabivle/4.9.4/e200z4\libgcc.a(_mul_sf.o)
                                                  c:/autodevkitstudio-2.4.0/eclipse/plugins/com.st.tools.spc5.tools.gnu.gcc.ppcvle.win32_4.9.4.20200908161514/toolchain/bin/../lib/gcc/powerpc-eabivle/4.9.4/../../../../powerpc-eabivle/lib/e200z4\libm.a(lib_a-ef_exp.o)
                                                  build/obj/BMS_Controller.o
                                                  build/obj/main.o
                                                  build/obj/AEK_POW_BMS63EN_id.o
__pack_d                                          c:/autodevkitstudio-2.4.0/eclipse/plugins/com.st.tools.spc5.tools.gnu.gcc.ppcvle.win32_4.9.4.20200908161514/toolchain/bin/../lib/gcc/powerpc-eabivle/4.9.4/e200z4\libgcc.a(_pack_df.o)
                                                  c:/autodevkitstudio-2.4.0/eclipse/plugins/com.st.tools.spc5.tools.gnu.gcc.ppcvle.win32_4.9.4.20200908161514/toolchain/bin/../lib/gcc/powerpc-eabivle/4.9.4/e200z4\libgcc.a(_make_df.o)
                                                  c:/autodevkitstudio-2.4.0/eclipse/plugins/com.st.tools.spc5.tools.gnu.gcc.ppcvle.win32_4.9.4.20200908161514/toolchain/bin/../lib/gcc/powerpc-eabivle/4.9.4/e200z4\libgcc.a(_si_to_df.o)
                                                  c:/autodevkitstudio-2.4.0/eclipse/plugins/com.st.tools.spc5.tools.gnu.gcc.ppcvle.win32_4.9.4.20200908161514/toolchain/bin/../lib/gcc/powerpc-eabivle/4.9.4/e200z4\libgcc.a(_div_df.o)
                                                  c:/autodevkitstudio-2.4.0/eclipse/plugins/com.st.tools.spc5.tools.gnu.gcc.ppcvle.win32_4.9.4.20200908161514/toolchain/bin/../lib/gcc/powerpc-eabivle/4.9.4/e200z4\libgcc.a(_mul_df.o)
                                                  c:/autodevkitstudio-2.4.0/eclipse/plugins/com.st.tools.spc5.tools.gnu.gcc.ppcvle.win32_4.9.4.20200908161514/toolchain/bin/../lib/gcc/powerpc-eabivle/4.9.4/e200z4\libgcc.a(_addsub_df.o)
__pack_f                                          c:/autodevkitstudio-2.4.0/eclipse/plugins/com.st.tools.spc5.tools.gnu.gcc.ppcvle.win32_4.9.4.20200908161514/toolchain/bin/../lib/gcc/powerpc-eabivle/4.9.4/e200z4\libgcc.a(_pack_sf.o)
                                                  c:/autodevkitstudio-2.4.0/eclipse/plugins/com.st.tools.spc5.tools.gnu.gcc.ppcvle.win32_4.9.4.20200908161514/toolchain/bin/../lib/gcc/powerpc-eabivle/4.9.4/e200z4\libgcc.a(_make_sf.o)
                                                  c:/autodevkitstudio-2.4.0/eclipse/plugins/com.st.tools.spc5.tools.gnu.gcc.ppcvle.win32_4.9.4.20200908161514/toolchain/bin/../lib/gcc/powerpc-eabivle/4.9.4/e200z4\libgcc.a(_usi_to_sf.o)
                                                  c:/autodevkitstudio-2.4.0/eclipse/plugins/com.st.tools.spc5.tools.gnu.gcc.ppcvle.win32_4.9.4.20200908161514/toolchain/bin/../lib/gcc/powerpc-eabivle/4.9.4/e200z4\libgcc.a(_si_to_sf.o)
                                                  c:/autodevkitstudio-2.4.0/eclipse/plugins/com.st.tools.spc5.tools.gnu.gcc.ppcvle.win32_4.9.4.20200908161514/toolchain/bin/../lib/gcc/powerpc-eabivle/4.9.4/e200z4\libgcc.a(_div_sf.o)
                                                  c:/autodevkitstudio-2.4.0/eclipse/plugins/com.st.tools.spc5.tools.gnu.gcc.ppcvle.win32_4.9.4.20200908161514/toolchain/bin/../lib/gcc/powerpc-eabivle/4.9.4/e200z4\libgcc.a(_mul_sf.o)
                                                  c:/autodevkitstudio-2.4.0/eclipse/plugins/com.st.tools.spc5.tools.gnu.gcc.ppcvle.win32_4.9.4.20200908161514/toolchain/bin/../lib/gcc/powerpc-eabivle/4.9.4/e200z4\libgcc.a(_addsub_sf.o)
__process_stack_end__                             build/obj/crt0.o
__ram_end__                                       build/obj/boot.o
__ram_start__                                     build/obj/boot.o
__romdata_start__                                 build/obj/crt0.o
__sdata2_start__                                  build/obj/crt0.o
__sdata_start__                                   build/obj/crt0.o
__subdf3                                          c:/autodevkitstudio-2.4.0/eclipse/plugins/com.st.tools.spc5.tools.gnu.gcc.ppcvle.win32_4.9.4.20200908161514/toolchain/bin/../lib/gcc/powerpc-eabivle/4.9.4/e200z4\libgcc.a(_addsub_df.o)
                                                  c:/autodevkitstudio-2.4.0/eclipse/plugins/com.st.tools.spc5.tools.gnu.gcc.ppcvle.win32_4.9.4.20200908161514/toolchain/bin/../lib/gcc/powerpc-eabivle/4.9.4/e200z4\libgcc.a(_fixunsdfsi.o)
                                                  c:/autodevkitstudio-2.4.0/eclipse/plugins/com.st.tools.spc5.tools.gnu.gcc.ppcvle.win32_4.9.4.20200908161514/toolchain/bin/../lib/gcc/powerpc-eabivle/4.9.4/../../../../powerpc-eabivle/lib/e200z4\libm.a(lib_a-e_log.o)
                                                  build/obj/main.o
__subsf3                                          c:/autodevkitstudio-2.4.0/eclipse/plugins/com.st.tools.spc5.tools.gnu.gcc.ppcvle.win32_4.9.4.20200908161514/toolchain/bin/../lib/gcc/powerpc-eabivle/4.9.4/e200z4\libgcc.a(_addsub_sf.o)
                                                  c:/autodevkitstudio-2.4.0/eclipse/plugins/com.st.tools.spc5.tools.gnu.gcc.ppcvle.win32_4.9.4.20200908161514/toolchain/bin/../lib/gcc/powerpc-eabivle/4.9.4/e200z4\libgcc.a(_fixunssfsi.o)
                                                  c:/autodevkitstudio-2.4.0/eclipse/plugins/com.st.tools.spc5.tools.gnu.gcc.ppcvle.win32_4.9.4.20200908161514/toolchain/bin/../lib/gcc/powerpc-eabivle/4.9.4/../../../../powerpc-eabivle/lib/e200z4\libm.a(lib_a-ef_exp.o)
                                                  build/obj/BMS_Controller.o
                                                  build/obj/AEK_POW_BMS63EN_id.o
__thenan_df                                       c:/autodevkitstudio-2.4.0/eclipse/plugins/com.st.tools.spc5.tools.gnu.gcc.ppcvle.win32_4.9.4.20200908161514/toolchain/bin/../lib/gcc/powerpc-eabivle/4.9.4/e200z4\libgcc.a(_thenan_df.o)
                                                  c:/autodevkitstudio-2.4.0/eclipse/plugins/com.st.tools.spc5.tools.gnu.gcc.ppcvle.win32_4.9.4.20200908161514/toolchain/bin/../lib/gcc/powerpc-eabivle/4.9.4/e200z4\libgcc.a(_div_df.o)
                                                  c:/autodevkitstudio-2.4.0/eclipse/plugins/com.st.tools.spc5.tools.gnu.gcc.ppcvle.win32_4.9.4.20200908161514/toolchain/bin/../lib/gcc/powerpc-eabivle/4.9.4/e200z4\libgcc.a(_mul_df.o)
                                                  c:/autodevkitstudio-2.4.0/eclipse/plugins/com.st.tools.spc5.tools.gnu.gcc.ppcvle.win32_4.9.4.20200908161514/toolchain/bin/../lib/gcc/powerpc-eabivle/4.9.4/e200z4\libgcc.a(_addsub_df.o)
__thenan_sf                                       c:/autodevkitstudio-2.4.0/eclipse/plugins/com.st.tools.spc5.tools.gnu.gcc.ppcvle.win32_4.9.4.20200908161514/toolchain/bin/../lib/gcc/powerpc-eabivle/4.9.4/e200z4\libgcc.a(_thenan_sf.o)
                                                  c:/autodevkitstudio-2.4.0/eclipse/plugins/com.st.tools.spc5.tools.gnu.gcc.ppcvle.win32_4.9.4.20200908161514/toolchain/bin/../lib/gcc/powerpc-eabivle/4.9.4/e200z4\libgcc.a(_div_sf.o)
                                                  c:/autodevkitstudio-2.4.0/eclipse/plugins/com.st.tools.spc5.tools.gnu.gcc.ppcvle.win32_4.9.4.20200908161514/toolchain/bin/../lib/gcc/powerpc-eabivle/4.9.4/e200z4\libgcc.a(_mul_sf.o)
                                                  c:/autodevkitstudio-2.4.0/eclipse/plugins/com.st.tools.spc5.tools.gnu.gcc.ppcvle.win32_4.9.4.20200908161514/toolchain/bin/../lib/gcc/powerpc-eabivle/4.9.4/e200z4\libgcc.a(_addsub_sf.o)
__truncdfsf2                                      c:/autodevkitstudio-2.4.0/eclipse/plugins/com.st.tools.spc5.tools.gnu.gcc.ppcvle.win32_4.9.4.20200908161514/toolchain/bin/../lib/gcc/powerpc-eabivle/4.9.4/e200z4\libgcc.a(_df_to_sf.o)
                                                  c:/autodevkitstudio-2.4.0/eclipse/plugins/com.st.tools.spc5.tools.gnu.gcc.ppcvle.win32_4.9.4.20200908161514/toolchain/bin/../lib/gcc/powerpc-eabivle/4.9.4/../../../../powerpc-eabivle/lib/e200z4\libm.a(lib_a-wf_exp.o)
                                                  build/obj/AEK_POW_BMS63EN_id.o
__udivdi3                                         c:/autodevkitstudio-2.4.0/eclipse/plugins/com.st.tools.spc5.tools.gnu.gcc.ppcvle.win32_4.9.4.20200908161514/toolchain/bin/../lib/gcc/powerpc-eabivle/4.9.4/e200z4\libgcc.a(_udivdi3.o)
                                                  build/obj/pit_lld.o
__unpack_d                                        c:/autodevkitstudio-2.4.0/eclipse/plugins/com.st.tools.spc5.tools.gnu.gcc.ppcvle.win32_4.9.4.20200908161514/toolchain/bin/../lib/gcc/powerpc-eabivle/4.9.4/e200z4\libgcc.a(_unpack_df.o)
                                                  c:/autodevkitstudio-2.4.0/eclipse/plugins/com.st.tools.spc5.tools.gnu.gcc.ppcvle.win32_4.9.4.20200908161514/toolchain/bin/../lib/gcc/powerpc-eabivle/4.9.4/e200z4\libgcc.a(_df_to_sf.o)
                                                  c:/autodevkitstudio-2.4.0/eclipse/plugins/com.st.tools.spc5.tools.gnu.gcc.ppcvle.win32_4.9.4.20200908161514/toolchain/bin/../lib/gcc/powerpc-eabivle/4.9.4/e200z4\libgcc.a(_df_to_si.o)
                                                  c:/autodevkitstudio-2.4.0/eclipse/plugins/com.st.tools.spc5.tools.gnu.gcc.ppcvle.win32_4.9.4.20200908161514/toolchain/bin/../lib/gcc/powerpc-eabivle/4.9.4/e200z4\libgcc.a(_ge_df.o)
                                                  c:/autodevkitstudio-2.4.0/eclipse/plugins/com.st.tools.spc5.tools.gnu.gcc.ppcvle.win32_4.9.4.20200908161514/toolchain/bin/../lib/gcc/powerpc-eabivle/4.9.4/e200z4\libgcc.a(_gt_df.o)
                                                  c:/autodevkitstudio-2.4.0/eclipse/plugins/com.st.tools.spc5.tools.gnu.gcc.ppcvle.win32_4.9.4.20200908161514/toolchain/bin/../lib/gcc/powerpc-eabivle/4.9.4/e200z4\libgcc.a(_eq_df.o)
                                                  c:/autodevkitstudio-2.4.0/eclipse/plugins/com.st.tools.spc5.tools.gnu.gcc.ppcvle.win32_4.9.4.20200908161514/toolchain/bin/../lib/gcc/powerpc-eabivle/4.9.4/e200z4\libgcc.a(_div_df.o)
                                                  c:/autodevkitstudio-2.4.0/eclipse/plugins/com.st.tools.spc5.tools.gnu.gcc.ppcvle.win32_4.9.4.20200908161514/toolchain/bin/../lib/gcc/powerpc-eabivle/4.9.4/e200z4\libgcc.a(_mul_df.o)
                                                  c:/autodevkitstudio-2.4.0/eclipse/plugins/com.st.tools.spc5.tools.gnu.gcc.ppcvle.win32_4.9.4.20200908161514/toolchain/bin/../lib/gcc/powerpc-eabivle/4.9.4/e200z4\libgcc.a(_addsub_df.o)
__unpack_f                                        c:/autodevkitstudio-2.4.0/eclipse/plugins/com.st.tools.spc5.tools.gnu.gcc.ppcvle.win32_4.9.4.20200908161514/toolchain/bin/../lib/gcc/powerpc-eabivle/4.9.4/e200z4\libgcc.a(_unpack_sf.o)
                                                  c:/autodevkitstudio-2.4.0/eclipse/plugins/com.st.tools.spc5.tools.gnu.gcc.ppcvle.win32_4.9.4.20200908161514/toolchain/bin/../lib/gcc/powerpc-eabivle/4.9.4/e200z4\libgcc.a(_sf_to_df.o)
                                                  c:/autodevkitstudio-2.4.0/eclipse/plugins/com.st.tools.spc5.tools.gnu.gcc.ppcvle.win32_4.9.4.20200908161514/toolchain/bin/../lib/gcc/powerpc-eabivle/4.9.4/e200z4\libgcc.a(_sf_to_si.o)
                                                  c:/autodevkitstudio-2.4.0/eclipse/plugins/com.st.tools.spc5.tools.gnu.gcc.ppcvle.win32_4.9.4.20200908161514/toolchain/bin/../lib/gcc/powerpc-eabivle/4.9.4/e200z4\libgcc.a(_le_sf.o)
                                                  c:/autodevkitstudio-2.4.0/eclipse/plugins/com.st.tools.spc5.tools.gnu.gcc.ppcvle.win32_4.9.4.20200908161514/toolchain/bin/../lib/gcc/powerpc-eabivle/4.9.4/e200z4\libgcc.a(_lt_sf.o)
                                                  c:/autodevkitstudio-2.4.0/eclipse/plugins/com.st.tools.spc5.tools.gnu.gcc.ppcvle.win32_4.9.4.20200908161514/toolchain/bin/../lib/gcc/powerpc-eabivle/4.9.4/e200z4\libgcc.a(_ge_sf.o)
                                                  c:/autodevkitstudio-2.4.0/eclipse/plugins/com.st.tools.spc5.tools.gnu.gcc.ppcvle.win32_4.9.4.20200908161514/toolchain/bin/../lib/gcc/powerpc-eabivle/4.9.4/e200z4\libgcc.a(_gt_sf.o)
                                                  c:/autodevkitstudio-2.4.0/eclipse/plugins/com.st.tools.spc5.tools.gnu.gcc.ppcvle.win32_4.9.4.20200908161514/toolchain/bin/../lib/gcc/powerpc-eabivle/4.9.4/e200z4\libgcc.a(_div_sf.o)
                                                  c:/autodevkitstudio-2.4.0/eclipse/plugins/com.st.tools.spc5.tools.gnu.gcc.ppcvle.win32_4.9.4.20200908161514/toolchain/bin/../lib/gcc/powerpc-eabivle/4.9.4/e200z4\libgcc.a(_mul_sf.o)
                                                  c:/autodevkitstudio-2.4.0/eclipse/plugins/com.st.tools.spc5.tools.gnu.gcc.ppcvle.win32_4.9.4.20200908161514/toolchain/bin/../lib/gcc/powerpc-eabivle/4.9.4/e200z4\libgcc.a(_addsub_sf.o)
_boot_address                                     build/obj/crt0.o
                                                  build/obj/boot.o
_boot_address0                                    build/obj/crt0.o
                                                  build/obj/boot.o
_global_impure_ptr                                c:/autodevkitstudio-2.4.0/eclipse/plugins/com.st.tools.spc5.tools.gnu.gcc.ppcvle.win32_4.9.4.20200908161514/toolchain/bin/../lib/gcc/powerpc-eabivle/4.9.4/../../../../powerpc-eabivle/lib/e200z4\libc.a(lib_a-impure.o)
_impure_ptr                                       c:/autodevkitstudio-2.4.0/eclipse/plugins/com.st.tools.spc5.tools.gnu.gcc.ppcvle.win32_4.9.4.20200908161514/toolchain/bin/../lib/gcc/powerpc-eabivle/4.9.4/../../../../powerpc-eabivle/lib/e200z4\libc.a(lib_a-impure.o)
                                                  c:/autodevkitstudio-2.4.0/eclipse/plugins/com.st.tools.spc5.tools.gnu.gcc.ppcvle.win32_4.9.4.20200908161514/toolchain/bin/../lib/gcc/powerpc-eabivle/4.9.4/../../../../powerpc-eabivle/lib/e200z4\libc.a(lib_a-errno.o)
_main_exit_handler                                build/obj/crt0.o
_pal_readgroup                                    build/obj/pal.o
_pal_setgroupmode                                 build/obj/pal.o
_pal_writegroup                                   build/obj/pal.o
_reset_address0                                   build/obj/boot.o
                                                  build/obj/core0.o
_reset_address2                                   build/obj/boot.o
_restgpr_14_x                                     c:/autodevkitstudio-2.4.0/eclipse/plugins/com.st.tools.spc5.tools.gnu.gcc.ppcvle.win32_4.9.4.20200908161514/toolchain/bin/../lib/gcc/powerpc-eabivle/4.9.4/e200z4\libgcc.a(e200crtresxgpr.o)
_restgpr_15_x                                     c:/autodevkitstudio-2.4.0/eclipse/plugins/com.st.tools.spc5.tools.gnu.gcc.ppcvle.win32_4.9.4.20200908161514/toolchain/bin/../lib/gcc/powerpc-eabivle/4.9.4/e200z4\libgcc.a(e200crtresxgpr.o)
_restgpr_16_x                                     c:/autodevkitstudio-2.4.0/eclipse/plugins/com.st.tools.spc5.tools.gnu.gcc.ppcvle.win32_4.9.4.20200908161514/toolchain/bin/../lib/gcc/powerpc-eabivle/4.9.4/e200z4\libgcc.a(e200crtresxgpr.o)
_restgpr_17_x                                     c:/autodevkitstudio-2.4.0/eclipse/plugins/com.st.tools.spc5.tools.gnu.gcc.ppcvle.win32_4.9.4.20200908161514/toolchain/bin/../lib/gcc/powerpc-eabivle/4.9.4/e200z4\libgcc.a(e200crtresxgpr.o)
_restgpr_18_x                                     c:/autodevkitstudio-2.4.0/eclipse/plugins/com.st.tools.spc5.tools.gnu.gcc.ppcvle.win32_4.9.4.20200908161514/toolchain/bin/../lib/gcc/powerpc-eabivle/4.9.4/e200z4\libgcc.a(e200crtresxgpr.o)
_restgpr_19_x                                     c:/autodevkitstudio-2.4.0/eclipse/plugins/com.st.tools.spc5.tools.gnu.gcc.ppcvle.win32_4.9.4.20200908161514/toolchain/bin/../lib/gcc/powerpc-eabivle/4.9.4/e200z4\libgcc.a(e200crtresxgpr.o)
_restgpr_20_x                                     c:/autodevkitstudio-2.4.0/eclipse/plugins/com.st.tools.spc5.tools.gnu.gcc.ppcvle.win32_4.9.4.20200908161514/toolchain/bin/../lib/gcc/powerpc-eabivle/4.9.4/e200z4\libgcc.a(e200crtresxgpr.o)
                                                  c:/autodevkitstudio-2.4.0/eclipse/plugins/com.st.tools.spc5.tools.gnu.gcc.ppcvle.win32_4.9.4.20200908161514/toolchain/bin/../lib/gcc/powerpc-eabivle/4.9.4/../../../../powerpc-eabivle/lib/e200z4\libm.a(lib_a-e_log.o)
_restgpr_21_x                                     c:/autodevkitstudio-2.4.0/eclipse/plugins/com.st.tools.spc5.tools.gnu.gcc.ppcvle.win32_4.9.4.20200908161514/toolchain/bin/../lib/gcc/powerpc-eabivle/4.9.4/e200z4\libgcc.a(e200crtresxgpr.o)
_restgpr_22_x                                     c:/autodevkitstudio-2.4.0/eclipse/plugins/com.st.tools.spc5.tools.gnu.gcc.ppcvle.win32_4.9.4.20200908161514/toolchain/bin/../lib/gcc/powerpc-eabivle/4.9.4/e200z4\libgcc.a(e200crtresxgpr.o)
_restgpr_23_x                                     c:/autodevkitstudio-2.4.0/eclipse/plugins/com.st.tools.spc5.tools.gnu.gcc.ppcvle.win32_4.9.4.20200908161514/toolchain/bin/../lib/gcc/powerpc-eabivle/4.9.4/e200z4\libgcc.a(e200crtresxgpr.o)
_restgpr_24_x                                     c:/autodevkitstudio-2.4.0/eclipse/plugins/com.st.tools.spc5.tools.gnu.gcc.ppcvle.win32_4.9.4.20200908161514/toolchain/bin/../lib/gcc/powerpc-eabivle/4.9.4/e200z4\libgcc.a(e200crtresxgpr.o)
_restgpr_25_x                                     c:/autodevkitstudio-2.4.0/eclipse/plugins/com.st.tools.spc5.tools.gnu.gcc.ppcvle.win32_4.9.4.20200908161514/toolchain/bin/../lib/gcc/powerpc-eabivle/4.9.4/e200z4\libgcc.a(e200crtresxgpr.o)
_restgpr_26_x                                     c:/autodevkitstudio-2.4.0/eclipse/plugins/com.st.tools.spc5.tools.gnu.gcc.ppcvle.win32_4.9.4.20200908161514/toolchain/bin/../lib/gcc/powerpc-eabivle/4.9.4/e200z4\libgcc.a(e200crtresxgpr.o)
_restgpr_27_x                                     c:/autodevkitstudio-2.4.0/eclipse/plugins/com.st.tools.spc5.tools.gnu.gcc.ppcvle.win32_4.9.4.20200908161514/toolchain/bin/../lib/gcc/powerpc-eabivle/4.9.4/e200z4\libgcc.a(e200crtresxgpr.o)
                                                  c:/autodevkitstudio-2.4.0/eclipse/plugins/com.st.tools.spc5.tools.gnu.gcc.ppcvle.win32_4.9.4.20200908161514/toolchain/bin/../lib/gcc/powerpc-eabivle/4.9.4/../../../../powerpc-eabivle/lib/e200z4\libm.a(lib_a-ef_exp.o)
                                                  c:/autodevkitstudio-2.4.0/eclipse/plugins/com.st.tools.spc5.tools.gnu.gcc.ppcvle.win32_4.9.4.20200908161514/toolchain/bin/../lib/gcc/powerpc-eabivle/4.9.4/../../../../powerpc-eabivle/lib/e200z4\libm.a(lib_a-w_log.o)
_restgpr_28_x                                     c:/autodevkitstudio-2.4.0/eclipse/plugins/com.st.tools.spc5.tools.gnu.gcc.ppcvle.win32_4.9.4.20200908161514/toolchain/bin/../lib/gcc/powerpc-eabivle/4.9.4/e200z4\libgcc.a(e200crtresxgpr.o)
_restgpr_29_x                                     c:/autodevkitstudio-2.4.0/eclipse/plugins/com.st.tools.spc5.tools.gnu.gcc.ppcvle.win32_4.9.4.20200908161514/toolchain/bin/../lib/gcc/powerpc-eabivle/4.9.4/e200z4\libgcc.a(e200crtresxgpr.o)
                                                  c:/autodevkitstudio-2.4.0/eclipse/plugins/com.st.tools.spc5.tools.gnu.gcc.ppcvle.win32_4.9.4.20200908161514/toolchain/bin/../lib/gcc/powerpc-eabivle/4.9.4/../../../../powerpc-eabivle/lib/e200z4\libm.a(lib_a-wf_exp.o)
_restgpr_30_x                                     c:/autodevkitstudio-2.4.0/eclipse/plugins/com.st.tools.spc5.tools.gnu.gcc.ppcvle.win32_4.9.4.20200908161514/toolchain/bin/../lib/gcc/powerpc-eabivle/4.9.4/e200z4\libgcc.a(e200crtresxgpr.o)
_restgpr_31_x                                     c:/autodevkitstudio-2.4.0/eclipse/plugins/com.st.tools.spc5.tools.gnu.gcc.ppcvle.win32_4.9.4.20200908161514/toolchain/bin/../lib/gcc/powerpc-eabivle/4.9.4/e200z4\libgcc.a(e200crtresxgpr.o)
_unhandled_exception0                             build/obj/boot.o
_unhandled_exception2                             build/obj/boot.o
_unhandled_irq                                    build/obj/vectors.o
_vectors                                          build/obj/vectors.o
                                                  build/obj/irq.o
boardInit                                         build/obj/board.o
                                                  build/obj/components.o
buffer                                            build/obj/AEK_POW_BMS63EN_Appl.o
cache_disable                                     build/obj/cache.o
cache_enable                                      build/obj/cache.o
cache_flush_range                                 build/obj/cache.o
cache_get_cfg                                     build/obj/cache.o
cache_get_status                                  build/obj/cache.o
cache_invalidate                                  build/obj/cache.o
cache_invalidate_range                            build/obj/cache.o
cache_set_control                                 build/obj/cache.o
can_config_mcanconf                               build/obj/can_lld_cfg.o
                                                  build/obj/main.o
can_lld_getDLC                                    build/obj/can_lld.o
can_lld_getframesize                              build/obj/can_lld.o
can_lld_init                                      build/obj/can_lld.o
                                                  build/obj/spc5_lld.o
can_lld_readBuffer                                build/obj/can_lld.o
can_lld_receive                                   build/obj/can_lld.o
can_lld_start                                     build/obj/can_lld.o
                                                  build/obj/main.o
can_lld_stop                                      build/obj/can_lld.o
can_lld_transmit                                  build/obj/can_lld.o
                                                  build/obj/main.o
can_lld_writeTxBuffer                             build/obj/can_lld.o
clockInit                                         build/obj/clock.o
                                                  build/obj/components.o
componentsInit                                    build/obj/components.o
                                                  build/obj/main.o
config_Transceiver                                build/obj/AEK_COM_ISOSPI1_lld.o
debug_config                                      build/obj/AEK_COM_ISOSPI1_lld.o
edmaChannelAllocate                               build/obj/spc5_edma.o
edmaChannelRelease                                build/obj/spc5_edma.o
edmaInit                                          build/obj/spc5_edma.o
                                                  build/obj/spc5_lld.o
eirqInit                                          build/obj/eirq.o
                                                  build/obj/components.o
eirqconf                                          build/obj/eirq_cfg.o
                                                  build/obj/eirq.o
expf                                              c:/autodevkitstudio-2.4.0/eclipse/plugins/com.st.tools.spc5.tools.gnu.gcc.ppcvle.win32_4.9.4.20200908161514/toolchain/bin/../lib/gcc/powerpc-eabivle/4.9.4/../../../../powerpc-eabivle/lib/e200z4\libm.a(lib_a-wf_exp.o)
                                                  build/obj/BMS_Controller.o
finitef                                           c:/autodevkitstudio-2.4.0/eclipse/plugins/com.st.tools.spc5.tools.gnu.gcc.ppcvle.win32_4.9.4.20200908161514/toolchain/bin/../lib/gcc/powerpc-eabivle/4.9.4/../../../../powerpc-eabivle/lib/e200z4\libm.a(lib_a-sf_finite.o)
                                                  c:/autodevkitstudio-2.4.0/eclipse/plugins/com.st.tools.spc5.tools.gnu.gcc.ppcvle.win32_4.9.4.20200908161514/toolchain/bin/../lib/gcc/powerpc-eabivle/4.9.4/../../../../powerpc-eabivle/lib/e200z4\libm.a(lib_a-wf_exp.o)
getTemperatureStats                               build/obj/main.o
i_device_disp                                     build/obj/main.o
int28_irq_cb                                      build/obj/main.o
irqInit                                           build/obj/irq.o
                                                  build/obj/components.o
irqSysHalt                                        build/obj/irq.o
                                                  build/obj/clock.o
                                                  build/obj/spc5_edma.o
irq_cfg_init                                      build/obj/irq_cfg.o
                                                  build/obj/irq.o
l9963t_PALReadPad                                 build/obj/AEK_COM_ISOSPI1_lld.o
l9963t_PALWritePad                                build/obj/AEK_COM_ISOSPI1_lld.o
largememcpy                                       c:/autodevkitstudio-2.4.0/eclipse/plugins/com.st.tools.spc5.tools.gnu.gcc.ppcvle.win32_4.9.4.20200908161514/toolchain/bin/../lib/gcc/powerpc-eabivle/4.9.4/../../../../powerpc-eabivle/lib/e200z4\libc.a(lib_a-memcpy.o)
linflex_lld_init                                  build/obj/spc5_linflex.o
                                                  build/obj/serial_lld.o
log                                               c:/autodevkitstudio-2.4.0/eclipse/plugins/com.st.tools.spc5.tools.gnu.gcc.ppcvle.win32_4.9.4.20200908161514/toolchain/bin/../lib/gcc/powerpc-eabivle/4.9.4/../../../../powerpc-eabivle/lib/e200z4\libm.a(lib_a-w_log.o)
                                                  build/obj/main.o
main                                              build/obj/main.o
                                                  build/obj/crt0.o
main_core0                                        build/obj/main.o
                                                  build/obj/crt0.o
manage_eirq_interrupt                             build/obj/eirq.o
master_example_config                             build/obj/AEK_COM_ISOSPI1_lld.o
matherr                                           c:/autodevkitstudio-2.4.0/eclipse/plugins/com.st.tools.spc5.tools.gnu.gcc.ppcvle.win32_4.9.4.20200908161514/toolchain/bin/../lib/gcc/powerpc-eabivle/4.9.4/../../../../powerpc-eabivle/lib/e200z4\libm.a(lib_a-s_matherr.o)
                                                  c:/autodevkitstudio-2.4.0/eclipse/plugins/com.st.tools.spc5.tools.gnu.gcc.ppcvle.win32_4.9.4.20200908161514/toolchain/bin/../lib/gcc/powerpc-eabivle/4.9.4/../../../../powerpc-eabivle/lib/e200z4\libm.a(lib_a-w_log.o)
                                                  c:/autodevkitstudio-2.4.0/eclipse/plugins/com.st.tools.spc5.tools.gnu.gcc.ppcvle.win32_4.9.4.20200908161514/toolchain/bin/../lib/gcc/powerpc-eabivle/4.9.4/../../../../powerpc-eabivle/lib/e200z4\libm.a(lib_a-wf_exp.o)
memcpy                                            c:/autodevkitstudio-2.4.0/eclipse/plugins/com.st.tools.spc5.tools.gnu.gcc.ppcvle.win32_4.9.4.20200908161514/toolchain/bin/../lib/gcc/powerpc-eabivle/4.9.4/../../../../powerpc-eabivle/lib/e200z4\libc.a(lib_a-memcpy.o)
                                                  build/obj/AEK_POW_BMS63EN_Appl.o
                                                  build/obj/main.o
memset                                            c:/autodevkitstudio-2.4.0/eclipse/plugins/com.st.tools.spc5.tools.gnu.gcc.ppcvle.win32_4.9.4.20200908161514/toolchain/bin/../lib/gcc/powerpc-eabivle/4.9.4/../../../../powerpc-eabivle/lib/e200z4\libc.a(lib_a-memset.o)
                                                  build/obj/osal.o
nan                                               c:/autodevkitstudio-2.4.0/eclipse/plugins/com.st.tools.spc5.tools.gnu.gcc.ppcvle.win32_4.9.4.20200908161514/toolchain/bin/../lib/gcc/powerpc-eabivle/4.9.4/../../../../powerpc-eabivle/lib/e200z4\libm.a(lib_a-s_nan.o)
                                                  c:/autodevkitstudio-2.4.0/eclipse/plugins/com.st.tools.spc5.tools.gnu.gcc.ppcvle.win32_4.9.4.20200908161514/toolchain/bin/../lib/gcc/powerpc-eabivle/4.9.4/../../../../powerpc-eabivle/lib/e200z4\libm.a(lib_a-w_log.o)
osalEnterCritical                                 build/obj/osal.o
                                                  build/obj/AEK_POW_BMS63EN_lld.o
osalEnterCriticalFromISR                          build/obj/osal.o
osalExitCritical                                  build/obj/osal.o
                                                  build/obj/AEK_POW_BMS63EN_lld.o
osalExitCriticalFromISR                           build/obj/osal.o
osalInit                                          build/obj/osal.o
                                                  build/obj/components.o
osalSysTimeReset                                  build/obj/osal.o
osalSysTimeSetup                                  build/obj/osal.o
osalThreadDelayMicroseconds                       build/obj/osal.o
osalThreadDelayMilliseconds                       build/obj/osal.o
                                                  build/obj/AEK_POW_BMS63EN_diag.o
                                                  build/obj/AEK_POW_BMS63EN_id.o
osalThreadDelaySeconds                            build/obj/osal.o
osalThreadGetMicroseconds                         build/obj/osal.o
osalThreadGetMilliseconds                         build/obj/osal.o
osalThreadGetSeconds                              build/obj/osal.o
pal_init                                          build/obj/pal.o
                                                  build/obj/board.o
pit0_config                                       build/obj/pit_lld_cfg.o
                                                  build/obj/AEK_POW_BMS63EN_Appl.o
pit_lld_channel_get                               build/obj/pit_lld.o
pit_lld_channel_set_freq                          build/obj/pit_lld.o
pit_lld_channel_start                             build/obj/pit_lld.o
                                                  build/obj/AEK_POW_BMS63EN_Appl.o
                                                  build/obj/main.o
pit_lld_channel_stop                              build/obj/pit_lld.o
pit_lld_init                                      build/obj/pit_lld.o
                                                  build/obj/spc5_lld.o
pit_lld_lifetime_get                              build/obj/pit_lld.o
pit_lld_lifetime_start                            build/obj/pit_lld.o
pit_lld_lifetime_stop                             build/obj/pit_lld.o
pit_lld_start                                     build/obj/pit_lld.o
                                                  build/obj/AEK_POW_BMS63EN_Appl.o
pit_lld_stop                                      build/obj/pit_lld.o
rtConstP                                          build/obj/BMS_Controller_data.o
                                                  build/obj/BMS_Controller.o
runCore0                                          build/obj/core0.o
sbrk                                              build/obj/main.o
sd_lld_init                                       build/obj/serial_lld.o
                                                  build/obj/spc5_lld.o
sd_lld_read                                       build/obj/serial_lld.o
sd_lld_start                                      build/obj/serial_lld.o
                                                  build/obj/main.o
sd_lld_stop                                       build/obj/serial_lld.o
sd_lld_write                                      build/obj/serial_lld.o
send_cell_voltages_CAN                            build/obj/main.o
send_temp_data                                    build/obj/main.o
serial_config_BMS_serial                          build/obj/serial_lld_cfg.o
                                                  build/obj/main.o
slave_example_config                              build/obj/AEK_COM_ISOSPI1_lld.o
spc5LLDInit                                       build/obj/spc5_lld.o
                                                  build/obj/components.o
spc_clock_init                                    build/obj/clock.o
spi_config_spi_config_AEK_COM_ISOSPI1_dev0        build/obj/spi_lld_cfg.o
                                                  build/obj/AEK_POW_BMS63EN_cfg.o
                                                  build/obj/AEK_COM_ISOSPI1_cfg.o
spi_lld_exchange                                  build/obj/spi_lld.o
                                                  build/obj/AEK_POW_BMS63EN_lld.o
spi_lld_ignore                                    build/obj/spi_lld.o
spi_lld_init                                      build/obj/spi_lld.o
                                                  build/obj/spc5_lld.o
spi_lld_polled_exchange                           build/obj/spi_lld.o
spi_lld_receive                                   build/obj/spi_lld.o
                                                  build/obj/AEK_POW_BMS63EN_lld.o
spi_lld_select                                    build/obj/spi_lld.o
spi_lld_send                                      build/obj/spi_lld.o
spi_lld_start                                     build/obj/spi_lld.o
                                                  build/obj/AEK_POW_BMS63EN_lld.o
spi_lld_stop                                      build/obj/spi_lld.o
                                                  build/obj/AEK_POW_BMS63EN_lld.o
spi_lld_unselect                                  build/obj/spi_lld.o
swirqInit                                         build/obj/swirq.o
                                                  build/obj/components.o
swirq_clear                                       build/obj/swirq.o
swirq_disable                                     build/obj/swirq.o
swirq_enable                                      build/obj/swirq.o
swirq_init_prio                                   build/obj/swirq_cfg.o
                                                  build/obj/swirq.o
swirq_set                                         build/obj/swirq.o
sysTimeReset                                      build/obj/systimer.o
                                                  build/obj/osal.o
sysTimeSetup                                      build/obj/systimer.o
                                                  build/obj/osal.o
vector0                                           build/obj/vectors.o
vector1                                           build/obj/vectors.o
vector10                                          build/obj/vectors.o
vector100                                         build/obj/spc5_edma.o
                                                  build/obj/vectors.o
vector1000                                        build/obj/vectors.o
vector1001                                        build/obj/vectors.o
vector1002                                        build/obj/vectors.o
vector1003                                        build/obj/vectors.o
vector1004                                        build/obj/vectors.o
vector1005                                        build/obj/vectors.o
vector1006                                        build/obj/vectors.o
vector1007                                        build/obj/vectors.o
vector1008                                        build/obj/vectors.o
vector1009                                        build/obj/vectors.o
vector101                                         build/obj/spc5_edma.o
                                                  build/obj/vectors.o
vector1010                                        build/obj/vectors.o
vector1011                                        build/obj/vectors.o
vector1012                                        build/obj/vectors.o
vector1013                                        build/obj/vectors.o
vector1014                                        build/obj/vectors.o
vector1015                                        build/obj/vectors.o
vector1016                                        build/obj/vectors.o
vector1017                                        build/obj/vectors.o
vector1018                                        build/obj/vectors.o
vector1019                                        build/obj/vectors.o
vector102                                         build/obj/spc5_edma.o
                                                  build/obj/vectors.o
vector1020                                        build/obj/vectors.o
vector1021                                        build/obj/vectors.o
vector1022                                        build/obj/vectors.o
vector1023                                        build/obj/vectors.o
vector103                                         build/obj/spc5_edma.o
                                                  build/obj/vectors.o
vector104                                         build/obj/spc5_edma.o
                                                  build/obj/vectors.o
vector105                                         build/obj/spc5_edma.o
                                                  build/obj/vectors.o
vector106                                         build/obj/spc5_edma.o
                                                  build/obj/vectors.o
vector107                                         build/obj/spc5_edma.o
                                                  build/obj/vectors.o
vector108                                         build/obj/spc5_edma.o
                                                  build/obj/vectors.o
vector109                                         build/obj/spc5_edma.o
                                                  build/obj/vectors.o
vector11                                          build/obj/vectors.o
vector110                                         build/obj/spc5_edma.o
                                                  build/obj/vectors.o
vector111                                         build/obj/spc5_edma.o
                                                  build/obj/vectors.o
vector112                                         build/obj/spc5_edma.o
                                                  build/obj/vectors.o
vector113                                         build/obj/spc5_edma.o
                                                  build/obj/vectors.o
vector114                                         build/obj/spc5_edma.o
                                                  build/obj/vectors.o
vector115                                         build/obj/spc5_edma.o
                                                  build/obj/vectors.o
vector116                                         build/obj/spc5_edma.o
                                                  build/obj/vectors.o
vector117                                         build/obj/vectors.o
vector118                                         build/obj/vectors.o
vector119                                         build/obj/vectors.o
vector12                                          build/obj/vectors.o
vector120                                         build/obj/vectors.o
vector121                                         build/obj/vectors.o
vector122                                         build/obj/vectors.o
vector123                                         build/obj/vectors.o
vector124                                         build/obj/vectors.o
vector125                                         build/obj/vectors.o
vector126                                         build/obj/vectors.o
vector127                                         build/obj/vectors.o
vector128                                         build/obj/vectors.o
vector129                                         build/obj/vectors.o
vector13                                          build/obj/vectors.o
vector130                                         build/obj/vectors.o
vector131                                         build/obj/vectors.o
vector132                                         build/obj/vectors.o
vector133                                         build/obj/vectors.o
vector134                                         build/obj/vectors.o
vector135                                         build/obj/vectors.o
vector136                                         build/obj/vectors.o
vector137                                         build/obj/vectors.o
vector138                                         build/obj/vectors.o
vector139                                         build/obj/vectors.o
vector14                                          build/obj/vectors.o
vector140                                         build/obj/vectors.o
vector141                                         build/obj/vectors.o
vector142                                         build/obj/vectors.o
vector143                                         build/obj/vectors.o
vector144                                         build/obj/vectors.o
vector145                                         build/obj/vectors.o
vector146                                         build/obj/vectors.o
vector147                                         build/obj/vectors.o
vector148                                         build/obj/vectors.o
vector149                                         build/obj/vectors.o
vector15                                          build/obj/vectors.o
vector150                                         build/obj/vectors.o
vector151                                         build/obj/vectors.o
vector152                                         build/obj/vectors.o
vector153                                         build/obj/vectors.o
vector154                                         build/obj/vectors.o
vector155                                         build/obj/vectors.o
vector156                                         build/obj/vectors.o
vector157                                         build/obj/vectors.o
vector158                                         build/obj/vectors.o
vector159                                         build/obj/vectors.o
vector16                                          build/obj/vectors.o
vector160                                         build/obj/vectors.o
vector161                                         build/obj/vectors.o
vector162                                         build/obj/vectors.o
vector163                                         build/obj/vectors.o
vector164                                         build/obj/vectors.o
vector165                                         build/obj/vectors.o
vector166                                         build/obj/vectors.o
vector167                                         build/obj/vectors.o
vector168                                         build/obj/vectors.o
vector169                                         build/obj/vectors.o
vector17                                          build/obj/vectors.o
vector170                                         build/obj/vectors.o
vector171                                         build/obj/vectors.o
vector172                                         build/obj/vectors.o
vector173                                         build/obj/vectors.o
vector174                                         build/obj/vectors.o
vector175                                         build/obj/vectors.o
vector176                                         build/obj/vectors.o
vector177                                         build/obj/vectors.o
vector178                                         build/obj/vectors.o
vector179                                         build/obj/vectors.o
vector18                                          build/obj/vectors.o
vector180                                         build/obj/vectors.o
vector181                                         build/obj/vectors.o
vector182                                         build/obj/vectors.o
vector183                                         build/obj/vectors.o
vector184                                         build/obj/vectors.o
vector185                                         build/obj/vectors.o
vector186                                         build/obj/vectors.o
vector187                                         build/obj/vectors.o
vector188                                         build/obj/vectors.o
vector189                                         build/obj/vectors.o
vector19                                          build/obj/vectors.o
vector190                                         build/obj/vectors.o
vector191                                         build/obj/vectors.o
vector192                                         build/obj/vectors.o
vector193                                         build/obj/vectors.o
vector194                                         build/obj/vectors.o
vector195                                         build/obj/vectors.o
vector196                                         build/obj/vectors.o
vector197                                         build/obj/vectors.o
vector198                                         build/obj/vectors.o
vector199                                         build/obj/vectors.o
vector2                                           build/obj/vectors.o
vector20                                          build/obj/vectors.o
vector200                                         build/obj/vectors.o
vector201                                         build/obj/vectors.o
vector202                                         build/obj/vectors.o
vector203                                         build/obj/vectors.o
vector204                                         build/obj/vectors.o
vector205                                         build/obj/vectors.o
vector206                                         build/obj/vectors.o
vector207                                         build/obj/vectors.o
vector208                                         build/obj/vectors.o
vector209                                         build/obj/vectors.o
vector21                                          build/obj/vectors.o
vector210                                         build/obj/vectors.o
vector211                                         build/obj/vectors.o
vector212                                         build/obj/vectors.o
vector213                                         build/obj/vectors.o
vector214                                         build/obj/vectors.o
vector215                                         build/obj/vectors.o
vector216                                         build/obj/vectors.o
vector217                                         build/obj/vectors.o
vector218                                         build/obj/vectors.o
vector219                                         build/obj/vectors.o
vector22                                          build/obj/vectors.o
vector220                                         build/obj/vectors.o
vector221                                         build/obj/vectors.o
vector222                                         build/obj/vectors.o
vector223                                         build/obj/vectors.o
vector224                                         build/obj/vectors.o
vector225                                         build/obj/vectors.o
vector226                                         build/obj/osal.o
                                                  build/obj/vectors.o
vector227                                         build/obj/vectors.o
vector228                                         build/obj/vectors.o
vector229                                         build/obj/pit_lld.o
                                                  build/obj/vectors.o
vector23                                          build/obj/vectors.o
vector230                                         build/obj/pit_lld.o
                                                  build/obj/vectors.o
vector231                                         build/obj/pit_lld.o
                                                  build/obj/vectors.o
vector232                                         build/obj/vectors.o
vector233                                         build/obj/vectors.o
vector234                                         build/obj/vectors.o
vector235                                         build/obj/vectors.o
vector236                                         build/obj/vectors.o
vector237                                         build/obj/vectors.o
vector238                                         build/obj/vectors.o
vector239                                         build/obj/vectors.o
vector24                                          build/obj/vectors.o
vector240                                         build/obj/vectors.o
vector241                                         build/obj/vectors.o
vector242                                         build/obj/vectors.o
vector243                                         build/obj/eirq.o
                                                  build/obj/vectors.o
vector244                                         build/obj/eirq.o
                                                  build/obj/vectors.o
vector245                                         build/obj/eirq.o
                                                  build/obj/vectors.o
vector246                                         build/obj/eirq.o
                                                  build/obj/vectors.o
vector247                                         build/obj/wkpu_lld.o
                                                  build/obj/vectors.o
vector248                                         build/obj/wkpu_lld.o
                                                  build/obj/vectors.o
vector249                                         build/obj/wkpu_lld.o
                                                  build/obj/vectors.o
vector25                                          build/obj/vectors.o
vector250                                         build/obj/wkpu_lld.o
                                                  build/obj/vectors.o
vector251                                         build/obj/vectors.o
vector252                                         build/obj/vectors.o
vector253                                         build/obj/vectors.o
vector254                                         build/obj/vectors.o
vector255                                         build/obj/vectors.o
vector256                                         build/obj/vectors.o
vector257                                         build/obj/vectors.o
vector258                                         build/obj/vectors.o
vector259                                         build/obj/vectors.o
vector26                                          build/obj/vectors.o
vector260                                         build/obj/spi_lld.o
                                                  build/obj/vectors.o
vector261                                         build/obj/spi_lld.o
                                                  build/obj/vectors.o
vector262                                         build/obj/vectors.o
vector263                                         build/obj/spi_lld.o
                                                  build/obj/vectors.o
vector264                                         build/obj/vectors.o
vector265                                         build/obj/vectors.o
vector266                                         build/obj/vectors.o
vector267                                         build/obj/vectors.o
vector268                                         build/obj/vectors.o
vector269                                         build/obj/vectors.o
vector27                                          build/obj/vectors.o
vector270                                         build/obj/vectors.o
vector271                                         build/obj/vectors.o
vector272                                         build/obj/vectors.o
vector273                                         build/obj/vectors.o
vector274                                         build/obj/vectors.o
vector275                                         build/obj/vectors.o
vector276                                         build/obj/vectors.o
vector277                                         build/obj/vectors.o
vector278                                         build/obj/vectors.o
vector279                                         build/obj/vectors.o
vector28                                          build/obj/vectors.o
vector280                                         build/obj/vectors.o
vector281                                         build/obj/vectors.o
vector282                                         build/obj/vectors.o
vector283                                         build/obj/vectors.o
vector284                                         build/obj/vectors.o
vector285                                         build/obj/vectors.o
vector286                                         build/obj/vectors.o
vector287                                         build/obj/vectors.o
vector288                                         build/obj/vectors.o
vector289                                         build/obj/vectors.o
vector29                                          build/obj/vectors.o
vector290                                         build/obj/vectors.o
vector291                                         build/obj/vectors.o
vector292                                         build/obj/vectors.o
vector293                                         build/obj/vectors.o
vector294                                         build/obj/vectors.o
vector295                                         build/obj/vectors.o
vector296                                         build/obj/vectors.o
vector297                                         build/obj/vectors.o
vector298                                         build/obj/vectors.o
vector299                                         build/obj/vectors.o
vector3                                           build/obj/vectors.o
vector30                                          build/obj/vectors.o
vector300                                         build/obj/vectors.o
vector301                                         build/obj/vectors.o
vector302                                         build/obj/vectors.o
vector303                                         build/obj/vectors.o
vector304                                         build/obj/vectors.o
vector305                                         build/obj/vectors.o
vector306                                         build/obj/vectors.o
vector307                                         build/obj/vectors.o
vector308                                         build/obj/vectors.o
vector309                                         build/obj/vectors.o
vector31                                          build/obj/vectors.o
vector310                                         build/obj/vectors.o
vector311                                         build/obj/vectors.o
vector312                                         build/obj/vectors.o
vector313                                         build/obj/vectors.o
vector314                                         build/obj/vectors.o
vector315                                         build/obj/vectors.o
vector316                                         build/obj/vectors.o
vector317                                         build/obj/vectors.o
vector318                                         build/obj/vectors.o
vector319                                         build/obj/vectors.o
vector32                                          build/obj/vectors.o
vector320                                         build/obj/vectors.o
vector321                                         build/obj/vectors.o
vector322                                         build/obj/vectors.o
vector323                                         build/obj/vectors.o
vector324                                         build/obj/vectors.o
vector325                                         build/obj/vectors.o
vector326                                         build/obj/vectors.o
vector327                                         build/obj/vectors.o
vector328                                         build/obj/vectors.o
vector329                                         build/obj/vectors.o
vector33                                          build/obj/vectors.o
vector330                                         build/obj/vectors.o
vector331                                         build/obj/vectors.o
vector332                                         build/obj/vectors.o
vector333                                         build/obj/vectors.o
vector334                                         build/obj/vectors.o
vector335                                         build/obj/vectors.o
vector336                                         build/obj/vectors.o
vector337                                         build/obj/vectors.o
vector338                                         build/obj/vectors.o
vector339                                         build/obj/vectors.o
vector34                                          build/obj/vectors.o
vector340                                         build/obj/vectors.o
vector341                                         build/obj/vectors.o
vector342                                         build/obj/vectors.o
vector343                                         build/obj/vectors.o
vector344                                         build/obj/vectors.o
vector345                                         build/obj/vectors.o
vector346                                         build/obj/vectors.o
vector347                                         build/obj/vectors.o
vector348                                         build/obj/vectors.o
vector349                                         build/obj/vectors.o
vector35                                          build/obj/vectors.o
vector350                                         build/obj/vectors.o
vector351                                         build/obj/vectors.o
vector352                                         build/obj/vectors.o
vector353                                         build/obj/vectors.o
vector354                                         build/obj/vectors.o
vector355                                         build/obj/vectors.o
vector356                                         build/obj/vectors.o
vector357                                         build/obj/vectors.o
vector358                                         build/obj/vectors.o
vector359                                         build/obj/vectors.o
vector36                                          build/obj/vectors.o
vector360                                         build/obj/vectors.o
vector361                                         build/obj/vectors.o
vector362                                         build/obj/vectors.o
vector363                                         build/obj/vectors.o
vector364                                         build/obj/vectors.o
vector365                                         build/obj/vectors.o
vector366                                         build/obj/vectors.o
vector367                                         build/obj/vectors.o
vector368                                         build/obj/vectors.o
vector369                                         build/obj/vectors.o
vector37                                          build/obj/vectors.o
vector370                                         build/obj/vectors.o
vector371                                         build/obj/vectors.o
vector372                                         build/obj/vectors.o
vector373                                         build/obj/vectors.o
vector374                                         build/obj/vectors.o
vector375                                         build/obj/vectors.o
vector376                                         build/obj/vectors.o
vector377                                         build/obj/vectors.o
vector378                                         build/obj/vectors.o
vector379                                         build/obj/vectors.o
vector38                                          build/obj/vectors.o
vector380                                         build/obj/vectors.o
vector381                                         build/obj/vectors.o
vector382                                         build/obj/vectors.o
vector383                                         build/obj/vectors.o
vector384                                         build/obj/vectors.o
vector385                                         build/obj/vectors.o
vector386                                         build/obj/vectors.o
vector387                                         build/obj/vectors.o
vector388                                         build/obj/vectors.o
vector389                                         build/obj/vectors.o
vector39                                          build/obj/vectors.o
vector390                                         build/obj/vectors.o
vector391                                         build/obj/vectors.o
vector392                                         build/obj/spc5_linflex.o
                                                  build/obj/vectors.o
vector393                                         build/obj/spc5_linflex.o
                                                  build/obj/vectors.o
vector394                                         build/obj/spc5_linflex.o
                                                  build/obj/vectors.o
vector395                                         build/obj/vectors.o
vector396                                         build/obj/vectors.o
vector397                                         build/obj/vectors.o
vector398                                         build/obj/vectors.o
vector399                                         build/obj/vectors.o
vector4                                           build/obj/vectors.o
vector40                                          build/obj/vectors.o
vector400                                         build/obj/vectors.o
vector401                                         build/obj/vectors.o
vector402                                         build/obj/vectors.o
vector403                                         build/obj/vectors.o
vector404                                         build/obj/vectors.o
vector405                                         build/obj/vectors.o
vector406                                         build/obj/vectors.o
vector407                                         build/obj/vectors.o
vector408                                         build/obj/vectors.o
vector409                                         build/obj/vectors.o
vector41                                          build/obj/vectors.o
vector410                                         build/obj/vectors.o
vector411                                         build/obj/vectors.o
vector412                                         build/obj/vectors.o
vector413                                         build/obj/vectors.o
vector414                                         build/obj/vectors.o
vector415                                         build/obj/vectors.o
vector416                                         build/obj/vectors.o
vector417                                         build/obj/vectors.o
vector418                                         build/obj/vectors.o
vector419                                         build/obj/vectors.o
vector42                                          build/obj/vectors.o
vector420                                         build/obj/vectors.o
vector421                                         build/obj/vectors.o
vector422                                         build/obj/vectors.o
vector423                                         build/obj/vectors.o
vector424                                         build/obj/vectors.o
vector425                                         build/obj/vectors.o
vector426                                         build/obj/vectors.o
vector427                                         build/obj/vectors.o
vector428                                         build/obj/vectors.o
vector429                                         build/obj/vectors.o
vector43                                          build/obj/vectors.o
vector430                                         build/obj/vectors.o
vector431                                         build/obj/vectors.o
vector432                                         build/obj/vectors.o
vector433                                         build/obj/vectors.o
vector434                                         build/obj/vectors.o
vector435                                         build/obj/vectors.o
vector436                                         build/obj/vectors.o
vector437                                         build/obj/vectors.o
vector438                                         build/obj/vectors.o
vector439                                         build/obj/vectors.o
vector44                                          build/obj/vectors.o
vector440                                         build/obj/vectors.o
vector441                                         build/obj/vectors.o
vector442                                         build/obj/vectors.o
vector443                                         build/obj/vectors.o
vector444                                         build/obj/vectors.o
vector445                                         build/obj/vectors.o
vector446                                         build/obj/vectors.o
vector447                                         build/obj/vectors.o
vector448                                         build/obj/vectors.o
vector449                                         build/obj/vectors.o
vector45                                          build/obj/vectors.o
vector450                                         build/obj/vectors.o
vector451                                         build/obj/vectors.o
vector452                                         build/obj/vectors.o
vector453                                         build/obj/vectors.o
vector454                                         build/obj/vectors.o
vector455                                         build/obj/vectors.o
vector456                                         build/obj/vectors.o
vector457                                         build/obj/vectors.o
vector458                                         build/obj/vectors.o
vector459                                         build/obj/vectors.o
vector46                                          build/obj/vectors.o
vector460                                         build/obj/vectors.o
vector461                                         build/obj/vectors.o
vector462                                         build/obj/vectors.o
vector463                                         build/obj/vectors.o
vector464                                         build/obj/vectors.o
vector465                                         build/obj/vectors.o
vector466                                         build/obj/vectors.o
vector467                                         build/obj/vectors.o
vector468                                         build/obj/vectors.o
vector469                                         build/obj/vectors.o
vector47                                          build/obj/vectors.o
vector470                                         build/obj/vectors.o
vector471                                         build/obj/vectors.o
vector472                                         build/obj/vectors.o
vector473                                         build/obj/vectors.o
vector474                                         build/obj/vectors.o
vector475                                         build/obj/vectors.o
vector476                                         build/obj/vectors.o
vector477                                         build/obj/vectors.o
vector478                                         build/obj/vectors.o
vector479                                         build/obj/vectors.o
vector48                                          build/obj/vectors.o
vector480                                         build/obj/vectors.o
vector481                                         build/obj/vectors.o
vector482                                         build/obj/vectors.o
vector483                                         build/obj/vectors.o
vector484                                         build/obj/vectors.o
vector485                                         build/obj/vectors.o
vector486                                         build/obj/vectors.o
vector487                                         build/obj/vectors.o
vector488                                         build/obj/vectors.o
vector489                                         build/obj/vectors.o
vector49                                          build/obj/vectors.o
vector490                                         build/obj/vectors.o
vector491                                         build/obj/vectors.o
vector492                                         build/obj/vectors.o
vector493                                         build/obj/vectors.o
vector494                                         build/obj/vectors.o
vector495                                         build/obj/vectors.o
vector496                                         build/obj/vectors.o
vector497                                         build/obj/vectors.o
vector498                                         build/obj/vectors.o
vector499                                         build/obj/vectors.o
vector5                                           build/obj/vectors.o
vector50                                          build/obj/vectors.o
vector500                                         build/obj/vectors.o
vector501                                         build/obj/vectors.o
vector502                                         build/obj/vectors.o
vector503                                         build/obj/vectors.o
vector504                                         build/obj/vectors.o
vector505                                         build/obj/vectors.o
vector506                                         build/obj/vectors.o
vector507                                         build/obj/vectors.o
vector508                                         build/obj/vectors.o
vector509                                         build/obj/vectors.o
vector51                                          build/obj/vectors.o
vector510                                         build/obj/vectors.o
vector511                                         build/obj/vectors.o
vector512                                         build/obj/vectors.o
vector513                                         build/obj/vectors.o
vector514                                         build/obj/vectors.o
vector515                                         build/obj/vectors.o
vector516                                         build/obj/vectors.o
vector517                                         build/obj/vectors.o
vector518                                         build/obj/vectors.o
vector519                                         build/obj/vectors.o
vector52                                          build/obj/spc5_edma.o
                                                  build/obj/vectors.o
vector520                                         build/obj/vectors.o
vector521                                         build/obj/vectors.o
vector522                                         build/obj/vectors.o
vector523                                         build/obj/vectors.o
vector524                                         build/obj/vectors.o
vector525                                         build/obj/vectors.o
vector526                                         build/obj/vectors.o
vector527                                         build/obj/vectors.o
vector528                                         build/obj/vectors.o
vector529                                         build/obj/vectors.o
vector53                                          build/obj/spc5_edma.o
                                                  build/obj/vectors.o
vector530                                         build/obj/vectors.o
vector531                                         build/obj/vectors.o
vector532                                         build/obj/vectors.o
vector533                                         build/obj/vectors.o
vector534                                         build/obj/vectors.o
vector535                                         build/obj/vectors.o
vector536                                         build/obj/vectors.o
vector537                                         build/obj/vectors.o
vector538                                         build/obj/vectors.o
vector539                                         build/obj/vectors.o
vector54                                          build/obj/spc5_edma.o
                                                  build/obj/vectors.o
vector540                                         build/obj/vectors.o
vector541                                         build/obj/vectors.o
vector542                                         build/obj/vectors.o
vector543                                         build/obj/vectors.o
vector544                                         build/obj/vectors.o
vector545                                         build/obj/vectors.o
vector546                                         build/obj/vectors.o
vector547                                         build/obj/vectors.o
vector548                                         build/obj/vectors.o
vector549                                         build/obj/vectors.o
vector55                                          build/obj/spc5_edma.o
                                                  build/obj/vectors.o
vector550                                         build/obj/vectors.o
vector551                                         build/obj/vectors.o
vector552                                         build/obj/vectors.o
vector553                                         build/obj/vectors.o
vector554                                         build/obj/vectors.o
vector555                                         build/obj/vectors.o
vector556                                         build/obj/vectors.o
vector557                                         build/obj/vectors.o
vector558                                         build/obj/vectors.o
vector559                                         build/obj/vectors.o
vector56                                          build/obj/spc5_edma.o
                                                  build/obj/vectors.o
vector560                                         build/obj/vectors.o
vector561                                         build/obj/vectors.o
vector562                                         build/obj/vectors.o
vector563                                         build/obj/vectors.o
vector564                                         build/obj/vectors.o
vector565                                         build/obj/vectors.o
vector566                                         build/obj/vectors.o
vector567                                         build/obj/vectors.o
vector568                                         build/obj/vectors.o
vector569                                         build/obj/vectors.o
vector57                                          build/obj/spc5_edma.o
                                                  build/obj/vectors.o
vector570                                         build/obj/vectors.o
vector571                                         build/obj/vectors.o
vector572                                         build/obj/vectors.o
vector573                                         build/obj/vectors.o
vector574                                         build/obj/vectors.o
vector575                                         build/obj/vectors.o
vector576                                         build/obj/vectors.o
vector577                                         build/obj/vectors.o
vector578                                         build/obj/vectors.o
vector579                                         build/obj/vectors.o
vector58                                          build/obj/spc5_edma.o
                                                  build/obj/vectors.o
vector580                                         build/obj/vectors.o
vector581                                         build/obj/vectors.o
vector582                                         build/obj/vectors.o
vector583                                         build/obj/vectors.o
vector584                                         build/obj/vectors.o
vector585                                         build/obj/vectors.o
vector586                                         build/obj/vectors.o
vector587                                         build/obj/vectors.o
vector588                                         build/obj/vectors.o
vector589                                         build/obj/vectors.o
vector59                                          build/obj/spc5_edma.o
                                                  build/obj/vectors.o
vector590                                         build/obj/vectors.o
vector591                                         build/obj/vectors.o
vector592                                         build/obj/vectors.o
vector593                                         build/obj/vectors.o
vector594                                         build/obj/vectors.o
vector595                                         build/obj/vectors.o
vector596                                         build/obj/vectors.o
vector597                                         build/obj/vectors.o
vector598                                         build/obj/vectors.o
vector599                                         build/obj/vectors.o
vector6                                           build/obj/vectors.o
vector60                                          build/obj/spc5_edma.o
                                                  build/obj/vectors.o
vector600                                         build/obj/vectors.o
vector601                                         build/obj/vectors.o
vector602                                         build/obj/vectors.o
vector603                                         build/obj/vectors.o
vector604                                         build/obj/vectors.o
vector605                                         build/obj/vectors.o
vector606                                         build/obj/vectors.o
vector607                                         build/obj/vectors.o
vector608                                         build/obj/vectors.o
vector609                                         build/obj/vectors.o
vector61                                          build/obj/spc5_edma.o
                                                  build/obj/vectors.o
vector610                                         build/obj/vectors.o
vector611                                         build/obj/vectors.o
vector612                                         build/obj/vectors.o
vector613                                         build/obj/vectors.o
vector614                                         build/obj/vectors.o
vector615                                         build/obj/vectors.o
vector616                                         build/obj/vectors.o
vector617                                         build/obj/vectors.o
vector618                                         build/obj/vectors.o
vector619                                         build/obj/vectors.o
vector62                                          build/obj/spc5_edma.o
                                                  build/obj/vectors.o
vector620                                         build/obj/vectors.o
vector621                                         build/obj/vectors.o
vector622                                         build/obj/vectors.o
vector623                                         build/obj/vectors.o
vector624                                         build/obj/vectors.o
vector625                                         build/obj/vectors.o
vector626                                         build/obj/vectors.o
vector627                                         build/obj/vectors.o
vector628                                         build/obj/vectors.o
vector629                                         build/obj/vectors.o
vector63                                          build/obj/spc5_edma.o
                                                  build/obj/vectors.o
vector630                                         build/obj/vectors.o
vector631                                         build/obj/vectors.o
vector632                                         build/obj/vectors.o
vector633                                         build/obj/vectors.o
vector634                                         build/obj/vectors.o
vector635                                         build/obj/vectors.o
vector636                                         build/obj/vectors.o
vector637                                         build/obj/vectors.o
vector638                                         build/obj/vectors.o
vector639                                         build/obj/vectors.o
vector64                                          build/obj/spc5_edma.o
                                                  build/obj/vectors.o
vector640                                         build/obj/vectors.o
vector641                                         build/obj/vectors.o
vector642                                         build/obj/vectors.o
vector643                                         build/obj/vectors.o
vector644                                         build/obj/vectors.o
vector645                                         build/obj/vectors.o
vector646                                         build/obj/vectors.o
vector647                                         build/obj/vectors.o
vector648                                         build/obj/vectors.o
vector649                                         build/obj/vectors.o
vector65                                          build/obj/spc5_edma.o
                                                  build/obj/vectors.o
vector650                                         build/obj/vectors.o
vector651                                         build/obj/vectors.o
vector652                                         build/obj/vectors.o
vector653                                         build/obj/vectors.o
vector654                                         build/obj/vectors.o
vector655                                         build/obj/vectors.o
vector656                                         build/obj/vectors.o
vector657                                         build/obj/vectors.o
vector658                                         build/obj/vectors.o
vector659                                         build/obj/vectors.o
vector66                                          build/obj/spc5_edma.o
                                                  build/obj/vectors.o
vector660                                         build/obj/vectors.o
vector661                                         build/obj/vectors.o
vector662                                         build/obj/vectors.o
vector663                                         build/obj/vectors.o
vector664                                         build/obj/vectors.o
vector665                                         build/obj/vectors.o
vector666                                         build/obj/vectors.o
vector667                                         build/obj/vectors.o
vector668                                         build/obj/vectors.o
vector669                                         build/obj/vectors.o
vector67                                          build/obj/spc5_edma.o
                                                  build/obj/vectors.o
vector670                                         build/obj/vectors.o
vector671                                         build/obj/vectors.o
vector672                                         build/obj/vectors.o
vector673                                         build/obj/vectors.o
vector674                                         build/obj/vectors.o
vector675                                         build/obj/vectors.o
vector676                                         build/obj/vectors.o
vector677                                         build/obj/vectors.o
vector678                                         build/obj/vectors.o
vector679                                         build/obj/vectors.o
vector68                                          build/obj/spc5_edma.o
                                                  build/obj/vectors.o
vector680                                         build/obj/vectors.o
vector681                                         build/obj/vectors.o
vector682                                         build/obj/vectors.o
vector683                                         build/obj/vectors.o
vector684                                         build/obj/vectors.o
vector685                                         build/obj/vectors.o
vector686                                         build/obj/vectors.o
vector687                                         build/obj/vectors.o
vector688                                         build/obj/vectors.o
vector689                                         build/obj/vectors.o
vector69                                          build/obj/spc5_edma.o
                                                  build/obj/vectors.o
vector690                                         build/obj/vectors.o
vector691                                         build/obj/vectors.o
vector692                                         build/obj/vectors.o
vector693                                         build/obj/vectors.o
vector694                                         build/obj/can_lld.o
                                                  build/obj/vectors.o
vector695                                         build/obj/can_lld.o
                                                  build/obj/vectors.o
vector696                                         build/obj/vectors.o
vector697                                         build/obj/vectors.o
vector698                                         build/obj/vectors.o
vector699                                         build/obj/vectors.o
vector7                                           build/obj/vectors.o
vector70                                          build/obj/spc5_edma.o
                                                  build/obj/vectors.o
vector700                                         build/obj/vectors.o
vector701                                         build/obj/vectors.o
vector702                                         build/obj/vectors.o
vector703                                         build/obj/vectors.o
vector704                                         build/obj/vectors.o
vector705                                         build/obj/vectors.o
vector706                                         build/obj/vectors.o
vector707                                         build/obj/vectors.o
vector708                                         build/obj/vectors.o
vector709                                         build/obj/vectors.o
vector71                                          build/obj/spc5_edma.o
                                                  build/obj/vectors.o
vector710                                         build/obj/vectors.o
vector711                                         build/obj/vectors.o
vector712                                         build/obj/vectors.o
vector713                                         build/obj/vectors.o
vector714                                         build/obj/vectors.o
vector715                                         build/obj/vectors.o
vector716                                         build/obj/vectors.o
vector717                                         build/obj/vectors.o
vector718                                         build/obj/vectors.o
vector719                                         build/obj/vectors.o
vector72                                          build/obj/spc5_edma.o
                                                  build/obj/vectors.o
vector720                                         build/obj/vectors.o
vector721                                         build/obj/vectors.o
vector722                                         build/obj/vectors.o
vector723                                         build/obj/vectors.o
vector724                                         build/obj/vectors.o
vector725                                         build/obj/vectors.o
vector726                                         build/obj/vectors.o
vector727                                         build/obj/vectors.o
vector728                                         build/obj/vectors.o
vector729                                         build/obj/vectors.o
vector73                                          build/obj/spc5_edma.o
                                                  build/obj/vectors.o
vector730                                         build/obj/vectors.o
vector731                                         build/obj/vectors.o
vector732                                         build/obj/vectors.o
vector733                                         build/obj/vectors.o
vector734                                         build/obj/vectors.o
vector735                                         build/obj/vectors.o
vector736                                         build/obj/vectors.o
vector737                                         build/obj/vectors.o
vector738                                         build/obj/vectors.o
vector739                                         build/obj/vectors.o
vector74                                          build/obj/spc5_edma.o
                                                  build/obj/vectors.o
vector740                                         build/obj/vectors.o
vector741                                         build/obj/vectors.o
vector742                                         build/obj/vectors.o
vector743                                         build/obj/vectors.o
vector744                                         build/obj/vectors.o
vector745                                         build/obj/vectors.o
vector746                                         build/obj/vectors.o
vector747                                         build/obj/vectors.o
vector748                                         build/obj/vectors.o
vector749                                         build/obj/vectors.o
vector75                                          build/obj/spc5_edma.o
                                                  build/obj/vectors.o
vector750                                         build/obj/vectors.o
vector751                                         build/obj/vectors.o
vector752                                         build/obj/vectors.o
vector753                                         build/obj/vectors.o
vector754                                         build/obj/vectors.o
vector755                                         build/obj/vectors.o
vector756                                         build/obj/vectors.o
vector757                                         build/obj/vectors.o
vector758                                         build/obj/vectors.o
vector759                                         build/obj/vectors.o
vector76                                          build/obj/spc5_edma.o
                                                  build/obj/vectors.o
vector760                                         build/obj/vectors.o
vector761                                         build/obj/vectors.o
vector762                                         build/obj/vectors.o
vector763                                         build/obj/vectors.o
vector764                                         build/obj/vectors.o
vector765                                         build/obj/vectors.o
vector766                                         build/obj/vectors.o
vector767                                         build/obj/vectors.o
vector768                                         build/obj/vectors.o
vector769                                         build/obj/vectors.o
vector77                                          build/obj/spc5_edma.o
                                                  build/obj/vectors.o
vector770                                         build/obj/vectors.o
vector771                                         build/obj/vectors.o
vector772                                         build/obj/vectors.o
vector773                                         build/obj/vectors.o
vector774                                         build/obj/vectors.o
vector775                                         build/obj/vectors.o
vector776                                         build/obj/vectors.o
vector777                                         build/obj/vectors.o
vector778                                         build/obj/vectors.o
vector779                                         build/obj/vectors.o
vector78                                          build/obj/spc5_edma.o
                                                  build/obj/vectors.o
vector780                                         build/obj/vectors.o
vector781                                         build/obj/vectors.o
vector782                                         build/obj/vectors.o
vector783                                         build/obj/vectors.o
vector784                                         build/obj/vectors.o
vector785                                         build/obj/vectors.o
vector786                                         build/obj/vectors.o
vector787                                         build/obj/vectors.o
vector788                                         build/obj/vectors.o
vector789                                         build/obj/vectors.o
vector79                                          build/obj/spc5_edma.o
                                                  build/obj/vectors.o
vector790                                         build/obj/vectors.o
vector791                                         build/obj/vectors.o
vector792                                         build/obj/vectors.o
vector793                                         build/obj/vectors.o
vector794                                         build/obj/vectors.o
vector795                                         build/obj/vectors.o
vector796                                         build/obj/vectors.o
vector797                                         build/obj/vectors.o
vector798                                         build/obj/vectors.o
vector799                                         build/obj/vectors.o
vector8                                           build/obj/vectors.o
vector80                                          build/obj/spc5_edma.o
                                                  build/obj/vectors.o
vector800                                         build/obj/vectors.o
vector801                                         build/obj/vectors.o
vector802                                         build/obj/vectors.o
vector803                                         build/obj/vectors.o
vector804                                         build/obj/vectors.o
vector805                                         build/obj/vectors.o
vector806                                         build/obj/vectors.o
vector807                                         build/obj/vectors.o
vector808                                         build/obj/vectors.o
vector809                                         build/obj/vectors.o
vector81                                          build/obj/spc5_edma.o
                                                  build/obj/vectors.o
vector810                                         build/obj/vectors.o
vector811                                         build/obj/vectors.o
vector812                                         build/obj/vectors.o
vector813                                         build/obj/vectors.o
vector814                                         build/obj/vectors.o
vector815                                         build/obj/vectors.o
vector816                                         build/obj/vectors.o
vector817                                         build/obj/vectors.o
vector818                                         build/obj/vectors.o
vector819                                         build/obj/vectors.o
vector82                                          build/obj/spc5_edma.o
                                                  build/obj/vectors.o
vector820                                         build/obj/vectors.o
vector821                                         build/obj/vectors.o
vector822                                         build/obj/vectors.o
vector823                                         build/obj/vectors.o
vector824                                         build/obj/vectors.o
vector825                                         build/obj/vectors.o
vector826                                         build/obj/vectors.o
vector827                                         build/obj/vectors.o
vector828                                         build/obj/vectors.o
vector829                                         build/obj/vectors.o
vector83                                          build/obj/spc5_edma.o
                                                  build/obj/vectors.o
vector830                                         build/obj/vectors.o
vector831                                         build/obj/vectors.o
vector832                                         build/obj/vectors.o
vector833                                         build/obj/vectors.o
vector834                                         build/obj/vectors.o
vector835                                         build/obj/vectors.o
vector836                                         build/obj/vectors.o
vector837                                         build/obj/vectors.o
vector838                                         build/obj/vectors.o
vector839                                         build/obj/vectors.o
vector84                                          build/obj/spc5_edma.o
                                                  build/obj/vectors.o
vector840                                         build/obj/vectors.o
vector841                                         build/obj/vectors.o
vector842                                         build/obj/vectors.o
vector843                                         build/obj/vectors.o
vector844                                         build/obj/vectors.o
vector845                                         build/obj/vectors.o
vector846                                         build/obj/vectors.o
vector847                                         build/obj/vectors.o
vector848                                         build/obj/vectors.o
vector849                                         build/obj/vectors.o
vector85                                          build/obj/spc5_edma.o
                                                  build/obj/vectors.o
vector850                                         build/obj/vectors.o
vector851                                         build/obj/vectors.o
vector852                                         build/obj/vectors.o
vector853                                         build/obj/vectors.o
vector854                                         build/obj/vectors.o
vector855                                         build/obj/vectors.o
vector856                                         build/obj/vectors.o
vector857                                         build/obj/vectors.o
vector858                                         build/obj/vectors.o
vector859                                         build/obj/vectors.o
vector86                                          build/obj/spc5_edma.o
                                                  build/obj/vectors.o
vector860                                         build/obj/vectors.o
vector861                                         build/obj/vectors.o
vector862                                         build/obj/vectors.o
vector863                                         build/obj/vectors.o
vector864                                         build/obj/vectors.o
vector865                                         build/obj/vectors.o
vector866                                         build/obj/vectors.o
vector867                                         build/obj/vectors.o
vector868                                         build/obj/vectors.o
vector869                                         build/obj/vectors.o
vector87                                          build/obj/spc5_edma.o
                                                  build/obj/vectors.o
vector870                                         build/obj/vectors.o
vector871                                         build/obj/vectors.o
vector872                                         build/obj/vectors.o
vector873                                         build/obj/vectors.o
vector874                                         build/obj/vectors.o
vector875                                         build/obj/vectors.o
vector876                                         build/obj/vectors.o
vector877                                         build/obj/vectors.o
vector878                                         build/obj/vectors.o
vector879                                         build/obj/vectors.o
vector88                                          build/obj/spc5_edma.o
                                                  build/obj/vectors.o
vector880                                         build/obj/vectors.o
vector881                                         build/obj/vectors.o
vector882                                         build/obj/vectors.o
vector883                                         build/obj/vectors.o
vector884                                         build/obj/vectors.o
vector885                                         build/obj/vectors.o
vector886                                         build/obj/vectors.o
vector887                                         build/obj/vectors.o
vector888                                         build/obj/vectors.o
vector889                                         build/obj/vectors.o
vector89                                          build/obj/spc5_edma.o
                                                  build/obj/vectors.o
vector890                                         build/obj/vectors.o
vector891                                         build/obj/vectors.o
vector892                                         build/obj/vectors.o
vector893                                         build/obj/vectors.o
vector894                                         build/obj/vectors.o
vector895                                         build/obj/vectors.o
vector896                                         build/obj/vectors.o
vector897                                         build/obj/vectors.o
vector898                                         build/obj/vectors.o
vector899                                         build/obj/vectors.o
vector9                                           build/obj/vectors.o
vector90                                          build/obj/spc5_edma.o
                                                  build/obj/vectors.o
vector900                                         build/obj/vectors.o
vector901                                         build/obj/vectors.o
vector902                                         build/obj/vectors.o
vector903                                         build/obj/vectors.o
vector904                                         build/obj/vectors.o
vector905                                         build/obj/vectors.o
vector906                                         build/obj/vectors.o
vector907                                         build/obj/vectors.o
vector908                                         build/obj/vectors.o
vector909                                         build/obj/vectors.o
vector91                                          build/obj/spc5_edma.o
                                                  build/obj/vectors.o
vector910                                         build/obj/vectors.o
vector911                                         build/obj/vectors.o
vector912                                         build/obj/vectors.o
vector913                                         build/obj/vectors.o
vector914                                         build/obj/vectors.o
vector915                                         build/obj/vectors.o
vector916                                         build/obj/vectors.o
vector917                                         build/obj/vectors.o
vector918                                         build/obj/vectors.o
vector919                                         build/obj/vectors.o
vector92                                          build/obj/spc5_edma.o
                                                  build/obj/vectors.o
vector920                                         build/obj/vectors.o
vector921                                         build/obj/vectors.o
vector922                                         build/obj/vectors.o
vector923                                         build/obj/vectors.o
vector924                                         build/obj/vectors.o
vector925                                         build/obj/vectors.o
vector926                                         build/obj/vectors.o
vector927                                         build/obj/vectors.o
vector928                                         build/obj/vectors.o
vector929                                         build/obj/vectors.o
vector93                                          build/obj/spc5_edma.o
                                                  build/obj/vectors.o
vector930                                         build/obj/vectors.o
vector931                                         build/obj/vectors.o
vector932                                         build/obj/vectors.o
vector933                                         build/obj/vectors.o
vector934                                         build/obj/vectors.o
vector935                                         build/obj/vectors.o
vector936                                         build/obj/vectors.o
vector937                                         build/obj/vectors.o
vector938                                         build/obj/vectors.o
vector939                                         build/obj/vectors.o
vector94                                          build/obj/spc5_edma.o
                                                  build/obj/vectors.o
vector940                                         build/obj/vectors.o
vector941                                         build/obj/vectors.o
vector942                                         build/obj/vectors.o
vector943                                         build/obj/vectors.o
vector944                                         build/obj/vectors.o
vector945                                         build/obj/vectors.o
vector946                                         build/obj/vectors.o
vector947                                         build/obj/vectors.o
vector948                                         build/obj/vectors.o
vector949                                         build/obj/vectors.o
vector95                                          build/obj/spc5_edma.o
                                                  build/obj/vectors.o
vector950                                         build/obj/vectors.o
vector951                                         build/obj/vectors.o
vector952                                         build/obj/vectors.o
vector953                                         build/obj/vectors.o
vector954                                         build/obj/vectors.o
vector955                                         build/obj/vectors.o
vector956                                         build/obj/vectors.o
vector957                                         build/obj/vectors.o
vector958                                         build/obj/vectors.o
vector959                                         build/obj/vectors.o
vector96                                          build/obj/spc5_edma.o
                                                  build/obj/vectors.o
vector960                                         build/obj/vectors.o
vector961                                         build/obj/vectors.o
vector962                                         build/obj/vectors.o
vector963                                         build/obj/vectors.o
vector964                                         build/obj/vectors.o
vector965                                         build/obj/vectors.o
vector966                                         build/obj/vectors.o
vector967                                         build/obj/vectors.o
vector968                                         build/obj/vectors.o
vector969                                         build/obj/vectors.o
vector97                                          build/obj/spc5_edma.o
                                                  build/obj/vectors.o
vector970                                         build/obj/vectors.o
vector971                                         build/obj/vectors.o
vector972                                         build/obj/vectors.o
vector973                                         build/obj/vectors.o
vector974                                         build/obj/vectors.o
vector975                                         build/obj/vectors.o
vector976                                         build/obj/vectors.o
vector977                                         build/obj/vectors.o
vector978                                         build/obj/vectors.o
vector979                                         build/obj/vectors.o
vector98                                          build/obj/spc5_edma.o
                                                  build/obj/vectors.o
vector980                                         build/obj/vectors.o
vector981                                         build/obj/vectors.o
vector982                                         build/obj/vectors.o
vector983                                         build/obj/vectors.o
vector984                                         build/obj/vectors.o
vector985                                         build/obj/vectors.o
vector986                                         build/obj/vectors.o
vector987                                         build/obj/vectors.o
vector988                                         build/obj/vectors.o
vector989                                         build/obj/vectors.o
vector99                                          build/obj/spc5_edma.o
                                                  build/obj/vectors.o
vector990                                         build/obj/vectors.o
vector991                                         build/obj/vectors.o
vector992                                         build/obj/vectors.o
vector993                                         build/obj/vectors.o
vector994                                         build/obj/vectors.o
vector995                                         build/obj/vectors.o
vector996                                         build/obj/vectors.o
vector997                                         build/obj/vectors.o
vector998                                         build/obj/vectors.o
vector999                                         build/obj/vectors.o
wkpu_config_wkpu_cfg                              build/obj/wkpu_lld_cfg.o
                                                  build/obj/main.o
wkpu_config_wkpu_cfg_wk_INT28                     build/obj/wkpu_lld_cfg.o
wkpu_lld_init                                     build/obj/wkpu_lld.o
                                                  build/obj/spc5_lld.o
wkpu_lld_start                                    build/obj/wkpu_lld.o
                                                  build/obj/main.o
wkpu_lld_stop                                     build/obj/wkpu_lld.o
