GAS LISTING C:\Users\Vipuls\AppData\Local\Temp\ccgvNFZ7.s 			page 1


   1              		.file	"AEK_POW_BMS63EN_id.c"
   2              		.section	".text","axv"
   3              	.Ltext0:
   4              		.cfi_sections	.debug_frame
   5              		.section	.text.AEK_POW_BMS63EN_ConfigISOFreq,"axv",@progbits
   6              		.align 1
   7              		.p2align 4,,15
   8              		.globl AEK_POW_BMS63EN_ConfigISOFreq
   9              		.type	AEK_POW_BMS63EN_ConfigISOFreq, @function
  10              	AEK_POW_BMS63EN_ConfigISOFreq:
  11              	.LFB5:
  12              		.file 1 "./components/aek_pow_bms63en_component_rla/lib/src/AEK_POW_BMS63EN_id.c"
  13              		.loc 1 271 0
  14              		.cfi_startproc
  15              	.LVL0:
  16 0000 182106F0 		e_stwu %r1,-16(%r1)
  17              	.LCFI0:
  18              		.cfi_def_cfa_offset 16
  19 0004 0080     		se_mflr %r0
  20 0006 1BC10908 		e_stmw %r30,8(%r1)
  21 000a D501     		se_stw %r0,20(%r1)
  22              		.cfi_offset 65, 4
  23              		.cfi_offset 30, -8
  24              		.cfi_offset 31, -4
  25              		.loc 1 271 0
  26 000c 013E     		se_mr %r30,%r3
  27              		.loc 1 275 0
  28 000e 4814     		se_li %r4,1
  29 0010 4815     		se_li %r5,1
  30 0012 73E0E000 		e_lis %r31,AEK_POW_BMS63EN_Drv@ha
  31 0016 1FFF0000 		e_la %r31,AEK_POW_BMS63EN_Drv@l(%r31)
  32 001a 01F3     		se_mr %r3,%r31
  33              	.LVL1:
  34 001c 78000001 		e_bl AEK_POW_BMS63EN_SPIReadRegister
  35              	.LVL2:
  36              		.loc 1 276 0
  37 0020 4815     		se_li %r5,1
  38 0022 01F3     		se_mr %r3,%r31
  39 0024 4814     		se_li %r4,1
  40 0026 78000001 		e_bl AEK_POW_BMS63EN_SPIReadRegister
  41              	.LVL3:
  42              		.loc 1 279 0
  43 002a 2A0E     		se_cmpi %r30,0
  44              		.loc 1 276 0
  45 002c 0135     		se_mr %r5,%r3
  46              	.LVL4:
  47              		.loc 1 279 0
  48 002e 7A12002C 		e_beq %cr0,.L3
  49 0032 220E     		se_cmpli %r30,1
  50 0034 7A02001A 		e_bne %cr0,.L9
  51              	.LVL5:
  52              		.loc 1 296 0
  53 0038 C501     		se_lwz %r0,20(%r1)
  54              		.loc 1 288 0
  55 003a 01F3     		se_mr %r3,%r31
  56              	.LVL6:
  57 003c 4814     		se_li %r4,1
GAS LISTING C:\Users\Vipuls\AppData\Local\Temp\ccgvNFZ7.s 			page 2


  58              		.loc 1 296 0
  59 003e 1BC10808 		e_lmw %r30,8(%r1)
  60              	.LVL7:
  61              		.loc 1 288 0
  62 0042 18A5D103 		e_ori %r5,%r5,768
  63              	.LVL8:
  64              		.loc 1 296 0
  65 0046 0090     		se_mtlr %r0
  66              		.cfi_remember_state
  67              		.cfi_restore 65
  68 0048 20F1     		se_addi %r1,16
  69              	.LCFI1:
  70              		.cfi_restore 31
  71              		.cfi_restore 30
  72              		.cfi_def_cfa_offset 0
  73              		.loc 1 288 0
  74 004a 78000000 		e_b AEK_POW_BMS63EN_SPIBroadcastAccess
  75              	.LVL9:
  76              	.L9:
  77              	.LCFI2:
  78              		.cfi_restore_state
  79              		.loc 1 296 0
  80 004e C501     		se_lwz %r0,20(%r1)
  81 0050 0090     		se_mtlr %r0
  82              		.cfi_remember_state
  83              		.cfi_restore 65
  84 0052 1BC10808 		e_lmw %r30,8(%r1)
  85              	.LVL10:
  86 0056 20F1     		se_addi %r1,16
  87              	.LCFI3:
  88              		.cfi_restore 31
  89              		.cfi_restore 30
  90              		.cfi_def_cfa_offset 0
  91 0058 0004     		se_blr
  92              	.LVL11:
  93              	.L3:
  94              	.LCFI4:
  95              		.cfi_restore_state
  96 005a C501     		se_lwz %r0,20(%r1)
  97              		.loc 1 283 0
  98 005c 01F3     		se_mr %r3,%r31
  99              	.LVL12:
 100 005e 4814     		se_li %r4,1
 101              		.loc 1 296 0
 102 0060 1BC10808 		e_lmw %r30,8(%r1)
 103              	.LVL13:
 104              		.loc 1 283 0
 105 0064 18A5C5FC 		e_andi %r5,%r5,-769
 106              	.LVL14:
 107              		.loc 1 296 0
 108 0068 0090     		se_mtlr %r0
 109              		.cfi_restore 65
 110 006a 20F1     		se_addi %r1,16
 111              	.LCFI5:
 112              		.cfi_restore 30
 113              		.cfi_restore 31
 114              		.cfi_def_cfa_offset 0
GAS LISTING C:\Users\Vipuls\AppData\Local\Temp\ccgvNFZ7.s 			page 3


 115              		.loc 1 288 0
 116 006c 78000000 		e_b AEK_POW_BMS63EN_SPIBroadcastAccess
 117              	.LVL15:
 118              		.cfi_endproc
 119              	.LFE5:
 120              		.size	AEK_POW_BMS63EN_ConfigISOFreq, .-AEK_POW_BMS63EN_ConfigISOFreq
 121              		.section	.text.AEK_POW_BMS63EN_DisableCommTimeout,"axv",@progbits
 122              		.align 1
 123              		.p2align 4,,15
 124              		.globl AEK_POW_BMS63EN_DisableCommTimeout
 125              		.type	AEK_POW_BMS63EN_DisableCommTimeout, @function
 126              	AEK_POW_BMS63EN_DisableCommTimeout:
 127              	.LFB6:
 128              		.loc 1 302 0
 129              		.cfi_startproc
 130              	.LVL16:
 131 0000 182106F0 		e_stwu %r1,-16(%r1)
 132              	.LCFI6:
 133              		.cfi_def_cfa_offset 16
 134 0004 0080     		se_mflr %r0
 135 0006 1BC10908 		e_stmw %r30,8(%r1)
 136 000a D501     		se_stw %r0,20(%r1)
 137              		.cfi_offset 65, 4
 138              		.cfi_offset 30, -8
 139              		.cfi_offset 31, -4
 140              		.loc 1 302 0
 141 000c 013E     		se_mr %r30,%r3
 142              		.loc 1 306 0
 143 000e 0134     		se_mr %r4,%r3
 144 0010 4835     		se_li %r5,3
 145 0012 73E0E000 		e_lis %r31,AEK_POW_BMS63EN_Drv@ha
 146 0016 1FFF0000 		e_la %r31,AEK_POW_BMS63EN_Drv@l(%r31)
 147 001a 01F3     		se_mr %r3,%r31
 148              	.LVL17:
 149 001c 78000001 		e_bl AEK_POW_BMS63EN_SPIReadRegister
 150              	.LVL18:
 151              		.loc 1 307 0
 152 0020 01E4     		se_mr %r4,%r30
 153 0022 01F3     		se_mr %r3,%r31
 154 0024 4835     		se_li %r5,3
 155 0026 78000001 		e_bl AEK_POW_BMS63EN_SPIReadRegister
 156              	.LVL19:
 157              		.loc 1 313 0
 158 002a C501     		se_lwz %r0,20(%r1)
 159              		.loc 1 311 0
 160 002c 01E4     		se_mr %r4,%r30
 161              		.loc 1 309 0
 162 002e 1866D202 		e_ori %r6,%r3,131072
 163              	.LVL20:
 164              		.loc 1 311 0
 165 0032 4835     		se_li %r5,3
 166 0034 01F3     		se_mr %r3,%r31
 167              		.loc 1 313 0
 168 0036 0090     		se_mtlr %r0
 169              		.cfi_restore 65
 170 0038 1BC10808 		e_lmw %r30,8(%r1)
 171              	.LVL21:
GAS LISTING C:\Users\Vipuls\AppData\Local\Temp\ccgvNFZ7.s 			page 4


 172 003c 20F1     		se_addi %r1,16
 173              	.LCFI7:
 174              		.cfi_restore 31
 175              		.cfi_restore 30
 176              		.cfi_def_cfa_offset 0
 177              		.loc 1 311 0
 178 003e 78000000 		e_b AEK_POW_BMS63EN_SPIWriteRegister
 179              	.LVL22:
 180              		.cfi_endproc
 181              	.LFE6:
 182              		.size	AEK_POW_BMS63EN_DisableCommTimeout, .-AEK_POW_BMS63EN_DisableCommTimeout
 183              		.section	.text.AEK_POW_BMS63EN_EnableCommTimeout,"axv",@progbits
 184              		.align 1
 185              		.p2align 4,,15
 186              		.globl AEK_POW_BMS63EN_EnableCommTimeout
 187              		.type	AEK_POW_BMS63EN_EnableCommTimeout, @function
 188              	AEK_POW_BMS63EN_EnableCommTimeout:
 189              	.LFB7:
 190              		.loc 1 319 0
 191              		.cfi_startproc
 192              	.LVL23:
 193 0000 182106F0 		e_stwu %r1,-16(%r1)
 194              	.LCFI8:
 195              		.cfi_def_cfa_offset 16
 196 0004 0080     		se_mflr %r0
 197 0006 1BC10908 		e_stmw %r30,8(%r1)
 198 000a D501     		se_stw %r0,20(%r1)
 199              		.cfi_offset 65, 4
 200              		.cfi_offset 30, -8
 201              		.cfi_offset 31, -4
 202              		.loc 1 319 0
 203 000c 013E     		se_mr %r30,%r3
 204              		.loc 1 323 0
 205 000e 0134     		se_mr %r4,%r3
 206 0010 4835     		se_li %r5,3
 207 0012 73E0E000 		e_lis %r31,AEK_POW_BMS63EN_Drv@ha
 208 0016 1FFF0000 		e_la %r31,AEK_POW_BMS63EN_Drv@l(%r31)
 209 001a 01F3     		se_mr %r3,%r31
 210              	.LVL24:
 211 001c 78000001 		e_bl AEK_POW_BMS63EN_SPIReadRegister
 212              	.LVL25:
 213              		.loc 1 324 0
 214 0020 01E4     		se_mr %r4,%r30
 215 0022 01F3     		se_mr %r3,%r31
 216 0024 4835     		se_li %r5,3
 217 0026 78000001 		e_bl AEK_POW_BMS63EN_SPIReadRegister
 218              	.LVL26:
 219              		.loc 1 330 0
 220 002a C501     		se_lwz %r0,20(%r1)
 221              		.loc 1 328 0
 222 002c 01E4     		se_mr %r4,%r30
 223              		.loc 1 326 0
 224 002e 1866C6FD 		e_andi %r6,%r3,-131073
 225              	.LVL27:
 226              		.loc 1 328 0
 227 0032 4835     		se_li %r5,3
 228 0034 01F3     		se_mr %r3,%r31
GAS LISTING C:\Users\Vipuls\AppData\Local\Temp\ccgvNFZ7.s 			page 5


 229              		.loc 1 330 0
 230 0036 0090     		se_mtlr %r0
 231              		.cfi_restore 65
 232 0038 1BC10808 		e_lmw %r30,8(%r1)
 233              	.LVL28:
 234 003c 20F1     		se_addi %r1,16
 235              	.LCFI9:
 236              		.cfi_restore 31
 237              		.cfi_restore 30
 238              		.cfi_def_cfa_offset 0
 239              		.loc 1 328 0
 240 003e 78000000 		e_b AEK_POW_BMS63EN_SPIWriteRegister
 241              	.LVL29:
 242              		.cfi_endproc
 243              	.LFE7:
 244              		.size	AEK_POW_BMS63EN_EnableCommTimeout, .-AEK_POW_BMS63EN_EnableCommTimeout
 245              		.section	.text.AEK_POW_BMS63EN_EnterSleepMode,"axv",@progbits
 246              		.align 1
 247              		.p2align 4,,15
 248              		.globl AEK_POW_BMS63EN_EnterSleepMode
 249              		.type	AEK_POW_BMS63EN_EnterSleepMode, @function
 250              	AEK_POW_BMS63EN_EnterSleepMode:
 251              	.LFB8:
 252              		.loc 1 336 0
 253              		.cfi_startproc
 254              	.LVL30:
 255 0000 182106E8 		e_stwu %r1,-24(%r1)
 256              	.LCFI10:
 257              		.cfi_def_cfa_offset 24
 258 0004 0080     		se_mflr %r0
 259 0006 1B810908 		e_stmw %r28,8(%r1)
 260 000a D701     		se_stw %r0,28(%r1)
 261              		.cfi_offset 65, 4
 262              		.cfi_offset 28, -16
 263              		.cfi_offset 29, -12
 264              		.cfi_offset 30, -8
 265              		.cfi_offset 31, -4
 266              		.loc 1 336 0
 267 000c 013F     		se_mr %r31,%r3
 268              		.loc 1 340 0
 269 000e 0134     		se_mr %r4,%r3
 270 0010 4835     		se_li %r5,3
 271 0012 7380E000 		e_lis %r28,AEK_POW_BMS63EN_Drv@ha
 272 0016 1FDC0000 		e_la %r30,AEK_POW_BMS63EN_Drv@l(%r28)
 273 001a 01E3     		se_mr %r3,%r30
 274              	.LVL31:
 275 001c 78000001 		e_bl AEK_POW_BMS63EN_SPIReadRegister
 276              	.LVL32:
 277              		.loc 1 341 0
 278 0020 01F4     		se_mr %r4,%r31
 279 0022 4835     		se_li %r5,3
 280 0024 01E3     		se_mr %r3,%r30
 281 0026 78000001 		e_bl AEK_POW_BMS63EN_SPIReadRegister
 282              	.LVL33:
 283              		.loc 1 343 0
 284 002a 01F4     		se_mr %r4,%r31
 285              		.loc 1 341 0
GAS LISTING C:\Users\Vipuls\AppData\Local\Temp\ccgvNFZ7.s 			page 6


 286 002c 013D     		se_mr %r29,%r3
 287              	.LVL34:
 288              		.loc 1 343 0
 289 002e 4925     		se_li %r5,18
 290 0030 01E3     		se_mr %r3,%r30
 291              	.LVL35:
 292 0032 78000001 		e_bl AEK_POW_BMS63EN_SPIReadRegister
 293              	.LVL36:
 294              		.loc 1 344 0
 295 0036 01F4     		se_mr %r4,%r31
 296 0038 4925     		se_li %r5,18
 297 003a 01E3     		se_mr %r3,%r30
 298 003c 78000001 		e_bl AEK_POW_BMS63EN_SPIReadRegister
 299              	.LVL37:
 300              		.loc 1 348 0
 301 0040 50BC0000 		e_lwz %r5,AEK_POW_BMS63EN_Drv@l(%r28)
 302 0044 7FE71070 		e_slwi %r7,%r31,2
 303 0048 C155     		se_lwz %r5,4(%r5)
 304 004a 7FE42070 		e_slwi %r4,%r31,4
 305              		.loc 1 347 0
 306 004e 66FD     		se_btsti %r29,15
 307              		.loc 1 348 0
 308 0050 0747     		se_subf %r7, %r4
 309              		.loc 1 345 0
 310 0052 1866D120 		e_ori %r6,%r3,8192
 311              	.LVL38:
 312              		.loc 1 348 0
 313 0056 7CE53A14 		add %r7,%r5,%r7
 314              		.loc 1 347 0
 315 005a 7A120024 		e_beq %cr0,.L15
 316              		.loc 1 355 0
 317 005e C701     		se_lwz %r0,28(%r1)
 318              		.loc 1 350 0
 319 0060 4835     		se_li %r5,3
 320              		.loc 1 353 0
 321 0062 01F4     		se_mr %r4,%r31
 322              		.loc 1 350 0
 323 0064 54A7FFF8 		e_stw %r5,-8(%r7)
 324              		.loc 1 355 0
 325 0068 1B810808 		e_lmw %r28,8(%r1)
 326              	.LVL39:
 327              		.loc 1 353 0
 328 006c 7060E000 		e_lis %r3,AEK_POW_BMS63EN_Drv@ha
 329              		.loc 1 355 0
 330              		.loc 1 353 0
 331 0070 1C630000 		e_la %r3,AEK_POW_BMS63EN_Drv@l(%r3)
 332 0074 4925     		se_li %r5,18
 333              		.loc 1 355 0
 334 0076 0090     		se_mtlr %r0
 335              		.cfi_remember_state
 336              		.cfi_restore 65
 337 0078 2171     		se_addi %r1,24
 338              	.LCFI11:
 339              		.cfi_restore 31
 340              		.cfi_restore 30
 341              		.cfi_restore 29
 342              		.cfi_restore 28
GAS LISTING C:\Users\Vipuls\AppData\Local\Temp\ccgvNFZ7.s 			page 7


 343              		.cfi_def_cfa_offset 0
 344              		.loc 1 353 0
 345 007a 78000000 		e_b AEK_POW_BMS63EN_SPIWriteRegister
 346              	.LVL40:
 347              	.L15:
 348              	.LCFI12:
 349              		.cfi_restore_state
 350              		.loc 1 355 0
 351 007e C701     		se_lwz %r0,28(%r1)
 352              		.loc 1 348 0
 353 0080 4825     		se_li %r5,2
 354              		.loc 1 353 0
 355 0082 01F4     		se_mr %r4,%r31
 356              		.loc 1 348 0
 357 0084 54A7FFF8 		e_stw %r5,-8(%r7)
 358              		.loc 1 355 0
 359 0088 1B810808 		e_lmw %r28,8(%r1)
 360              	.LVL41:
 361              		.loc 1 353 0
 362 008c 7060E000 		e_lis %r3,AEK_POW_BMS63EN_Drv@ha
 363              		.loc 1 355 0
 364              		.loc 1 353 0
 365 0090 1C630000 		e_la %r3,AEK_POW_BMS63EN_Drv@l(%r3)
 366 0094 4925     		se_li %r5,18
 367              		.loc 1 355 0
 368 0096 0090     		se_mtlr %r0
 369              		.cfi_restore 65
 370 0098 2171     		se_addi %r1,24
 371              	.LCFI13:
 372              		.cfi_restore 28
 373              		.cfi_restore 29
 374              		.cfi_restore 30
 375              		.cfi_restore 31
 376              		.cfi_def_cfa_offset 0
 377              		.loc 1 353 0
 378 009a 78000000 		e_b AEK_POW_BMS63EN_SPIWriteRegister
 379              	.LVL42:
 380              		.cfi_endproc
 381              	.LFE8:
 382              		.size	AEK_POW_BMS63EN_EnterSleepMode, .-AEK_POW_BMS63EN_EnterSleepMode
 383              		.section	.text.AEK_POW_BMS63EN_SWReset,"axv",@progbits
 384              		.align 1
 385              		.p2align 4,,15
 386              		.globl AEK_POW_BMS63EN_SWReset
 387              		.type	AEK_POW_BMS63EN_SWReset, @function
 388              	AEK_POW_BMS63EN_SWReset:
 389              	.LFB9:
 390              		.loc 1 361 0
 391              		.cfi_startproc
 392              	.LVL43:
 393              		.loc 1 368 0
 394 0000 0134     		se_mr %r4,%r3
 395              		.loc 1 369 0
 396 0002 7060E000 		e_lis %r3,AEK_POW_BMS63EN_Drv@ha
 397              	.LVL44:
 398              		.loc 1 368 0
 399 0006 2A04     		se_cmpi %r4,0
GAS LISTING C:\Users\Vipuls\AppData\Local\Temp\ccgvNFZ7.s 			page 8


 400 0008 7A02001E 		e_bne %cr0,.L17
 401              	.LVL45:
 402              		.loc 1 373 0 discriminator 1
 403 000c 50E30000 		e_lwz %r7,AEK_POW_BMS63EN_Drv@l(%r3)
 404 0010 4826     		se_li %r6,2
 405 0012 C177     		se_lwz %r7,4(%r7)
 406              		.loc 1 375 0 discriminator 1
 407 0014 1C630000 		e_la %r3,AEK_POW_BMS63EN_Drv@l(%r3)
 408              		.loc 1 373 0 discriminator 1
 409 0018 54C7FFF8 		e_stw %r6,-8(%r7)
 410              	.LVL46:
 411              		.loc 1 375 0 discriminator 1
 412 001c 4924     		se_li %r4,18
 413              	.LVL47:
 414 001e 70B40000 		e_li %r5,40960
 415              		.loc 1 378 0 discriminator 1
 416              		.loc 1 375 0 discriminator 1
 417 0022 78000000 		e_b AEK_POW_BMS63EN_SPIBroadcastAccess
 418              	.LVL48:
 419              	.L17:
 420              		.loc 1 369 0
 421 0026 7C851070 		e_slwi %r5,%r4,2
 422 002a 50C30000 		e_lwz %r6,AEK_POW_BMS63EN_Drv@l(%r3)
 423 002e 7C872070 		e_slwi %r7,%r4,4
 424 0032 C166     		se_lwz %r6,4(%r6)
 425 0034 0657     		se_sub %r7, %r5
 426              		.loc 1 370 0
 427 0036 1C630000 		e_la %r3,AEK_POW_BMS63EN_Drv@l(%r3)
 428              		.loc 1 369 0
 429 003a 7CE63A14 		add %r7,%r6,%r7
 430              		.loc 1 370 0
 431 003e 4925     		se_li %r5,18
 432              		.loc 1 369 0
 433 0040 4826     		se_li %r6,2
 434 0042 54C7FFF8 		e_stw %r6,-8(%r7)
 435              		.loc 1 370 0
 436 0046 70D40000 		e_li %r6,40960
 437              		.loc 1 378 0
 438              		.loc 1 370 0
 439 004a 78000000 		e_b AEK_POW_BMS63EN_SPIWriteRegister
 440              	.LVL49:
 441              		.cfi_endproc
 442              	.LFE9:
 443              		.size	AEK_POW_BMS63EN_SWReset, .-AEK_POW_BMS63EN_SWReset
 444              		.section	.text.AEK_POW_BMS63EN_GetState,"axv",@progbits
 445              		.align 1
 446              		.p2align 4,,15
 447              		.globl AEK_POW_BMS63EN_GetState
 448              		.type	AEK_POW_BMS63EN_GetState, @function
 449              	AEK_POW_BMS63EN_GetState:
 450              	.LFB11:
 451              		.loc 1 485 0
 452              		.cfi_startproc
 453              	.LVL50:
 454 0000 182106F0 		e_stwu %r1,-16(%r1)
 455              	.LCFI14:
 456              		.cfi_def_cfa_offset 16
GAS LISTING C:\Users\Vipuls\AppData\Local\Temp\ccgvNFZ7.s 			page 9


 457 0004 0080     		se_mflr %r0
 458 0006 1BC10908 		e_stmw %r30,8(%r1)
 459              		.loc 1 490 0
 460 000a 0134     		se_mr %r4,%r3
 461              		.loc 1 485 0
 462 000c D501     		se_stw %r0,20(%r1)
 463              		.cfi_offset 65, 4
 464              		.cfi_offset 30, -8
 465              		.cfi_offset 31, -4
 466              		.loc 1 485 0
 467 000e 013F     		se_mr %r31,%r3
 468              		.loc 1 490 0
 469 0010 4925     		se_li %r5,18
 470 0012 73C0E000 		e_lis %r30,AEK_POW_BMS63EN_Drv@ha
 471 0016 1FDE0000 		e_la %r30,AEK_POW_BMS63EN_Drv@l(%r30)
 472 001a 01E3     		se_mr %r3,%r30
 473              	.LVL51:
 474 001c 78000001 		e_bl AEK_POW_BMS63EN_SPIReadRegister
 475              	.LVL52:
 476              		.loc 1 491 0
 477 0020 01E3     		se_mr %r3,%r30
 478 0022 01F4     		se_mr %r4,%r31
 479 0024 4925     		se_li %r5,18
 480 0026 78000001 		e_bl AEK_POW_BMS63EN_SPIReadRegister
 481              	.LVL53:
 482              		.loc 1 493 0
 483 002a 1863C10F 		e_andi %r3,%r3,3840
 484              	.LVL54:
 485              		.loc 1 495 0
 486 002e 7003AA00 		e_cmpl16i %r3,512
 487 0032 7A120078 		e_beq %cr0,.L20
 488 0036 7A010040 		e_ble %cr0,.L26
 489              		.loc 1 505 0
 490 003a 4876     		se_li %r6,7
 491              		.loc 1 495 0
 492 003c 7003AC00 		e_cmpl16i %r3,1024
 493 0040 7A12000E 		e_beq %cr0,.L19
 494              		.loc 1 509 0
 495 0044 4846     		se_li %r6,4
 496              		.loc 1 495 0
 497 0046 7023A800 		e_cmpl16i %r3,2048
 498 004a 7A020036 		e_bne %cr0,.L25
 499              	.L19:
 500              	.LVL55:
 501              		.loc 1 521 0
 502 004e C501     		se_lwz %r0,20(%r1)
 503 0050 0090     		se_mtlr %r0
 504              		.cfi_remember_state
 505              		.cfi_restore 65
 506              		.loc 1 517 0
 507 0052 7FE51070 		e_slwi %r5,%r31,2
 508 0056 70E0E000 		e_lis %r7,AEK_POW_BMS63EN_Drv@ha
 509 005a 6C4F     		se_slwi %r31, 4
 510              	.LVL56:
 511 005c 50E70000 		e_lwz %r7,AEK_POW_BMS63EN_Drv@l(%r7)
 512 0060 065F     		se_sub %r31, %r5
 513 0062 C177     		se_lwz %r7,4(%r7)
GAS LISTING C:\Users\Vipuls\AppData\Local\Temp\ccgvNFZ7.s 			page 10


 514              		.loc 1 521 0
 515 0064 0163     		se_mr %r3,%r6
 516              	.LVL57:
 517              		.loc 1 517 0
 518 0066 7FE7FA14 		add %r31,%r7,%r31
 519 006a 54DFFFF8 		e_stw %r6,-8(%r31)
 520              		.loc 1 521 0
 521 006e 1BC10808 		e_lmw %r30,8(%r1)
 522 0072 20F1     		se_addi %r1,16
 523              	.LCFI15:
 524              		.cfi_restore 31
 525              		.cfi_restore 30
 526              		.cfi_def_cfa_offset 0
 527 0074 0004     		se_blr
 528              	.LVL58:
 529              	.L26:
 530              	.LCFI16:
 531              		.cfi_restore_state
 532              		.loc 1 497 0
 533 0076 4826     		se_li %r6,2
 534              		.loc 1 495 0
 535 0078 7003A900 		e_cmpl16i %r3,256
 536 007c 7A12FFD2 		e_beq %cr0,.L19
 537              	.L25:
 538              		.loc 1 521 0
 539 0080 C501     		se_lwz %r0,20(%r1)
 540 0082 0090     		se_mtlr %r0
 541              		.cfi_remember_state
 542              		.cfi_restore 65
 543              		.loc 1 488 0
 544 0084 4806     		se_li %r6,0
 545              	.LVL59:
 546              		.loc 1 517 0
 547 0086 7FE51070 		e_slwi %r5,%r31,2
 548 008a 70E0E000 		e_lis %r7,AEK_POW_BMS63EN_Drv@ha
 549 008e 6C4F     		se_slwi %r31, 4
 550              	.LVL60:
 551 0090 50E70000 		e_lwz %r7,AEK_POW_BMS63EN_Drv@l(%r7)
 552 0094 065F     		se_sub %r31, %r5
 553 0096 C177     		se_lwz %r7,4(%r7)
 554              		.loc 1 521 0
 555 0098 0163     		se_mr %r3,%r6
 556              	.LVL61:
 557              		.loc 1 517 0
 558 009a 7FE7FA14 		add %r31,%r7,%r31
 559 009e 54DFFFF8 		e_stw %r6,-8(%r31)
 560              		.loc 1 521 0
 561 00a2 1BC10808 		e_lmw %r30,8(%r1)
 562 00a6 20F1     		se_addi %r1,16
 563              	.LCFI17:
 564              		.cfi_restore 30
 565              		.cfi_restore 31
 566              		.cfi_def_cfa_offset 0
 567 00a8 0004     		se_blr
 568              	.LVL62:
 569              	.L20:
 570              	.LCFI18:
GAS LISTING C:\Users\Vipuls\AppData\Local\Temp\ccgvNFZ7.s 			page 11


 571              		.cfi_restore_state
 572 00aa C501     		se_lwz %r0,20(%r1)
 573 00ac 0090     		se_mtlr %r0
 574              		.cfi_restore 65
 575              		.loc 1 501 0
 576 00ae 4866     		se_li %r6,6
 577              	.LVL63:
 578              		.loc 1 517 0
 579 00b0 7FE51070 		e_slwi %r5,%r31,2
 580 00b4 70E0E000 		e_lis %r7,AEK_POW_BMS63EN_Drv@ha
 581 00b8 6C4F     		se_slwi %r31, 4
 582              	.LVL64:
 583 00ba 50E70000 		e_lwz %r7,AEK_POW_BMS63EN_Drv@l(%r7)
 584 00be 065F     		se_sub %r31, %r5
 585 00c0 C177     		se_lwz %r7,4(%r7)
 586              		.loc 1 521 0
 587 00c2 0163     		se_mr %r3,%r6
 588              	.LVL65:
 589              		.loc 1 517 0
 590 00c4 7FE7FA14 		add %r31,%r7,%r31
 591 00c8 54DFFFF8 		e_stw %r6,-8(%r31)
 592              		.loc 1 521 0
 593 00cc 1BC10808 		e_lmw %r30,8(%r1)
 594 00d0 20F1     		se_addi %r1,16
 595              	.LCFI19:
 596              		.cfi_restore 30
 597              		.cfi_restore 31
 598              		.cfi_def_cfa_offset 0
 599 00d2 0004     		se_blr
 600              		.cfi_endproc
 601              	.LFE11:
 602              		.size	AEK_POW_BMS63EN_GetState, .-AEK_POW_BMS63EN_GetState
 603              		.section	.text.AEK_POW_BMS63EN_CoulombCounterReset,"axv",@progbits
 604              		.align 1
 605              		.p2align 4,,15
 606              		.globl AEK_POW_BMS63EN_CoulombCounterReset
 607              		.type	AEK_POW_BMS63EN_CoulombCounterReset, @function
 608              	AEK_POW_BMS63EN_CoulombCounterReset:
 609              	.LFB12:
 610              		.loc 1 532 0
 611              		.cfi_startproc
 612              	.LVL66:
 613 0000 182106A8 		e_stwu %r1,-88(%r1)
 614              	.LCFI20:
 615              		.cfi_def_cfa_offset 88
 616 0004 0080     		se_mflr %r0
 617 0006 0134     		se_mr %r4,%r3
 618 0008 5401005C 		e_stw %r0,92(%r1)
 619              		.cfi_offset 65, 4
 620              		.loc 1 535 0
 621 000c 18C18008 		e_addi %r6,%r1,8
 622 0010 7060E000 		e_lis %r3,AEK_POW_BMS63EN_Drv@ha
 623              	.LVL67:
 624 0014 4FB5     		se_li %r5,123
 625 0016 1C630000 		e_la %r3,AEK_POW_BMS63EN_Drv@l(%r3)
 626 001a 78000001 		e_bl AEK_POW_BMS63EN_SPIBurstAccess
 627              	.LVL68:
GAS LISTING C:\Users\Vipuls\AppData\Local\Temp\ccgvNFZ7.s 			page 12


 628              		.loc 1 536 0
 629 001e 5001005C 		e_lwz %r0,92(%r1)
 630 0022 0090     		se_mtlr %r0
 631              		.cfi_restore 65
 632 0024 18218058 		e_addi %r1,%r1,88
 633              	.LCFI21:
 634              		.cfi_def_cfa_offset 0
 635 0028 0004     		se_blr
 636              		.cfi_endproc
 637              	.LFE12:
 638              		.size	AEK_POW_BMS63EN_CoulombCounterReset, .-AEK_POW_BMS63EN_CoulombCounterReset
 639              		.globl __floatunsisf
 640              		.globl __mulsf3
 641              		.globl __divsf3
 642              		.globl __addsf3
 643              		.globl __gtsf2
 644              		.section	.text.AEK_POW_BMS63EN_CoulombCounting,"axv",@progbits
 645              		.align 1
 646              		.p2align 4,,15
 647              		.globl AEK_POW_BMS63EN_CoulombCounting
 648              		.type	AEK_POW_BMS63EN_CoulombCounting, @function
 649              	AEK_POW_BMS63EN_CoulombCounting:
 650              	.LFB13:
 651              		.loc 1 540 0
 652              		.cfi_startproc
 653              	.LVL69:
 654 0000 182106A0 		e_stwu %r1,-96(%r1)
 655              	.LCFI22:
 656              		.cfi_def_cfa_offset 96
 657 0004 0080     		se_mflr %r0
 658 0006 1BC10958 		e_stmw %r30,88(%r1)
 659 000a 54010064 		e_stw %r0,100(%r1)
 660              		.cfi_offset 65, 4
 661              		.cfi_offset 30, -8
 662              		.cfi_offset 31, -4
 663              		.loc 1 540 0
 664 000e 014E     		se_mr %r30,%r4
 665 0010 015F     		se_mr %r31,%r5
 666              		.loc 1 548 0
 667 0012 0134     		se_mr %r4,%r3
 668              	.LVL70:
 669 0014 4FB5     		se_li %r5,123
 670              	.LVL71:
 671 0016 7060E000 		e_lis %r3,AEK_POW_BMS63EN_Drv@ha
 672              	.LVL72:
 673 001a 18C18008 		e_addi %r6,%r1,8
 674 001e 1C630000 		e_la %r3,AEK_POW_BMS63EN_Drv@l(%r3)
 675 0022 78000001 		e_bl AEK_POW_BMS63EN_SPIBurstAccess
 676              	.LVL73:
 677              		.loc 1 550 0
 678 0026 A971     		se_lhz %r7,18(%r1)
 679 0028 C331     		se_lwz %r3,12(%r1)
 680 002a 6D03     		se_slwi %r3, 16
 681              	.LVL74:
 682              		.loc 1 552 0
 683 002c 7CE71B79 		or. %r7,%r7,%r3
 684              	.LVL75:
GAS LISTING C:\Users\Vipuls\AppData\Local\Temp\ccgvNFZ7.s 			page 13


 685 0030 7A10005E 		e_blt %cr0,.L35
 686              		.loc 1 556 0
 687 0034 70C00532 		e_li %r6,1330
 688 0038 7C6731D6 		mullw %r3,%r7,%r6
 689 003c 78000001 		e_bl __floatunsisf
 690              	.LVL76:
 691 0040 7088E47A 		e_lis %r4,0x447a
 692 0044 78000001 		e_bl __divsf3
 693              	.LVL77:
 694              		.loc 1 562 0
 695 0048 7088E3A4 		e_lis %r4,0x43a4
 696 004c 6524     		se_bseti %r4,18
 697 004e 78000001 		e_bl __mulsf3
 698              	.LVL78:
 699 0052 01E4     		se_mr %r4,%r30
 700              		.loc 1 566 0
 701 0054 480E     		se_li %r30,0
 702              	.LVL79:
 703              		.loc 1 562 0
 704 0056 78000001 		e_bl __divsf3
 705              	.LVL80:
 706              		.loc 1 564 0
 707 005a 7089E756 		e_lis %r4,0x4f56
 708 005e 7092C3A4 		e_or2i %r4,37796
 709 0062 78000001 		e_bl __divsf3
 710              	.LVL81:
 711 0066 01F4     		se_mr %r4,%r31
 712 0068 78000001 		e_bl __addsf3
 713              	.LVL82:
 714              		.loc 1 566 0
 715 006c 01E4     		se_mr %r4,%r30
 716              		.loc 1 564 0
 717 006e 013F     		se_mr %r31,%r3
 718              	.LVL83:
 719              		.loc 1 566 0
 720 0070 78000001 		e_bl __gtsf2
 721              	.LVL84:
 722              		.loc 1 567 0
 723 0074 01F7     		se_mr %r7,%r31
 724              		.loc 1 566 0
 725 0076 2A03     		se_cmpi %r3,0
 726 0078 7A010068 		e_ble %cr0,.L36
 727              	.LVL85:
 728              	.L31:
 729              		.loc 1 572 0
 730 007c 50010064 		e_lwz %r0,100(%r1)
 731 0080 0090     		se_mtlr %r0
 732              		.cfi_remember_state
 733              		.cfi_restore 65
 734 0082 1BC10858 		e_lmw %r30,88(%r1)
 735 0086 0173     		se_mr %r3,%r7
 736 0088 18218060 		e_addi %r1,%r1,96
 737              	.LCFI23:
 738              		.cfi_restore 31
 739              		.cfi_restore 30
 740              		.cfi_def_cfa_offset 0
 741 008c 0004     		se_blr
GAS LISTING C:\Users\Vipuls\AppData\Local\Temp\ccgvNFZ7.s 			page 14


 742              	.LVL86:
 743              	.L35:
 744              	.LCFI24:
 745              		.cfi_restore_state
 746              		.loc 1 554 0
 747 008e 1867B4FE 		e_subfic %r3, %r7, -2
 748 0092 78000001 		e_bl __floatunsisf
 749              	.LVL87:
 750 0096 7088E4A6 		e_lis %r4,0x44a6
 751 009a 6514     		se_bseti %r4,17
 752 009c 78000001 		e_bl __mulsf3
 753              	.LVL88:
 754 00a0 7088E47A 		e_lis %r4,0x447a
 755 00a4 78000001 		e_bl __divsf3
 756              	.LVL89:
 757              		.loc 1 562 0
 758 00a8 7088E3A4 		e_lis %r4,0x43a4
 759              		.loc 1 554 0
 760 00ac 18638380 		e_addi %r3,%r3,-2147483648
 761              	.LVL90:
 762              		.loc 1 562 0
 763 00b0 6524     		se_bseti %r4,18
 764 00b2 78000001 		e_bl __mulsf3
 765              	.LVL91:
 766 00b6 01E4     		se_mr %r4,%r30
 767              		.loc 1 566 0
 768 00b8 480E     		se_li %r30,0
 769              	.LVL92:
 770              		.loc 1 562 0
 771 00ba 78000001 		e_bl __divsf3
 772              	.LVL93:
 773              		.loc 1 564 0
 774 00be 7089E756 		e_lis %r4,0x4f56
 775 00c2 7092C3A4 		e_or2i %r4,37796
 776 00c6 78000001 		e_bl __divsf3
 777              	.LVL94:
 778 00ca 01F4     		se_mr %r4,%r31
 779 00cc 78000001 		e_bl __addsf3
 780              	.LVL95:
 781              		.loc 1 566 0
 782 00d0 01E4     		se_mr %r4,%r30
 783              		.loc 1 564 0
 784 00d2 013F     		se_mr %r31,%r3
 785              	.LVL96:
 786              		.loc 1 566 0
 787 00d4 78000001 		e_bl __gtsf2
 788              	.LVL97:
 789              		.loc 1 567 0
 790 00d8 01F7     		se_mr %r7,%r31
 791              		.loc 1 566 0
 792 00da 2A03     		se_cmpi %r3,0
 793 00dc 7A11FFA0 		e_bgt %cr0,.L31
 794              	.LVL98:
 795              	.L36:
 796              		.loc 1 572 0
 797 00e0 50010064 		e_lwz %r0,100(%r1)
 798 00e4 0090     		se_mtlr %r0
GAS LISTING C:\Users\Vipuls\AppData\Local\Temp\ccgvNFZ7.s 			page 15


 799              		.cfi_restore 65
 800              		.loc 1 569 0
 801 00e6 01E7     		se_mr %r7,%r30
 802              	.LVL99:
 803              		.loc 1 572 0
 804 00e8 1BC10858 		e_lmw %r30,88(%r1)
 805              	.LVL100:
 806 00ec 0173     		se_mr %r3,%r7
 807 00ee 18218060 		e_addi %r1,%r1,96
 808              	.LCFI25:
 809              		.cfi_restore 30
 810              		.cfi_restore 31
 811              		.cfi_def_cfa_offset 0
 812 00f2 0004     		se_blr
 813              		.cfi_endproc
 814              	.LFE13:
 815              		.size	AEK_POW_BMS63EN_CoulombCounting, .-AEK_POW_BMS63EN_CoulombCounting
 816              		.section	.text.AEK_POW_BMS63EN_Get_Conf_OVL,"axv",@progbits
 817              		.align 1
 818              		.p2align 4,,15
 819              		.globl AEK_POW_BMS63EN_Get_Conf_OVL
 820              		.type	AEK_POW_BMS63EN_Get_Conf_OVL, @function
 821              	AEK_POW_BMS63EN_Get_Conf_OVL:
 822              	.LFB14:
 823              		.loc 1 577 0
 824              		.cfi_startproc
 825              	.LVL101:
 826 0000 182106F0 		e_stwu %r1,-16(%r1)
 827              	.LCFI26:
 828              		.cfi_def_cfa_offset 16
 829 0004 0080     		se_mflr %r0
 830 0006 1BC10908 		e_stmw %r30,8(%r1)
 831 000a D501     		se_stw %r0,20(%r1)
 832              		.cfi_offset 65, 4
 833              		.cfi_offset 30, -8
 834              		.cfi_offset 31, -4
 835              		.loc 1 577 0
 836 000c 013E     		se_mr %r30,%r3
 837              		.loc 1 580 0
 838 000e 0134     		se_mr %r4,%r3
 839 0010 48D5     		se_li %r5,13
 840 0012 73E0E000 		e_lis %r31,AEK_POW_BMS63EN_Drv@ha
 841 0016 1FFF0000 		e_la %r31,AEK_POW_BMS63EN_Drv@l(%r31)
 842 001a 01F3     		se_mr %r3,%r31
 843              	.LVL102:
 844 001c 78000001 		e_bl AEK_POW_BMS63EN_SPIReadRegister
 845              	.LVL103:
 846              		.loc 1 581 0
 847 0020 01F3     		se_mr %r3,%r31
 848 0022 01E4     		se_mr %r4,%r30
 849 0024 48D5     		se_li %r5,13
 850 0026 78000001 		e_bl AEK_POW_BMS63EN_SPIReadRegister
 851              	.LVL104:
 852              		.loc 1 584 0
 853 002a C501     		se_lwz %r0,20(%r1)
 854 002c 0090     		se_mtlr %r0
 855              		.cfi_restore 65
GAS LISTING C:\Users\Vipuls\AppData\Local\Temp\ccgvNFZ7.s 			page 16


 856 002e 1BC10808 		e_lmw %r30,8(%r1)
 857              	.LVL105:
 858 0032 746397FF 		e_rlwinm %r3,%r3,18,31,31
 859              	.LVL106:
 860 0036 20F1     		se_addi %r1,16
 861              	.LCFI27:
 862              		.cfi_restore 31
 863              		.cfi_restore 30
 864              		.cfi_def_cfa_offset 0
 865 0038 0004     		se_blr
 866              		.cfi_endproc
 867              	.LFE14:
 868              		.size	AEK_POW_BMS63EN_Get_Conf_OVL, .-AEK_POW_BMS63EN_Get_Conf_OVL
 869              		.section	.text.AEK_POW_BMS63EN_DisableCoulombCounting,"axv",@progbits
 870              		.align 1
 871              		.p2align 4,,15
 872              		.globl AEK_POW_BMS63EN_DisableCoulombCounting
 873              		.type	AEK_POW_BMS63EN_DisableCoulombCounting, @function
 874              	AEK_POW_BMS63EN_DisableCoulombCounting:
 875              	.LFB15:
 876              		.loc 1 589 0
 877              		.cfi_startproc
 878              	.LVL107:
 879 0000 182106F0 		e_stwu %r1,-16(%r1)
 880              	.LCFI28:
 881              		.cfi_def_cfa_offset 16
 882 0004 0080     		se_mflr %r0
 883 0006 1BC10908 		e_stmw %r30,8(%r1)
 884 000a D501     		se_stw %r0,20(%r1)
 885              		.cfi_offset 65, 4
 886              		.cfi_offset 30, -8
 887              		.cfi_offset 31, -4
 888              		.loc 1 589 0
 889 000c 013E     		se_mr %r30,%r3
 890              		.loc 1 593 0
 891 000e 0134     		se_mr %r4,%r3
 892 0010 4A05     		se_li %r5,32
 893 0012 73E0E000 		e_lis %r31,AEK_POW_BMS63EN_Drv@ha
 894 0016 1FFF0000 		e_la %r31,AEK_POW_BMS63EN_Drv@l(%r31)
 895 001a 01F3     		se_mr %r3,%r31
 896              	.LVL108:
 897 001c 78000001 		e_bl AEK_POW_BMS63EN_SPIReadRegister
 898              	.LVL109:
 899              		.loc 1 594 0
 900 0020 01E4     		se_mr %r4,%r30
 901 0022 01F3     		se_mr %r3,%r31
 902 0024 4A05     		se_li %r5,32
 903 0026 78000001 		e_bl AEK_POW_BMS63EN_SPIReadRegister
 904              	.LVL110:
 905              		.loc 1 600 0
 906 002a C501     		se_lwz %r0,20(%r1)
 907              		.loc 1 598 0
 908 002c 01E4     		se_mr %r4,%r30
 909              		.loc 1 596 0
 910 002e 1866C5EF 		e_andi %r6,%r3,-4097
 911              	.LVL111:
 912              		.loc 1 598 0
GAS LISTING C:\Users\Vipuls\AppData\Local\Temp\ccgvNFZ7.s 			page 17


 913 0032 4A05     		se_li %r5,32
 914 0034 01F3     		se_mr %r3,%r31
 915              		.loc 1 600 0
 916 0036 0090     		se_mtlr %r0
 917              		.cfi_restore 65
 918 0038 1BC10808 		e_lmw %r30,8(%r1)
 919              	.LVL112:
 920 003c 20F1     		se_addi %r1,16
 921              	.LCFI29:
 922              		.cfi_restore 31
 923              		.cfi_restore 30
 924              		.cfi_def_cfa_offset 0
 925              		.loc 1 598 0
 926 003e 78000000 		e_b AEK_POW_BMS63EN_SPIWriteRegister
 927              	.LVL113:
 928              		.cfi_endproc
 929              	.LFE15:
 930              		.size	AEK_POW_BMS63EN_DisableCoulombCounting, .-AEK_POW_BMS63EN_DisableCoulombCounting
 931              		.section	.text.AEK_POW_BMS63EN_EnableCoulombCounting,"axv",@progbits
 932              		.align 1
 933              		.p2align 4,,15
 934              		.globl AEK_POW_BMS63EN_EnableCoulombCounting
 935              		.type	AEK_POW_BMS63EN_EnableCoulombCounting, @function
 936              	AEK_POW_BMS63EN_EnableCoulombCounting:
 937              	.LFB16:
 938              		.loc 1 606 0
 939              		.cfi_startproc
 940              	.LVL114:
 941 0000 182106F0 		e_stwu %r1,-16(%r1)
 942              	.LCFI30:
 943              		.cfi_def_cfa_offset 16
 944 0004 0080     		se_mflr %r0
 945 0006 1BC10908 		e_stmw %r30,8(%r1)
 946 000a D501     		se_stw %r0,20(%r1)
 947              		.cfi_offset 65, 4
 948              		.cfi_offset 30, -8
 949              		.cfi_offset 31, -4
 950              		.loc 1 606 0
 951 000c 013E     		se_mr %r30,%r3
 952              		.loc 1 610 0
 953 000e 0134     		se_mr %r4,%r3
 954 0010 4A05     		se_li %r5,32
 955 0012 73E0E000 		e_lis %r31,AEK_POW_BMS63EN_Drv@ha
 956 0016 1FFF0000 		e_la %r31,AEK_POW_BMS63EN_Drv@l(%r31)
 957 001a 01F3     		se_mr %r3,%r31
 958              	.LVL115:
 959 001c 78000001 		e_bl AEK_POW_BMS63EN_SPIReadRegister
 960              	.LVL116:
 961              		.loc 1 611 0
 962 0020 01E4     		se_mr %r4,%r30
 963 0022 01F3     		se_mr %r3,%r31
 964 0024 4A05     		se_li %r5,32
 965 0026 78000001 		e_bl AEK_POW_BMS63EN_SPIReadRegister
 966              	.LVL117:
 967              		.loc 1 617 0
 968 002a C501     		se_lwz %r0,20(%r1)
 969              		.loc 1 615 0
GAS LISTING C:\Users\Vipuls\AppData\Local\Temp\ccgvNFZ7.s 			page 18


 970 002c 01E4     		se_mr %r4,%r30
 971              		.loc 1 613 0
 972 002e 1866D110 		e_ori %r6,%r3,4096
 973              	.LVL118:
 974              		.loc 1 615 0
 975 0032 4A05     		se_li %r5,32
 976 0034 01F3     		se_mr %r3,%r31
 977              		.loc 1 617 0
 978 0036 0090     		se_mtlr %r0
 979              		.cfi_restore 65
 980 0038 1BC10808 		e_lmw %r30,8(%r1)
 981              	.LVL119:
 982 003c 20F1     		se_addi %r1,16
 983              	.LCFI31:
 984              		.cfi_restore 31
 985              		.cfi_restore 30
 986              		.cfi_def_cfa_offset 0
 987              		.loc 1 615 0
 988 003e 78000000 		e_b AEK_POW_BMS63EN_SPIWriteRegister
 989              	.LVL120:
 990              		.cfi_endproc
 991              	.LFE16:
 992              		.size	AEK_POW_BMS63EN_EnableCoulombCounting, .-AEK_POW_BMS63EN_EnableCoulombCounting
 993              		.section	.text.AEK_POW_BMS63EN_GPIO7_OT_UT_Mask,"axv",@progbits
 994              		.align 1
 995              		.p2align 4,,15
 996              		.globl AEK_POW_BMS63EN_GPIO7_OT_UT_Mask
 997              		.type	AEK_POW_BMS63EN_GPIO7_OT_UT_Mask, @function
 998              	AEK_POW_BMS63EN_GPIO7_OT_UT_Mask:
 999              	.LFB17:
 1000              		.loc 1 624 0
 1001              		.cfi_startproc
 1002              	.LVL121:
 1003 0000 182106F0 		e_stwu %r1,-16(%r1)
 1004              	.LCFI32:
 1005              		.cfi_def_cfa_offset 16
 1006 0004 0080     		se_mflr %r0
 1007 0006 1BC10908 		e_stmw %r30,8(%r1)
 1008 000a D501     		se_stw %r0,20(%r1)
 1009              		.cfi_offset 65, 4
 1010              		.cfi_offset 30, -8
 1011              		.cfi_offset 31, -4
 1012              		.loc 1 624 0
 1013 000c 013E     		se_mr %r30,%r3
 1014              		.loc 1 628 0
 1015 000e 0134     		se_mr %r4,%r3
 1016 0010 4A05     		se_li %r5,32
 1017 0012 73E0E000 		e_lis %r31,AEK_POW_BMS63EN_Drv@ha
 1018 0016 1FFF0000 		e_la %r31,AEK_POW_BMS63EN_Drv@l(%r31)
 1019 001a 01F3     		se_mr %r3,%r31
 1020              	.LVL122:
 1021 001c 78000001 		e_bl AEK_POW_BMS63EN_SPIReadRegister
 1022              	.LVL123:
 1023              		.loc 1 629 0
 1024 0020 01E4     		se_mr %r4,%r30
 1025 0022 01F3     		se_mr %r3,%r31
 1026 0024 4A05     		se_li %r5,32
GAS LISTING C:\Users\Vipuls\AppData\Local\Temp\ccgvNFZ7.s 			page 19


 1027 0026 78000001 		e_bl AEK_POW_BMS63EN_SPIReadRegister
 1028              	.LVL124:
 1029              		.loc 1 635 0
 1030 002a C501     		se_lwz %r0,20(%r1)
 1031              		.loc 1 633 0
 1032 002c 01E4     		se_mr %r4,%r30
 1033              		.loc 1 631 0
 1034 002e 1866D010 		e_ori %r6,%r3,16
 1035              	.LVL125:
 1036              		.loc 1 633 0
 1037 0032 4A05     		se_li %r5,32
 1038 0034 01F3     		se_mr %r3,%r31
 1039              		.loc 1 635 0
 1040 0036 0090     		se_mtlr %r0
 1041              		.cfi_restore 65
 1042 0038 1BC10808 		e_lmw %r30,8(%r1)
 1043              	.LVL126:
 1044 003c 20F1     		se_addi %r1,16
 1045              	.LCFI33:
 1046              		.cfi_restore 31
 1047              		.cfi_restore 30
 1048              		.cfi_def_cfa_offset 0
 1049              		.loc 1 633 0
 1050 003e 78000000 		e_b AEK_POW_BMS63EN_SPIWriteRegister
 1051              	.LVL127:
 1052              		.cfi_endproc
 1053              	.LFE17:
 1054              		.size	AEK_POW_BMS63EN_GPIO7_OT_UT_Mask, .-AEK_POW_BMS63EN_GPIO7_OT_UT_Mask
 1055              		.section	.text.AEK_POW_BMS63EN_GPIO_OT_UT_Mask,"axv",@progbits
 1056              		.align 1
 1057              		.p2align 4,,15
 1058              		.globl AEK_POW_BMS63EN_GPIO_OT_UT_Mask
 1059              		.type	AEK_POW_BMS63EN_GPIO_OT_UT_Mask, @function
 1060              	AEK_POW_BMS63EN_GPIO_OT_UT_Mask:
 1061              	.LFB18:
 1062              		.loc 1 640 0
 1063              		.cfi_startproc
 1064              	.LVL128:
 1065 0000 182106F0 		e_stwu %r1,-16(%r1)
 1066              	.LCFI34:
 1067              		.cfi_def_cfa_offset 16
 1068 0004 0080     		se_mflr %r0
 1069 0006 1BC10908 		e_stmw %r30,8(%r1)
 1070 000a D501     		se_stw %r0,20(%r1)
 1071              		.cfi_offset 65, 4
 1072              		.cfi_offset 30, -8
 1073              		.cfi_offset 31, -4
 1074              		.loc 1 640 0
 1075 000c 013E     		se_mr %r30,%r3
 1076              		.loc 1 644 0
 1077 000e 0134     		se_mr %r4,%r3
 1078 0010 4A05     		se_li %r5,32
 1079 0012 73E0E000 		e_lis %r31,AEK_POW_BMS63EN_Drv@ha
 1080 0016 1FFF0000 		e_la %r31,AEK_POW_BMS63EN_Drv@l(%r31)
 1081 001a 01F3     		se_mr %r3,%r31
 1082              	.LVL129:
 1083 001c 78000001 		e_bl AEK_POW_BMS63EN_SPIReadRegister
GAS LISTING C:\Users\Vipuls\AppData\Local\Temp\ccgvNFZ7.s 			page 20


 1084              	.LVL130:
 1085              		.loc 1 645 0
 1086 0020 01E4     		se_mr %r4,%r30
 1087 0022 01F3     		se_mr %r3,%r31
 1088 0024 4A05     		se_li %r5,32
 1089 0026 78000001 		e_bl AEK_POW_BMS63EN_SPIReadRegister
 1090              	.LVL131:
 1091              		.loc 1 651 0
 1092 002a C501     		se_lwz %r0,20(%r1)
 1093              		.loc 1 649 0
 1094 002c 01E4     		se_mr %r4,%r30
 1095              		.loc 1 647 0
 1096 002e 1866D07F 		e_ori %r6,%r3,127
 1097              	.LVL132:
 1098              		.loc 1 649 0
 1099 0032 4A05     		se_li %r5,32
 1100 0034 01F3     		se_mr %r3,%r31
 1101              		.loc 1 651 0
 1102 0036 0090     		se_mtlr %r0
 1103              		.cfi_restore 65
 1104 0038 1BC10808 		e_lmw %r30,8(%r1)
 1105              	.LVL133:
 1106 003c 20F1     		se_addi %r1,16
 1107              	.LCFI35:
 1108              		.cfi_restore 31
 1109              		.cfi_restore 30
 1110              		.cfi_def_cfa_offset 0
 1111              		.loc 1 649 0
 1112 003e 78000000 		e_b AEK_POW_BMS63EN_SPIWriteRegister
 1113              	.LVL134:
 1114              		.cfi_endproc
 1115              	.LFE18:
 1116              		.size	AEK_POW_BMS63EN_GPIO_OT_UT_Mask, .-AEK_POW_BMS63EN_GPIO_OT_UT_Mask
 1117              		.section	.text.AEK_POW_BMS63EN_GPIO_CSA_Mask,"axv",@progbits
 1118              		.align 1
 1119              		.p2align 4,,15
 1120              		.globl AEK_POW_BMS63EN_GPIO_CSA_Mask
 1121              		.type	AEK_POW_BMS63EN_GPIO_CSA_Mask, @function
 1122              	AEK_POW_BMS63EN_GPIO_CSA_Mask:
 1123              	.LFB19:
 1124              		.loc 1 656 0
 1125              		.cfi_startproc
 1126              	.LVL135:
 1127 0000 182106F0 		e_stwu %r1,-16(%r1)
 1128              	.LCFI36:
 1129              		.cfi_def_cfa_offset 16
 1130 0004 0080     		se_mflr %r0
 1131 0006 1BC10908 		e_stmw %r30,8(%r1)
 1132 000a D501     		se_stw %r0,20(%r1)
 1133              		.cfi_offset 65, 4
 1134              		.cfi_offset 30, -8
 1135              		.cfi_offset 31, -4
 1136              		.loc 1 656 0
 1137 000c 013E     		se_mr %r30,%r3
 1138              		.loc 1 660 0
 1139 000e 0134     		se_mr %r4,%r3
 1140 0010 4A05     		se_li %r5,32
GAS LISTING C:\Users\Vipuls\AppData\Local\Temp\ccgvNFZ7.s 			page 21


 1141 0012 73E0E000 		e_lis %r31,AEK_POW_BMS63EN_Drv@ha
 1142 0016 1FFF0000 		e_la %r31,AEK_POW_BMS63EN_Drv@l(%r31)
 1143 001a 01F3     		se_mr %r3,%r31
 1144              	.LVL136:
 1145 001c 78000001 		e_bl AEK_POW_BMS63EN_SPIReadRegister
 1146              	.LVL137:
 1147              		.loc 1 661 0
 1148 0020 01E4     		se_mr %r4,%r30
 1149 0022 01F3     		se_mr %r3,%r31
 1150 0024 4A05     		se_li %r5,32
 1151 0026 78000001 		e_bl AEK_POW_BMS63EN_SPIReadRegister
 1152              	.LVL138:
 1153              		.loc 1 665 0
 1154 002a 01E4     		se_mr %r4,%r30
 1155              		.loc 1 663 0
 1156 002c 0136     		se_mr %r6,%r3
 1157              		.loc 1 665 0
 1158 002e 4A05     		se_li %r5,32
 1159 0030 01F3     		se_mr %r3,%r31
 1160              	.LVL139:
 1161              		.loc 1 663 0
 1162 0032 70C1C7FF 		e_or2i %r6,4095
 1163              	.LVL140:
 1164              		.loc 1 665 0
 1165 0036 78000001 		e_bl AEK_POW_BMS63EN_SPIWriteRegister
 1166              	.LVL141:
 1167              		.loc 1 667 0
 1168 003a 01E4     		se_mr %r4,%r30
 1169 003c 01F3     		se_mr %r3,%r31
 1170 003e 4A05     		se_li %r5,32
 1171 0040 78000001 		e_bl AEK_POW_BMS63EN_SPIReadRegister
 1172              	.LVL142:
 1173              		.loc 1 669 0
 1174 0044 C501     		se_lwz %r0,20(%r1)
 1175              		.loc 1 668 0
 1176 0046 01F3     		se_mr %r3,%r31
 1177 0048 01E4     		se_mr %r4,%r30
 1178 004a 4A05     		se_li %r5,32
 1179              		.loc 1 669 0
 1180 004c 1BC10808 		e_lmw %r30,8(%r1)
 1181              	.LVL143:
 1182 0050 0090     		se_mtlr %r0
 1183              		.cfi_restore 65
 1184 0052 20F1     		se_addi %r1,16
 1185              	.LCFI37:
 1186              		.cfi_restore 31
 1187              		.cfi_restore 30
 1188              		.cfi_def_cfa_offset 0
 1189              		.loc 1 668 0
 1190 0054 78000000 		e_b AEK_POW_BMS63EN_SPIReadRegister
 1191              	.LVL144:
 1192              		.cfi_endproc
 1193              	.LFE19:
 1194              		.size	AEK_POW_BMS63EN_GPIO_CSA_Mask, .-AEK_POW_BMS63EN_GPIO_CSA_Mask
 1195              		.section	.text.AEK_POW_BMS63EN_SetADCContinuousMode,"axv",@progbits
 1196              		.align 1
 1197              		.p2align 4,,15
GAS LISTING C:\Users\Vipuls\AppData\Local\Temp\ccgvNFZ7.s 			page 22


 1198              		.globl AEK_POW_BMS63EN_SetADCContinuousMode
 1199              		.type	AEK_POW_BMS63EN_SetADCContinuousMode, @function
 1200              	AEK_POW_BMS63EN_SetADCContinuousMode:
 1201              	.LFB20:
 1202              		.loc 1 684 0
 1203              		.cfi_startproc
 1204              	.LVL145:
 1205 0000 182106F0 		e_stwu %r1,-16(%r1)
 1206              	.LCFI38:
 1207              		.cfi_def_cfa_offset 16
 1208 0004 0080     		se_mflr %r0
 1209 0006 1BC10908 		e_stmw %r30,8(%r1)
 1210 000a D501     		se_stw %r0,20(%r1)
 1211              		.cfi_offset 65, 4
 1212              		.cfi_offset 30, -8
 1213              		.cfi_offset 31, -4
 1214              		.loc 1 684 0
 1215 000c 013E     		se_mr %r30,%r3
 1216              		.loc 1 688 0
 1217 000e 0134     		se_mr %r4,%r3
 1218 0010 48D5     		se_li %r5,13
 1219 0012 73E0E000 		e_lis %r31,AEK_POW_BMS63EN_Drv@ha
 1220 0016 1FFF0000 		e_la %r31,AEK_POW_BMS63EN_Drv@l(%r31)
 1221 001a 01F3     		se_mr %r3,%r31
 1222              	.LVL146:
 1223 001c 78000001 		e_bl AEK_POW_BMS63EN_SPIReadRegister
 1224              	.LVL147:
 1225              		.loc 1 689 0
 1226 0020 01E4     		se_mr %r4,%r30
 1227 0022 01F3     		se_mr %r3,%r31
 1228 0024 48D5     		se_li %r5,13
 1229 0026 78000001 		e_bl AEK_POW_BMS63EN_SPIReadRegister
 1230              	.LVL148:
 1231              		.loc 1 695 0
 1232 002a C501     		se_lwz %r0,20(%r1)
 1233              		.loc 1 693 0
 1234 002c 01E4     		se_mr %r4,%r30
 1235              		.loc 1 691 0
 1236 002e 1866D001 		e_ori %r6,%r3,1
 1237              	.LVL149:
 1238              		.loc 1 693 0
 1239 0032 48D5     		se_li %r5,13
 1240 0034 01F3     		se_mr %r3,%r31
 1241              		.loc 1 695 0
 1242 0036 0090     		se_mtlr %r0
 1243              		.cfi_restore 65
 1244 0038 1BC10808 		e_lmw %r30,8(%r1)
 1245              	.LVL150:
 1246 003c 20F1     		se_addi %r1,16
 1247              	.LCFI39:
 1248              		.cfi_restore 31
 1249              		.cfi_restore 30
 1250              		.cfi_def_cfa_offset 0
 1251              		.loc 1 693 0
 1252 003e 78000000 		e_b AEK_POW_BMS63EN_SPIWriteRegister
 1253              	.LVL151:
 1254              		.cfi_endproc
GAS LISTING C:\Users\Vipuls\AppData\Local\Temp\ccgvNFZ7.s 			page 23


 1255              	.LFE20:
 1256              		.size	AEK_POW_BMS63EN_SetADCContinuousMode, .-AEK_POW_BMS63EN_SetADCContinuousMode
 1257              		.section	.text.AEK_POW_BMS63EN_SetADCFilterSOC,"axv",@progbits
 1258              		.align 1
 1259              		.p2align 4,,15
 1260              		.globl AEK_POW_BMS63EN_SetADCFilterSOC
 1261              		.type	AEK_POW_BMS63EN_SetADCFilterSOC, @function
 1262              	AEK_POW_BMS63EN_SetADCFilterSOC:
 1263              	.LFB21:
 1264              		.loc 1 701 0
 1265              		.cfi_startproc
 1266              	.LVL152:
 1267 0000 182106E8 		e_stwu %r1,-24(%r1)
 1268              	.LCFI40:
 1269              		.cfi_def_cfa_offset 24
 1270 0004 0080     		se_mflr %r0
 1271 0006 1BA1090C 		e_stmw %r29,12(%r1)
 1272 000a D701     		se_stw %r0,28(%r1)
 1273              		.cfi_offset 65, 4
 1274              		.cfi_offset 29, -12
 1275              		.cfi_offset 30, -8
 1276              		.cfi_offset 31, -4
 1277              		.loc 1 701 0
 1278 000c 013D     		se_mr %r29,%r3
 1279 000e 014E     		se_mr %r30,%r4
 1280              		.loc 1 705 0
 1281 0010 48D5     		se_li %r5,13
 1282 0012 0134     		se_mr %r4,%r3
 1283              	.LVL153:
 1284              		.loc 1 710 0
 1285 0014 6C9E     		se_slwi %r30, 9
 1286              	.LVL154:
 1287              		.loc 1 705 0
 1288 0016 73E0E000 		e_lis %r31,AEK_POW_BMS63EN_Drv@ha
 1289 001a 1FFF0000 		e_la %r31,AEK_POW_BMS63EN_Drv@l(%r31)
 1290 001e 01F3     		se_mr %r3,%r31
 1291              	.LVL155:
 1292 0020 78000001 		e_bl AEK_POW_BMS63EN_SPIReadRegister
 1293              	.LVL156:
 1294              		.loc 1 706 0
 1295 0024 01D4     		se_mr %r4,%r29
 1296 0026 01F3     		se_mr %r3,%r31
 1297 0028 48D5     		se_li %r5,13
 1298 002a 78000001 		e_bl AEK_POW_BMS63EN_SPIReadRegister
 1299              	.LVL157:
 1300              		.loc 1 714 0
 1301 002e C701     		se_lwz %r0,28(%r1)
 1302              		.loc 1 708 0
 1303 0030 1866C5F1 		e_andi %r6,%r3,-3585
 1304              	.LVL158:
 1305              		.loc 1 712 0
 1306 0034 01D4     		se_mr %r4,%r29
 1307 0036 01F3     		se_mr %r3,%r31
 1308 0038 44E6     		se_or %r6,%r30
 1309 003a 48D5     		se_li %r5,13
 1310              		.loc 1 714 0
 1311 003c 1BA1080C 		e_lmw %r29,12(%r1)
GAS LISTING C:\Users\Vipuls\AppData\Local\Temp\ccgvNFZ7.s 			page 24


 1312              	.LVL159:
 1313 0040 0090     		se_mtlr %r0
 1314              		.cfi_restore 65
 1315 0042 2171     		se_addi %r1,24
 1316              	.LCFI41:
 1317              		.cfi_restore 31
 1318              		.cfi_restore 30
 1319              		.cfi_restore 29
 1320              		.cfi_def_cfa_offset 0
 1321              		.loc 1 712 0
 1322 0044 78000000 		e_b AEK_POW_BMS63EN_SPIWriteRegister
 1323              	.LVL160:
 1324              		.cfi_endproc
 1325              	.LFE21:
 1326              		.size	AEK_POW_BMS63EN_SetADCFilterSOC, .-AEK_POW_BMS63EN_SetADCFilterSOC
 1327              		.section	.text.AEK_POW_BMS63EN_SetADCTcycle,"axv",@progbits
 1328              		.align 1
 1329              		.p2align 4,,15
 1330              		.globl AEK_POW_BMS63EN_SetADCTcycle
 1331              		.type	AEK_POW_BMS63EN_SetADCTcycle, @function
 1332              	AEK_POW_BMS63EN_SetADCTcycle:
 1333              	.LFB22:
 1334              		.loc 1 720 0
 1335              		.cfi_startproc
 1336              	.LVL161:
 1337 0000 182106E8 		e_stwu %r1,-24(%r1)
 1338              	.LCFI42:
 1339              		.cfi_def_cfa_offset 24
 1340 0004 0080     		se_mflr %r0
 1341 0006 1BA1090C 		e_stmw %r29,12(%r1)
 1342 000a D701     		se_stw %r0,28(%r1)
 1343              		.cfi_offset 65, 4
 1344              		.cfi_offset 29, -12
 1345              		.cfi_offset 30, -8
 1346              		.cfi_offset 31, -4
 1347              		.loc 1 720 0
 1348 000c 013D     		se_mr %r29,%r3
 1349 000e 014E     		se_mr %r30,%r4
 1350              		.loc 1 724 0
 1351 0010 48D5     		se_li %r5,13
 1352 0012 0134     		se_mr %r4,%r3
 1353              	.LVL162:
 1354 0014 73E0E000 		e_lis %r31,AEK_POW_BMS63EN_Drv@ha
 1355 0018 1FFF0000 		e_la %r31,AEK_POW_BMS63EN_Drv@l(%r31)
 1356 001c 01F3     		se_mr %r3,%r31
 1357              	.LVL163:
 1358 001e 78000001 		e_bl AEK_POW_BMS63EN_SPIReadRegister
 1359              	.LVL164:
 1360              		.loc 1 725 0
 1361 0022 01F3     		se_mr %r3,%r31
 1362 0024 01D4     		se_mr %r4,%r29
 1363 0026 48D5     		se_li %r5,13
 1364 0028 78000001 		e_bl AEK_POW_BMS63EN_SPIReadRegister
 1365              	.LVL165:
 1366              		.loc 1 729 0
 1367 002c 226E     		se_cmpli %r30,7
 1368              		.loc 1 727 0
GAS LISTING C:\Users\Vipuls\AppData\Local\Temp\ccgvNFZ7.s 			page 25


 1369 002e 1866C4F1 		e_andi %r6,%r3,-15
 1370              	.LVL166:
 1371              		.loc 1 729 0
 1372 0032 7A11001E 		e_bgt %cr0,.L46
 1373 0036 6C2E     		se_slwi %r30, 2
 1374              	.LVL167:
 1375 0038 70E0E000 		e_lis %r7,.L48@ha
 1376 003c 1CE70000 		e_la %r7,.L48@l(%r7)
 1377 0040 7CA7F02E 		lwzx %r5,%r7,%r30
 1378 0044 7CE53A14 		add %r7,%r5,%r7
 1379 0048 00B7     		se_mtctr %r7
 1380 004a 0006     		se_bctr
 1381              		.section	.rodata.AEK_POW_BMS63EN_SetADCTcycle,"a",@progbits
 1382              		.align 2
 1383              		.align 2
 1384              	.L48:
 1385 0000 00000000 		.long .L46-.L48
 1386 0004 00000000 		.long .L47-.L48
 1387 0008 00000000 		.long .L49-.L48
 1388 000c 00000000 		.long .L50-.L48
 1389 0010 00000000 		.long .L51-.L48
 1390 0014 00000000 		.long .L52-.L48
 1391 0018 00000000 		.long .L53-.L48
 1392 001c 00000000 		.long .L54-.L48
 1393              		.section	.text.AEK_POW_BMS63EN_SetADCTcycle
 1394              	.L54:
 1395              		.loc 1 758 0
 1396 004c 18C6D00E 		e_ori %r6,%r6,14
 1397              	.LVL168:
 1398              	.L46:
 1399              		.loc 1 764 0
 1400 0050 C701     		se_lwz %r0,28(%r1)
 1401              		.loc 1 762 0
 1402 0052 01D4     		se_mr %r4,%r29
 1403 0054 7060E000 		e_lis %r3,AEK_POW_BMS63EN_Drv@ha
 1404              		.loc 1 764 0
 1405 0058 1BA1080C 		e_lmw %r29,12(%r1)
 1406              	.LVL169:
 1407              		.loc 1 762 0
 1408 005c 1C630000 		e_la %r3,AEK_POW_BMS63EN_Drv@l(%r3)
 1409              		.loc 1 764 0
 1410              		.loc 1 762 0
 1411 0060 48D5     		se_li %r5,13
 1412              		.loc 1 764 0
 1413 0062 0090     		se_mtlr %r0
 1414              		.cfi_remember_state
 1415              		.cfi_restore 65
 1416 0064 2171     		se_addi %r1,24
 1417              	.LCFI43:
 1418              		.cfi_restore 31
 1419              		.cfi_restore 30
 1420              		.cfi_restore 29
 1421              		.cfi_def_cfa_offset 0
 1422              		.loc 1 762 0
 1423 0066 78000000 		e_b AEK_POW_BMS63EN_SPIWriteRegister
 1424              	.LVL170:
 1425              	.L53:
GAS LISTING C:\Users\Vipuls\AppData\Local\Temp\ccgvNFZ7.s 			page 26


 1426              	.LCFI44:
 1427              		.cfi_restore_state
 1428              		.loc 1 764 0
 1429 006a C701     		se_lwz %r0,28(%r1)
 1430              		.loc 1 762 0
 1431 006c 01D4     		se_mr %r4,%r29
 1432 006e 7060E000 		e_lis %r3,AEK_POW_BMS63EN_Drv@ha
 1433              		.loc 1 764 0
 1434 0072 1BA1080C 		e_lmw %r29,12(%r1)
 1435              	.LVL171:
 1436              		.loc 1 754 0
 1437 0076 18C6D00C 		e_ori %r6,%r6,12
 1438              	.LVL172:
 1439              		.loc 1 764 0
 1440              		.loc 1 762 0
 1441 007a 1C630000 		e_la %r3,AEK_POW_BMS63EN_Drv@l(%r3)
 1442 007e 48D5     		se_li %r5,13
 1443              		.loc 1 764 0
 1444 0080 0090     		se_mtlr %r0
 1445              		.cfi_remember_state
 1446              		.cfi_restore 65
 1447 0082 2171     		se_addi %r1,24
 1448              	.LCFI45:
 1449              		.cfi_restore 29
 1450              		.cfi_restore 30
 1451              		.cfi_restore 31
 1452              		.cfi_def_cfa_offset 0
 1453              		.loc 1 762 0
 1454 0084 78000000 		e_b AEK_POW_BMS63EN_SPIWriteRegister
 1455              	.LVL173:
 1456              	.L47:
 1457              	.LCFI46:
 1458              		.cfi_restore_state
 1459              		.loc 1 764 0
 1460 0088 C701     		se_lwz %r0,28(%r1)
 1461              		.loc 1 762 0
 1462 008a 01D4     		se_mr %r4,%r29
 1463 008c 7060E000 		e_lis %r3,AEK_POW_BMS63EN_Drv@ha
 1464              		.loc 1 764 0
 1465 0090 1BA1080C 		e_lmw %r29,12(%r1)
 1466              	.LVL174:
 1467              		.loc 1 734 0
 1468 0094 65E6     		se_bseti %r6,30
 1469              	.LVL175:
 1470              		.loc 1 764 0
 1471              		.loc 1 762 0
 1472 0096 1C630000 		e_la %r3,AEK_POW_BMS63EN_Drv@l(%r3)
 1473 009a 48D5     		se_li %r5,13
 1474              		.loc 1 764 0
 1475 009c 0090     		se_mtlr %r0
 1476              		.cfi_remember_state
 1477              		.cfi_restore 65
 1478 009e 2171     		se_addi %r1,24
 1479              	.LCFI47:
 1480              		.cfi_restore 29
 1481              		.cfi_restore 30
 1482              		.cfi_restore 31
GAS LISTING C:\Users\Vipuls\AppData\Local\Temp\ccgvNFZ7.s 			page 27


 1483              		.cfi_def_cfa_offset 0
 1484              		.loc 1 762 0
 1485 00a0 78000000 		e_b AEK_POW_BMS63EN_SPIWriteRegister
 1486              	.LVL176:
 1487              	.L49:
 1488              	.LCFI48:
 1489              		.cfi_restore_state
 1490              		.loc 1 764 0
 1491 00a4 C701     		se_lwz %r0,28(%r1)
 1492              		.loc 1 762 0
 1493 00a6 01D4     		se_mr %r4,%r29
 1494 00a8 7060E000 		e_lis %r3,AEK_POW_BMS63EN_Drv@ha
 1495              		.loc 1 764 0
 1496 00ac 1BA1080C 		e_lmw %r29,12(%r1)
 1497              	.LVL177:
 1498              		.loc 1 738 0
 1499 00b0 65D6     		se_bseti %r6,29
 1500              	.LVL178:
 1501              		.loc 1 764 0
 1502              		.loc 1 762 0
 1503 00b2 1C630000 		e_la %r3,AEK_POW_BMS63EN_Drv@l(%r3)
 1504 00b6 48D5     		se_li %r5,13
 1505              		.loc 1 764 0
 1506 00b8 0090     		se_mtlr %r0
 1507              		.cfi_remember_state
 1508              		.cfi_restore 65
 1509 00ba 2171     		se_addi %r1,24
 1510              	.LCFI49:
 1511              		.cfi_restore 29
 1512              		.cfi_restore 30
 1513              		.cfi_restore 31
 1514              		.cfi_def_cfa_offset 0
 1515              		.loc 1 762 0
 1516 00bc 78000000 		e_b AEK_POW_BMS63EN_SPIWriteRegister
 1517              	.LVL179:
 1518              	.L50:
 1519              	.LCFI50:
 1520              		.cfi_restore_state
 1521              		.loc 1 764 0
 1522 00c0 C701     		se_lwz %r0,28(%r1)
 1523              		.loc 1 762 0
 1524 00c2 01D4     		se_mr %r4,%r29
 1525 00c4 7060E000 		e_lis %r3,AEK_POW_BMS63EN_Drv@ha
 1526              		.loc 1 764 0
 1527 00c8 1BA1080C 		e_lmw %r29,12(%r1)
 1528              	.LVL180:
 1529              		.loc 1 742 0
 1530 00cc 18C6D006 		e_ori %r6,%r6,6
 1531              	.LVL181:
 1532              		.loc 1 764 0
 1533              		.loc 1 762 0
 1534 00d0 1C630000 		e_la %r3,AEK_POW_BMS63EN_Drv@l(%r3)
 1535 00d4 48D5     		se_li %r5,13
 1536              		.loc 1 764 0
 1537 00d6 0090     		se_mtlr %r0
 1538              		.cfi_remember_state
 1539              		.cfi_restore 65
GAS LISTING C:\Users\Vipuls\AppData\Local\Temp\ccgvNFZ7.s 			page 28


 1540 00d8 2171     		se_addi %r1,24
 1541              	.LCFI51:
 1542              		.cfi_restore 29
 1543              		.cfi_restore 30
 1544              		.cfi_restore 31
 1545              		.cfi_def_cfa_offset 0
 1546              		.loc 1 762 0
 1547 00da 78000000 		e_b AEK_POW_BMS63EN_SPIWriteRegister
 1548              	.LVL182:
 1549              	.L51:
 1550              	.LCFI52:
 1551              		.cfi_restore_state
 1552              		.loc 1 764 0
 1553 00de C701     		se_lwz %r0,28(%r1)
 1554              		.loc 1 762 0
 1555 00e0 01D4     		se_mr %r4,%r29
 1556 00e2 7060E000 		e_lis %r3,AEK_POW_BMS63EN_Drv@ha
 1557              		.loc 1 764 0
 1558 00e6 1BA1080C 		e_lmw %r29,12(%r1)
 1559              	.LVL183:
 1560              		.loc 1 746 0
 1561 00ea 65C6     		se_bseti %r6,28
 1562              	.LVL184:
 1563              		.loc 1 764 0
 1564              		.loc 1 762 0
 1565 00ec 1C630000 		e_la %r3,AEK_POW_BMS63EN_Drv@l(%r3)
 1566 00f0 48D5     		se_li %r5,13
 1567              		.loc 1 764 0
 1568 00f2 0090     		se_mtlr %r0
 1569              		.cfi_remember_state
 1570              		.cfi_restore 65
 1571 00f4 2171     		se_addi %r1,24
 1572              	.LCFI53:
 1573              		.cfi_restore 29
 1574              		.cfi_restore 30
 1575              		.cfi_restore 31
 1576              		.cfi_def_cfa_offset 0
 1577              		.loc 1 762 0
 1578 00f6 78000000 		e_b AEK_POW_BMS63EN_SPIWriteRegister
 1579              	.LVL185:
 1580              	.L52:
 1581              	.LCFI54:
 1582              		.cfi_restore_state
 1583              		.loc 1 764 0
 1584 00fa C701     		se_lwz %r0,28(%r1)
 1585              		.loc 1 762 0
 1586 00fc 01D4     		se_mr %r4,%r29
 1587 00fe 7060E000 		e_lis %r3,AEK_POW_BMS63EN_Drv@ha
 1588              		.loc 1 764 0
 1589 0102 1BA1080C 		e_lmw %r29,12(%r1)
 1590              	.LVL186:
 1591              		.loc 1 750 0
 1592 0106 18C6D00A 		e_ori %r6,%r6,10
 1593              	.LVL187:
 1594              		.loc 1 764 0
 1595              		.loc 1 762 0
 1596 010a 1C630000 		e_la %r3,AEK_POW_BMS63EN_Drv@l(%r3)
GAS LISTING C:\Users\Vipuls\AppData\Local\Temp\ccgvNFZ7.s 			page 29


 1597 010e 48D5     		se_li %r5,13
 1598              		.loc 1 764 0
 1599 0110 0090     		se_mtlr %r0
 1600              		.cfi_restore 65
 1601 0112 2171     		se_addi %r1,24
 1602              	.LCFI55:
 1603              		.cfi_restore 29
 1604              		.cfi_restore 30
 1605              		.cfi_restore 31
 1606              		.cfi_def_cfa_offset 0
 1607              		.loc 1 762 0
 1608 0114 78000000 		e_b AEK_POW_BMS63EN_SPIWriteRegister
 1609              	.LVL188:
 1610              		.cfi_endproc
 1611              	.LFE22:
 1612              		.size	AEK_POW_BMS63EN_SetADCTcycle, .-AEK_POW_BMS63EN_SetADCTcycle
 1613              		.section	.text.AEK_POW_BMS63EN_SetVBattOVCThreshold,"axv",@progbits
 1614              		.align 1
 1615              		.p2align 4,,15
 1616              		.globl AEK_POW_BMS63EN_SetVBattOVCThreshold
 1617              		.type	AEK_POW_BMS63EN_SetVBattOVCThreshold, @function
 1618              	AEK_POW_BMS63EN_SetVBattOVCThreshold:
 1619              	.LFB23:
 1620              		.loc 1 770 0
 1621              		.cfi_startproc
 1622              	.LVL189:
 1623              		.loc 1 775 0
 1624 0000 2A04     		se_cmpi %r4,0
 1625 0002 7A100032 		e_blt %cr0,.L58
 1626              		.loc 1 780 0
 1627 0006 70E003E8 		e_li %r7,1000
 1628              		.loc 1 785 0
 1629              		.loc 1 780 0
 1630 000a 7CA439D6 		mullw %r5,%r4,%r7
 1631 000e 70F8E519 		e_lis %r7,0xc519
 1632 0012 7CA6FE70 		srawi %r6,%r5,31
 1633 0016 70F9C2E1 		e_or2i %r7,51937
 1634              		.loc 1 783 0
 1635 001a 0134     		se_mr %r4,%r3
 1636              	.LVL190:
 1637              		.loc 1 780 0
 1638 001c 7CE53896 		mulhw %r7,%r5,%r7
 1639              		.loc 1 783 0
 1640 0020 7060E000 		e_lis %r3,AEK_POW_BMS63EN_Drv@ha
 1641              	.LVL191:
 1642              		.loc 1 780 0
 1643 0024 0457     		se_add %r7,%r5
 1644              		.loc 1 783 0
 1645 0026 1C630000 		e_la %r3,AEK_POW_BMS63EN_Drv@l(%r3)
 1646              		.loc 1 780 0
 1647 002a 6AA7     		se_srawi %r7, 10
 1648              		.loc 1 783 0
 1649 002c 49F5     		se_li %r5,31
 1650              		.loc 1 780 0
 1651 002e 0776     		se_subf %r6, %r7
 1652              	.LVL192:
 1653              		.loc 1 783 0
GAS LISTING C:\Users\Vipuls\AppData\Local\Temp\ccgvNFZ7.s 			page 30


 1654 0030 78000000 		e_b AEK_POW_BMS63EN_SPIWriteRegister
 1655              	.LVL193:
 1656              	.L58:
 1657              		.loc 1 776 0
 1658 0034 70DF7C18 		e_li %r6,-1000
 1659              		.loc 1 785 0
 1660              		.loc 1 776 0
 1661 0038 7CE431D6 		mullw %r7,%r4,%r6
 1662 003c 70D8E519 		e_lis %r6,0xc519
 1663 0040 7CE5FE70 		srawi %r5,%r7,31
 1664 0044 70D9C2E1 		e_or2i %r6,51937
 1665              		.loc 1 783 0
 1666 0048 0134     		se_mr %r4,%r3
 1667              	.LVL194:
 1668              		.loc 1 776 0
 1669 004a 7CC73096 		mulhw %r6,%r7,%r6
 1670              		.loc 1 783 0
 1671 004e 7060E000 		e_lis %r3,AEK_POW_BMS63EN_Drv@ha
 1672              	.LVL195:
 1673              		.loc 1 776 0
 1674 0052 0476     		se_add %r6,%r7
 1675              		.loc 1 783 0
 1676 0054 1C630000 		e_la %r3,AEK_POW_BMS63EN_Drv@l(%r3)
 1677              		.loc 1 776 0
 1678 0058 6AA6     		se_srawi %r6, 10
 1679              		.loc 1 778 0
 1680 005a 0756     		se_subf %r6, %r5
 1681              		.loc 1 783 0
 1682 005c 49F5     		se_li %r5,31
 1683              		.loc 1 778 0
 1684 005e 74C603BF 		e_rlwinm %r6,%r6,0,14,31
 1685              	.LVL196:
 1686              		.loc 1 783 0
 1687 0062 78000000 		e_b AEK_POW_BMS63EN_SPIWriteRegister
 1688              	.LVL197:
 1689              		.cfi_endproc
 1690              	.LFE23:
 1691              		.size	AEK_POW_BMS63EN_SetVBattOVCThreshold, .-AEK_POW_BMS63EN_SetVBattOVCThreshold
 1692              		.section	.text.AEK_POW_BMS63EN_SetVBattOVThreshold,"axv",@progbits
 1693              		.align 1
 1694              		.p2align 4,,15
 1695              		.globl AEK_POW_BMS63EN_SetVBattOVThreshold
 1696              		.type	AEK_POW_BMS63EN_SetVBattOVThreshold, @function
 1697              	AEK_POW_BMS63EN_SetVBattOVThreshold:
 1698              	.LFB24:
 1699              		.loc 1 791 0
 1700              		.cfi_startproc
 1701              	.LVL198:
 1702 0000 182106E8 		e_stwu %r1,-24(%r1)
 1703              	.LCFI56:
 1704              		.cfi_def_cfa_offset 24
 1705 0004 0080     		se_mflr %r0
 1706 0006 1BA1090C 		e_stmw %r29,12(%r1)
 1707 000a D701     		se_stw %r0,28(%r1)
 1708              		.cfi_offset 65, 4
 1709              		.cfi_offset 29, -12
 1710              		.cfi_offset 30, -8
GAS LISTING C:\Users\Vipuls\AppData\Local\Temp\ccgvNFZ7.s 			page 31


 1711              		.cfi_offset 31, -4
 1712              		.loc 1 791 0
 1713 000c 013D     		se_mr %r29,%r3
 1714 000e 014E     		se_mr %r30,%r4
 1715              		.loc 1 795 0
 1716 0010 48C5     		se_li %r5,12
 1717 0012 0134     		se_mr %r4,%r3
 1718              	.LVL199:
 1719 0014 73E0E000 		e_lis %r31,AEK_POW_BMS63EN_Drv@ha
 1720 0018 1FFF0000 		e_la %r31,AEK_POW_BMS63EN_Drv@l(%r31)
 1721 001c 01F3     		se_mr %r3,%r31
 1722              	.LVL200:
 1723 001e 78000001 		e_bl AEK_POW_BMS63EN_SPIReadRegister
 1724              	.LVL201:
 1725              		.loc 1 796 0
 1726 0022 01D4     		se_mr %r4,%r29
 1727 0024 01F3     		se_mr %r3,%r31
 1728 0026 48C5     		se_li %r5,12
 1729 0028 78000001 		e_bl AEK_POW_BMS63EN_SPIReadRegister
 1730              	.LVL202:
 1731              		.loc 1 805 0
 1732 002c C701     		se_lwz %r0,28(%r1)
 1733              		.loc 1 800 0
 1734 002e 70C003E8 		e_li %r6,1000
 1735              		.loc 1 803 0
 1736 0032 01D4     		se_mr %r4,%r29
 1737              		.loc 1 800 0
 1738 0034 7CFE31D6 		mullw %r7,%r30,%r6
 1739 0038 70B7E017 		e_lis %r5,0xb817
 1740              		.loc 1 799 0
 1741 003c 1866C500 		e_andi %r6,%r3,-65281
 1742              	.LVL203:
 1743              		.loc 1 800 0
 1744 0040 70A0C2E1 		e_or2i %r5,737
 1745              		.loc 1 803 0
 1746 0044 01F3     		se_mr %r3,%r31
 1747              		.loc 1 800 0
 1748 0046 7CE72816 		mulhwu %r7,%r7,%r5
 1749              		.loc 1 805 0
 1750 004a 1BA1080C 		e_lmw %r29,12(%r1)
 1751              	.LVL204:
 1752              		.loc 1 801 0
 1753 004e 74E7B2AF 		e_rlwinm %r7,%r7,22,10,23
 1754              		.loc 1 805 0
 1755              		.loc 1 803 0
 1756 0052 48C5     		se_li %r5,12
 1757 0054 4476     		se_or %r6,%r7
 1758              	.LVL205:
 1759              		.loc 1 805 0
 1760 0056 0090     		se_mtlr %r0
 1761              		.cfi_restore 65
 1762 0058 2171     		se_addi %r1,24
 1763              	.LCFI57:
 1764              		.cfi_restore 31
 1765              		.cfi_restore 30
 1766              		.cfi_restore 29
 1767              		.cfi_def_cfa_offset 0
GAS LISTING C:\Users\Vipuls\AppData\Local\Temp\ccgvNFZ7.s 			page 32


 1768              		.loc 1 803 0
 1769 005a 78000000 		e_b AEK_POW_BMS63EN_SPIWriteRegister
 1770              	.LVL206:
 1771              		.cfi_endproc
 1772              	.LFE24:
 1773              		.size	AEK_POW_BMS63EN_SetVBattOVThreshold, .-AEK_POW_BMS63EN_SetVBattOVThreshold
 1774              		.section	.text.AEK_POW_BMS63EN_SetVBattUVThreshold,"axv",@progbits
 1775              		.align 1
 1776              		.p2align 4,,15
 1777              		.globl AEK_POW_BMS63EN_SetVBattUVThreshold
 1778              		.type	AEK_POW_BMS63EN_SetVBattUVThreshold, @function
 1779              	AEK_POW_BMS63EN_SetVBattUVThreshold:
 1780              	.LFB25:
 1781              		.loc 1 811 0
 1782              		.cfi_startproc
 1783              	.LVL207:
 1784 0000 182106E8 		e_stwu %r1,-24(%r1)
 1785              	.LCFI58:
 1786              		.cfi_def_cfa_offset 24
 1787 0004 0080     		se_mflr %r0
 1788 0006 1BA1090C 		e_stmw %r29,12(%r1)
 1789 000a D701     		se_stw %r0,28(%r1)
 1790              		.cfi_offset 65, 4
 1791              		.cfi_offset 29, -12
 1792              		.cfi_offset 30, -8
 1793              		.cfi_offset 31, -4
 1794              		.loc 1 811 0
 1795 000c 013D     		se_mr %r29,%r3
 1796 000e 014E     		se_mr %r30,%r4
 1797              		.loc 1 815 0
 1798 0010 48C5     		se_li %r5,12
 1799 0012 0134     		se_mr %r4,%r3
 1800              	.LVL208:
 1801 0014 73E0E000 		e_lis %r31,AEK_POW_BMS63EN_Drv@ha
 1802 0018 1FFF0000 		e_la %r31,AEK_POW_BMS63EN_Drv@l(%r31)
 1803 001c 01F3     		se_mr %r3,%r31
 1804              	.LVL209:
 1805 001e 78000001 		e_bl AEK_POW_BMS63EN_SPIReadRegister
 1806              	.LVL210:
 1807              		.loc 1 816 0
 1808 0022 01D4     		se_mr %r4,%r29
 1809 0024 01F3     		se_mr %r3,%r31
 1810 0026 48C5     		se_li %r5,12
 1811 0028 78000001 		e_bl AEK_POW_BMS63EN_SPIReadRegister
 1812              	.LVL211:
 1813              		.loc 1 824 0
 1814 002c C701     		se_lwz %r0,28(%r1)
 1815              		.loc 1 819 0
 1816 002e 70C003E8 		e_li %r6,1000
 1817              		.loc 1 822 0
 1818 0032 01D4     		se_mr %r4,%r29
 1819              		.loc 1 819 0
 1820 0034 7CFE31D6 		mullw %r7,%r30,%r6
 1821 0038 70B7E017 		e_lis %r5,0xb817
 1822              		.loc 1 818 0
 1823 003c 1866C400 		e_andi %r6,%r3,-256
 1824              	.LVL212:
GAS LISTING C:\Users\Vipuls\AppData\Local\Temp\ccgvNFZ7.s 			page 33


 1825              		.loc 1 819 0
 1826 0040 70A0C2E1 		e_or2i %r5,737
 1827              		.loc 1 822 0
 1828 0044 01F3     		se_mr %r3,%r31
 1829              		.loc 1 819 0
 1830 0046 7CE72816 		mulhwu %r7,%r7,%r5
 1831              		.loc 1 824 0
 1832 004a 1BA1080C 		e_lmw %r29,12(%r1)
 1833              	.LVL213:
 1834              		.loc 1 819 0
 1835 004e 6927     		se_srwi %r7,18
 1836              		.loc 1 824 0
 1837              		.loc 1 822 0
 1838 0050 48C5     		se_li %r5,12
 1839 0052 4476     		se_or %r6,%r7
 1840              	.LVL214:
 1841              		.loc 1 824 0
 1842 0054 0090     		se_mtlr %r0
 1843              		.cfi_restore 65
 1844 0056 2171     		se_addi %r1,24
 1845              	.LCFI59:
 1846              		.cfi_restore 31
 1847              		.cfi_restore 30
 1848              		.cfi_restore 29
 1849              		.cfi_def_cfa_offset 0
 1850              		.loc 1 822 0
 1851 0058 78000000 		e_b AEK_POW_BMS63EN_SPIWriteRegister
 1852              	.LVL215:
 1853              		.cfi_endproc
 1854              	.LFE25:
 1855              		.size	AEK_POW_BMS63EN_SetVBattUVThreshold, .-AEK_POW_BMS63EN_SetVBattUVThreshold
 1856              		.section	.text.AEK_POW_BMS63EN_SetVCellOVThreshold,"axv",@progbits
 1857              		.align 1
 1858              		.p2align 4,,15
 1859              		.globl AEK_POW_BMS63EN_SetVCellOVThreshold
 1860              		.type	AEK_POW_BMS63EN_SetVCellOVThreshold, @function
 1861              	AEK_POW_BMS63EN_SetVCellOVThreshold:
 1862              	.LFB26:
 1863              		.loc 1 830 0
 1864              		.cfi_startproc
 1865              	.LVL216:
 1866 0000 182106E8 		e_stwu %r1,-24(%r1)
 1867              	.LCFI60:
 1868              		.cfi_def_cfa_offset 24
 1869 0004 0080     		se_mflr %r0
 1870 0006 1BA1090C 		e_stmw %r29,12(%r1)
 1871 000a D701     		se_stw %r0,28(%r1)
 1872              		.cfi_offset 65, 4
 1873              		.cfi_offset 29, -12
 1874              		.cfi_offset 30, -8
 1875              		.cfi_offset 31, -4
 1876              		.loc 1 830 0
 1877 000c 013D     		se_mr %r29,%r3
 1878 000e 014F     		se_mr %r31,%r4
 1879              		.loc 1 834 0
 1880 0010 48B5     		se_li %r5,11
 1881 0012 0134     		se_mr %r4,%r3
GAS LISTING C:\Users\Vipuls\AppData\Local\Temp\ccgvNFZ7.s 			page 34


 1882              	.LVL217:
 1883 0014 73C0E000 		e_lis %r30,AEK_POW_BMS63EN_Drv@ha
 1884 0018 1FDE0000 		e_la %r30,AEK_POW_BMS63EN_Drv@l(%r30)
 1885 001c 01E3     		se_mr %r3,%r30
 1886              	.LVL218:
 1887 001e 78000001 		e_bl AEK_POW_BMS63EN_SPIReadRegister
 1888              	.LVL219:
 1889              		.loc 1 835 0
 1890 0022 01D4     		se_mr %r4,%r29
 1891 0024 01E3     		se_mr %r3,%r30
 1892 0026 48B5     		se_li %r5,11
 1893 0028 78000001 		e_bl AEK_POW_BMS63EN_SPIReadRegister
 1894              	.LVL220:
 1895              		.loc 1 839 0
 1896 002c 70C003E8 		e_li %r6,1000
 1897 0030 70B7E017 		e_lis %r5,0xb817
 1898 0034 7CFF31D6 		mullw %r7,%r31,%r6
 1899 0038 70A0C2E1 		e_or2i %r5,737
 1900 003c 7CE0FE70 		srawi %r0,%r7,31
 1901              		.loc 1 837 0
 1902 0040 1866C500 		e_andi %r6,%r3,-65281
 1903              	.LVL221:
 1904              		.loc 1 839 0
 1905 0044 7CA72896 		mulhw %r5,%r7,%r5
 1906              		.loc 1 843 0
 1907 0048 01E3     		se_mr %r3,%r30
 1908              		.loc 1 839 0
 1909 004a 7CE53A14 		add %r7,%r5,%r7
 1910              		.loc 1 843 0
 1911 004e 01D4     		se_mr %r4,%r29
 1912              		.loc 1 839 0
 1913 0050 6AE7     		se_srawi %r7, 14
 1914              		.loc 1 845 0
 1915 0052 1BA1080C 		e_lmw %r29,12(%r1)
 1916              	.LVL222:
 1917              		.loc 1 839 0
 1918 0056 0607     		se_sub %r7, %r0
 1919              		.loc 1 843 0
 1920 0058 48B5     		se_li %r5,11
 1921              		.loc 1 845 0
 1922 005a C701     		se_lwz %r0,28(%r1)
 1923              		.loc 1 841 0
 1924 005c 6C87     		se_slwi %r7, 8
 1925              		.loc 1 845 0
 1926              		.loc 1 843 0
 1927 005e 4476     		se_or %r6,%r7
 1928              		.loc 1 845 0
 1929 0060 0090     		se_mtlr %r0
 1930              		.cfi_restore 65
 1931 0062 2171     		se_addi %r1,24
 1932              	.LCFI61:
 1933              		.cfi_restore 31
 1934              		.cfi_restore 30
 1935              		.cfi_restore 29
 1936              		.cfi_def_cfa_offset 0
 1937              		.loc 1 843 0
 1938 0064 78000000 		e_b AEK_POW_BMS63EN_SPIWriteRegister
GAS LISTING C:\Users\Vipuls\AppData\Local\Temp\ccgvNFZ7.s 			page 35


 1939              	.LVL223:
 1940              		.cfi_endproc
 1941              	.LFE26:
 1942              		.size	AEK_POW_BMS63EN_SetVCellOVThreshold, .-AEK_POW_BMS63EN_SetVCellOVThreshold
 1943              		.section	.text.AEK_POW_BMS63EN_SetVCellUVThreshold,"axv",@progbits
 1944              		.align 1
 1945              		.p2align 4,,15
 1946              		.globl AEK_POW_BMS63EN_SetVCellUVThreshold
 1947              		.type	AEK_POW_BMS63EN_SetVCellUVThreshold, @function
 1948              	AEK_POW_BMS63EN_SetVCellUVThreshold:
 1949              	.LFB27:
 1950              		.loc 1 851 0
 1951              		.cfi_startproc
 1952              	.LVL224:
 1953 0000 182106E8 		e_stwu %r1,-24(%r1)
 1954              	.LCFI62:
 1955              		.cfi_def_cfa_offset 24
 1956 0004 0080     		se_mflr %r0
 1957 0006 1BA1090C 		e_stmw %r29,12(%r1)
 1958 000a D701     		se_stw %r0,28(%r1)
 1959              		.cfi_offset 65, 4
 1960              		.cfi_offset 29, -12
 1961              		.cfi_offset 30, -8
 1962              		.cfi_offset 31, -4
 1963              		.loc 1 851 0
 1964 000c 013D     		se_mr %r29,%r3
 1965 000e 014F     		se_mr %r31,%r4
 1966              		.loc 1 855 0
 1967 0010 48B5     		se_li %r5,11
 1968 0012 0134     		se_mr %r4,%r3
 1969              	.LVL225:
 1970 0014 73C0E000 		e_lis %r30,AEK_POW_BMS63EN_Drv@ha
 1971 0018 1FDE0000 		e_la %r30,AEK_POW_BMS63EN_Drv@l(%r30)
 1972 001c 01E3     		se_mr %r3,%r30
 1973              	.LVL226:
 1974 001e 78000001 		e_bl AEK_POW_BMS63EN_SPIReadRegister
 1975              	.LVL227:
 1976              		.loc 1 856 0
 1977 0022 01D4     		se_mr %r4,%r29
 1978 0024 01E3     		se_mr %r3,%r30
 1979 0026 48B5     		se_li %r5,11
 1980 0028 78000001 		e_bl AEK_POW_BMS63EN_SPIReadRegister
 1981              	.LVL228:
 1982              		.loc 1 860 0
 1983 002c 70C003E8 		e_li %r6,1000
 1984 0030 70B7E017 		e_lis %r5,0xb817
 1985 0034 7CFF31D6 		mullw %r7,%r31,%r6
 1986 0038 70A0C2E1 		e_or2i %r5,737
 1987 003c 7CE0FE70 		srawi %r0,%r7,31
 1988              		.loc 1 858 0
 1989 0040 1866C400 		e_andi %r6,%r3,-256
 1990              	.LVL229:
 1991              		.loc 1 860 0
 1992 0044 7CA72896 		mulhw %r5,%r7,%r5
 1993              		.loc 1 864 0
 1994 0048 01E3     		se_mr %r3,%r30
 1995              		.loc 1 860 0
GAS LISTING C:\Users\Vipuls\AppData\Local\Temp\ccgvNFZ7.s 			page 36


 1996 004a 7CE53A14 		add %r7,%r5,%r7
 1997              		.loc 1 864 0
 1998 004e 01D4     		se_mr %r4,%r29
 1999              		.loc 1 860 0
 2000 0050 6AE7     		se_srawi %r7, 14
 2001              		.loc 1 866 0
 2002 0052 1BA1080C 		e_lmw %r29,12(%r1)
 2003              	.LVL230:
 2004              		.loc 1 860 0
 2005 0056 0607     		se_sub %r7, %r0
 2006              		.loc 1 864 0
 2007 0058 48B5     		se_li %r5,11
 2008              		.loc 1 866 0
 2009 005a C701     		se_lwz %r0,28(%r1)
 2010              		.loc 1 864 0
 2011 005c 4476     		se_or %r6,%r7
 2012              		.loc 1 866 0
 2013 005e 0090     		se_mtlr %r0
 2014              		.cfi_restore 65
 2015 0060 2171     		se_addi %r1,24
 2016              	.LCFI63:
 2017              		.cfi_restore 31
 2018              		.cfi_restore 30
 2019              		.cfi_restore 29
 2020              		.cfi_def_cfa_offset 0
 2021              		.loc 1 864 0
 2022 0062 78000000 		e_b AEK_POW_BMS63EN_SPIWriteRegister
 2023              	.LVL231:
 2024              		.cfi_endproc
 2025              	.LFE27:
 2026              		.size	AEK_POW_BMS63EN_SetVCellUVThreshold, .-AEK_POW_BMS63EN_SetVCellUVThreshold
 2027              		.section	.text.AEK_POW_BMS63EN_GetVTREFVoltMeasurement,"axv",@progbits
 2028              		.align 1
 2029              		.p2align 4,,15
 2030              		.globl AEK_POW_BMS63EN_GetVTREFVoltMeasurement
 2031              		.type	AEK_POW_BMS63EN_GetVTREFVoltMeasurement, @function
 2032              	AEK_POW_BMS63EN_GetVTREFVoltMeasurement:
 2033              	.LFB28:
 2034              		.loc 1 871 0
 2035              		.cfi_startproc
 2036              	.LVL232:
 2037 0000 182106F0 		e_stwu %r1,-16(%r1)
 2038              	.LCFI64:
 2039              		.cfi_def_cfa_offset 16
 2040 0004 0080     		se_mflr %r0
 2041 0006 1BC10908 		e_stmw %r30,8(%r1)
 2042 000a D501     		se_stw %r0,20(%r1)
 2043              		.cfi_offset 65, 4
 2044              		.cfi_offset 30, -8
 2045              		.cfi_offset 31, -4
 2046              		.loc 1 871 0
 2047 000c 013E     		se_mr %r30,%r3
 2048              		.loc 1 876 0
 2049 000e 0134     		se_mr %r4,%r3
 2050 0010 4CC5     		se_li %r5,76
 2051 0012 73E0E000 		e_lis %r31,AEK_POW_BMS63EN_Drv@ha
 2052 0016 1FFF0000 		e_la %r31,AEK_POW_BMS63EN_Drv@l(%r31)
GAS LISTING C:\Users\Vipuls\AppData\Local\Temp\ccgvNFZ7.s 			page 37


 2053 001a 01F3     		se_mr %r3,%r31
 2054              	.LVL233:
 2055 001c 78000001 		e_bl AEK_POW_BMS63EN_SPIReadRegister
 2056              	.LVL234:
 2057              		.loc 1 877 0
 2058 0020 01E4     		se_mr %r4,%r30
 2059 0022 4CC5     		se_li %r5,76
 2060 0024 01F3     		se_mr %r3,%r31
 2061 0026 78000001 		e_bl AEK_POW_BMS63EN_SPIReadRegister
 2062              	.LVL235:
 2063              		.loc 1 879 0
 2064 002a 00E3     		se_extzh %r3
 2065              	.LVL236:
 2066 002c 78000001 		e_bl __floatunsisf
 2067              	.LVL237:
 2068 0030 7088E2B2 		e_lis %r4,0x42b2
 2069 0034 78000001 		e_bl __mulsf3
 2070              	.LVL238:
 2071 0038 7089E174 		e_lis %r4,0x4974
 2072 003c 1884D124 		e_ori %r4,%r4,9216
 2073 0040 78000001 		e_bl __divsf3
 2074              	.LVL239:
 2075              		.loc 1 880 0
 2076 0044 C501     		se_lwz %r0,20(%r1)
 2077 0046 0090     		se_mtlr %r0
 2078              		.cfi_restore 65
 2079 0048 1BC10808 		e_lmw %r30,8(%r1)
 2080              	.LVL240:
 2081 004c 20F1     		se_addi %r1,16
 2082              	.LCFI65:
 2083              		.cfi_restore 31
 2084              		.cfi_restore 30
 2085              		.cfi_def_cfa_offset 0
 2086 004e 0004     		se_blr
 2087              		.cfi_endproc
 2088              	.LFE28:
 2089              		.size	AEK_POW_BMS63EN_GetVTREFVoltMeasurement, .-AEK_POW_BMS63EN_GetVTREFVoltMeasurement
 2090              		.section	.text.AEK_POW_BMS63EN_SetVTREFAlwaysEnabled,"axv",@progbits
 2091              		.align 1
 2092              		.p2align 4,,15
 2093              		.globl AEK_POW_BMS63EN_SetVTREFAlwaysEnabled
 2094              		.type	AEK_POW_BMS63EN_SetVTREFAlwaysEnabled, @function
 2095              	AEK_POW_BMS63EN_SetVTREFAlwaysEnabled:
 2096              	.LFB29:
 2097              		.loc 1 887 0
 2098              		.cfi_startproc
 2099              	.LVL241:
 2100 0000 182106F0 		e_stwu %r1,-16(%r1)
 2101              	.LCFI66:
 2102              		.cfi_def_cfa_offset 16
 2103 0004 0080     		se_mflr %r0
 2104 0006 1BC10908 		e_stmw %r30,8(%r1)
 2105 000a D501     		se_stw %r0,20(%r1)
 2106              		.cfi_offset 65, 4
 2107              		.cfi_offset 30, -8
 2108              		.cfi_offset 31, -4
 2109              		.loc 1 887 0
GAS LISTING C:\Users\Vipuls\AppData\Local\Temp\ccgvNFZ7.s 			page 38


 2110 000c 013E     		se_mr %r30,%r3
 2111              		.loc 1 891 0
 2112 000e 0134     		se_mr %r4,%r3
 2113 0010 48F5     		se_li %r5,15
 2114 0012 73E0E000 		e_lis %r31,AEK_POW_BMS63EN_Drv@ha
 2115 0016 1FFF0000 		e_la %r31,AEK_POW_BMS63EN_Drv@l(%r31)
 2116 001a 01F3     		se_mr %r3,%r31
 2117              	.LVL242:
 2118 001c 78000001 		e_bl AEK_POW_BMS63EN_SPIReadRegister
 2119              	.LVL243:
 2120              		.loc 1 892 0
 2121 0020 01E4     		se_mr %r4,%r30
 2122 0022 01F3     		se_mr %r3,%r31
 2123 0024 48F5     		se_li %r5,15
 2124 0026 78000001 		e_bl AEK_POW_BMS63EN_SPIReadRegister
 2125              	.LVL244:
 2126              		.loc 1 899 0
 2127 002a 01E4     		se_mr %r4,%r30
 2128              		.loc 1 895 0
 2129 002c 1866C6FC 		e_andi %r6,%r3,-196609
 2130              	.LVL245:
 2131              		.loc 1 899 0
 2132 0030 48F5     		se_li %r5,15
 2133 0032 01F3     		se_mr %r3,%r31
 2134 0034 64E6     		se_bseti %r6,14
 2135              	.LVL246:
 2136 0036 78000001 		e_bl AEK_POW_BMS63EN_SPIWriteRegister
 2137              	.LVL247:
 2138              		.loc 1 901 0
 2139 003a 01E4     		se_mr %r4,%r30
 2140 003c 01F3     		se_mr %r3,%r31
 2141 003e 48F5     		se_li %r5,15
 2142 0040 78000001 		e_bl AEK_POW_BMS63EN_SPIReadRegister
 2143              	.LVL248:
 2144              		.loc 1 903 0
 2145 0044 C501     		se_lwz %r0,20(%r1)
 2146              		.loc 1 902 0
 2147 0046 01F3     		se_mr %r3,%r31
 2148 0048 01E4     		se_mr %r4,%r30
 2149 004a 48F5     		se_li %r5,15
 2150              		.loc 1 903 0
 2151 004c 1BC10808 		e_lmw %r30,8(%r1)
 2152              	.LVL249:
 2153 0050 0090     		se_mtlr %r0
 2154              		.cfi_restore 65
 2155 0052 20F1     		se_addi %r1,16
 2156              	.LCFI67:
 2157              		.cfi_restore 31
 2158              		.cfi_restore 30
 2159              		.cfi_def_cfa_offset 0
 2160              		.loc 1 902 0
 2161 0054 78000000 		e_b AEK_POW_BMS63EN_SPIReadRegister
 2162              	.LVL250:
 2163              		.cfi_endproc
 2164              	.LFE29:
 2165              		.size	AEK_POW_BMS63EN_SetVTREFAlwaysEnabled, .-AEK_POW_BMS63EN_SetVTREFAlwaysEnabled
 2166              		.section	.text.AEK_POW_BMS63EN_SetVTREFEnabled,"axv",@progbits
GAS LISTING C:\Users\Vipuls\AppData\Local\Temp\ccgvNFZ7.s 			page 39


 2167              		.align 1
 2168              		.p2align 4,,15
 2169              		.globl AEK_POW_BMS63EN_SetVTREFEnabled
 2170              		.type	AEK_POW_BMS63EN_SetVTREFEnabled, @function
 2171              	AEK_POW_BMS63EN_SetVTREFEnabled:
 2172              	.LFB30:
 2173              		.loc 1 909 0
 2174              		.cfi_startproc
 2175              	.LVL251:
 2176 0000 182106F0 		e_stwu %r1,-16(%r1)
 2177              	.LCFI68:
 2178              		.cfi_def_cfa_offset 16
 2179 0004 0080     		se_mflr %r0
 2180 0006 1BC10908 		e_stmw %r30,8(%r1)
 2181 000a D501     		se_stw %r0,20(%r1)
 2182              		.cfi_offset 65, 4
 2183              		.cfi_offset 30, -8
 2184              		.cfi_offset 31, -4
 2185              		.loc 1 909 0
 2186 000c 013E     		se_mr %r30,%r3
 2187              		.loc 1 913 0
 2188 000e 0134     		se_mr %r4,%r3
 2189 0010 48F5     		se_li %r5,15
 2190 0012 73E0E000 		e_lis %r31,AEK_POW_BMS63EN_Drv@ha
 2191 0016 1FFF0000 		e_la %r31,AEK_POW_BMS63EN_Drv@l(%r31)
 2192 001a 01F3     		se_mr %r3,%r31
 2193              	.LVL252:
 2194 001c 78000001 		e_bl AEK_POW_BMS63EN_SPIReadRegister
 2195              	.LVL253:
 2196              		.loc 1 914 0
 2197 0020 01E4     		se_mr %r4,%r30
 2198 0022 01F3     		se_mr %r3,%r31
 2199 0024 48F5     		se_li %r5,15
 2200 0026 78000001 		e_bl AEK_POW_BMS63EN_SPIReadRegister
 2201              	.LVL254:
 2202              		.loc 1 922 0
 2203 002a 01E4     		se_mr %r4,%r30
 2204              		.loc 1 920 0
 2205 002c 1866D203 		e_ori %r6,%r3,196608
 2206              	.LVL255:
 2207              		.loc 1 922 0
 2208 0030 48F5     		se_li %r5,15
 2209 0032 01F3     		se_mr %r3,%r31
 2210 0034 78000001 		e_bl AEK_POW_BMS63EN_SPIWriteRegister
 2211              	.LVL256:
 2212              		.loc 1 924 0
 2213 0038 01E4     		se_mr %r4,%r30
 2214 003a 01F3     		se_mr %r3,%r31
 2215 003c 48F5     		se_li %r5,15
 2216 003e 78000001 		e_bl AEK_POW_BMS63EN_SPIReadRegister
 2217              	.LVL257:
 2218              		.loc 1 926 0
 2219 0042 C501     		se_lwz %r0,20(%r1)
 2220              		.loc 1 925 0
 2221 0044 01F3     		se_mr %r3,%r31
 2222 0046 01E4     		se_mr %r4,%r30
 2223 0048 48F5     		se_li %r5,15
GAS LISTING C:\Users\Vipuls\AppData\Local\Temp\ccgvNFZ7.s 			page 40


 2224              		.loc 1 926 0
 2225 004a 1BC10808 		e_lmw %r30,8(%r1)
 2226              	.LVL258:
 2227 004e 0090     		se_mtlr %r0
 2228              		.cfi_restore 65
 2229 0050 20F1     		se_addi %r1,16
 2230              	.LCFI69:
 2231              		.cfi_restore 31
 2232              		.cfi_restore 30
 2233              		.cfi_def_cfa_offset 0
 2234              		.loc 1 925 0
 2235 0052 78000000 		e_b AEK_POW_BMS63EN_SPIReadRegister
 2236              	.LVL259:
 2237              		.cfi_endproc
 2238              	.LFE30:
 2239              		.size	AEK_POW_BMS63EN_SetVTREFEnabled, .-AEK_POW_BMS63EN_SetVTREFEnabled
 2240              		.section	.text.AEK_POW_BMS63EN_SetVTREFDisabled,"axv",@progbits
 2241              		.align 1
 2242              		.p2align 4,,15
 2243              		.globl AEK_POW_BMS63EN_SetVTREFDisabled
 2244              		.type	AEK_POW_BMS63EN_SetVTREFDisabled, @function
 2245              	AEK_POW_BMS63EN_SetVTREFDisabled:
 2246              	.LFB31:
 2247              		.loc 1 932 0
 2248              		.cfi_startproc
 2249              	.LVL260:
 2250 0000 182106F0 		e_stwu %r1,-16(%r1)
 2251              	.LCFI70:
 2252              		.cfi_def_cfa_offset 16
 2253 0004 0080     		se_mflr %r0
 2254 0006 1BC10908 		e_stmw %r30,8(%r1)
 2255 000a D501     		se_stw %r0,20(%r1)
 2256              		.cfi_offset 65, 4
 2257              		.cfi_offset 30, -8
 2258              		.cfi_offset 31, -4
 2259              		.loc 1 932 0
 2260 000c 013E     		se_mr %r30,%r3
 2261              		.loc 1 936 0
 2262 000e 4814     		se_li %r4,1
 2263 0010 48F5     		se_li %r5,15
 2264 0012 73E0E000 		e_lis %r31,AEK_POW_BMS63EN_Drv@ha
 2265 0016 1FFF0000 		e_la %r31,AEK_POW_BMS63EN_Drv@l(%r31)
 2266 001a 01F3     		se_mr %r3,%r31
 2267              	.LVL261:
 2268 001c 78000001 		e_bl AEK_POW_BMS63EN_SPIReadRegister
 2269              	.LVL262:
 2270              		.loc 1 937 0
 2271 0020 01F3     		se_mr %r3,%r31
 2272 0022 4814     		se_li %r4,1
 2273 0024 48F5     		se_li %r5,15
 2274 0026 78000001 		e_bl AEK_POW_BMS63EN_SPIReadRegister
 2275              	.LVL263:
 2276              		.loc 1 944 0
 2277 002a C501     		se_lwz %r0,20(%r1)
 2278              		.loc 1 942 0
 2279 002c 01E4     		se_mr %r4,%r30
 2280              		.loc 1 940 0
GAS LISTING C:\Users\Vipuls\AppData\Local\Temp\ccgvNFZ7.s 			page 41


 2281 002e 1866C6FC 		e_andi %r6,%r3,-196609
 2282              	.LVL264:
 2283              		.loc 1 942 0
 2284 0032 48F5     		se_li %r5,15
 2285 0034 01F3     		se_mr %r3,%r31
 2286              		.loc 1 944 0
 2287 0036 0090     		se_mtlr %r0
 2288              		.cfi_restore 65
 2289 0038 1BC10808 		e_lmw %r30,8(%r1)
 2290              	.LVL265:
 2291 003c 20F1     		se_addi %r1,16
 2292              	.LCFI71:
 2293              		.cfi_restore 31
 2294              		.cfi_restore 30
 2295              		.cfi_def_cfa_offset 0
 2296              		.loc 1 942 0
 2297 003e 78000000 		e_b AEK_POW_BMS63EN_SPIWriteRegister
 2298              	.LVL266:
 2299              		.cfi_endproc
 2300              	.LFE31:
 2301              		.size	AEK_POW_BMS63EN_SetVTREFDisabled, .-AEK_POW_BMS63EN_SetVTREFDisabled
 2302              		.section	.text.AEK_POW_BMS63EN_StartUpWKUP,"axv",@progbits
 2303              		.align 1
 2304              		.p2align 4,,15
 2305              		.globl AEK_POW_BMS63EN_StartUpWKUP
 2306              		.type	AEK_POW_BMS63EN_StartUpWKUP, @function
 2307              	AEK_POW_BMS63EN_StartUpWKUP:
 2308              	.LFB10:
 2309              		.loc 1 385 0
 2310              		.cfi_startproc
 2311              	.LVL267:
 2312 0000 182106F0 		e_stwu %r1,-16(%r1)
 2313              	.LCFI72:
 2314              		.cfi_def_cfa_offset 16
 2315 0004 0080     		se_mflr %r0
 2316 0006 1BC10908 		e_stmw %r30,8(%r1)
 2317 000a D501     		se_stw %r0,20(%r1)
 2318              		.cfi_offset 65, 4
 2319              		.cfi_offset 30, -8
 2320              		.cfi_offset 31, -4
 2321              		.loc 1 391 0
 2322 000c 4824     		se_li %r4,2
 2323 000e 4815     		se_li %r5,1
 2324 0010 73E0E000 		e_lis %r31,AEK_POW_BMS63EN_Drv@ha
 2325              		.loc 1 409 0
 2326 0014 73C60008 		e_li %r30,12296
 2327              		.loc 1 391 0
 2328 0018 1FFF0000 		e_la %r31,AEK_POW_BMS63EN_Drv@l(%r31)
 2329 001c 01F3     		se_mr %r3,%r31
 2330 001e 78000001 		e_bl AEK_POW_BMS63EN_SPIReadRegister
 2331              	.LVL268:
 2332              		.loc 1 392 0
 2333 0022 4824     		se_li %r4,2
 2334 0024 4815     		se_li %r5,1
 2335 0026 01F3     		se_mr %r3,%r31
 2336 0028 78000001 		e_bl AEK_POW_BMS63EN_SPIReadRegister
 2337              	.LVL269:
GAS LISTING C:\Users\Vipuls\AppData\Local\Temp\ccgvNFZ7.s 			page 42


 2338              		.loc 1 393 0
 2339 002c 4833     		se_li %r3,3
 2340 002e 78000001 		e_bl osalThreadDelayMilliseconds
 2341              	.LVL270:
 2342              	.L75:
 2343              		.loc 1 409 0
 2344 0032 01F3     		se_mr %r3,%r31
 2345 0034 01E5     		se_mr %r5,%r30
 2346 0036 4814     		se_li %r4,1
 2347 0038 78000001 		e_bl AEK_POW_BMS63EN_SPIBroadcastAccess
 2348              	.LVL271:
 2349              		.loc 1 412 0
 2350 003c C27F     		se_lwz %r7,8(%r31)
 2351              		.loc 1 413 0
 2352 003e 4813     		se_li %r3,1
 2353              		.loc 1 412 0
 2354 0040 50E70050 		e_lwz %r7,80(%r7)
 2355 0044 2217     		se_cmpli %r7,2
 2356 0046 7A1200F4 		e_beq %cr0,.L79
 2357              		.loc 1 415 0
 2358 004a 2207     		se_cmpli %r7,1
 2359 004c 7A1200E6 		e_beq %cr0,.L80
 2360              		.loc 1 419 0
 2361 0050 78000001 		e_bl AEK_POW_BMS63EN_SetVTREFDisabled
 2362              	.LVL272:
 2363              	.L69:
 2364              		.loc 1 424 0
 2365 0054 4814     		se_li %r4,1
 2366 0056 4825     		se_li %r5,2
 2367 0058 01F3     		se_mr %r3,%r31
 2368 005a 78000001 		e_bl AEK_POW_BMS63EN_SPIReadRegister
 2369              	.LVL273:
 2370              		.loc 1 425 0
 2371 005e 01F3     		se_mr %r3,%r31
 2372 0060 4814     		se_li %r4,1
 2373 0062 4825     		se_li %r5,2
 2374 0064 78000001 		e_bl AEK_POW_BMS63EN_SPIReadRegister
 2375              	.LVL274:
 2376              		.loc 1 426 0
 2377 0068 C27F     		se_lwz %r7,8(%r31)
 2378 006a 50C7004C 		e_lwz %r6,76(%r7)
 2379 006e 2216     		se_cmpli %r6,2
 2380 0070 7A1200BA 		e_beq %cr0,.L81
 2381              		.loc 1 430 0
 2382 0074 2206     		se_cmpli %r6,1
 2383 0076 1867D6FC 		e_ori %r7,%r3,-196609
 2384 007a 1866D202 		e_ori %r6,%r3,131072
 2385 007e 7CC6389E 		isel %r6,%r6,%r7,2
 2386              	.LVL275:
 2387              	.L72:
 2388              		.loc 1 436 0
 2389 0082 01F3     		se_mr %r3,%r31
 2390 0084 4814     		se_li %r4,1
 2391 0086 4825     		se_li %r5,2
 2392 0088 78000001 		e_bl AEK_POW_BMS63EN_SPIWriteRegister
 2393              	.LVL276:
 2394              		.loc 1 439 0
GAS LISTING C:\Users\Vipuls\AppData\Local\Temp\ccgvNFZ7.s 			page 43


 2395 008c 4814     		se_li %r4,1
 2396 008e 4815     		se_li %r5,1
 2397 0090 01F3     		se_mr %r3,%r31
 2398 0092 78000001 		e_bl AEK_POW_BMS63EN_SPIReadRegister
 2399              	.LVL277:
 2400              		.loc 1 440 0
 2401 0096 01F3     		se_mr %r3,%r31
 2402 0098 4814     		se_li %r4,1
 2403 009a 4815     		se_li %r5,1
 2404 009c 78000001 		e_bl AEK_POW_BMS63EN_SPIReadRegister
 2405              	.LVL278:
 2406              		.loc 1 441 0
 2407 00a0 74639EFF 		e_rlwinm %r3,%r3,19,27,31
 2408              	.LVL279:
 2409 00a4 2203     		se_cmpli %r3,1
 2410 00a6 7A02FF8C 		e_bne %cr0,.L75
 2411              	.LVL280:
 2412              		.loc 1 450 0
 2413 00aa 01F3     		se_mr %r3,%r31
 2414 00ac 4814     		se_li %r4,1
 2415 00ae 4815     		se_li %r5,1
 2416 00b0 78000001 		e_bl AEK_POW_BMS63EN_SPIReadRegister
 2417              	.LVL281:
 2418              		.loc 1 451 0
 2419 00b4 01F3     		se_mr %r3,%r31
 2420 00b6 4814     		se_li %r4,1
 2421 00b8 4815     		se_li %r5,1
 2422 00ba 78000001 		e_bl AEK_POW_BMS63EN_SPIReadRegister
 2423              	.LVL282:
 2424              		.loc 1 453 0
 2425 00be C26F     		se_lwz %r6,8(%r31)
 2426              		.loc 1 451 0
 2427 00c0 0137     		se_mr %r7,%r3
 2428              	.LVL283:
 2429              		.loc 1 453 0
 2430 00c2 50C60048 		e_lwz %r6,72(%r6)
 2431              		.loc 1 459 0
 2432 00c6 01F3     		se_mr %r3,%r31
 2433              	.LVL284:
 2434              		.loc 1 457 0
 2435 00c8 2206     		se_cmpli %r6,1
 2436 00ca 18E5D5FC 		e_ori %r5,%r7,-769
 2437              		.loc 1 459 0
 2438 00ce 4814     		se_li %r4,1
 2439              		.loc 1 457 0
 2440 00d0 18E7D10F 		e_ori %r7,%r7,3840
 2441              	.LVL285:
 2442              		.loc 1 459 0
 2443 00d4 7CA7289E 		isel %r5,%r7,%r5,2
 2444              	.LVL286:
 2445 00d8 78000001 		e_bl AEK_POW_BMS63EN_SPIBroadcastAccess
 2446              	.LVL287:
 2447              		.loc 1 464 0
 2448 00dc 01F3     		se_mr %r3,%r31
 2449 00de 4814     		se_li %r4,1
 2450 00e0 4815     		se_li %r5,1
 2451 00e2 78000001 		e_bl AEK_POW_BMS63EN_SPIReadRegister
GAS LISTING C:\Users\Vipuls\AppData\Local\Temp\ccgvNFZ7.s 			page 44


 2452              	.LVL288:
 2453              		.loc 1 465 0
 2454 00e6 01F3     		se_mr %r3,%r31
 2455 00e8 4814     		se_li %r4,1
 2456 00ea 4815     		se_li %r5,1
 2457 00ec 78000001 		e_bl AEK_POW_BMS63EN_SPIReadRegister
 2458              	.LVL289:
 2459              		.loc 1 470 0
 2460 00f0 4814     		se_li %r4,1
 2461              		.loc 1 468 0
 2462 00f2 1866C5EF 		e_andi %r6,%r3,-4097
 2463              	.LVL290:
 2464              		.loc 1 470 0
 2465 00f6 4815     		se_li %r5,1
 2466 00f8 01F3     		se_mr %r3,%r31
 2467 00fa 65E6     		se_bseti %r6,30
 2468              	.LVL291:
 2469 00fc 78000001 		e_bl AEK_POW_BMS63EN_SPIWriteRegister
 2470              	.LVL292:
 2471              		.loc 1 474 0
 2472 0100 01F3     		se_mr %r3,%r31
 2473 0102 4814     		se_li %r4,1
 2474 0104 4855     		se_li %r5,5
 2475 0106 78000001 		e_bl AEK_POW_BMS63EN_SPIReadRegister
 2476              	.LVL293:
 2477              		.loc 1 475 0
 2478 010a 01F3     		se_mr %r3,%r31
 2479 010c 4814     		se_li %r4,1
 2480 010e 4855     		se_li %r5,5
 2481 0110 78000001 		e_bl AEK_POW_BMS63EN_SPIReadRegister
 2482              	.LVL294:
 2483              		.loc 1 478 0
 2484 0114 C501     		se_lwz %r0,20(%r1)
 2485              		.loc 1 476 0
 2486 0116 1865D180 		e_ori %r5,%r3,32768
 2487              	.LVL295:
 2488              		.loc 1 477 0
 2489 011a 4854     		se_li %r4,5
 2490 011c 01F3     		se_mr %r3,%r31
 2491              		.loc 1 478 0
 2492 011e 0090     		se_mtlr %r0
 2493              		.cfi_remember_state
 2494              		.cfi_restore 65
 2495 0120 1BC10808 		e_lmw %r30,8(%r1)
 2496 0124 20F1     		se_addi %r1,16
 2497              	.LCFI73:
 2498              		.cfi_restore 31
 2499              		.cfi_restore 30
 2500              		.cfi_def_cfa_offset 0
 2501              		.loc 1 477 0
 2502 0126 78000000 		e_b AEK_POW_BMS63EN_SPIBroadcastAccess
 2503              	.LVL296:
 2504              	.L81:
 2505              	.LCFI74:
 2506              		.cfi_restore_state
 2507              		.loc 1 427 0
 2508 012a 1866D203 		e_ori %r6,%r3,196608
GAS LISTING C:\Users\Vipuls\AppData\Local\Temp\ccgvNFZ7.s 			page 45


 2509              	.LVL297:
 2510 012e 79FFFF54 		e_b .L72
 2511              	.LVL298:
 2512              	.L80:
 2513              		.loc 1 416 0
 2514 0132 78000001 		e_bl AEK_POW_BMS63EN_SetVTREFEnabled
 2515              	.LVL299:
 2516 0136 79FFFF1E 		e_b .L69
 2517              	.L79:
 2518              		.loc 1 413 0
 2519 013a 78000001 		e_bl AEK_POW_BMS63EN_SetVTREFAlwaysEnabled
 2520              	.LVL300:
 2521 013e 79FFFF16 		e_b .L69
 2522              		.cfi_endproc
 2523              	.LFE10:
 2524              		.size	AEK_POW_BMS63EN_StartUpWKUP, .-AEK_POW_BMS63EN_StartUpWKUP
 2525              		.section	.text.AEK_POW_BMS63EN_StartManualConversion,"axv",@progbits
 2526              		.align 1
 2527              		.p2align 4,,15
 2528              		.globl AEK_POW_BMS63EN_StartManualConversion
 2529              		.type	AEK_POW_BMS63EN_StartManualConversion, @function
 2530              	AEK_POW_BMS63EN_StartManualConversion:
 2531              	.LFB32:
 2532              		.loc 1 950 0
 2533              		.cfi_startproc
 2534              	.LVL301:
 2535 0000 182106D8 		e_stwu %r1,-40(%r1)
 2536              	.LCFI75:
 2537              		.cfi_def_cfa_offset 40
 2538 0004 0080     		se_mflr %r0
 2539 0006 1B410910 		e_stmw %r26,16(%r1)
 2540              		.loc 1 954 0
 2541 000a 55010008 		e_stw %r8,8(%r1)
 2542 000e 5521000C 		e_stw %r9,12(%r1)
 2543              		.loc 1 950 0
 2544 0012 DB01     		se_stw %r0,44(%r1)
 2545              		.cfi_offset 65, 4
 2546              		.cfi_offset 26, -24
 2547              		.cfi_offset 27, -20
 2548              		.cfi_offset 28, -16
 2549              		.cfi_offset 29, -12
 2550              		.cfi_offset 30, -8
 2551              		.cfi_offset 31, -4
 2552              		.loc 1 950 0
 2553 0014 013E     		se_mr %r30,%r3
 2554 0016 016C     		se_mr %r28,%r6
 2555 0018 017D     		se_mr %r29,%r7
 2556 001a 014A     		se_mr %r26,%r4
 2557 001c 015B     		se_mr %r27,%r5
 2558              		.loc 1 954 0
 2559 001e 0134     		se_mr %r4,%r3
 2560              	.LVL302:
 2561 0020 48D5     		se_li %r5,13
 2562              	.LVL303:
 2563 0022 73E0E000 		e_lis %r31,AEK_POW_BMS63EN_Drv@ha
 2564 0026 1FFF0000 		e_la %r31,AEK_POW_BMS63EN_Drv@l(%r31)
 2565 002a 01F3     		se_mr %r3,%r31
GAS LISTING C:\Users\Vipuls\AppData\Local\Temp\ccgvNFZ7.s 			page 46


 2566              	.LVL304:
 2567 002c 78000001 		e_bl AEK_POW_BMS63EN_SPIReadRegister
 2568              	.LVL305:
 2569              		.loc 1 955 0
 2570 0030 01F3     		se_mr %r3,%r31
 2571 0032 01E4     		se_mr %r4,%r30
 2572 0034 48D5     		se_li %r5,13
 2573 0036 78000001 		e_bl AEK_POW_BMS63EN_SPIReadRegister
 2574              	.LVL306:
 2575              		.loc 1 957 0
 2576 003a 51010008 		e_lwz %r8,8(%r1)
 2577 003e 6733     		se_btsti %r3,19
 2578 0040 5121000C 		e_lwz %r9,12(%r1)
 2579 0044 7A12000C 		e_beq %cr0,.L83
 2580              		.loc 1 958 0 discriminator 1
 2581 0048 4800     		se_li %r0,0
 2582              		.loc 1 957 0 discriminator 1
 2583 004a 6703     		se_btsti %r3,16
 2584 004c 7A0200B2 		e_bne %cr0,.L84
 2585              	.L83:
 2586              	.LVL307:
 2587              		.loc 1 963 0
 2588 0050 1860D181 		e_ori %r0,%r3,33024
 2589              		.loc 1 962 0
 2590 0054 220A     		se_cmpli %r26,1
 2591 0056 7A12000E 		e_beq %cr0,.L86
 2592              		.loc 1 961 0
 2593 005a 1860D180 		e_ori %r0,%r3,32768
 2594              	.LVL308:
 2595              		.loc 1 964 0
 2596 005e 2A0A     		se_cmpi %r26,0
 2597 0060 7A1200AE 		e_beq %cr0,.L102
 2598              	.LVL309:
 2599              	.L86:
 2600              		.loc 1 968 0
 2601 0064 222B     		se_cmpli %r27,3
 2602 0066 7A1200B4 		e_beq %cr0,.L103
 2603              	.L88:
 2604              		.loc 1 971 0
 2605 006a 221B     		se_cmpli %r27,2
 2606 006c 1807C47F 		e_andi %r7,%r0,-129
 2607 0070 7C07009E 		isel %r0,%r7,%r0,2
 2608              	.LVL310:
 2609              		.loc 1 974 0
 2610 0074 224C     		se_cmpli %r28,5
 2611 0076 7A1200AC 		e_beq %cr0,.L104
 2612              	.L90:
 2613              		.loc 1 977 0
 2614 007a 223C     		se_cmpli %r28,4
 2615 007c 1807C4BF 		e_andi %r7,%r0,-65
 2616 0080 7C07009E 		isel %r0,%r7,%r0,2
 2617              	.LVL311:
 2618              		.loc 1 980 0
 2619 0084 226D     		se_cmpli %r29,7
 2620 0086 7A1200A4 		e_beq %cr0,.L105
 2621              	.L92:
 2622              		.loc 1 983 0
GAS LISTING C:\Users\Vipuls\AppData\Local\Temp\ccgvNFZ7.s 			page 47


 2623 008a 225D     		se_cmpli %r29,6
 2624 008c 1807C4DF 		e_andi %r7,%r0,-33
 2625 0090 7C07009E 		isel %r0,%r7,%r0,2
 2626              	.LVL312:
 2627              		.loc 1 986 0
 2628 0094 7008A809 		e_cmpl16i %r8,9
 2629 0098 7A12009C 		e_beq %cr0,.L106
 2630              	.L94:
 2631              		.loc 1 989 0
 2632 009c 7008A808 		e_cmpl16i %r8,8
 2633 00a0 1807C4EF 		e_andi %r7,%r0,-17
 2634 00a4 7C07009E 		isel %r0,%r7,%r0,2
 2635              	.LVL313:
 2636              		.loc 1 992 0
 2637 00a8 7009A80B 		e_cmpl16i %r9,11
 2638 00ac 7A120092 		e_beq %cr0,.L107
 2639              	.L96:
 2640              		.loc 1 995 0
 2641 00b0 1807C6FD 		e_andi %r7,%r0,-131073
 2642 00b4 7009A80A 		e_cmpl16i %r9,10
 2643 00b8 7C07009E 		isel %r0,%r7,%r0,2
 2644              	.LVL314:
 2645              	.L97:
 2646              		.loc 1 999 0
 2647 00bc 1806C5DF 		e_andi %r6,%r0,-8193
 2648 00c0 6710     		se_btsti %r0,17
 2649              	.LVL315:
 2650              		.loc 1 1002 0
 2651 00c2 73E0E000 		e_lis %r31,AEK_POW_BMS63EN_Drv@ha
 2652 00c6 01E4     		se_mr %r4,%r30
 2653 00c8 1FFF0000 		e_la %r31,AEK_POW_BMS63EN_Drv@l(%r31)
 2654 00cc 48D5     		se_li %r5,13
 2655 00ce 01F3     		se_mr %r3,%r31
 2656 00d0 7C170378 		mr 23,%r0
 2657 00d4 7CD7309E 		isel %r6,23,%r6,2
 2658              	.LVL316:
 2659 00d8 78000001 		e_bl AEK_POW_BMS63EN_SPIWriteRegister
 2660              	.LVL317:
 2661              	.L99:
 2662              		.loc 1 1005 0 discriminator 1
 2663 00dc 01E4     		se_mr %r4,%r30
 2664 00de 48D5     		se_li %r5,13
 2665 00e0 01F3     		se_mr %r3,%r31
 2666 00e2 78000001 		e_bl AEK_POW_BMS63EN_SPIReadRegister
 2667              	.LVL318:
 2668              		.loc 1 1006 0 discriminator 1
 2669 00e6 01F3     		se_mr %r3,%r31
 2670 00e8 01E4     		se_mr %r4,%r30
 2671 00ea 48D5     		se_li %r5,13
 2672 00ec 78000001 		e_bl AEK_POW_BMS63EN_SPIReadRegister
 2673              	.LVL319:
 2674              		.loc 1 1007 0 discriminator 1
 2675 00f0 6733     		se_btsti %r3,19
 2676 00f2 7A02FFEA 		e_bne %cr0,.L99
 2677              		.loc 1 1010 0
 2678 00f6 746397FF 		e_rlwinm %r3,%r3,18,31,31
 2679              	.LVL320:
GAS LISTING C:\Users\Vipuls\AppData\Local\Temp\ccgvNFZ7.s 			page 48


 2680              		.loc 1 958 0
 2681 00fa 1860E001 		e_xori %r0,%r3,1
 2682              	.L84:
 2683              		.loc 1 1017 0
 2684 00fe 0103     		se_mr %r3,%r0
 2685 0100 CB01     		se_lwz %r0,44(%r1)
 2686 0102 0090     		se_mtlr %r0
 2687              		.cfi_remember_state
 2688              		.cfi_restore 65
 2689 0104 1B410810 		e_lmw %r26,16(%r1)
 2690              	.LVL321:
 2691 0108 18218028 		e_addi %r1,%r1,40
 2692              	.LCFI76:
 2693              		.cfi_restore 31
 2694              		.cfi_restore 30
 2695              		.cfi_restore 29
 2696              		.cfi_restore 28
 2697              		.cfi_restore 27
 2698              		.cfi_restore 26
 2699              		.cfi_def_cfa_offset 0
 2700 010c 0004     		se_blr
 2701              	.LVL322:
 2702              	.L102:
 2703              	.LCFI77:
 2704              		.cfi_restore_state
 2705              		.loc 1 965 0
 2706 010e 1860C5FE 		e_andi %r0,%r3,-257
 2707              	.LVL323:
 2708              		.loc 1 968 0
 2709 0112 222B     		se_cmpli %r27,3
 2710              		.loc 1 965 0
 2711 0114 6500     		se_bseti %r0,16
 2712              	.LVL324:
 2713              		.loc 1 968 0
 2714 0116 7A02FF54 		e_bne %cr0,.L88
 2715              	.L103:
 2716              		.loc 1 969 0
 2717 011a 6580     		se_bseti %r0,24
 2718              	.LVL325:
 2719              		.loc 1 974 0
 2720 011c 224C     		se_cmpli %r28,5
 2721 011e 7A02FF5C 		e_bne %cr0,.L90
 2722              	.L104:
 2723              		.loc 1 975 0
 2724 0122 6590     		se_bseti %r0,25
 2725              	.LVL326:
 2726              		.loc 1 980 0
 2727 0124 226D     		se_cmpli %r29,7
 2728 0126 7A02FF64 		e_bne %cr0,.L92
 2729              	.L105:
 2730              		.loc 1 981 0
 2731 012a 65A0     		se_bseti %r0,26
 2732              	.LVL327:
 2733              		.loc 1 986 0
 2734 012c 7008A809 		e_cmpl16i %r8,9
 2735 0130 7A02FF6C 		e_bne %cr0,.L94
 2736              	.L106:
GAS LISTING C:\Users\Vipuls\AppData\Local\Temp\ccgvNFZ7.s 			page 49


 2737              		.loc 1 987 0
 2738 0134 65B0     		se_bseti %r0,27
 2739              	.LVL328:
 2740              		.loc 1 992 0
 2741 0136 7009A80B 		e_cmpl16i %r9,11
 2742 013a 7A02FF76 		e_bne %cr0,.L96
 2743              	.L107:
 2744              		.loc 1 993 0
 2745 013e 64E0     		se_bseti %r0,14
 2746              	.LVL329:
 2747 0140 79FFFF7C 		e_b .L97
 2748              		.cfi_endproc
 2749              	.LFE32:
 2750              		.size	AEK_POW_BMS63EN_StartManualConversion, .-AEK_POW_BMS63EN_StartManualConversion
 2751              		.section	.text.AEK_POW_BMS63EN_DisableCell,"axv",@progbits
 2752              		.align 1
 2753              		.p2align 4,,15
 2754              		.globl AEK_POW_BMS63EN_DisableCell
 2755              		.type	AEK_POW_BMS63EN_DisableCell, @function
 2756              	AEK_POW_BMS63EN_DisableCell:
 2757              	.LFB33:
 2758              		.loc 1 1028 0
 2759              		.cfi_startproc
 2760              	.LVL330:
 2761 0000 182106E8 		e_stwu %r1,-24(%r1)
 2762              	.LCFI78:
 2763              		.cfi_def_cfa_offset 24
 2764 0004 0080     		se_mflr %r0
 2765 0006 1B810908 		e_stmw %r28,8(%r1)
 2766 000a D701     		se_stw %r0,28(%r1)
 2767              		.cfi_offset 65, 4
 2768              		.cfi_offset 28, -16
 2769              		.cfi_offset 29, -12
 2770              		.cfi_offset 30, -8
 2771              		.cfi_offset 31, -4
 2772              		.loc 1 1028 0
 2773 000c 014E     		se_mr %r30,%r4
 2774 000e 013F     		se_mr %r31,%r3
 2775              		.loc 1 1033 0
 2776 0010 22D4     		se_cmpli %r4,14
 2777 0012 7A120074 		e_beq %cr0,.L109
 2778              		.loc 1 1034 0
 2779 0016 0134     		se_mr %r4,%r3
 2780              	.LVL331:
 2781 0018 73A0E000 		e_lis %r29,AEK_POW_BMS63EN_Drv@ha
 2782 001c 49C5     		se_li %r5,28
 2783 001e 1F9D0000 		e_la %r28,AEK_POW_BMS63EN_Drv@l(%r29)
 2784 0022 01C3     		se_mr %r3,%r28
 2785              	.LVL332:
 2786 0024 78000001 		e_bl AEK_POW_BMS63EN_SPIReadRegister
 2787              	.LVL333:
 2788              		.loc 1 1035 0
 2789 0028 01F4     		se_mr %r4,%r31
 2790 002a 49C5     		se_li %r5,28
 2791 002c 01C3     		se_mr %r3,%r28
 2792 002e 78000001 		e_bl AEK_POW_BMS63EN_SPIReadRegister
 2793              	.LVL334:
GAS LISTING C:\Users\Vipuls\AppData\Local\Temp\ccgvNFZ7.s 			page 50


 2794              		.loc 1 1036 0
 2795 0032 50FD0000 		e_lwz %r7,AEK_POW_BMS63EN_Drv@l(%r29)
 2796 0036 7FE42870 		e_slwi %r4,%r31,5
 2797 003a C157     		se_lwz %r5,4(%r7)
 2798              		.loc 1 1035 0
 2799 003c 0136     		se_mr %r6,%r3
 2800              	.LVL335:
 2801              		.loc 1 1036 0
 2802 003e 7FE74070 		e_slwi %r7,%r31,8
 2803 0042 C255     		se_lwz %r5,8(%r5)
 2804 0044 0647     		se_sub %r7, %r4
 2805 0046 7FC42070 		e_slwi %r4,%r30,4
 2806 004a 18E78420 		e_addi %r7,%r7,-224
 2807 004e 0475     		se_add %r5,%r7
 2808 0050 7CE52214 		add %r7,%r5,%r4
 2809 0054 C157     		se_lwz %r5,4(%r7)
 2810 0056 2A05     		se_cmpi %r5,0
 2811 0058 7A120014 		e_beq %cr0,.L110
 2812              		.loc 1 1037 0
 2813 005c 70BF7FFE 		e_li %r5,-2
 2814 0060 00CE     		se_extzb %r30
 2815              	.LVL336:
 2816 0062 7CBEF230 		e_rlw %r30,%r5,%r30
 2817              		.loc 1 1038 0
 2818 0066 4805     		se_li %r5,0
 2819              		.loc 1 1037 0
 2820 0068 46E6     		se_and %r6,%r30
 2821              	.LVL337:
 2822              		.loc 1 1038 0
 2823 006a D257     		se_stw %r5,8(%r7)
 2824              	.L110:
 2825              		.loc 1 1052 0
 2826 006c C701     		se_lwz %r0,28(%r1)
 2827              		.loc 1 1050 0
 2828 006e 01F4     		se_mr %r4,%r31
 2829 0070 7060E000 		e_lis %r3,AEK_POW_BMS63EN_Drv@ha
 2830              		.loc 1 1052 0
 2831 0074 1B810808 		e_lmw %r28,8(%r1)
 2832              	.LVL338:
 2833              		.loc 1 1050 0
 2834 0078 1C630000 		e_la %r3,AEK_POW_BMS63EN_Drv@l(%r3)
 2835              		.loc 1 1052 0
 2836              		.loc 1 1050 0
 2837 007c 49C5     		se_li %r5,28
 2838              		.loc 1 1052 0
 2839 007e 0090     		se_mtlr %r0
 2840              		.cfi_remember_state
 2841              		.cfi_restore 65
 2842 0080 2171     		se_addi %r1,24
 2843              	.LCFI79:
 2844              		.cfi_restore 31
 2845              		.cfi_restore 30
 2846              		.cfi_restore 29
 2847              		.cfi_restore 28
 2848              		.cfi_def_cfa_offset 0
 2849              		.loc 1 1050 0
 2850 0082 78000000 		e_b AEK_POW_BMS63EN_SPIWriteRegister
GAS LISTING C:\Users\Vipuls\AppData\Local\Temp\ccgvNFZ7.s 			page 51


 2851              	.LVL339:
 2852              	.L109:
 2853              	.LCFI80:
 2854              		.cfi_restore_state
 2855 0086 70E0E000 		e_lis %r7,AEK_POW_BMS63EN_Drv@ha
 2856 008a 7C662870 		e_slwi %r6,%r3,5
 2857 008e 50A70000 		e_lwz %r5,AEK_POW_BMS63EN_Drv@l(%r7)
 2858 0092 7C674070 		e_slwi %r7,%r3,8
 2859 0096 C155     		se_lwz %r5,4(%r5)
 2860 0098 0776     		se_subf %r6, %r7
 2861 009a C275     		se_lwz %r7,8(%r5)
 2862              		.loc 1 1045 0
 2863 009c 4805     		se_li %r5,0
 2864 009e 7CC73214 		add %r6,%r7,%r6
 2865 00a2 48E7     		se_li %r7,14
 2866 00a4 18C68424 		e_addi %r6,%r6,-220
 2867 00a8 00B7     		se_mtctr %r7
 2868              	.L112:
 2869              	.LVL340:
 2870              		.loc 1 1043 0
 2871 00aa C076     		se_lwz %r7,0(%r6)
 2872 00ac 2A07     		se_cmpi %r7,0
 2873 00ae 7A120006 		e_beq %cr0,.L111
 2874              		.loc 1 1045 0
 2875 00b2 D156     		se_stw %r5,4(%r6)
 2876              	.L111:
 2877 00b4 20F6     		se_addi %r6,16
 2878              		.loc 1 1042 0 discriminator 2
 2879 00b6 7A20FFF4 		e_bdnz .L112
 2880              		.loc 1 1052 0
 2881 00ba C701     		se_lwz %r0,28(%r1)
 2882              		.loc 1 1050 0
 2883 00bc 01F4     		se_mr %r4,%r31
 2884              	.LVL341:
 2885 00be 7060E000 		e_lis %r3,AEK_POW_BMS63EN_Drv@ha
 2886              	.LVL342:
 2887              		.loc 1 1052 0
 2888 00c2 1B810808 		e_lmw %r28,8(%r1)
 2889              	.LVL343:
 2890 00c6 4806     		se_li %r6,0
 2891              	.LVL344:
 2892              		.loc 1 1050 0
 2893 00c8 1C630000 		e_la %r3,AEK_POW_BMS63EN_Drv@l(%r3)
 2894 00cc 49C5     		se_li %r5,28
 2895              	.LVL345:
 2896              		.loc 1 1052 0
 2897 00ce 0090     		se_mtlr %r0
 2898              		.cfi_restore 65
 2899 00d0 2171     		se_addi %r1,24
 2900              	.LCFI81:
 2901              		.cfi_restore 28
 2902              		.cfi_restore 29
 2903              		.cfi_restore 30
 2904              		.cfi_restore 31
 2905              		.cfi_def_cfa_offset 0
 2906              		.loc 1 1050 0
 2907 00d2 78000000 		e_b AEK_POW_BMS63EN_SPIWriteRegister
GAS LISTING C:\Users\Vipuls\AppData\Local\Temp\ccgvNFZ7.s 			page 52


 2908              	.LVL346:
 2909              		.cfi_endproc
 2910              	.LFE33:
 2911              		.size	AEK_POW_BMS63EN_DisableCell, .-AEK_POW_BMS63EN_DisableCell
 2912              		.section	.text.AEK_POW_BMS63EN_DisableCellBalancing,"axv",@progbits
 2913              		.align 1
 2914              		.p2align 4,,15
 2915              		.globl AEK_POW_BMS63EN_DisableCellBalancing
 2916              		.type	AEK_POW_BMS63EN_DisableCellBalancing, @function
 2917              	AEK_POW_BMS63EN_DisableCellBalancing:
 2918              	.LFB34:
 2919              		.loc 1 1058 0
 2920              		.cfi_startproc
 2921              	.LVL347:
 2922 0000 182106E8 		e_stwu %r1,-24(%r1)
 2923              	.LCFI82:
 2924              		.cfi_def_cfa_offset 24
 2925 0004 0080     		se_mflr %r0
 2926 0006 1BA1090C 		e_stmw %r29,12(%r1)
 2927 000a D701     		se_stw %r0,28(%r1)
 2928              		.cfi_offset 65, 4
 2929              		.cfi_offset 29, -12
 2930              		.cfi_offset 30, -8
 2931              		.cfi_offset 31, -4
 2932              		.loc 1 1058 0
 2933 000c 014F     		se_mr %r31,%r4
 2934 000e 013E     		se_mr %r30,%r3
 2935              		.loc 1 1062 0
 2936 0010 22D4     		se_cmpli %r4,14
 2937 0012 7A12013C 		e_beq %cr0,.L137
 2938              		.loc 1 1084 0
 2939 0016 0134     		se_mr %r4,%r3
 2940              	.LVL348:
 2941              		.loc 1 1083 0
 2942 0018 224F     		se_cmpli %r31,5
 2943 001a 7A010040 		e_ble %cr0,.L138
 2944              		.loc 1 1087 0
 2945 001e 4905     		se_li %r5,16
 2946 0020 73A0E000 		e_lis %r29,AEK_POW_BMS63EN_Drv@ha
 2947              		.loc 1 1091 0
 2948 0024 1BFF84FA 		e_addi %r31,%r31,-6
 2949              	.LVL349:
 2950              		.loc 1 1087 0
 2951 0028 1FBD0000 		e_la %r29,AEK_POW_BMS63EN_Drv@l(%r29)
 2952 002c 01D3     		se_mr %r3,%r29
 2953              	.LVL350:
 2954 002e 78000001 		e_bl AEK_POW_BMS63EN_SPIReadRegister
 2955              	.LVL351:
 2956              		.loc 1 1088 0
 2957 0032 01D3     		se_mr %r3,%r29
 2958 0034 01E4     		se_mr %r4,%r30
 2959 0036 4905     		se_li %r5,16
 2960 0038 78000001 		e_bl AEK_POW_BMS63EN_SPIReadRegister
 2961              	.LVL352:
 2962              		.loc 1 1091 0
 2963 003c 226F     		se_cmpli %r31,7
 2964              		.loc 1 1088 0
GAS LISTING C:\Users\Vipuls\AppData\Local\Temp\ccgvNFZ7.s 			page 53


 2965 003e 0136     		se_mr %r6,%r3
 2966              	.LVL353:
 2967              		.loc 1 1091 0
 2968 0040 7A110050 		e_bgt %cr0,.L124
 2969 0044 6C2F     		se_slwi %r31, 2
 2970              	.LVL354:
 2971 0046 70E0E000 		e_lis %r7,.L126@ha
 2972 004a 1CE70000 		e_la %r7,.L126@l(%r7)
 2973 004e 7CA7F82E 		lwzx %r5,%r7,%r31
 2974 0052 7CE53A14 		add %r7,%r5,%r7
 2975 0056 00B7     		se_mtctr %r7
 2976 0058 0006     		se_bctr
 2977              		.section	.rodata.AEK_POW_BMS63EN_DisableCellBalancing,"a",@progbits
 2978              		.align 2
 2979              		.align 2
 2980              	.L126:
 2981 0000 00000000 		.long .L125-.L126
 2982 0004 00000000 		.long .L127-.L126
 2983 0008 00000000 		.long .L128-.L126
 2984 000c 00000000 		.long .L129-.L126
 2985 0010 00000000 		.long .L130-.L126
 2986 0014 00000000 		.long .L131-.L126
 2987 0018 00000000 		.long .L132-.L126
 2988 001c 00000000 		.long .L133-.L126
 2989              		.section	.text.AEK_POW_BMS63EN_DisableCellBalancing
 2990              	.LVL355:
 2991              	.L138:
 2992              		.loc 1 1084 0
 2993 005a 4915     		se_li %r5,17
 2994 005c 73A0E000 		e_lis %r29,AEK_POW_BMS63EN_Drv@ha
 2995              		.loc 1 1091 0
 2996 0060 6C2F     		se_slwi %r31, 2
 2997              	.LVL356:
 2998              		.loc 1 1084 0
 2999 0062 1FBD0000 		e_la %r29,AEK_POW_BMS63EN_Drv@l(%r29)
 3000 0066 01D3     		se_mr %r3,%r29
 3001              	.LVL357:
 3002 0068 78000001 		e_bl AEK_POW_BMS63EN_SPIReadRegister
 3003              	.LVL358:
 3004              		.loc 1 1085 0
 3005 006c 01D3     		se_mr %r3,%r29
 3006 006e 01E4     		se_mr %r4,%r30
 3007 0070 4915     		se_li %r5,17
 3008 0072 78000001 		e_bl AEK_POW_BMS63EN_SPIReadRegister
 3009              	.LVL359:
 3010              		.loc 1 1091 0
 3011 0076 70E0E000 		e_lis %r7,.L119@ha
 3012 007a 1CE70000 		e_la %r7,.L119@l(%r7)
 3013 007e 7CC7F82E 		lwzx %r6,%r7,%r31
 3014 0082 7CE63A14 		add %r7,%r6,%r7
 3015 0086 00B7     		se_mtctr %r7
 3016 0088 0006     		se_bctr
 3017              		.section	.rodata.AEK_POW_BMS63EN_DisableCellBalancing
 3018              		.align 2
 3019              		.align 2
 3020              	.L119:
 3021 0020 00000000 		.long .L117-.L119
GAS LISTING C:\Users\Vipuls\AppData\Local\Temp\ccgvNFZ7.s 			page 54


 3022 0024 00000000 		.long .L118-.L119
 3023 0028 00000000 		.long .L120-.L119
 3024 002c 00000000 		.long .L121-.L119
 3025 0030 00000000 		.long .L122-.L119
 3026 0034 00000000 		.long .L123-.L119
 3027              		.section	.text.AEK_POW_BMS63EN_DisableCellBalancing
 3028              	.L133:
 3029              		.loc 1 1145 0
 3030 008a 1866C53F 		e_andi %r6,%r3,-49153
 3031              	.LVL360:
 3032              		.loc 1 1146 0
 3033 008e 6516     		se_bseti %r6,17
 3034              	.LVL361:
 3035              	.L124:
 3036              		.loc 1 1154 0
 3037 0090 7060E000 		e_lis %r3,AEK_POW_BMS63EN_Drv@ha
 3038 0094 01E4     		se_mr %r4,%r30
 3039 0096 1C630000 		e_la %r3,AEK_POW_BMS63EN_Drv@l(%r3)
 3040 009a 4905     		se_li %r5,16
 3041              	.LVL362:
 3042              	.L136:
 3043              		.loc 1 1159 0
 3044 009c C701     		se_lwz %r0,28(%r1)
 3045 009e 1BA1080C 		e_lmw %r29,12(%r1)
 3046 00a2 0090     		se_mtlr %r0
 3047              		.cfi_remember_state
 3048              		.cfi_restore 65
 3049 00a4 2171     		se_addi %r1,24
 3050              	.LCFI83:
 3051              		.cfi_restore 31
 3052              		.cfi_restore 30
 3053              		.cfi_restore 29
 3054              		.cfi_def_cfa_offset 0
 3055              		.loc 1 1152 0
 3056 00a6 78000000 		e_b AEK_POW_BMS63EN_SPIWriteRegister
 3057              	.LVL363:
 3058              	.L122:
 3059              	.LCFI84:
 3060              		.cfi_restore_state
 3061              		.loc 1 1109 0
 3062 00aa 1863C5CF 		e_andi %r3,%r3,-12289
 3063              	.LVL364:
 3064              		.loc 1 1110 0
 3065 00ae 1866D110 		e_ori %r6,%r3,4096
 3066              	.LVL365:
 3067              	.L134:
 3068              		.loc 1 1159 0
 3069 00b2 C701     		se_lwz %r0,28(%r1)
 3070              		.loc 1 1152 0
 3071 00b4 01E4     		se_mr %r4,%r30
 3072 00b6 7060E000 		e_lis %r3,AEK_POW_BMS63EN_Drv@ha
 3073              		.loc 1 1159 0
 3074 00ba 1BA1080C 		e_lmw %r29,12(%r1)
 3075              	.LVL366:
 3076              		.loc 1 1152 0
 3077 00be 1C630000 		e_la %r3,AEK_POW_BMS63EN_Drv@l(%r3)
 3078              		.loc 1 1159 0
GAS LISTING C:\Users\Vipuls\AppData\Local\Temp\ccgvNFZ7.s 			page 55


 3079              		.loc 1 1152 0
 3080 00c2 4915     		se_li %r5,17
 3081              		.loc 1 1159 0
 3082 00c4 0090     		se_mtlr %r0
 3083              		.cfi_remember_state
 3084              		.cfi_restore 65
 3085 00c6 2171     		se_addi %r1,24
 3086              	.LCFI85:
 3087              		.cfi_restore 29
 3088              		.cfi_restore 30
 3089              		.cfi_restore 31
 3090              		.cfi_def_cfa_offset 0
 3091              		.loc 1 1152 0
 3092 00c8 78000000 		e_b AEK_POW_BMS63EN_SPIWriteRegister
 3093              	.LVL367:
 3094              	.L121:
 3095              	.LCFI86:
 3096              		.cfi_restore_state
 3097              		.loc 1 1105 0
 3098 00cc 1863C5F3 		e_andi %r3,%r3,-3073
 3099              	.LVL368:
 3100              		.loc 1 1106 0
 3101 00d0 1866D104 		e_ori %r6,%r3,1024
 3102              	.LVL369:
 3103              		.loc 1 1107 0
 3104 00d4 79FFFFDE 		e_b .L134
 3105              	.LVL370:
 3106              	.L120:
 3107              		.loc 1 1101 0
 3108 00d8 1863C5FC 		e_andi %r3,%r3,-769
 3109              	.LVL371:
 3110              		.loc 1 1102 0
 3111 00dc 1866D101 		e_ori %r6,%r3,256
 3112              	.LVL372:
 3113              		.loc 1 1103 0
 3114 00e0 79FFFFD2 		e_b .L134
 3115              	.LVL373:
 3116              	.L118:
 3117              		.loc 1 1097 0
 3118 00e4 1863C43F 		e_andi %r3,%r3,-193
 3119              	.LVL374:
 3120              		.loc 1 1098 0
 3121 00e8 1866D040 		e_ori %r6,%r3,64
 3122              	.LVL375:
 3123              		.loc 1 1099 0
 3124 00ec 79FFFFC6 		e_b .L134
 3125              	.LVL376:
 3126              	.L117:
 3127              		.loc 1 1093 0
 3128 00f0 1863C4CF 		e_andi %r3,%r3,-49
 3129              	.LVL377:
 3130              		.loc 1 1094 0
 3131 00f4 1866D010 		e_ori %r6,%r3,16
 3132              	.LVL378:
 3133              		.loc 1 1095 0
 3134 00f8 79FFFFBA 		e_b .L134
 3135              	.LVL379:
GAS LISTING C:\Users\Vipuls\AppData\Local\Temp\ccgvNFZ7.s 			page 56


 3136              	.L125:
 3137              		.loc 1 1117 0
 3138 00fc 1866C4FC 		e_andi %r6,%r3,-4
 3139              	.LVL380:
 3140              		.loc 1 1118 0
 3141 0100 65F6     		se_bseti %r6,31
 3142              	.LVL381:
 3143              		.loc 1 1119 0
 3144 0102 79FFFF8E 		e_b .L124
 3145              	.LVL382:
 3146              	.L128:
 3147              		.loc 1 1125 0
 3148 0106 1866C4CF 		e_andi %r6,%r3,-49
 3149              	.LVL383:
 3150              		.loc 1 1126 0
 3151 010a 65B6     		se_bseti %r6,27
 3152              	.LVL384:
 3153              		.loc 1 1127 0
 3154 010c 79FFFF84 		e_b .L124
 3155              	.LVL385:
 3156              	.L129:
 3157              		.loc 1 1129 0
 3158 0110 1866C43F 		e_andi %r6,%r3,-193
 3159              	.LVL386:
 3160              		.loc 1 1130 0
 3161 0114 6596     		se_bseti %r6,25
 3162              	.LVL387:
 3163              		.loc 1 1131 0
 3164 0116 79FFFF7A 		e_b .L124
 3165              	.LVL388:
 3166              	.L130:
 3167              		.loc 1 1133 0
 3168 011a 1866C5FC 		e_andi %r6,%r3,-769
 3169              	.LVL389:
 3170              		.loc 1 1134 0
 3171 011e 6576     		se_bseti %r6,23
 3172              	.LVL390:
 3173              		.loc 1 1135 0
 3174 0120 79FFFF70 		e_b .L124
 3175              	.LVL391:
 3176              	.L131:
 3177              		.loc 1 1137 0
 3178 0124 1866C5F3 		e_andi %r6,%r3,-3073
 3179              	.LVL392:
 3180              		.loc 1 1138 0
 3181 0128 6556     		se_bseti %r6,21
 3182              	.LVL393:
 3183              		.loc 1 1139 0
 3184 012a 79FFFF66 		e_b .L124
 3185              	.LVL394:
 3186              	.L132:
 3187              		.loc 1 1141 0
 3188 012e 1866C5CF 		e_andi %r6,%r3,-12289
 3189              	.LVL395:
 3190              		.loc 1 1142 0
 3191 0132 6536     		se_bseti %r6,19
 3192              	.LVL396:
GAS LISTING C:\Users\Vipuls\AppData\Local\Temp\ccgvNFZ7.s 			page 57


 3193              		.loc 1 1143 0
 3194 0134 79FFFF5C 		e_b .L124
 3195              	.LVL397:
 3196              	.L127:
 3197              		.loc 1 1121 0
 3198 0138 1866C4F3 		e_andi %r6,%r3,-13
 3199              	.LVL398:
 3200              		.loc 1 1122 0
 3201 013c 65D6     		se_bseti %r6,29
 3202              	.LVL399:
 3203              		.loc 1 1123 0
 3204 013e 79FFFF52 		e_b .L124
 3205              	.LVL400:
 3206              	.L123:
 3207              		.loc 1 1113 0
 3208 0142 1863C53F 		e_andi %r3,%r3,-49153
 3209              	.LVL401:
 3210              		.loc 1 1114 0
 3211 0146 1866D140 		e_ori %r6,%r3,16384
 3212              	.LVL402:
 3213              		.loc 1 1115 0
 3214 014a 79FFFF68 		e_b .L134
 3215              	.LVL403:
 3216              	.L137:
 3217              		.loc 1 1071 0
 3218 014e 0134     		se_mr %r4,%r3
 3219              	.LVL404:
 3220 0150 4905     		se_li %r5,16
 3221 0152 70CA0555 		e_li %r6,21845
 3222 0156 73E0E000 		e_lis %r31,AEK_POW_BMS63EN_Drv@ha
 3223              	.LVL405:
 3224 015a 1FFF0000 		e_la %r31,AEK_POW_BMS63EN_Drv@l(%r31)
 3225 015e 01F3     		se_mr %r3,%r31
 3226              	.LVL406:
 3227 0160 78000001 		e_bl AEK_POW_BMS63EN_SPIWriteRegister
 3228              	.LVL407:
 3229              		.loc 1 1079 0
 3230 0164 01F3     		se_mr %r3,%r31
 3231 0166 01E4     		se_mr %r4,%r30
 3232 0168 4915     		se_li %r5,17
 3233 016a 70CA0550 		e_li %r6,21840
 3234 016e 79FFFF2E 		e_b .L136
 3235              		.cfi_endproc
 3236              	.LFE34:
 3237              		.size	AEK_POW_BMS63EN_DisableCellBalancing, .-AEK_POW_BMS63EN_DisableCellBalancing
 3238              		.section	.text.AEK_POW_BMS63EN_EnableCellBalancing,"axv",@progbits
 3239              		.align 1
 3240              		.p2align 4,,15
 3241              		.globl AEK_POW_BMS63EN_EnableCellBalancing
 3242              		.type	AEK_POW_BMS63EN_EnableCellBalancing, @function
 3243              	AEK_POW_BMS63EN_EnableCellBalancing:
 3244              	.LFB35:
 3245              		.loc 1 1165 0
 3246              		.cfi_startproc
 3247              	.LVL408:
 3248 0000 182106E8 		e_stwu %r1,-24(%r1)
 3249              	.LCFI87:
GAS LISTING C:\Users\Vipuls\AppData\Local\Temp\ccgvNFZ7.s 			page 58


 3250              		.cfi_def_cfa_offset 24
 3251 0004 0080     		se_mflr %r0
 3252 0006 1BA1090C 		e_stmw %r29,12(%r1)
 3253 000a D701     		se_stw %r0,28(%r1)
 3254              		.cfi_offset 65, 4
 3255              		.cfi_offset 29, -12
 3256              		.cfi_offset 30, -8
 3257              		.cfi_offset 31, -4
 3258              		.loc 1 1165 0
 3259 000c 014F     		se_mr %r31,%r4
 3260 000e 013E     		se_mr %r30,%r3
 3261              		.loc 1 1169 0
 3262 0010 22D4     		se_cmpli %r4,14
 3263 0012 7A12013C 		e_beq %cr0,.L162
 3264              		.loc 1 1191 0
 3265 0016 0134     		se_mr %r4,%r3
 3266              	.LVL409:
 3267              		.loc 1 1190 0
 3268 0018 224F     		se_cmpli %r31,5
 3269 001a 7A010040 		e_ble %cr0,.L163
 3270              		.loc 1 1194 0
 3271 001e 4905     		se_li %r5,16
 3272 0020 73A0E000 		e_lis %r29,AEK_POW_BMS63EN_Drv@ha
 3273              		.loc 1 1198 0
 3274 0024 1BFF84FA 		e_addi %r31,%r31,-6
 3275              	.LVL410:
 3276              		.loc 1 1194 0
 3277 0028 1FBD0000 		e_la %r29,AEK_POW_BMS63EN_Drv@l(%r29)
 3278 002c 01D3     		se_mr %r3,%r29
 3279              	.LVL411:
 3280 002e 78000001 		e_bl AEK_POW_BMS63EN_SPIReadRegister
 3281              	.LVL412:
 3282              		.loc 1 1195 0
 3283 0032 01D3     		se_mr %r3,%r29
 3284 0034 01E4     		se_mr %r4,%r30
 3285 0036 4905     		se_li %r5,16
 3286 0038 78000001 		e_bl AEK_POW_BMS63EN_SPIReadRegister
 3287              	.LVL413:
 3288              		.loc 1 1198 0
 3289 003c 226F     		se_cmpli %r31,7
 3290              		.loc 1 1195 0
 3291 003e 0136     		se_mr %r6,%r3
 3292              	.LVL414:
 3293              		.loc 1 1198 0
 3294 0040 7A110050 		e_bgt %cr0,.L149
 3295 0044 6C2F     		se_slwi %r31, 2
 3296              	.LVL415:
 3297 0046 70E0E000 		e_lis %r7,.L151@ha
 3298 004a 1CE70000 		e_la %r7,.L151@l(%r7)
 3299 004e 7CA7F82E 		lwzx %r5,%r7,%r31
 3300 0052 7CE53A14 		add %r7,%r5,%r7
 3301 0056 00B7     		se_mtctr %r7
 3302 0058 0006     		se_bctr
 3303              		.section	.rodata.AEK_POW_BMS63EN_EnableCellBalancing,"a",@progbits
 3304              		.align 2
 3305              		.align 2
 3306              	.L151:
GAS LISTING C:\Users\Vipuls\AppData\Local\Temp\ccgvNFZ7.s 			page 59


 3307 0000 00000000 		.long .L150-.L151
 3308 0004 00000000 		.long .L152-.L151
 3309 0008 00000000 		.long .L153-.L151
 3310 000c 00000000 		.long .L154-.L151
 3311 0010 00000000 		.long .L155-.L151
 3312 0014 00000000 		.long .L156-.L151
 3313 0018 00000000 		.long .L157-.L151
 3314 001c 00000000 		.long .L158-.L151
 3315              		.section	.text.AEK_POW_BMS63EN_EnableCellBalancing
 3316              	.LVL416:
 3317              	.L163:
 3318              		.loc 1 1191 0
 3319 005a 4915     		se_li %r5,17
 3320 005c 73A0E000 		e_lis %r29,AEK_POW_BMS63EN_Drv@ha
 3321              		.loc 1 1198 0
 3322 0060 6C2F     		se_slwi %r31, 2
 3323              	.LVL417:
 3324              		.loc 1 1191 0
 3325 0062 1FBD0000 		e_la %r29,AEK_POW_BMS63EN_Drv@l(%r29)
 3326 0066 01D3     		se_mr %r3,%r29
 3327              	.LVL418:
 3328 0068 78000001 		e_bl AEK_POW_BMS63EN_SPIReadRegister
 3329              	.LVL419:
 3330              		.loc 1 1192 0
 3331 006c 01D3     		se_mr %r3,%r29
 3332 006e 01E4     		se_mr %r4,%r30
 3333 0070 4915     		se_li %r5,17
 3334 0072 78000001 		e_bl AEK_POW_BMS63EN_SPIReadRegister
 3335              	.LVL420:
 3336              		.loc 1 1198 0
 3337 0076 70E0E000 		e_lis %r7,.L144@ha
 3338 007a 1CE70000 		e_la %r7,.L144@l(%r7)
 3339 007e 7CC7F82E 		lwzx %r6,%r7,%r31
 3340 0082 7CE63A14 		add %r7,%r6,%r7
 3341 0086 00B7     		se_mtctr %r7
 3342 0088 0006     		se_bctr
 3343              		.section	.rodata.AEK_POW_BMS63EN_EnableCellBalancing
 3344              		.align 2
 3345              		.align 2
 3346              	.L144:
 3347 0020 00000000 		.long .L142-.L144
 3348 0024 00000000 		.long .L143-.L144
 3349 0028 00000000 		.long .L145-.L144
 3350 002c 00000000 		.long .L146-.L144
 3351 0030 00000000 		.long .L147-.L144
 3352 0034 00000000 		.long .L148-.L144
 3353              		.section	.text.AEK_POW_BMS63EN_EnableCellBalancing
 3354              	.L158:
 3355              		.loc 1 1252 0
 3356 008a 1866C53F 		e_andi %r6,%r3,-49153
 3357              	.LVL421:
 3358              		.loc 1 1253 0
 3359 008e 6506     		se_bseti %r6,16
 3360              	.LVL422:
 3361              	.L149:
 3362              		.loc 1 1261 0
 3363 0090 7060E000 		e_lis %r3,AEK_POW_BMS63EN_Drv@ha
GAS LISTING C:\Users\Vipuls\AppData\Local\Temp\ccgvNFZ7.s 			page 60


 3364 0094 01E4     		se_mr %r4,%r30
 3365 0096 1C630000 		e_la %r3,AEK_POW_BMS63EN_Drv@l(%r3)
 3366 009a 4905     		se_li %r5,16
 3367              	.LVL423:
 3368              	.L161:
 3369              		.loc 1 1266 0
 3370 009c C701     		se_lwz %r0,28(%r1)
 3371 009e 1BA1080C 		e_lmw %r29,12(%r1)
 3372 00a2 0090     		se_mtlr %r0
 3373              		.cfi_remember_state
 3374              		.cfi_restore 65
 3375 00a4 2171     		se_addi %r1,24
 3376              	.LCFI88:
 3377              		.cfi_restore 31
 3378              		.cfi_restore 30
 3379              		.cfi_restore 29
 3380              		.cfi_def_cfa_offset 0
 3381              		.loc 1 1259 0
 3382 00a6 78000000 		e_b AEK_POW_BMS63EN_SPIWriteRegister
 3383              	.LVL424:
 3384              	.L147:
 3385              	.LCFI89:
 3386              		.cfi_restore_state
 3387              		.loc 1 1216 0
 3388 00aa 1863C5CF 		e_andi %r3,%r3,-12289
 3389              	.LVL425:
 3390              		.loc 1 1217 0
 3391 00ae 1866D120 		e_ori %r6,%r3,8192
 3392              	.LVL426:
 3393              	.L159:
 3394              		.loc 1 1266 0
 3395 00b2 C701     		se_lwz %r0,28(%r1)
 3396              		.loc 1 1259 0
 3397 00b4 01E4     		se_mr %r4,%r30
 3398 00b6 7060E000 		e_lis %r3,AEK_POW_BMS63EN_Drv@ha
 3399              		.loc 1 1266 0
 3400 00ba 1BA1080C 		e_lmw %r29,12(%r1)
 3401              	.LVL427:
 3402              		.loc 1 1259 0
 3403 00be 1C630000 		e_la %r3,AEK_POW_BMS63EN_Drv@l(%r3)
 3404              		.loc 1 1266 0
 3405              		.loc 1 1259 0
 3406 00c2 4915     		se_li %r5,17
 3407              		.loc 1 1266 0
 3408 00c4 0090     		se_mtlr %r0
 3409              		.cfi_remember_state
 3410              		.cfi_restore 65
 3411 00c6 2171     		se_addi %r1,24
 3412              	.LCFI90:
 3413              		.cfi_restore 29
 3414              		.cfi_restore 30
 3415              		.cfi_restore 31
 3416              		.cfi_def_cfa_offset 0
 3417              		.loc 1 1259 0
 3418 00c8 78000000 		e_b AEK_POW_BMS63EN_SPIWriteRegister
 3419              	.LVL428:
 3420              	.L146:
GAS LISTING C:\Users\Vipuls\AppData\Local\Temp\ccgvNFZ7.s 			page 61


 3421              	.LCFI91:
 3422              		.cfi_restore_state
 3423              		.loc 1 1212 0
 3424 00cc 1863C5F3 		e_andi %r3,%r3,-3073
 3425              	.LVL429:
 3426              		.loc 1 1213 0
 3427 00d0 1866D108 		e_ori %r6,%r3,2048
 3428              	.LVL430:
 3429              		.loc 1 1214 0
 3430 00d4 79FFFFDE 		e_b .L159
 3431              	.LVL431:
 3432              	.L145:
 3433              		.loc 1 1208 0
 3434 00d8 1863C5FC 		e_andi %r3,%r3,-769
 3435              	.LVL432:
 3436              		.loc 1 1209 0
 3437 00dc 1866D102 		e_ori %r6,%r3,512
 3438              	.LVL433:
 3439              		.loc 1 1210 0
 3440 00e0 79FFFFD2 		e_b .L159
 3441              	.LVL434:
 3442              	.L143:
 3443              		.loc 1 1204 0
 3444 00e4 1863C43F 		e_andi %r3,%r3,-193
 3445              	.LVL435:
 3446              		.loc 1 1205 0
 3447 00e8 1866D080 		e_ori %r6,%r3,128
 3448              	.LVL436:
 3449              		.loc 1 1206 0
 3450 00ec 79FFFFC6 		e_b .L159
 3451              	.LVL437:
 3452              	.L142:
 3453              		.loc 1 1200 0
 3454 00f0 1863C4CF 		e_andi %r3,%r3,-49
 3455              	.LVL438:
 3456              		.loc 1 1201 0
 3457 00f4 1866D020 		e_ori %r6,%r3,32
 3458              	.LVL439:
 3459              		.loc 1 1202 0
 3460 00f8 79FFFFBA 		e_b .L159
 3461              	.LVL440:
 3462              	.L150:
 3463              		.loc 1 1224 0
 3464 00fc 1866C4FC 		e_andi %r6,%r3,-4
 3465              	.LVL441:
 3466              		.loc 1 1225 0
 3467 0100 65E6     		se_bseti %r6,30
 3468              	.LVL442:
 3469              		.loc 1 1226 0
 3470 0102 79FFFF8E 		e_b .L149
 3471              	.LVL443:
 3472              	.L153:
 3473              		.loc 1 1232 0
 3474 0106 1866C4CF 		e_andi %r6,%r3,-49
 3475              	.LVL444:
 3476              		.loc 1 1233 0
 3477 010a 65A6     		se_bseti %r6,26
GAS LISTING C:\Users\Vipuls\AppData\Local\Temp\ccgvNFZ7.s 			page 62


 3478              	.LVL445:
 3479              		.loc 1 1234 0
 3480 010c 79FFFF84 		e_b .L149
 3481              	.LVL446:
 3482              	.L154:
 3483              		.loc 1 1236 0
 3484 0110 1866C43F 		e_andi %r6,%r3,-193
 3485              	.LVL447:
 3486              		.loc 1 1237 0
 3487 0114 6586     		se_bseti %r6,24
 3488              	.LVL448:
 3489              		.loc 1 1238 0
 3490 0116 79FFFF7A 		e_b .L149
 3491              	.LVL449:
 3492              	.L155:
 3493              		.loc 1 1240 0
 3494 011a 1866C5FC 		e_andi %r6,%r3,-769
 3495              	.LVL450:
 3496              		.loc 1 1241 0
 3497 011e 6566     		se_bseti %r6,22
 3498              	.LVL451:
 3499              		.loc 1 1242 0
 3500 0120 79FFFF70 		e_b .L149
 3501              	.LVL452:
 3502              	.L156:
 3503              		.loc 1 1244 0
 3504 0124 1866C5F3 		e_andi %r6,%r3,-3073
 3505              	.LVL453:
 3506              		.loc 1 1245 0
 3507 0128 6546     		se_bseti %r6,20
 3508              	.LVL454:
 3509              		.loc 1 1246 0
 3510 012a 79FFFF66 		e_b .L149
 3511              	.LVL455:
 3512              	.L157:
 3513              		.loc 1 1248 0
 3514 012e 1866C5CF 		e_andi %r6,%r3,-12289
 3515              	.LVL456:
 3516              		.loc 1 1249 0
 3517 0132 6526     		se_bseti %r6,18
 3518              	.LVL457:
 3519              		.loc 1 1250 0
 3520 0134 79FFFF5C 		e_b .L149
 3521              	.LVL458:
 3522              	.L152:
 3523              		.loc 1 1228 0
 3524 0138 1866C4F3 		e_andi %r6,%r3,-13
 3525              	.LVL459:
 3526              		.loc 1 1229 0
 3527 013c 65C6     		se_bseti %r6,28
 3528              	.LVL460:
 3529              		.loc 1 1230 0
 3530 013e 79FFFF52 		e_b .L149
 3531              	.LVL461:
 3532              	.L148:
 3533              		.loc 1 1220 0
 3534 0142 1863C53F 		e_andi %r3,%r3,-49153
GAS LISTING C:\Users\Vipuls\AppData\Local\Temp\ccgvNFZ7.s 			page 63


 3535              	.LVL462:
 3536              		.loc 1 1221 0
 3537 0146 1866D180 		e_ori %r6,%r3,32768
 3538              	.LVL463:
 3539              		.loc 1 1222 0
 3540 014a 79FFFF68 		e_b .L159
 3541              	.LVL464:
 3542              	.L162:
 3543              		.loc 1 1178 0
 3544 014e 0134     		se_mr %r4,%r3
 3545              	.LVL465:
 3546 0150 4905     		se_li %r5,16
 3547 0152 70D502AA 		e_li %r6,43690
 3548 0156 73E0E000 		e_lis %r31,AEK_POW_BMS63EN_Drv@ha
 3549              	.LVL466:
 3550 015a 1FFF0000 		e_la %r31,AEK_POW_BMS63EN_Drv@l(%r31)
 3551 015e 01F3     		se_mr %r3,%r31
 3552              	.LVL467:
 3553 0160 78000001 		e_bl AEK_POW_BMS63EN_SPIWriteRegister
 3554              	.LVL468:
 3555              		.loc 1 1186 0
 3556 0164 01F3     		se_mr %r3,%r31
 3557 0166 01E4     		se_mr %r4,%r30
 3558 0168 4915     		se_li %r5,17
 3559 016a 70D502A0 		e_li %r6,43680
 3560 016e 79FFFF2E 		e_b .L161
 3561              		.cfi_endproc
 3562              	.LFE35:
 3563              		.size	AEK_POW_BMS63EN_EnableCellBalancing, .-AEK_POW_BMS63EN_EnableCellBalancing
 3564              		.section	.text.AEK_POW_BMS63EN_DisableBalCurrentEvenCells,"axv",@progbits
 3565              		.align 1
 3566              		.p2align 4,,15
 3567              		.globl AEK_POW_BMS63EN_DisableBalCurrentEvenCells
 3568              		.type	AEK_POW_BMS63EN_DisableBalCurrentEvenCells, @function
 3569              	AEK_POW_BMS63EN_DisableBalCurrentEvenCells:
 3570              	.LFB36:
 3571              		.loc 1 1272 0
 3572              		.cfi_startproc
 3573              	.LVL469:
 3574 0000 182106F0 		e_stwu %r1,-16(%r1)
 3575              	.LCFI92:
 3576              		.cfi_def_cfa_offset 16
 3577 0004 0080     		se_mflr %r0
 3578 0006 1BC10908 		e_stmw %r30,8(%r1)
 3579 000a D501     		se_stw %r0,20(%r1)
 3580              		.cfi_offset 65, 4
 3581              		.cfi_offset 30, -8
 3582              		.cfi_offset 31, -4
 3583              		.loc 1 1272 0
 3584 000c 013E     		se_mr %r30,%r3
 3585              		.loc 1 1276 0
 3586 000e 0134     		se_mr %r4,%r3
 3587 0010 48E5     		se_li %r5,14
 3588 0012 73E0E000 		e_lis %r31,AEK_POW_BMS63EN_Drv@ha
 3589 0016 1FFF0000 		e_la %r31,AEK_POW_BMS63EN_Drv@l(%r31)
 3590 001a 01F3     		se_mr %r3,%r31
 3591              	.LVL470:
GAS LISTING C:\Users\Vipuls\AppData\Local\Temp\ccgvNFZ7.s 			page 64


 3592 001c 78000001 		e_bl AEK_POW_BMS63EN_SPIReadRegister
 3593              	.LVL471:
 3594              		.loc 1 1277 0
 3595 0020 01E4     		se_mr %r4,%r30
 3596 0022 01F3     		se_mr %r3,%r31
 3597 0024 48E5     		se_li %r5,14
 3598 0026 78000001 		e_bl AEK_POW_BMS63EN_SPIReadRegister
 3599              	.LVL472:
 3600              		.loc 1 1283 0
 3601 002a C501     		se_lwz %r0,20(%r1)
 3602              		.loc 1 1281 0
 3603 002c 01E4     		se_mr %r4,%r30
 3604              		.loc 1 1279 0
 3605 002e 1866C4FD 		e_andi %r6,%r3,-3
 3606              	.LVL473:
 3607              		.loc 1 1281 0
 3608 0032 48E5     		se_li %r5,14
 3609 0034 01F3     		se_mr %r3,%r31
 3610              		.loc 1 1283 0
 3611 0036 0090     		se_mtlr %r0
 3612              		.cfi_restore 65
 3613 0038 1BC10808 		e_lmw %r30,8(%r1)
 3614              	.LVL474:
 3615 003c 20F1     		se_addi %r1,16
 3616              	.LCFI93:
 3617              		.cfi_restore 31
 3618              		.cfi_restore 30
 3619              		.cfi_def_cfa_offset 0
 3620              		.loc 1 1281 0
 3621 003e 78000000 		e_b AEK_POW_BMS63EN_SPIWriteRegister
 3622              	.LVL475:
 3623              		.cfi_endproc
 3624              	.LFE36:
 3625              		.size	AEK_POW_BMS63EN_DisableBalCurrentEvenCells, .-AEK_POW_BMS63EN_DisableBalCurrentEvenCells
 3626              		.section	.text.AEK_POW_BMS63EN_DisableBalCurrentOddCells,"axv",@progbits
 3627              		.align 1
 3628              		.p2align 4,,15
 3629              		.globl AEK_POW_BMS63EN_DisableBalCurrentOddCells
 3630              		.type	AEK_POW_BMS63EN_DisableBalCurrentOddCells, @function
 3631              	AEK_POW_BMS63EN_DisableBalCurrentOddCells:
 3632              	.LFB37:
 3633              		.loc 1 1289 0
 3634              		.cfi_startproc
 3635              	.LVL476:
 3636 0000 182106F0 		e_stwu %r1,-16(%r1)
 3637              	.LCFI94:
 3638              		.cfi_def_cfa_offset 16
 3639 0004 0080     		se_mflr %r0
 3640 0006 1BC10908 		e_stmw %r30,8(%r1)
 3641 000a D501     		se_stw %r0,20(%r1)
 3642              		.cfi_offset 65, 4
 3643              		.cfi_offset 30, -8
 3644              		.cfi_offset 31, -4
 3645              		.loc 1 1289 0
 3646 000c 013E     		se_mr %r30,%r3
 3647              		.loc 1 1293 0
 3648 000e 0134     		se_mr %r4,%r3
GAS LISTING C:\Users\Vipuls\AppData\Local\Temp\ccgvNFZ7.s 			page 65


 3649 0010 48E5     		se_li %r5,14
 3650 0012 73E0E000 		e_lis %r31,AEK_POW_BMS63EN_Drv@ha
 3651 0016 1FFF0000 		e_la %r31,AEK_POW_BMS63EN_Drv@l(%r31)
 3652 001a 01F3     		se_mr %r3,%r31
 3653              	.LVL477:
 3654 001c 78000001 		e_bl AEK_POW_BMS63EN_SPIReadRegister
 3655              	.LVL478:
 3656              		.loc 1 1294 0
 3657 0020 01E4     		se_mr %r4,%r30
 3658 0022 01F3     		se_mr %r3,%r31
 3659 0024 48E5     		se_li %r5,14
 3660 0026 78000001 		e_bl AEK_POW_BMS63EN_SPIReadRegister
 3661              	.LVL479:
 3662              		.loc 1 1300 0
 3663 002a C501     		se_lwz %r0,20(%r1)
 3664              		.loc 1 1298 0
 3665 002c 01E4     		se_mr %r4,%r30
 3666              		.loc 1 1296 0
 3667 002e 1866C4FB 		e_andi %r6,%r3,-5
 3668              	.LVL480:
 3669              		.loc 1 1298 0
 3670 0032 48E5     		se_li %r5,14
 3671 0034 01F3     		se_mr %r3,%r31
 3672              		.loc 1 1300 0
 3673 0036 0090     		se_mtlr %r0
 3674              		.cfi_restore 65
 3675 0038 1BC10808 		e_lmw %r30,8(%r1)
 3676              	.LVL481:
 3677 003c 20F1     		se_addi %r1,16
 3678              	.LCFI95:
 3679              		.cfi_restore 31
 3680              		.cfi_restore 30
 3681              		.cfi_def_cfa_offset 0
 3682              		.loc 1 1298 0
 3683 003e 78000000 		e_b AEK_POW_BMS63EN_SPIWriteRegister
 3684              	.LVL482:
 3685              		.cfi_endproc
 3686              	.LFE37:
 3687              		.size	AEK_POW_BMS63EN_DisableBalCurrentOddCells, .-AEK_POW_BMS63EN_DisableBalCurrentOddCells
 3688              		.section	.text.AEK_POW_BMS63EN_EnableBalCurrentEvenCells,"axv",@progbits
 3689              		.align 1
 3690              		.p2align 4,,15
 3691              		.globl AEK_POW_BMS63EN_EnableBalCurrentEvenCells
 3692              		.type	AEK_POW_BMS63EN_EnableBalCurrentEvenCells, @function
 3693              	AEK_POW_BMS63EN_EnableBalCurrentEvenCells:
 3694              	.LFB38:
 3695              		.loc 1 1306 0
 3696              		.cfi_startproc
 3697              	.LVL483:
 3698 0000 182106F0 		e_stwu %r1,-16(%r1)
 3699              	.LCFI96:
 3700              		.cfi_def_cfa_offset 16
 3701 0004 0080     		se_mflr %r0
 3702 0006 1BC10908 		e_stmw %r30,8(%r1)
 3703 000a D501     		se_stw %r0,20(%r1)
 3704              		.cfi_offset 65, 4
 3705              		.cfi_offset 30, -8
GAS LISTING C:\Users\Vipuls\AppData\Local\Temp\ccgvNFZ7.s 			page 66


 3706              		.cfi_offset 31, -4
 3707              		.loc 1 1306 0
 3708 000c 013E     		se_mr %r30,%r3
 3709              		.loc 1 1310 0
 3710 000e 0134     		se_mr %r4,%r3
 3711 0010 48E5     		se_li %r5,14
 3712 0012 73E0E000 		e_lis %r31,AEK_POW_BMS63EN_Drv@ha
 3713 0016 1FFF0000 		e_la %r31,AEK_POW_BMS63EN_Drv@l(%r31)
 3714 001a 01F3     		se_mr %r3,%r31
 3715              	.LVL484:
 3716 001c 78000001 		e_bl AEK_POW_BMS63EN_SPIReadRegister
 3717              	.LVL485:
 3718              		.loc 1 1311 0
 3719 0020 01E4     		se_mr %r4,%r30
 3720 0022 01F3     		se_mr %r3,%r31
 3721 0024 48E5     		se_li %r5,14
 3722 0026 78000001 		e_bl AEK_POW_BMS63EN_SPIReadRegister
 3723              	.LVL486:
 3724              		.loc 1 1317 0
 3725 002a C501     		se_lwz %r0,20(%r1)
 3726              		.loc 1 1315 0
 3727 002c 01E4     		se_mr %r4,%r30
 3728              		.loc 1 1313 0
 3729 002e 1866D002 		e_ori %r6,%r3,2
 3730              	.LVL487:
 3731              		.loc 1 1315 0
 3732 0032 48E5     		se_li %r5,14
 3733 0034 01F3     		se_mr %r3,%r31
 3734              		.loc 1 1317 0
 3735 0036 0090     		se_mtlr %r0
 3736              		.cfi_restore 65
 3737 0038 1BC10808 		e_lmw %r30,8(%r1)
 3738              	.LVL488:
 3739 003c 20F1     		se_addi %r1,16
 3740              	.LCFI97:
 3741              		.cfi_restore 31
 3742              		.cfi_restore 30
 3743              		.cfi_def_cfa_offset 0
 3744              		.loc 1 1315 0
 3745 003e 78000000 		e_b AEK_POW_BMS63EN_SPIWriteRegister
 3746              	.LVL489:
 3747              		.cfi_endproc
 3748              	.LFE38:
 3749              		.size	AEK_POW_BMS63EN_EnableBalCurrentEvenCells, .-AEK_POW_BMS63EN_EnableBalCurrentEvenCells
 3750              		.section	.text.AEK_POW_BMS63EN_EnableBalCurrentOddCells,"axv",@progbits
 3751              		.align 1
 3752              		.p2align 4,,15
 3753              		.globl AEK_POW_BMS63EN_EnableBalCurrentOddCells
 3754              		.type	AEK_POW_BMS63EN_EnableBalCurrentOddCells, @function
 3755              	AEK_POW_BMS63EN_EnableBalCurrentOddCells:
 3756              	.LFB39:
 3757              		.loc 1 1323 0
 3758              		.cfi_startproc
 3759              	.LVL490:
 3760 0000 182106F0 		e_stwu %r1,-16(%r1)
 3761              	.LCFI98:
 3762              		.cfi_def_cfa_offset 16
GAS LISTING C:\Users\Vipuls\AppData\Local\Temp\ccgvNFZ7.s 			page 67


 3763 0004 0080     		se_mflr %r0
 3764 0006 1BC10908 		e_stmw %r30,8(%r1)
 3765 000a D501     		se_stw %r0,20(%r1)
 3766              		.cfi_offset 65, 4
 3767              		.cfi_offset 30, -8
 3768              		.cfi_offset 31, -4
 3769              		.loc 1 1323 0
 3770 000c 013E     		se_mr %r30,%r3
 3771              		.loc 1 1327 0
 3772 000e 0134     		se_mr %r4,%r3
 3773 0010 48E5     		se_li %r5,14
 3774 0012 73E0E000 		e_lis %r31,AEK_POW_BMS63EN_Drv@ha
 3775 0016 1FFF0000 		e_la %r31,AEK_POW_BMS63EN_Drv@l(%r31)
 3776 001a 01F3     		se_mr %r3,%r31
 3777              	.LVL491:
 3778 001c 78000001 		e_bl AEK_POW_BMS63EN_SPIReadRegister
 3779              	.LVL492:
 3780              		.loc 1 1328 0
 3781 0020 01E4     		se_mr %r4,%r30
 3782 0022 01F3     		se_mr %r3,%r31
 3783 0024 48E5     		se_li %r5,14
 3784 0026 78000001 		e_bl AEK_POW_BMS63EN_SPIReadRegister
 3785              	.LVL493:
 3786              		.loc 1 1334 0
 3787 002a C501     		se_lwz %r0,20(%r1)
 3788              		.loc 1 1332 0
 3789 002c 01E4     		se_mr %r4,%r30
 3790              		.loc 1 1330 0
 3791 002e 1866D004 		e_ori %r6,%r3,4
 3792              	.LVL494:
 3793              		.loc 1 1332 0
 3794 0032 48E5     		se_li %r5,14
 3795 0034 01F3     		se_mr %r3,%r31
 3796              		.loc 1 1334 0
 3797 0036 0090     		se_mtlr %r0
 3798              		.cfi_restore 65
 3799 0038 1BC10808 		e_lmw %r30,8(%r1)
 3800              	.LVL495:
 3801 003c 20F1     		se_addi %r1,16
 3802              	.LCFI99:
 3803              		.cfi_restore 31
 3804              		.cfi_restore 30
 3805              		.cfi_def_cfa_offset 0
 3806              		.loc 1 1332 0
 3807 003e 78000000 		e_b AEK_POW_BMS63EN_SPIWriteRegister
 3808              	.LVL496:
 3809              		.cfi_endproc
 3810              	.LFE39:
 3811              		.size	AEK_POW_BMS63EN_EnableBalCurrentOddCells, .-AEK_POW_BMS63EN_EnableBalCurrentOddCells
 3812              		.section	.text.AEK_POW_BMS63EN_EnableCell,"axv",@progbits
 3813              		.align 1
 3814              		.p2align 4,,15
 3815              		.globl AEK_POW_BMS63EN_EnableCell
 3816              		.type	AEK_POW_BMS63EN_EnableCell, @function
 3817              	AEK_POW_BMS63EN_EnableCell:
 3818              	.LFB40:
 3819              		.loc 1 1340 0
GAS LISTING C:\Users\Vipuls\AppData\Local\Temp\ccgvNFZ7.s 			page 68


 3820              		.cfi_startproc
 3821              	.LVL497:
 3822 0000 182106E8 		e_stwu %r1,-24(%r1)
 3823              	.LCFI100:
 3824              		.cfi_def_cfa_offset 24
 3825 0004 0080     		se_mflr %r0
 3826 0006 1B810908 		e_stmw %r28,8(%r1)
 3827 000a D701     		se_stw %r0,28(%r1)
 3828              		.cfi_offset 65, 4
 3829              		.cfi_offset 28, -16
 3830              		.cfi_offset 29, -12
 3831              		.cfi_offset 30, -8
 3832              		.cfi_offset 31, -4
 3833              		.loc 1 1340 0
 3834 000c 013F     		se_mr %r31,%r3
 3835 000e 014E     		se_mr %r30,%r4
 3836              		.loc 1 1343 0
 3837 0010 49C5     		se_li %r5,28
 3838 0012 0134     		se_mr %r4,%r3
 3839              	.LVL498:
 3840 0014 7380E000 		e_lis %r28,AEK_POW_BMS63EN_Drv@ha
 3841 0018 1FBC0000 		e_la %r29,AEK_POW_BMS63EN_Drv@l(%r28)
 3842 001c 01D3     		se_mr %r3,%r29
 3843              	.LVL499:
 3844 001e 78000001 		e_bl AEK_POW_BMS63EN_SPIReadRegister
 3845              	.LVL500:
 3846              		.loc 1 1344 0
 3847 0022 01D3     		se_mr %r3,%r29
 3848 0024 01F4     		se_mr %r4,%r31
 3849 0026 49C5     		se_li %r5,28
 3850 0028 78000001 		e_bl AEK_POW_BMS63EN_SPIReadRegister
 3851              	.LVL501:
 3852              		.loc 1 1346 0
 3853 002c 22DE     		se_cmpli %r30,14
 3854 002e 7A120048 		e_beq %cr0,.L173
 3855              		.loc 1 1353 0
 3856 0032 4810     		se_li %r0,1
 3857              		.loc 1 1354 0
 3858 0034 7FE42870 		e_slwi %r4,%r31,5
 3859 0038 77C6063F 		e_rlwinm %r6,%r30,0,0xff
 3860 003c 50FC0000 		e_lwz %r7,AEK_POW_BMS63EN_Drv@l(%r28)
 3861              		.loc 1 1353 0
 3862 0040 7C063030 		slw %r6,%r0,%r6
 3863              		.loc 1 1354 0
 3864 0044 C177     		se_lwz %r7,4(%r7)
 3865 0046 6C4E     		se_slwi %r30, 4
 3866              	.LVL502:
 3867 0048 C257     		se_lwz %r5,8(%r7)
 3868              		.loc 1 1353 0
 3869 004a 4436     		se_or %r6,%r3
 3870              	.LVL503:
 3871              		.loc 1 1354 0
 3872 004c 7FE74070 		e_slwi %r7,%r31,8
 3873              		.loc 1 1356 0
 3874 0050 7060E000 		e_lis %r3,AEK_POW_BMS63EN_Drv@ha
 3875              		.loc 1 1354 0
 3876 0054 0647     		se_sub %r7, %r4
GAS LISTING C:\Users\Vipuls\AppData\Local\Temp\ccgvNFZ7.s 			page 69


 3877              		.loc 1 1356 0
 3878 0056 1C630000 		e_la %r3,AEK_POW_BMS63EN_Drv@l(%r3)
 3879              		.loc 1 1354 0
 3880 005a 04E7     		se_add %r7,%r30
 3881              		.loc 1 1356 0
 3882 005c 01F4     		se_mr %r4,%r31
 3883              		.loc 1 1354 0
 3884 005e 7CE53A14 		add %r7,%r5,%r7
 3885              		.loc 1 1357 0
 3886 0062 1B810808 		e_lmw %r28,8(%r1)
 3887              	.LVL504:
 3888              		.loc 1 1354 0
 3889 0066 5407FF28 		e_stw %r0,-216(%r7)
 3890              		.loc 1 1356 0
 3891 006a 49C5     		se_li %r5,28
 3892              		.loc 1 1357 0
 3893 006c C701     		se_lwz %r0,28(%r1)
 3894 006e 0090     		se_mtlr %r0
 3895              		.cfi_remember_state
 3896              		.cfi_restore 65
 3897 0070 2171     		se_addi %r1,24
 3898              	.LCFI101:
 3899              		.cfi_restore 31
 3900              		.cfi_restore 30
 3901              		.cfi_restore 29
 3902              		.cfi_restore 28
 3903              		.cfi_def_cfa_offset 0
 3904              		.loc 1 1356 0
 3905 0072 78000000 		e_b AEK_POW_BMS63EN_SPIWriteRegister
 3906              	.LVL505:
 3907              	.L173:
 3908              	.LCFI102:
 3909              		.cfi_restore_state
 3910 0076 50DC0000 		e_lwz %r6,AEK_POW_BMS63EN_Drv@l(%r28)
 3911 007a 7FE72870 		e_slwi %r7,%r31,5
 3912 007e C156     		se_lwz %r5,4(%r6)
 3913              		.loc 1 1349 0
 3914 0080 48E4     		se_li %r4,14
 3915 0082 7FE64070 		e_slwi %r6,%r31,8
 3916 0086 C255     		se_lwz %r5,8(%r5)
 3917 0088 0767     		se_subf %r7, %r6
 3918 008a 00B4     		se_mtctr %r4
 3919 008c 7CE53A14 		add %r7,%r5,%r7
 3920              		.loc 1 1347 0
 3921 0090 0136     		se_mr %r6,%r3
 3922              		.loc 1 1349 0
 3923 0092 4815     		se_li %r5,1
 3924              		.loc 1 1347 0
 3925 0094 70DFC7FF 		e_or2i %r6,65535
 3926              	.LVL506:
 3927 0098 18E78428 		e_addi %r7,%r7,-216
 3928              	.LVL507:
 3929              	.L170:
 3930              		.loc 1 1349 0 discriminator 3
 3931 009c D057     		se_stw %r5,0(%r7)
 3932 009e 20F7     		se_addi %r7,16
 3933              		.loc 1 1348 0 discriminator 3
GAS LISTING C:\Users\Vipuls\AppData\Local\Temp\ccgvNFZ7.s 			page 70


 3934 00a0 7A20FFFC 		e_bdnz .L170
 3935              		.loc 1 1357 0
 3936 00a4 C701     		se_lwz %r0,28(%r1)
 3937              		.loc 1 1356 0
 3938 00a6 01F4     		se_mr %r4,%r31
 3939 00a8 7060E000 		e_lis %r3,AEK_POW_BMS63EN_Drv@ha
 3940              		.loc 1 1357 0
 3941 00ac 1B810808 		e_lmw %r28,8(%r1)
 3942              	.LVL508:
 3943              		.loc 1 1356 0
 3944 00b0 1C630000 		e_la %r3,AEK_POW_BMS63EN_Drv@l(%r3)
 3945              		.loc 1 1357 0
 3946              		.loc 1 1356 0
 3947 00b4 49C5     		se_li %r5,28
 3948              		.loc 1 1357 0
 3949 00b6 0090     		se_mtlr %r0
 3950              		.cfi_restore 65
 3951 00b8 2171     		se_addi %r1,24
 3952              	.LCFI103:
 3953              		.cfi_restore 28
 3954              		.cfi_restore 29
 3955              		.cfi_restore 30
 3956              		.cfi_restore 31
 3957              		.cfi_def_cfa_offset 0
 3958              		.loc 1 1356 0
 3959 00ba 78000000 		e_b AEK_POW_BMS63EN_SPIWriteRegister
 3960              	.LVL509:
 3961              		.cfi_endproc
 3962              	.LFE40:
 3963              		.size	AEK_POW_BMS63EN_EnableCell, .-AEK_POW_BMS63EN_EnableCell
 3964              		.section	.text.AEK_POW_BMS63EN_GetBalancingStatus,"axv",@progbits
 3965              		.align 1
 3966              		.p2align 4,,15
 3967              		.globl AEK_POW_BMS63EN_GetBalancingStatus
 3968              		.type	AEK_POW_BMS63EN_GetBalancingStatus, @function
 3969              	AEK_POW_BMS63EN_GetBalancingStatus:
 3970              	.LFB41:
 3971              		.loc 1 1363 0
 3972              		.cfi_startproc
 3973              	.LVL510:
 3974 0000 182106F0 		e_stwu %r1,-16(%r1)
 3975              	.LCFI104:
 3976              		.cfi_def_cfa_offset 16
 3977 0004 0080     		se_mflr %r0
 3978 0006 1BC10908 		e_stmw %r30,8(%r1)
 3979 000a D501     		se_stw %r0,20(%r1)
 3980              		.cfi_offset 65, 4
 3981              		.cfi_offset 30, -8
 3982              		.cfi_offset 31, -4
 3983              		.loc 1 1363 0
 3984 000c 013E     		se_mr %r30,%r3
 3985              		.loc 1 1367 0
 3986 000e 0134     		se_mr %r4,%r3
 3987 0010 4915     		se_li %r5,17
 3988 0012 73E0E000 		e_lis %r31,AEK_POW_BMS63EN_Drv@ha
 3989 0016 1FFF0000 		e_la %r31,AEK_POW_BMS63EN_Drv@l(%r31)
 3990 001a 01F3     		se_mr %r3,%r31
GAS LISTING C:\Users\Vipuls\AppData\Local\Temp\ccgvNFZ7.s 			page 71


 3991              	.LVL511:
 3992 001c 78000001 		e_bl AEK_POW_BMS63EN_SPIReadRegister
 3993              	.LVL512:
 3994              		.loc 1 1368 0
 3995 0020 01F3     		se_mr %r3,%r31
 3996 0022 01E4     		se_mr %r4,%r30
 3997 0024 4915     		se_li %r5,17
 3998 0026 78000001 		e_bl AEK_POW_BMS63EN_SPIReadRegister
 3999              	.LVL513:
 4000              		.loc 1 1374 0
 4001 002a C501     		se_lwz %r0,20(%r1)
 4002 002c 0090     		se_mtlr %r0
 4003              		.cfi_restore 65
 4004 002e 1BC10808 		e_lmw %r30,8(%r1)
 4005              	.LVL514:
 4006 0032 2E33     		se_andi %r3,3
 4007              	.LVL515:
 4008 0034 20F1     		se_addi %r1,16
 4009              	.LCFI105:
 4010              		.cfi_restore 31
 4011              		.cfi_restore 30
 4012              		.cfi_def_cfa_offset 0
 4013 0036 0004     		se_blr
 4014              		.cfi_endproc
 4015              	.LFE41:
 4016              		.size	AEK_POW_BMS63EN_GetBalancingStatus, .-AEK_POW_BMS63EN_GetBalancingStatus
 4017              		.globl __floatsisf
 4018              		.globl __extendsfdf2
 4019              		.globl __muldf3
 4020              		.globl __divdf3
 4021              		.globl __truncdfsf2
 4022              		.section	.text.AEK_POW_BMS63EN_GetCalibCurrentMeasurement,"axv",@progbits
 4023              		.align 1
 4024              		.p2align 4,,15
 4025              		.globl AEK_POW_BMS63EN_GetCalibCurrentMeasurement
 4026              		.type	AEK_POW_BMS63EN_GetCalibCurrentMeasurement, @function
 4027              	AEK_POW_BMS63EN_GetCalibCurrentMeasurement:
 4028              	.LFB42:
 4029              		.loc 1 1381 0
 4030              		.cfi_startproc
 4031              	.LVL516:
 4032 0000 182106E8 		e_stwu %r1,-24(%r1)
 4033              	.LCFI106:
 4034              		.cfi_def_cfa_offset 24
 4035 0004 0080     		se_mflr %r0
 4036 0006 1BA1090C 		e_stmw %r29,12(%r1)
 4037 000a D701     		se_stw %r0,28(%r1)
 4038              		.cfi_offset 65, 4
 4039              		.cfi_offset 29, -12
 4040              		.cfi_offset 30, -8
 4041              		.cfi_offset 31, -4
 4042              		.loc 1 1381 0
 4043 000c 013E     		se_mr %r30,%r3
 4044              		.loc 1 1388 0
 4045 000e 4B05     		se_li %r5,48
 4046              		.loc 1 1381 0
 4047 0010 014D     		se_mr %r29,%r4
GAS LISTING C:\Users\Vipuls\AppData\Local\Temp\ccgvNFZ7.s 			page 72


 4048              		.loc 1 1388 0
 4049 0012 73E0E000 		e_lis %r31,AEK_POW_BMS63EN_Drv@ha
 4050 0016 0134     		se_mr %r4,%r3
 4051              	.LVL517:
 4052 0018 1FFF0000 		e_la %r31,AEK_POW_BMS63EN_Drv@l(%r31)
 4053 001c 01F3     		se_mr %r3,%r31
 4054              	.LVL518:
 4055 001e 78000001 		e_bl AEK_POW_BMS63EN_SPIReadRegister
 4056              	.LVL519:
 4057              		.loc 1 1389 0
 4058 0022 01E4     		se_mr %r4,%r30
 4059 0024 4B05     		se_li %r5,48
 4060 0026 01F3     		se_mr %r3,%r31
 4061 0028 78000001 		e_bl AEK_POW_BMS63EN_SPIReadRegister
 4062              	.LVL520:
 4063              		.loc 1 1393 0
 4064 002c 4914     		se_li %r4,17
 4065              		.loc 1 1386 0
 4066 002e 4805     		se_li %r5,0
 4067              		.loc 1 1393 0
 4068 0030 1867C001 		e_andi %r7,%r3,1
 4069              	.LVL521:
 4070              		.loc 1 1392 0
 4071 0034 4806     		se_li %r6,0
 4072              		.loc 1 1393 0
 4073 0036 4810     		se_li %r0,1
 4074 0038 00B4     		se_mtctr %r4
 4075              	.LVL522:
 4076              	.L176:
 4077              		.loc 1 1395 0 discriminator 2
 4078 003a 0475     		se_add %r5,%r7
 4079              	.LVL523:
 4080              		.loc 1 1392 0 discriminator 2
 4081 003c 2006     		se_addi %r6,1
 4082              	.LVL524:
 4083              		.loc 1 1393 0 discriminator 2
 4084 003e 7C073030 		slw %r7,%r0,%r6
 4085              	.LVL525:
 4086 0042 4637     		se_and %r7,%r3
 4087              	.LVL526:
 4088              		.loc 1 1394 0 discriminator 2
 4089 0044 7A20FFF6 		e_bdnz .L176
 4090              		.loc 1 1394 0 is_stmt 0 discriminator 1
 4091 0048 7CE68C71 		e_srwi. %r6,%r7,17
 4092              	.LVL527:
 4093 004c 70C07000 		e_li %r6,-131072
 4094 0050 7CE7309E 		isel %r7,%r7,%r6,2
 4095              	.LVL528:
 4096              		.loc 1 1397 0 is_stmt 1 discriminator 1
 4097 0054 7C672A14 		add %r3,%r7,%r5
 4098              	.LVL529:
 4099 0058 78000001 		e_bl __floatsisf
 4100              	.LVL530:
 4101 005c 78000001 		e_bl __extendsfdf2
 4102              	.LVL531:
 4103 0060 70A7E7F5 		e_lis %r5,0x3ff5
 4104 0064 70C2E47A 		e_lis %r6,0x147a
GAS LISTING C:\Users\Vipuls\AppData\Local\Temp\ccgvNFZ7.s 			page 73


 4105 0068 70A8C7AE 		e_or2i %r5,18350
 4106 006c 70DCC148 		e_or2i %r6,57672
 4107 0070 78000001 		e_bl __muldf3
 4108              	.LVL532:
 4109 0074 4806     		se_li %r6,0
 4110 0076 70A8E12E 		e_lis %r5,0x412e
 4111 007a 70B0C480 		e_or2i %r5,33920
 4112 007e 78000001 		e_bl __divdf3
 4113              	.LVL533:
 4114 0082 014F     		se_mr %r31,%r4
 4115 0084 013E     		se_mr %r30,%r3
 4116              	.LVL534:
 4117 0086 01D3     		se_mr %r3,%r29
 4118 0088 78000001 		e_bl __floatunsisf
 4119              	.LVL535:
 4120 008c 7088E47A 		e_lis %r4,0x447a
 4121 0090 78000001 		e_bl __divsf3
 4122              	.LVL536:
 4123 0094 78000001 		e_bl __extendsfdf2
 4124              	.LVL537:
 4125 0098 0146     		se_mr %r6,%r4
 4126 009a 0135     		se_mr %r5,%r3
 4127 009c 01F4     		se_mr %r4,%r31
 4128 009e 01E3     		se_mr %r3,%r30
 4129 00a0 78000001 		e_bl __divdf3
 4130              	.LVL538:
 4131 00a4 78000001 		e_bl __truncdfsf2
 4132              	.LVL539:
 4133              		.loc 1 1398 0 discriminator 1
 4134 00a8 C701     		se_lwz %r0,28(%r1)
 4135 00aa 0090     		se_mtlr %r0
 4136              		.cfi_restore 65
 4137 00ac 1BA1080C 		e_lmw %r29,12(%r1)
 4138 00b0 2171     		se_addi %r1,24
 4139              	.LCFI107:
 4140              		.cfi_restore 31
 4141              		.cfi_restore 30
 4142              		.cfi_restore 29
 4143              		.cfi_def_cfa_offset 0
 4144 00b2 0004     		se_blr
 4145              		.cfi_endproc
 4146              	.LFE42:
 4147              		.size	AEK_POW_BMS63EN_GetCalibCurrentMeasurement, .-AEK_POW_BMS63EN_GetCalibCurrentMeasurement
 4148              		.section	.text.AEK_POW_BMS63EN_GetInstCurrentMeasurement,"axv",@progbits
 4149              		.align 1
 4150              		.p2align 4,,15
 4151              		.globl AEK_POW_BMS63EN_GetInstCurrentMeasurement
 4152              		.type	AEK_POW_BMS63EN_GetInstCurrentMeasurement, @function
 4153              	AEK_POW_BMS63EN_GetInstCurrentMeasurement:
 4154              	.LFB43:
 4155              		.loc 1 1403 0
 4156              		.cfi_startproc
 4157              	.LVL540:
 4158 0000 18210698 		e_stwu %r1,-104(%r1)
 4159              	.LCFI108:
 4160              		.cfi_def_cfa_offset 104
 4161 0004 0080     		se_mflr %r0
GAS LISTING C:\Users\Vipuls\AppData\Local\Temp\ccgvNFZ7.s 			page 74


 4162 0006 1BA1095C 		e_stmw %r29,92(%r1)
 4163 000a 5401006C 		e_stw %r0,108(%r1)
 4164              		.cfi_offset 65, 4
 4165              		.cfi_offset 29, -12
 4166              		.cfi_offset 30, -8
 4167              		.cfi_offset 31, -4
 4168              	.LBB6:
 4169              	.LBB7:
 4170              		.loc 1 535 0
 4171 000e 18C18008 		e_addi %r6,%r1,8
 4172              	.LBE7:
 4173              	.LBE6:
 4174              		.loc 1 1403 0
 4175 0012 013E     		se_mr %r30,%r3
 4176              	.LVL541:
 4177              	.LBB10:
 4178              	.LBB8:
 4179              		.loc 1 535 0
 4180 0014 4FB5     		se_li %r5,123
 4181              	.LBE8:
 4182              	.LBE10:
 4183              		.loc 1 1403 0
 4184 0016 014D     		se_mr %r29,%r4
 4185              	.LBB11:
 4186              	.LBB9:
 4187              		.loc 1 535 0
 4188 0018 73E0E000 		e_lis %r31,AEK_POW_BMS63EN_Drv@ha
 4189 001c 0134     		se_mr %r4,%r3
 4190              	.LVL542:
 4191 001e 1FFF0000 		e_la %r31,AEK_POW_BMS63EN_Drv@l(%r31)
 4192 0022 01F3     		se_mr %r3,%r31
 4193              	.LVL543:
 4194 0024 78000001 		e_bl AEK_POW_BMS63EN_SPIBurstAccess
 4195              	.LVL544:
 4196              	.LBE9:
 4197              	.LBE11:
 4198              		.loc 1 1412 0
 4199 0028 01E4     		se_mr %r4,%r30
 4200 002a 4AF5     		se_li %r5,47
 4201 002c 01F3     		se_mr %r3,%r31
 4202 002e 78000001 		e_bl AEK_POW_BMS63EN_SPIReadRegister
 4203              	.LVL545:
 4204              		.loc 1 1413 0
 4205 0032 01E4     		se_mr %r4,%r30
 4206 0034 4AF5     		se_li %r5,47
 4207 0036 01F3     		se_mr %r3,%r31
 4208 0038 78000001 		e_bl AEK_POW_BMS63EN_SPIReadRegister
 4209              	.LVL546:
 4210              		.loc 1 1417 0
 4211 003c 4914     		se_li %r4,17
 4212              		.loc 1 1408 0
 4213 003e 4805     		se_li %r5,0
 4214              		.loc 1 1417 0
 4215 0040 1867C001 		e_andi %r7,%r3,1
 4216              	.LVL547:
 4217              		.loc 1 1416 0
 4218 0044 4806     		se_li %r6,0
GAS LISTING C:\Users\Vipuls\AppData\Local\Temp\ccgvNFZ7.s 			page 75


 4219              		.loc 1 1417 0
 4220 0046 4810     		se_li %r0,1
 4221 0048 00B4     		se_mtctr %r4
 4222              	.LVL548:
 4223              	.L183:
 4224              		.loc 1 1419 0 discriminator 2
 4225 004a 0475     		se_add %r5,%r7
 4226              	.LVL549:
 4227              		.loc 1 1416 0 discriminator 2
 4228 004c 2006     		se_addi %r6,1
 4229              	.LVL550:
 4230              		.loc 1 1417 0 discriminator 2
 4231 004e 7C073030 		slw %r7,%r0,%r6
 4232              	.LVL551:
 4233 0052 4637     		se_and %r7,%r3
 4234              	.LVL552:
 4235              		.loc 1 1418 0 discriminator 2
 4236 0054 7A20FFF6 		e_bdnz .L183
 4237              		.loc 1 1418 0 is_stmt 0 discriminator 1
 4238 0058 7CE68C71 		e_srwi. %r6,%r7,17
 4239              	.LVL553:
 4240 005c 70C07000 		e_li %r6,-131072
 4241 0060 7CE7309E 		isel %r7,%r7,%r6,2
 4242              	.LVL554:
 4243              		.loc 1 1421 0 is_stmt 1 discriminator 1
 4244 0064 7C672A14 		add %r3,%r7,%r5
 4245              	.LVL555:
 4246 0068 78000001 		e_bl __floatsisf
 4247              	.LVL556:
 4248 006c 78000001 		e_bl __extendsfdf2
 4249              	.LVL557:
 4250 0070 70A7E7F5 		e_lis %r5,0x3ff5
 4251 0074 70C2E47A 		e_lis %r6,0x147a
 4252 0078 70A8C7AE 		e_or2i %r5,18350
 4253 007c 70DCC148 		e_or2i %r6,57672
 4254 0080 78000001 		e_bl __muldf3
 4255              	.LVL558:
 4256 0084 4806     		se_li %r6,0
 4257 0086 70A8E12E 		e_lis %r5,0x412e
 4258 008a 70B0C480 		e_or2i %r5,33920
 4259 008e 78000001 		e_bl __divdf3
 4260              	.LVL559:
 4261 0092 014F     		se_mr %r31,%r4
 4262 0094 013E     		se_mr %r30,%r3
 4263              	.LVL560:
 4264 0096 01D3     		se_mr %r3,%r29
 4265 0098 78000001 		e_bl __floatunsisf
 4266              	.LVL561:
 4267 009c 7088E47A 		e_lis %r4,0x447a
 4268 00a0 78000001 		e_bl __divsf3
 4269              	.LVL562:
 4270 00a4 78000001 		e_bl __extendsfdf2
 4271              	.LVL563:
 4272 00a8 0146     		se_mr %r6,%r4
 4273 00aa 0135     		se_mr %r5,%r3
 4274 00ac 01F4     		se_mr %r4,%r31
 4275 00ae 01E3     		se_mr %r3,%r30
GAS LISTING C:\Users\Vipuls\AppData\Local\Temp\ccgvNFZ7.s 			page 76


 4276 00b0 78000001 		e_bl __divdf3
 4277              	.LVL564:
 4278 00b4 78000001 		e_bl __truncdfsf2
 4279              	.LVL565:
 4280              		.loc 1 1422 0 discriminator 1
 4281 00b8 5001006C 		e_lwz %r0,108(%r1)
 4282 00bc 0090     		se_mtlr %r0
 4283              		.cfi_restore 65
 4284 00be 1BA1085C 		e_lmw %r29,92(%r1)
 4285 00c2 18218068 		e_addi %r1,%r1,104
 4286              	.LCFI109:
 4287              		.cfi_restore 31
 4288              		.cfi_restore 30
 4289              		.cfi_restore 29
 4290              		.cfi_def_cfa_offset 0
 4291 00c6 0004     		se_blr
 4292              		.cfi_endproc
 4293              	.LFE43:
 4294              		.size	AEK_POW_BMS63EN_GetInstCurrentMeasurement, .-AEK_POW_BMS63EN_GetInstCurrentMeasurement
 4295              		.section	.text.AEK_POW_BMS63EN_GetCellVoltMeasurement,"axv",@progbits
 4296              		.align 1
 4297              		.p2align 4,,15
 4298              		.globl AEK_POW_BMS63EN_GetCellVoltMeasurement
 4299              		.type	AEK_POW_BMS63EN_GetCellVoltMeasurement, @function
 4300              	AEK_POW_BMS63EN_GetCellVoltMeasurement:
 4301              	.LFB44:
 4302              		.loc 1 1428 0
 4303              		.cfi_startproc
 4304              	.LVL566:
 4305 0000 182106E8 		e_stwu %r1,-24(%r1)
 4306              	.LCFI110:
 4307              		.cfi_def_cfa_offset 24
 4308 0004 0080     		se_mflr %r0
 4309 0006 1BA1090C 		e_stmw %r29,12(%r1)
 4310 000a D701     		se_stw %r0,28(%r1)
 4311              		.cfi_offset 65, 4
 4312              		.cfi_offset 29, -12
 4313              		.cfi_offset 30, -8
 4314              		.cfi_offset 31, -4
 4315              		.loc 1 1433 0
 4316 000c 1BC48021 		e_addi %r30,%r4,33
 4317              	.LVL567:
 4318              		.loc 1 1428 0
 4319 0010 013D     		se_mr %r29,%r3
 4320              		.loc 1 1434 0
 4321 0012 0134     		se_mr %r4,%r3
 4322              	.LVL568:
 4323 0014 01E5     		se_mr %r5,%r30
 4324 0016 73E0E000 		e_lis %r31,AEK_POW_BMS63EN_Drv@ha
 4325 001a 1FFF0000 		e_la %r31,AEK_POW_BMS63EN_Drv@l(%r31)
 4326 001e 01F3     		se_mr %r3,%r31
 4327              	.LVL569:
 4328 0020 78000001 		e_bl AEK_POW_BMS63EN_SPIReadRegister
 4329              	.LVL570:
 4330              		.loc 1 1435 0
 4331 0024 01E5     		se_mr %r5,%r30
 4332 0026 01D4     		se_mr %r4,%r29
GAS LISTING C:\Users\Vipuls\AppData\Local\Temp\ccgvNFZ7.s 			page 77


 4333 0028 01F3     		se_mr %r3,%r31
 4334 002a 78000001 		e_bl AEK_POW_BMS63EN_SPIReadRegister
 4335              	.LVL571:
 4336              		.loc 1 1437 0
 4337 002e 00E3     		se_extzh %r3
 4338              	.LVL572:
 4339 0030 78000001 		e_bl __floatunsisf
 4340              	.LVL573:
 4341 0034 7088E2B2 		e_lis %r4,0x42b2
 4342 0038 78000001 		e_bl __mulsf3
 4343              	.LVL574:
 4344 003c 7089E174 		e_lis %r4,0x4974
 4345 0040 1884D124 		e_ori %r4,%r4,9216
 4346 0044 78000001 		e_bl __divsf3
 4347              	.LVL575:
 4348              		.loc 1 1439 0
 4349 0048 C701     		se_lwz %r0,28(%r1)
 4350 004a 0090     		se_mtlr %r0
 4351              		.cfi_restore 65
 4352 004c 1BA1080C 		e_lmw %r29,12(%r1)
 4353              	.LVL576:
 4354 0050 2171     		se_addi %r1,24
 4355              	.LCFI111:
 4356              		.cfi_restore 31
 4357              		.cfi_restore 30
 4358              		.cfi_restore 29
 4359              		.cfi_def_cfa_offset 0
 4360 0052 0004     		se_blr
 4361              		.cfi_endproc
 4362              	.LFE44:
 4363              		.size	AEK_POW_BMS63EN_GetCellVoltMeasurement, .-AEK_POW_BMS63EN_GetCellVoltMeasurement
 4364              		.section	.text.AEK_POW_BMS63EN_GetBatteryPackVoltMeasurement,"axv",@progbits
 4365              		.align 1
 4366              		.p2align 4,,15
 4367              		.globl AEK_POW_BMS63EN_GetBatteryPackVoltMeasurement
 4368              		.type	AEK_POW_BMS63EN_GetBatteryPackVoltMeasurement, @function
 4369              	AEK_POW_BMS63EN_GetBatteryPackVoltMeasurement:
 4370              	.LFB45:
 4371              		.loc 1 1446 0
 4372              		.cfi_startproc
 4373              	.LVL577:
 4374 0000 182106E8 		e_stwu %r1,-24(%r1)
 4375              	.LCFI112:
 4376              		.cfi_def_cfa_offset 24
 4377 0004 0080     		se_mflr %r0
 4378 0006 1BA1090C 		e_stmw %r29,12(%r1)
 4379 000a D701     		se_stw %r0,28(%r1)
 4380              		.cfi_offset 65, 4
 4381              		.cfi_offset 29, -12
 4382              		.cfi_offset 30, -8
 4383              		.cfi_offset 31, -4
 4384              		.loc 1 1446 0
 4385 000c 013E     		se_mr %r30,%r3
 4386              		.loc 1 1452 0
 4387 000e 0134     		se_mr %r4,%r3
 4388 0010 4C15     		se_li %r5,65
 4389 0012 73E0E000 		e_lis %r31,AEK_POW_BMS63EN_Drv@ha
GAS LISTING C:\Users\Vipuls\AppData\Local\Temp\ccgvNFZ7.s 			page 78


 4390 0016 1FFF0000 		e_la %r31,AEK_POW_BMS63EN_Drv@l(%r31)
 4391 001a 01F3     		se_mr %r3,%r31
 4392              	.LVL578:
 4393 001c 78000001 		e_bl AEK_POW_BMS63EN_SPIReadRegister
 4394              	.LVL579:
 4395              		.loc 1 1453 0
 4396 0020 01E4     		se_mr %r4,%r30
 4397 0022 01F3     		se_mr %r3,%r31
 4398 0024 4C15     		se_li %r5,65
 4399 0026 78000001 		e_bl AEK_POW_BMS63EN_SPIReadRegister
 4400              	.LVL580:
 4401              		.loc 1 1457 0
 4402 002a 01E4     		se_mr %r4,%r30
 4403              		.loc 1 1455 0
 4404 002c 7C7D8470 		e_srwi %r29,%r3,16
 4405              	.LVL581:
 4406              		.loc 1 1457 0
 4407 0030 4C05     		se_li %r5,64
 4408 0032 01F3     		se_mr %r3,%r31
 4409              	.LVL582:
 4410 0034 78000001 		e_bl AEK_POW_BMS63EN_SPIReadRegister
 4411              	.LVL583:
 4412              		.loc 1 1458 0
 4413 0038 01E4     		se_mr %r4,%r30
 4414 003a 4C05     		se_li %r5,64
 4415 003c 01F3     		se_mr %r3,%r31
 4416 003e 78000001 		e_bl AEK_POW_BMS63EN_SPIReadRegister
 4417              	.LVL584:
 4418              		.loc 1 1460 0
 4419 0042 6C23     		se_slwi %r3, 2
 4420              	.LVL585:
 4421              		.loc 1 1462 0
 4422 0044 44D3     		se_or %r3,%r29
 4423              	.LVL586:
 4424 0046 78000001 		e_bl __floatunsisf
 4425              	.LVL587:
 4426 004a 7088E2B2 		e_lis %r4,0x42b2
 4427 004e 78000001 		e_bl __mulsf3
 4428              	.LVL588:
 4429 0052 7089E174 		e_lis %r4,0x4974
 4430 0056 1884D124 		e_ori %r4,%r4,9216
 4431 005a 78000001 		e_bl __divsf3
 4432              	.LVL589:
 4433              		.loc 1 1463 0
 4434 005e C701     		se_lwz %r0,28(%r1)
 4435 0060 0090     		se_mtlr %r0
 4436              		.cfi_restore 65
 4437 0062 1BA1080C 		e_lmw %r29,12(%r1)
 4438              	.LVL590:
 4439 0066 2171     		se_addi %r1,24
 4440              	.LCFI113:
 4441              		.cfi_restore 31
 4442              		.cfi_restore 30
 4443              		.cfi_restore 29
 4444              		.cfi_def_cfa_offset 0
 4445 0068 0004     		se_blr
 4446              		.cfi_endproc
GAS LISTING C:\Users\Vipuls\AppData\Local\Temp\ccgvNFZ7.s 			page 79


 4447              	.LFE45:
 4448              		.size	AEK_POW_BMS63EN_GetBatteryPackVoltMeasurement, .-AEK_POW_BMS63EN_GetBatteryPackVoltMeasureme
 4449              		.section	.text.AEK_POW_BMS63EN_SetBalancingMode,"axv",@progbits
 4450              		.align 1
 4451              		.p2align 4,,15
 4452              		.globl AEK_POW_BMS63EN_SetBalancingMode
 4453              		.type	AEK_POW_BMS63EN_SetBalancingMode, @function
 4454              	AEK_POW_BMS63EN_SetBalancingMode:
 4455              	.LFB46:
 4456              		.loc 1 1468 0
 4457              		.cfi_startproc
 4458              	.LVL591:
 4459 0000 182106E8 		e_stwu %r1,-24(%r1)
 4460              	.LCFI114:
 4461              		.cfi_def_cfa_offset 24
 4462 0004 0080     		se_mflr %r0
 4463 0006 1BA1090C 		e_stmw %r29,12(%r1)
 4464 000a D701     		se_stw %r0,28(%r1)
 4465              		.cfi_offset 65, 4
 4466              		.cfi_offset 29, -12
 4467              		.cfi_offset 30, -8
 4468              		.cfi_offset 31, -4
 4469              		.loc 1 1468 0
 4470 000c 013F     		se_mr %r31,%r3
 4471 000e 014D     		se_mr %r29,%r4
 4472              		.loc 1 1472 0
 4473 0010 4845     		se_li %r5,4
 4474 0012 0134     		se_mr %r4,%r3
 4475              	.LVL592:
 4476 0014 73C0E000 		e_lis %r30,AEK_POW_BMS63EN_Drv@ha
 4477 0018 1FDE0000 		e_la %r30,AEK_POW_BMS63EN_Drv@l(%r30)
 4478 001c 01E3     		se_mr %r3,%r30
 4479              	.LVL593:
 4480 001e 78000001 		e_bl AEK_POW_BMS63EN_SPIReadRegister
 4481              	.LVL594:
 4482              		.loc 1 1473 0
 4483 0022 01E3     		se_mr %r3,%r30
 4484 0024 01F4     		se_mr %r4,%r31
 4485 0026 4845     		se_li %r5,4
 4486 0028 78000001 		e_bl AEK_POW_BMS63EN_SPIReadRegister
 4487              	.LVL595:
 4488              		.loc 1 1477 0
 4489 002c 220D     		se_cmpli %r29,1
 4490              		.loc 1 1481 0
 4491 002e 7466043F 		e_rlwinm %r6,%r3,0,0xffff
 4492              	.LVL596:
 4493              		.loc 1 1482 0
 4494 0032 64E6     		se_bseti %r6,14
 4495              	.LVL597:
 4496              		.loc 1 1477 0
 4497 0034 7A120034 		e_beq %cr0,.L194
 4498              	.LVL598:
 4499              		.loc 1 1485 0
 4500 0038 01F4     		se_mr %r4,%r31
 4501 003a 4845     		se_li %r5,4
 4502 003c 73C0E000 		e_lis %r30,AEK_POW_BMS63EN_Drv@ha
 4503 0040 1FDE0000 		e_la %r30,AEK_POW_BMS63EN_Drv@l(%r30)
GAS LISTING C:\Users\Vipuls\AppData\Local\Temp\ccgvNFZ7.s 			page 80


 4504 0044 01E3     		se_mr %r3,%r30
 4505 0046 78000001 		e_bl AEK_POW_BMS63EN_SPIWriteRegister
 4506              	.LVL599:
 4507              		.loc 1 1487 0
 4508 004a 01F4     		se_mr %r4,%r31
 4509 004c 01E3     		se_mr %r3,%r30
 4510 004e 4845     		se_li %r5,4
 4511 0050 78000001 		e_bl AEK_POW_BMS63EN_SPIReadRegister
 4512              	.LVL600:
 4513              		.loc 1 1490 0
 4514 0054 C701     		se_lwz %r0,28(%r1)
 4515              		.loc 1 1488 0
 4516 0056 01E3     		se_mr %r3,%r30
 4517 0058 01F4     		se_mr %r4,%r31
 4518 005a 4845     		se_li %r5,4
 4519              		.loc 1 1490 0
 4520 005c 1BA1080C 		e_lmw %r29,12(%r1)
 4521              	.LVL601:
 4522 0060 0090     		se_mtlr %r0
 4523              		.cfi_remember_state
 4524              		.cfi_restore 65
 4525 0062 2171     		se_addi %r1,24
 4526              	.LCFI115:
 4527              		.cfi_restore 31
 4528              		.cfi_restore 30
 4529              		.cfi_restore 29
 4530              		.cfi_def_cfa_offset 0
 4531              		.loc 1 1488 0
 4532 0064 78000000 		e_b AEK_POW_BMS63EN_SPIReadRegister
 4533              	.LVL602:
 4534              	.L194:
 4535              	.LCFI116:
 4536              		.cfi_restore_state
 4537              		.loc 1 1485 0
 4538 0068 01F4     		se_mr %r4,%r31
 4539              		.loc 1 1478 0
 4540 006a 7466043F 		e_rlwinm %r6,%r3,0,0xffff
 4541              	.LVL603:
 4542              		.loc 1 1485 0
 4543 006e 4845     		se_li %r5,4
 4544              		.loc 1 1479 0
 4545 0070 64F6     		se_bseti %r6,15
 4546              	.LVL604:
 4547              		.loc 1 1485 0
 4548 0072 73C0E000 		e_lis %r30,AEK_POW_BMS63EN_Drv@ha
 4549 0076 1FDE0000 		e_la %r30,AEK_POW_BMS63EN_Drv@l(%r30)
 4550 007a 01E3     		se_mr %r3,%r30
 4551 007c 78000001 		e_bl AEK_POW_BMS63EN_SPIWriteRegister
 4552              	.LVL605:
 4553              		.loc 1 1487 0
 4554 0080 01F4     		se_mr %r4,%r31
 4555 0082 01E3     		se_mr %r3,%r30
 4556 0084 4845     		se_li %r5,4
 4557 0086 78000001 		e_bl AEK_POW_BMS63EN_SPIReadRegister
 4558              	.LVL606:
 4559              		.loc 1 1490 0
 4560 008a C701     		se_lwz %r0,28(%r1)
GAS LISTING C:\Users\Vipuls\AppData\Local\Temp\ccgvNFZ7.s 			page 81


 4561              		.loc 1 1488 0
 4562 008c 01E3     		se_mr %r3,%r30
 4563 008e 01F4     		se_mr %r4,%r31
 4564 0090 4845     		se_li %r5,4
 4565              		.loc 1 1490 0
 4566 0092 1BA1080C 		e_lmw %r29,12(%r1)
 4567              	.LVL607:
 4568 0096 0090     		se_mtlr %r0
 4569              		.cfi_restore 65
 4570 0098 2171     		se_addi %r1,24
 4571              	.LCFI117:
 4572              		.cfi_restore 29
 4573              		.cfi_restore 30
 4574              		.cfi_restore 31
 4575              		.cfi_def_cfa_offset 0
 4576              		.loc 1 1488 0
 4577 009a 78000000 		e_b AEK_POW_BMS63EN_SPIReadRegister
 4578              	.LVL608:
 4579              		.cfi_endproc
 4580              	.LFE46:
 4581              		.size	AEK_POW_BMS63EN_SetBalancingMode, .-AEK_POW_BMS63EN_SetBalancingMode
 4582              		.section	.text.AEK_POW_BMS63EN_SetCellTimedBalThreshold,"axv",@progbits
 4583              		.align 1
 4584              		.p2align 4,,15
 4585              		.globl AEK_POW_BMS63EN_SetCellTimedBalThreshold
 4586              		.type	AEK_POW_BMS63EN_SetCellTimedBalThreshold, @function
 4587              	AEK_POW_BMS63EN_SetCellTimedBalThreshold:
 4588              	.LFB47:
 4589              		.loc 1 1496 0
 4590              		.cfi_startproc
 4591              	.LVL609:
 4592 0000 182106E8 		e_stwu %r1,-24(%r1)
 4593              	.LCFI118:
 4594              		.cfi_def_cfa_offset 24
 4595 0004 0080     		se_mflr %r0
 4596 0006 1B810908 		e_stmw %r28,8(%r1)
 4597              		.loc 1 1502 0
 4598 000a 7CA71470 		e_srwi %r7,%r5,2
 4599              		.loc 1 1496 0
 4600 000e D701     		se_stw %r0,28(%r1)
 4601              		.cfi_offset 65, 4
 4602              		.cfi_offset 28, -16
 4603              		.cfi_offset 29, -12
 4604              		.cfi_offset 30, -8
 4605              		.cfi_offset 31, -4
 4606              		.loc 1 1496 0
 4607 0010 013E     		se_mr %r30,%r3
 4608 0012 014D     		se_mr %r29,%r4
 4609              		.loc 1 1505 0
 4610 0014 7CBF4C70 		e_srwi %r31,%r5,9
 4611              		.loc 1 1502 0
 4612 0018 7007A9FC 		e_cmpl16i %r7,508
 4613 001c 7A11000A 		e_bgt %cr0,.L197
 4614              		.loc 1 1503 0
 4615 0020 18FFD480 		e_ori %r31,%r7,-128
 4616 0024 00CF     		se_extzb %r31
 4617              	.LVL610:
GAS LISTING C:\Users\Vipuls\AppData\Local\Temp\ccgvNFZ7.s 			page 82


 4618              	.L197:
 4619              		.loc 1 1508 0
 4620 0026 22CD     		se_cmpli %r29,13
 4621 0028 7A110212 		e_bgt %cr0,.L214
 4622 002c 7FA61070 		e_slwi %r6,%r29,2
 4623 0030 70E0E000 		e_lis %r7,.L200@ha
 4624 0034 1CE70000 		e_la %r7,.L200@l(%r7)
 4625 0038 7CC7302E 		lwzx %r6,%r7,%r6
 4626 003c 7CE63A14 		add %r7,%r6,%r7
 4627 0040 00B7     		se_mtctr %r7
 4628              		.loc 1 1589 0
 4629 0042 01E4     		se_mr %r4,%r30
 4630              	.LVL611:
 4631              		.loc 1 1508 0
 4632 0044 0006     		se_bctr
 4633              		.section	.rodata.AEK_POW_BMS63EN_SetCellTimedBalThreshold,"a",@progbits
 4634              		.align 2
 4635              		.align 2
 4636              	.L200:
 4637 0000 00000000 		.long .L199-.L200
 4638 0004 00000000 		.long .L199-.L200
 4639 0008 00000000 		.long .L201-.L200
 4640 000c 00000000 		.long .L201-.L200
 4641 0010 00000000 		.long .L202-.L200
 4642 0014 00000000 		.long .L202-.L200
 4643 0018 00000000 		.long .L203-.L200
 4644 001c 00000000 		.long .L203-.L200
 4645 0020 00000000 		.long .L204-.L200
 4646 0024 00000000 		.long .L204-.L200
 4647 0028 00000000 		.long .L205-.L200
 4648 002c 00000000 		.long .L205-.L200
 4649 0030 00000000 		.long .L206-.L200
 4650 0034 00000000 		.long .L206-.L200
 4651              		.section	.text.AEK_POW_BMS63EN_SetCellTimedBalThreshold
 4652              	.L205:
 4653              	.LVL612:
 4654              		.loc 1 1576 0
 4655 0046 4855     		se_li %r5,5
 4656              	.LVL613:
 4657 0048 73A0E000 		e_lis %r29,AEK_POW_BMS63EN_Drv@ha
 4658              	.LVL614:
 4659 004c 1FBD0000 		e_la %r29,AEK_POW_BMS63EN_Drv@l(%r29)
 4660 0050 01D3     		se_mr %r3,%r29
 4661              	.LVL615:
 4662 0052 78000001 		e_bl AEK_POW_BMS63EN_SPIReadRegister
 4663              	.LVL616:
 4664              		.loc 1 1577 0
 4665 0056 4855     		se_li %r5,5
 4666 0058 01D3     		se_mr %r3,%r29
 4667 005a 01E4     		se_mr %r4,%r30
 4668 005c 78000001 		e_bl AEK_POW_BMS63EN_SPIReadRegister
 4669              	.LVL617:
 4670              		.loc 1 1583 0
 4671 0060 1BE6C03F 		e_andi %r6,%r31,63
 4672              		.loc 1 1582 0
 4673 0064 1863C480 		e_andi %r3,%r3,-128
 4674              	.LVL618:
GAS LISTING C:\Users\Vipuls\AppData\Local\Temp\ccgvNFZ7.s 			page 83


 4675              		.loc 1 1575 0
 4676 0068 4855     		se_li %r5,5
 4677              		.loc 1 1583 0
 4678 006a 4436     		se_or %r6,%r3
 4679              	.LVL619:
 4680              	.L198:
 4681              		.loc 1 1606 0
 4682 006c 01E4     		se_mr %r4,%r30
 4683 006e 73A0E000 		e_lis %r29,AEK_POW_BMS63EN_Drv@ha
 4684 0072 1FBD0000 		e_la %r29,AEK_POW_BMS63EN_Drv@l(%r29)
 4685 0076 01D3     		se_mr %r3,%r29
 4686 0078 78000001 		e_bl AEK_POW_BMS63EN_SPIWriteRegister
 4687              	.LVL620:
 4688              		.loc 1 1608 0
 4689 007c 678F     		se_btsti %r31,24
 4690 007e 7A020130 		e_bne %cr0,.L215
 4691              		.loc 1 1615 0
 4692 0082 C701     		se_lwz %r0,28(%r1)
 4693 0084 0090     		se_mtlr %r0
 4694              		.cfi_remember_state
 4695              		.cfi_restore 65
 4696 0086 1B810808 		e_lmw %r28,8(%r1)
 4697              	.LVL621:
 4698 008a 2171     		se_addi %r1,24
 4699              	.LCFI119:
 4700              		.cfi_restore 31
 4701              		.cfi_restore 30
 4702              		.cfi_restore 29
 4703              		.cfi_restore 28
 4704              		.cfi_def_cfa_offset 0
 4705 008c 0004     		se_blr
 4706              	.LVL622:
 4707              	.L206:
 4708              	.LCFI120:
 4709              		.cfi_restore_state
 4710              		.loc 1 1589 0
 4711 008e 4845     		se_li %r5,4
 4712              	.LVL623:
 4713 0090 7380E000 		e_lis %r28,AEK_POW_BMS63EN_Drv@ha
 4714 0094 1F9C0000 		e_la %r28,AEK_POW_BMS63EN_Drv@l(%r28)
 4715 0098 01C3     		se_mr %r3,%r28
 4716              	.LVL624:
 4717 009a 78000001 		e_bl AEK_POW_BMS63EN_SPIReadRegister
 4718              	.LVL625:
 4719              		.loc 1 1590 0
 4720 009e 01C3     		se_mr %r3,%r28
 4721 00a0 01E4     		se_mr %r4,%r30
 4722 00a2 4845     		se_li %r5,4
 4723 00a4 78000001 		e_bl AEK_POW_BMS63EN_SPIReadRegister
 4724              	.LVL626:
 4725              		.loc 1 1591 0
 4726 00a8 22BD     		se_cmpli %r29,12
 4727 00aa 7A120140 		e_beq %cr0,.L216
 4728              		.loc 1 1595 0
 4729 00ae 1863C580 		e_andi %r3,%r3,-32513
 4730              	.LVL627:
 4731              		.loc 1 1596 0
GAS LISTING C:\Users\Vipuls\AppData\Local\Temp\ccgvNFZ7.s 			page 84


 4732 00b2 77E644AF 		e_rlwinm %r6,%r31,8,18,23
 4733              		.loc 1 1588 0
 4734 00b6 4845     		se_li %r5,4
 4735              		.loc 1 1596 0
 4736 00b8 4436     		se_or %r6,%r3
 4737              	.LVL628:
 4738 00ba 79FFFFB2 		e_b .L198
 4739              	.LVL629:
 4740              	.L199:
 4741              		.loc 1 1511 0
 4742 00be 48A5     		se_li %r5,10
 4743              	.LVL630:
 4744 00c0 7380E000 		e_lis %r28,AEK_POW_BMS63EN_Drv@ha
 4745 00c4 1F9C0000 		e_la %r28,AEK_POW_BMS63EN_Drv@l(%r28)
 4746 00c8 01C3     		se_mr %r3,%r28
 4747              	.LVL631:
 4748 00ca 78000001 		e_bl AEK_POW_BMS63EN_SPIReadRegister
 4749              	.LVL632:
 4750              		.loc 1 1512 0
 4751 00ce 01C3     		se_mr %r3,%r28
 4752 00d0 01E4     		se_mr %r4,%r30
 4753 00d2 48A5     		se_li %r5,10
 4754 00d4 78000001 		e_bl AEK_POW_BMS63EN_SPIReadRegister
 4755              	.LVL633:
 4756              		.loc 1 1513 0
 4757 00d8 2A0D     		se_cmpi %r29,0
 4758 00da 7A020100 		e_bne %cr0,.L207
 4759              		.loc 1 1514 0
 4760 00de 1863C480 		e_andi %r3,%r3,-128
 4761              	.LVL634:
 4762              		.loc 1 1515 0
 4763 00e2 1BE6C03F 		e_andi %r6,%r31,63
 4764              		.loc 1 1510 0
 4765 00e6 48A5     		se_li %r5,10
 4766              		.loc 1 1515 0
 4767 00e8 4436     		se_or %r6,%r3
 4768              	.LVL635:
 4769 00ea 79FFFF82 		e_b .L198
 4770              	.LVL636:
 4771              	.L201:
 4772              		.loc 1 1524 0
 4773 00ee 4895     		se_li %r5,9
 4774              	.LVL637:
 4775 00f0 7380E000 		e_lis %r28,AEK_POW_BMS63EN_Drv@ha
 4776 00f4 1F9C0000 		e_la %r28,AEK_POW_BMS63EN_Drv@l(%r28)
 4777 00f8 01C3     		se_mr %r3,%r28
 4778              	.LVL638:
 4779 00fa 78000001 		e_bl AEK_POW_BMS63EN_SPIReadRegister
 4780              	.LVL639:
 4781              		.loc 1 1525 0
 4782 00fe 01C3     		se_mr %r3,%r28
 4783 0100 01E4     		se_mr %r4,%r30
 4784 0102 4895     		se_li %r5,9
 4785 0104 78000001 		e_bl AEK_POW_BMS63EN_SPIReadRegister
 4786              	.LVL640:
 4787              		.loc 1 1526 0
 4788 0108 221D     		se_cmpli %r29,2
GAS LISTING C:\Users\Vipuls\AppData\Local\Temp\ccgvNFZ7.s 			page 85


 4789 010a 7A120120 		e_beq %cr0,.L217
 4790              		.loc 1 1530 0
 4791 010e 1863C580 		e_andi %r3,%r3,-32513
 4792              	.LVL641:
 4793              		.loc 1 1531 0
 4794 0112 77E644AF 		e_rlwinm %r6,%r31,8,18,23
 4795              		.loc 1 1523 0
 4796 0116 4895     		se_li %r5,9
 4797              		.loc 1 1531 0
 4798 0118 4436     		se_or %r6,%r3
 4799              	.LVL642:
 4800 011a 79FFFF52 		e_b .L198
 4801              	.LVL643:
 4802              	.L203:
 4803              		.loc 1 1550 0
 4804 011e 4875     		se_li %r5,7
 4805              	.LVL644:
 4806 0120 7380E000 		e_lis %r28,AEK_POW_BMS63EN_Drv@ha
 4807 0124 1F9C0000 		e_la %r28,AEK_POW_BMS63EN_Drv@l(%r28)
 4808 0128 01C3     		se_mr %r3,%r28
 4809              	.LVL645:
 4810 012a 78000001 		e_bl AEK_POW_BMS63EN_SPIReadRegister
 4811              	.LVL646:
 4812              		.loc 1 1551 0
 4813 012e 01C3     		se_mr %r3,%r28
 4814 0130 01E4     		se_mr %r4,%r30
 4815 0132 4875     		se_li %r5,7
 4816 0134 78000001 		e_bl AEK_POW_BMS63EN_SPIReadRegister
 4817              	.LVL647:
 4818              		.loc 1 1552 0
 4819 0138 225D     		se_cmpli %r29,6
 4820 013a 7A1200E0 		e_beq %cr0,.L218
 4821              		.loc 1 1556 0
 4822 013e 1863C580 		e_andi %r3,%r3,-32513
 4823              	.LVL648:
 4824              		.loc 1 1557 0
 4825 0142 77E644AF 		e_rlwinm %r6,%r31,8,18,23
 4826              		.loc 1 1549 0
 4827 0146 4875     		se_li %r5,7
 4828              		.loc 1 1557 0
 4829 0148 4436     		se_or %r6,%r3
 4830              	.LVL649:
 4831 014a 79FFFF22 		e_b .L198
 4832              	.LVL650:
 4833              	.L204:
 4834              		.loc 1 1563 0
 4835 014e 4865     		se_li %r5,6
 4836              	.LVL651:
 4837 0150 7380E000 		e_lis %r28,AEK_POW_BMS63EN_Drv@ha
 4838 0154 1F9C0000 		e_la %r28,AEK_POW_BMS63EN_Drv@l(%r28)
 4839 0158 01C3     		se_mr %r3,%r28
 4840              	.LVL652:
 4841 015a 78000001 		e_bl AEK_POW_BMS63EN_SPIReadRegister
 4842              	.LVL653:
 4843              		.loc 1 1564 0
 4844 015e 01C3     		se_mr %r3,%r28
 4845 0160 01E4     		se_mr %r4,%r30
GAS LISTING C:\Users\Vipuls\AppData\Local\Temp\ccgvNFZ7.s 			page 86


 4846 0162 4865     		se_li %r5,6
 4847 0164 78000001 		e_bl AEK_POW_BMS63EN_SPIReadRegister
 4848              	.LVL654:
 4849              		.loc 1 1565 0
 4850 0168 227D     		se_cmpli %r29,8
 4851 016a 7A1200A0 		e_beq %cr0,.L219
 4852              		.loc 1 1569 0
 4853 016e 1863C580 		e_andi %r3,%r3,-32513
 4854              	.LVL655:
 4855              		.loc 1 1570 0
 4856 0172 77E644AF 		e_rlwinm %r6,%r31,8,18,23
 4857              		.loc 1 1562 0
 4858 0176 4865     		se_li %r5,6
 4859              		.loc 1 1570 0
 4860 0178 4436     		se_or %r6,%r3
 4861              	.LVL656:
 4862 017a 79FFFEF2 		e_b .L198
 4863              	.LVL657:
 4864              	.L202:
 4865              		.loc 1 1537 0
 4866 017e 4885     		se_li %r5,8
 4867              	.LVL658:
 4868 0180 7380E000 		e_lis %r28,AEK_POW_BMS63EN_Drv@ha
 4869 0184 1F9C0000 		e_la %r28,AEK_POW_BMS63EN_Drv@l(%r28)
 4870 0188 01C3     		se_mr %r3,%r28
 4871              	.LVL659:
 4872 018a 78000001 		e_bl AEK_POW_BMS63EN_SPIReadRegister
 4873              	.LVL660:
 4874              		.loc 1 1538 0
 4875 018e 01C3     		se_mr %r3,%r28
 4876 0190 01E4     		se_mr %r4,%r30
 4877 0192 4885     		se_li %r5,8
 4878 0194 78000001 		e_bl AEK_POW_BMS63EN_SPIReadRegister
 4879              	.LVL661:
 4880              		.loc 1 1539 0
 4881 0198 223D     		se_cmpli %r29,4
 4882 019a 7A120060 		e_beq %cr0,.L220
 4883              		.loc 1 1543 0
 4884 019e 1863C580 		e_andi %r3,%r3,-32513
 4885              	.LVL662:
 4886              		.loc 1 1544 0
 4887 01a2 77E644AF 		e_rlwinm %r6,%r31,8,18,23
 4888              		.loc 1 1536 0
 4889 01a6 4885     		se_li %r5,8
 4890              		.loc 1 1544 0
 4891 01a8 4436     		se_or %r6,%r3
 4892              	.LVL663:
 4893 01aa 79FFFEC2 		e_b .L198
 4894              	.LVL664:
 4895              	.L215:
 4896              		.loc 1 1609 0
 4897 01ae 01E4     		se_mr %r4,%r30
 4898 01b0 01D3     		se_mr %r3,%r29
 4899 01b2 4845     		se_li %r5,4
 4900 01b4 78000001 		e_bl AEK_POW_BMS63EN_SPIReadRegister
 4901              	.LVL665:
 4902              		.loc 1 1610 0
GAS LISTING C:\Users\Vipuls\AppData\Local\Temp\ccgvNFZ7.s 			page 87


 4903 01b8 01E4     		se_mr %r4,%r30
 4904 01ba 01D3     		se_mr %r3,%r29
 4905 01bc 4845     		se_li %r5,4
 4906 01be 78000001 		e_bl AEK_POW_BMS63EN_SPIReadRegister
 4907              	.LVL666:
 4908              		.loc 1 1615 0
 4909 01c2 C701     		se_lwz %r0,28(%r1)
 4910              		.loc 1 1612 0
 4911 01c4 01E4     		se_mr %r4,%r30
 4912              		.loc 1 1611 0
 4913 01c6 1866D180 		e_ori %r6,%r3,32768
 4914              	.LVL667:
 4915              		.loc 1 1612 0
 4916 01ca 4845     		se_li %r5,4
 4917 01cc 01D3     		se_mr %r3,%r29
 4918              		.loc 1 1615 0
 4919 01ce 0090     		se_mtlr %r0
 4920              		.cfi_remember_state
 4921              		.cfi_restore 65
 4922 01d0 1B810808 		e_lmw %r28,8(%r1)
 4923              	.LVL668:
 4924 01d4 2171     		se_addi %r1,24
 4925              	.LCFI121:
 4926              		.cfi_restore 31
 4927              		.cfi_restore 30
 4928              		.cfi_restore 29
 4929              		.cfi_restore 28
 4930              		.cfi_def_cfa_offset 0
 4931              		.loc 1 1612 0
 4932 01d6 78000000 		e_b AEK_POW_BMS63EN_SPIWriteRegister
 4933              	.LVL669:
 4934              	.L207:
 4935              	.LCFI122:
 4936              		.cfi_restore_state
 4937              		.loc 1 1517 0
 4938 01da 1863C580 		e_andi %r3,%r3,-32513
 4939              	.LVL670:
 4940              		.loc 1 1518 0
 4941 01de 77E644AF 		e_rlwinm %r6,%r31,8,18,23
 4942              		.loc 1 1510 0
 4943 01e2 48A5     		se_li %r5,10
 4944              		.loc 1 1518 0
 4945 01e4 4436     		se_or %r6,%r3
 4946              	.LVL671:
 4947 01e6 79FFFE86 		e_b .L198
 4948              	.LVL672:
 4949              	.L216:
 4950              		.loc 1 1592 0
 4951 01ea 1863C480 		e_andi %r3,%r3,-128
 4952              	.LVL673:
 4953              		.loc 1 1593 0
 4954 01ee 1BE6C03F 		e_andi %r6,%r31,63
 4955              		.loc 1 1588 0
 4956 01f2 4845     		se_li %r5,4
 4957              		.loc 1 1593 0
 4958 01f4 4436     		se_or %r6,%r3
 4959              	.LVL674:
GAS LISTING C:\Users\Vipuls\AppData\Local\Temp\ccgvNFZ7.s 			page 88


 4960 01f6 79FFFE76 		e_b .L198
 4961              	.LVL675:
 4962              	.L220:
 4963              		.loc 1 1540 0
 4964 01fa 1863C480 		e_andi %r3,%r3,-128
 4965              	.LVL676:
 4966              		.loc 1 1541 0
 4967 01fe 1BE6C03F 		e_andi %r6,%r31,63
 4968              		.loc 1 1536 0
 4969 0202 4885     		se_li %r5,8
 4970              		.loc 1 1541 0
 4971 0204 4436     		se_or %r6,%r3
 4972              	.LVL677:
 4973 0206 79FFFE66 		e_b .L198
 4974              	.LVL678:
 4975              	.L219:
 4976              		.loc 1 1566 0
 4977 020a 1863C480 		e_andi %r3,%r3,-128
 4978              	.LVL679:
 4979              		.loc 1 1567 0
 4980 020e 1BE6C03F 		e_andi %r6,%r31,63
 4981              		.loc 1 1562 0
 4982 0212 4865     		se_li %r5,6
 4983              		.loc 1 1567 0
 4984 0214 4436     		se_or %r6,%r3
 4985              	.LVL680:
 4986 0216 79FFFE56 		e_b .L198
 4987              	.LVL681:
 4988              	.L218:
 4989              		.loc 1 1553 0
 4990 021a 1863C480 		e_andi %r3,%r3,-128
 4991              	.LVL682:
 4992              		.loc 1 1554 0
 4993 021e 1BE6C03F 		e_andi %r6,%r31,63
 4994              		.loc 1 1549 0
 4995 0222 4875     		se_li %r5,7
 4996              		.loc 1 1554 0
 4997 0224 4436     		se_or %r6,%r3
 4998              	.LVL683:
 4999 0226 79FFFE46 		e_b .L198
 5000              	.LVL684:
 5001              	.L217:
 5002              		.loc 1 1527 0
 5003 022a 1863C480 		e_andi %r3,%r3,-128
 5004              	.LVL685:
 5005              		.loc 1 1528 0
 5006 022e 1BE6C03F 		e_andi %r6,%r31,63
 5007              		.loc 1 1523 0
 5008 0232 4895     		se_li %r5,9
 5009              		.loc 1 1528 0
 5010 0234 4436     		se_or %r6,%r3
 5011              	.LVL686:
 5012 0236 79FFFE36 		e_b .L198
 5013              	.LVL687:
 5014              	.L214:
 5015              		.loc 1 1500 0
 5016 023a 4806     		se_li %r6,0
GAS LISTING C:\Users\Vipuls\AppData\Local\Temp\ccgvNFZ7.s 			page 89


 5017              		.loc 1 1499 0
 5018 023c 4805     		se_li %r5,0
 5019              	.LVL688:
 5020 023e 79FFFE2E 		e_b .L198
 5021              		.cfi_endproc
 5022              	.LFE47:
 5023              		.size	AEK_POW_BMS63EN_SetCellTimedBalThreshold, .-AEK_POW_BMS63EN_SetCellTimedBalThreshold
 5024              		.section	.text.AEK_POW_BMS63EN_StartCellBalancing,"axv",@progbits
 5025              		.align 1
 5026              		.p2align 4,,15
 5027              		.globl AEK_POW_BMS63EN_StartCellBalancing
 5028              		.type	AEK_POW_BMS63EN_StartCellBalancing, @function
 5029              	AEK_POW_BMS63EN_StartCellBalancing:
 5030              	.LFB48:
 5031              		.loc 1 1621 0
 5032              		.cfi_startproc
 5033              	.LVL689:
 5034 0000 182106F0 		e_stwu %r1,-16(%r1)
 5035              	.LCFI123:
 5036              		.cfi_def_cfa_offset 16
 5037 0004 0080     		se_mflr %r0
 5038 0006 1BC10908 		e_stmw %r30,8(%r1)
 5039 000a D501     		se_stw %r0,20(%r1)
 5040              		.cfi_offset 65, 4
 5041              		.cfi_offset 30, -8
 5042              		.cfi_offset 31, -4
 5043              		.loc 1 1621 0
 5044 000c 013E     		se_mr %r30,%r3
 5045              		.loc 1 1625 0
 5046 000e 0134     		se_mr %r4,%r3
 5047 0010 4835     		se_li %r5,3
 5048 0012 73E0E000 		e_lis %r31,AEK_POW_BMS63EN_Drv@ha
 5049 0016 1FFF0000 		e_la %r31,AEK_POW_BMS63EN_Drv@l(%r31)
 5050 001a 01F3     		se_mr %r3,%r31
 5051              	.LVL690:
 5052 001c 78000001 		e_bl AEK_POW_BMS63EN_SPIReadRegister
 5053              	.LVL691:
 5054              		.loc 1 1626 0
 5055 0020 01E4     		se_mr %r4,%r30
 5056 0022 01F3     		se_mr %r3,%r31
 5057 0024 4835     		se_li %r5,3
 5058 0026 78000001 		e_bl AEK_POW_BMS63EN_SPIReadRegister
 5059              	.LVL692:
 5060              		.loc 1 1633 0
 5061 002a C501     		se_lwz %r0,20(%r1)
 5062              		.loc 1 1628 0
 5063 002c 1866C5BF 		e_andi %r6,%r3,-16385
 5064              	.LVL693:
 5065              		.loc 1 1631 0
 5066 0030 01E4     		se_mr %r4,%r30
 5067 0032 01F3     		se_mr %r3,%r31
 5068 0034 4835     		se_li %r5,3
 5069              		.loc 1 1633 0
 5070 0036 1BC10808 		e_lmw %r30,8(%r1)
 5071              	.LVL694:
 5072              		.loc 1 1631 0
 5073 003a 6506     		se_bseti %r6,16
GAS LISTING C:\Users\Vipuls\AppData\Local\Temp\ccgvNFZ7.s 			page 90


 5074              	.LVL695:
 5075              		.loc 1 1633 0
 5076 003c 0090     		se_mtlr %r0
 5077              		.cfi_restore 65
 5078 003e 20F1     		se_addi %r1,16
 5079              	.LCFI124:
 5080              		.cfi_restore 31
 5081              		.cfi_restore 30
 5082              		.cfi_def_cfa_offset 0
 5083              		.loc 1 1631 0
 5084 0040 78000000 		e_b AEK_POW_BMS63EN_SPIWriteRegister
 5085              	.LVL696:
 5086              		.cfi_endproc
 5087              	.LFE48:
 5088              		.size	AEK_POW_BMS63EN_StartCellBalancing, .-AEK_POW_BMS63EN_StartCellBalancing
 5089              		.section	.text.AEK_POW_BMS63EN_StopCellBalancing,"axv",@progbits
 5090              		.align 1
 5091              		.p2align 4,,15
 5092              		.globl AEK_POW_BMS63EN_StopCellBalancing
 5093              		.type	AEK_POW_BMS63EN_StopCellBalancing, @function
 5094              	AEK_POW_BMS63EN_StopCellBalancing:
 5095              	.LFB49:
 5096              		.loc 1 1639 0
 5097              		.cfi_startproc
 5098              	.LVL697:
 5099 0000 182106F0 		e_stwu %r1,-16(%r1)
 5100              	.LCFI125:
 5101              		.cfi_def_cfa_offset 16
 5102 0004 0080     		se_mflr %r0
 5103 0006 1BC10908 		e_stmw %r30,8(%r1)
 5104 000a D501     		se_stw %r0,20(%r1)
 5105              		.cfi_offset 65, 4
 5106              		.cfi_offset 30, -8
 5107              		.cfi_offset 31, -4
 5108              		.loc 1 1639 0
 5109 000c 013E     		se_mr %r30,%r3
 5110              		.loc 1 1643 0
 5111 000e 0134     		se_mr %r4,%r3
 5112 0010 4835     		se_li %r5,3
 5113 0012 73E0E000 		e_lis %r31,AEK_POW_BMS63EN_Drv@ha
 5114 0016 1FFF0000 		e_la %r31,AEK_POW_BMS63EN_Drv@l(%r31)
 5115 001a 01F3     		se_mr %r3,%r31
 5116              	.LVL698:
 5117 001c 78000001 		e_bl AEK_POW_BMS63EN_SPIReadRegister
 5118              	.LVL699:
 5119              		.loc 1 1644 0
 5120 0020 01E4     		se_mr %r4,%r30
 5121 0022 01F3     		se_mr %r3,%r31
 5122 0024 4835     		se_li %r5,3
 5123 0026 78000001 		e_bl AEK_POW_BMS63EN_SPIReadRegister
 5124              	.LVL700:
 5125              		.loc 1 1651 0
 5126 002a C501     		se_lwz %r0,20(%r1)
 5127              		.loc 1 1646 0
 5128 002c 1866C57F 		e_andi %r6,%r3,-32769
 5129              	.LVL701:
 5130              		.loc 1 1649 0
GAS LISTING C:\Users\Vipuls\AppData\Local\Temp\ccgvNFZ7.s 			page 91


 5131 0030 01E4     		se_mr %r4,%r30
 5132 0032 01F3     		se_mr %r3,%r31
 5133 0034 4835     		se_li %r5,3
 5134              		.loc 1 1651 0
 5135 0036 1BC10808 		e_lmw %r30,8(%r1)
 5136              	.LVL702:
 5137              		.loc 1 1649 0
 5138 003a 6516     		se_bseti %r6,17
 5139              	.LVL703:
 5140              		.loc 1 1651 0
 5141 003c 0090     		se_mtlr %r0
 5142              		.cfi_restore 65
 5143 003e 20F1     		se_addi %r1,16
 5144              	.LCFI126:
 5145              		.cfi_restore 31
 5146              		.cfi_restore 30
 5147              		.cfi_def_cfa_offset 0
 5148              		.loc 1 1649 0
 5149 0040 78000000 		e_b AEK_POW_BMS63EN_SPIWriteRegister
 5150              	.LVL704:
 5151              		.cfi_endproc
 5152              	.LFE49:
 5153              		.size	AEK_POW_BMS63EN_StopCellBalancing, .-AEK_POW_BMS63EN_StopCellBalancing
 5154              		.globl __floatsidf
 5155              		.section	.text.AEK_POW_BMS63EN_GetVoltageGPIOMeasurement,"axv",@progbits
 5156              		.align 1
 5157              		.p2align 4,,15
 5158              		.globl AEK_POW_BMS63EN_GetVoltageGPIOMeasurement
 5159              		.type	AEK_POW_BMS63EN_GetVoltageGPIOMeasurement, @function
 5160              	AEK_POW_BMS63EN_GetVoltageGPIOMeasurement:
 5161              	.LFB50:
 5162              		.loc 1 1662 0
 5163              		.cfi_startproc
 5164              	.LVL705:
 5165 0000 182106E0 		e_stwu %r1,-32(%r1)
 5166              	.LCFI127:
 5167              		.cfi_def_cfa_offset 32
 5168 0004 0080     		se_mflr %r0
 5169 0006 1B61090C 		e_stmw %r27,12(%r1)
 5170 000a D901     		se_stw %r0,36(%r1)
 5171              		.cfi_offset 65, 4
 5172              		.cfi_offset 27, -20
 5173              		.cfi_offset 28, -16
 5174              		.cfi_offset 29, -12
 5175              		.cfi_offset 30, -8
 5176              		.cfi_offset 31, -4
 5177              		.loc 1 1662 0
 5178 000c 016E     		se_mr %r30,%r6
 5179              		.loc 1 1667 0
 5180 000e 1BA48034 		e_addi %r29,%r4,52
 5181              		.loc 1 1662 0
 5182 0012 013C     		se_mr %r28,%r3
 5183              		.loc 1 1667 0
 5184 0014 0134     		se_mr %r4,%r3
 5185              	.LVL706:
 5186              		.loc 1 1662 0
 5187 0016 015B     		se_mr %r27,%r5
GAS LISTING C:\Users\Vipuls\AppData\Local\Temp\ccgvNFZ7.s 			page 92


 5188              		.loc 1 1667 0
 5189 0018 73E0E000 		e_lis %r31,AEK_POW_BMS63EN_Drv@ha
 5190 001c 01D5     		se_mr %r5,%r29
 5191              	.LVL707:
 5192 001e 1FFF0000 		e_la %r31,AEK_POW_BMS63EN_Drv@l(%r31)
 5193 0022 01F3     		se_mr %r3,%r31
 5194              	.LVL708:
 5195 0024 78000001 		e_bl AEK_POW_BMS63EN_SPIReadRegister
 5196              	.LVL709:
 5197              		.loc 1 1668 0
 5198 0028 01F3     		se_mr %r3,%r31
 5199 002a 01C4     		se_mr %r4,%r28
 5200 002c 01D5     		se_mr %r5,%r29
 5201 002e 78000001 		e_bl AEK_POW_BMS63EN_SPIReadRegister
 5202              	.LVL710:
 5203              		.loc 1 1670 0
 5204 0032 2A0E     		se_cmpi %r30,0
 5205              		.loc 1 1668 0
 5206 0034 0137     		se_mr %r7,%r3
 5207              	.LVL711:
 5208              		.loc 1 1670 0
 5209 0036 7A12005A 		e_beq %cr0,.L227
 5210              		.loc 1 1663 0
 5211 003a 4803     		se_li %r3,0
 5212              	.LVL712:
 5213              		.loc 1 1673 0
 5214 003c 220E     		se_cmpli %r30,1
 5215 003e 7A120010 		e_beq %cr0,.L228
 5216              	.LVL713:
 5217              		.loc 1 1679 0
 5218 0042 C901     		se_lwz %r0,36(%r1)
 5219 0044 0090     		se_mtlr %r0
 5220              		.cfi_remember_state
 5221              		.cfi_restore 65
 5222 0046 1B61080C 		e_lmw %r27,12(%r1)
 5223              	.LVL714:
 5224 004a 21F1     		se_addi %r1,32
 5225              	.LCFI128:
 5226              		.cfi_restore 31
 5227              		.cfi_restore 30
 5228              		.cfi_restore 29
 5229              		.cfi_restore 28
 5230              		.cfi_restore 27
 5231              		.cfi_def_cfa_offset 0
 5232 004c 0004     		se_blr
 5233              	.LVL715:
 5234              	.L228:
 5235              	.LCFI129:
 5236              		.cfi_restore_state
 5237              		.loc 1 1674 0
 5238 004e 74E3043F 		e_rlwinm %r3,%r7,0,0xffff
 5239 0052 78000001 		e_bl __floatsidf
 5240              	.LVL716:
 5241 0056 70A7E6EF 		e_lis %r5,0x3eef
 5242 005a 70C9E555 		e_lis %r6,0x4d55
 5243 005e 70AEC510 		e_or2i %r5,29968
 5244 0062 70C3C569 		e_or2i %r6,7529
GAS LISTING C:\Users\Vipuls\AppData\Local\Temp\ccgvNFZ7.s 			page 93


 5245 0066 78000001 		e_bl __muldf3
 5246              	.LVL717:
 5247 006a 014F     		se_mr %r31,%r4
 5248 006c 013E     		se_mr %r30,%r3
 5249              	.LVL718:
 5250 006e 01B3     		se_mr %r3,%r27
 5251 0070 78000001 		e_bl __extendsfdf2
 5252              	.LVL719:
 5253 0074 0146     		se_mr %r6,%r4
 5254 0076 0135     		se_mr %r5,%r3
 5255 0078 01F4     		se_mr %r4,%r31
 5256 007a 01E3     		se_mr %r3,%r30
 5257 007c 78000001 		e_bl __muldf3
 5258              	.LVL720:
 5259 0080 78000001 		e_bl __truncdfsf2
 5260              	.LVL721:
 5261              		.loc 1 1679 0
 5262 0084 C901     		se_lwz %r0,36(%r1)
 5263 0086 0090     		se_mtlr %r0
 5264              		.cfi_remember_state
 5265              		.cfi_restore 65
 5266 0088 1B61080C 		e_lmw %r27,12(%r1)
 5267              	.LVL722:
 5268 008c 21F1     		se_addi %r1,32
 5269              	.LCFI130:
 5270              		.cfi_restore 27
 5271              		.cfi_restore 28
 5272              		.cfi_restore 29
 5273              		.cfi_restore 30
 5274              		.cfi_restore 31
 5275              		.cfi_def_cfa_offset 0
 5276 008e 0004     		se_blr
 5277              	.LVL723:
 5278              	.L227:
 5279              	.LCFI131:
 5280              		.cfi_restore_state
 5281              		.loc 1 1671 0
 5282 0090 00E7     		se_extzh %r7
 5283 0092 70C8E31B 		e_lis %r6,0x431b
 5284 0096 18E7A059 		e_mulli %r7,%r7,89
 5285 009a 70DBC683 		e_or2i %r6,56963
 5286 009e 7CE3FE70 		srawi %r3,%r7,31
 5287              	.LVL724:
 5288 00a2 7CE73096 		mulhw %r7,%r7,%r6
 5289 00a6 6B27     		se_srawi %r7, 18
 5290 00a8 0773     		se_subf %r3, %r7
 5291 00aa 78000001 		e_bl __floatsisf
 5292              	.LVL725:
 5293              		.loc 1 1679 0
 5294 00ae C901     		se_lwz %r0,36(%r1)
 5295 00b0 0090     		se_mtlr %r0
 5296              		.cfi_restore 65
 5297 00b2 1B61080C 		e_lmw %r27,12(%r1)
 5298              	.LVL726:
 5299 00b6 21F1     		se_addi %r1,32
 5300              	.LCFI132:
 5301              		.cfi_restore 27
GAS LISTING C:\Users\Vipuls\AppData\Local\Temp\ccgvNFZ7.s 			page 94


 5302              		.cfi_restore 28
 5303              		.cfi_restore 29
 5304              		.cfi_restore 30
 5305              		.cfi_restore 31
 5306              		.cfi_def_cfa_offset 0
 5307 00b8 0004     		se_blr
 5308              		.cfi_endproc
 5309              	.LFE50:
 5310              		.size	AEK_POW_BMS63EN_GetVoltageGPIOMeasurement, .-AEK_POW_BMS63EN_GetVoltageGPIOMeasurement
 5311              		.globl __subsf3
 5312              		.section	.text.AEK_POW_BMS63EN_GetNTCMeasurement,"axv",@progbits
 5313              		.align 1
 5314              		.p2align 4,,15
 5315              		.globl AEK_POW_BMS63EN_GetNTCMeasurement
 5316              		.type	AEK_POW_BMS63EN_GetNTCMeasurement, @function
 5317              	AEK_POW_BMS63EN_GetNTCMeasurement:
 5318              	.LFB51:
 5319              		.loc 1 1685 0
 5320              		.cfi_startproc
 5321              	.LVL727:
 5322 0000 182106E0 		e_stwu %r1,-32(%r1)
 5323              	.LCFI133:
 5324              		.cfi_def_cfa_offset 32
 5325 0004 0080     		se_mflr %r0
 5326 0006 1B61090C 		e_stmw %r27,12(%r1)
 5327 000a D901     		se_stw %r0,36(%r1)
 5328              		.cfi_offset 65, 4
 5329              		.cfi_offset 27, -20
 5330              		.cfi_offset 28, -16
 5331              		.cfi_offset 29, -12
 5332              		.cfi_offset 30, -8
 5333              		.cfi_offset 31, -4
 5334              		.loc 1 1685 0
 5335 000c 016E     		se_mr %r30,%r6
 5336              		.loc 1 1690 0
 5337 000e 1BA48034 		e_addi %r29,%r4,52
 5338              		.loc 1 1685 0
 5339 0012 013C     		se_mr %r28,%r3
 5340              		.loc 1 1690 0
 5341 0014 0134     		se_mr %r4,%r3
 5342              	.LVL728:
 5343              		.loc 1 1685 0
 5344 0016 015B     		se_mr %r27,%r5
 5345              		.loc 1 1690 0
 5346 0018 73E0E000 		e_lis %r31,AEK_POW_BMS63EN_Drv@ha
 5347 001c 01D5     		se_mr %r5,%r29
 5348              	.LVL729:
 5349 001e 1FFF0000 		e_la %r31,AEK_POW_BMS63EN_Drv@l(%r31)
 5350 0022 01F3     		se_mr %r3,%r31
 5351              	.LVL730:
 5352 0024 78000001 		e_bl AEK_POW_BMS63EN_SPIReadRegister
 5353              	.LVL731:
 5354              		.loc 1 1691 0
 5355 0028 01F3     		se_mr %r3,%r31
 5356 002a 01C4     		se_mr %r4,%r28
 5357 002c 01D5     		se_mr %r5,%r29
 5358 002e 78000001 		e_bl AEK_POW_BMS63EN_SPIReadRegister
GAS LISTING C:\Users\Vipuls\AppData\Local\Temp\ccgvNFZ7.s 			page 95


 5359              	.LVL732:
 5360              		.loc 1 1693 0
 5361 0032 2A0E     		se_cmpi %r30,0
 5362 0034 7A120088 		e_beq %cr0,.L234
 5363              		.loc 1 1696 0
 5364 0038 220E     		se_cmpli %r30,1
 5365 003a 7A120024 		e_beq %cr0,.L235
 5366 003e 480F     		se_li %r31,0
 5367              		.loc 1 1700 0
 5368 0040 01B3     		se_mr %r3,%r27
 5369              	.LVL733:
 5370              		.loc 1 1686 0
 5371 0042 01FE     		se_mr %r30,%r31
 5372              	.LVL734:
 5373              		.loc 1 1700 0
 5374 0044 01E4     		se_mr %r4,%r30
 5375 0046 78000001 		e_bl __subsf3
 5376              	.LVL735:
 5377 004a 0134     		se_mr %r4,%r3
 5378 004c 01F3     		se_mr %r3,%r31
 5379 004e 78000001 		e_bl __divsf3
 5380              	.LVL736:
 5381              		.loc 1 1701 0
 5382 0052 C901     		se_lwz %r0,36(%r1)
 5383 0054 0090     		se_mtlr %r0
 5384              		.cfi_remember_state
 5385              		.cfi_restore 65
 5386 0056 1B61080C 		e_lmw %r27,12(%r1)
 5387              	.LVL737:
 5388 005a 21F1     		se_addi %r1,32
 5389              	.LCFI134:
 5390              		.cfi_restore 31
 5391              		.cfi_restore 30
 5392              		.cfi_restore 29
 5393              		.cfi_restore 28
 5394              		.cfi_restore 27
 5395              		.cfi_def_cfa_offset 0
 5396 005c 0004     		se_blr
 5397              	.LVL738:
 5398              	.L235:
 5399              	.LCFI135:
 5400              		.cfi_restore_state
 5401              		.loc 1 1697 0
 5402 005e 00E3     		se_extzh %r3
 5403              	.LVL739:
 5404 0060 78000001 		e_bl __floatsidf
 5405              	.LVL740:
 5406 0064 70A7E6EF 		e_lis %r5,0x3eef
 5407 0068 70C9E555 		e_lis %r6,0x4d55
 5408 006c 70AEC510 		e_or2i %r5,29968
 5409 0070 70C3C569 		e_or2i %r6,7529
 5410 0074 78000001 		e_bl __muldf3
 5411              	.LVL741:
 5412 0078 014F     		se_mr %r31,%r4
 5413 007a 013E     		se_mr %r30,%r3
 5414              	.LVL742:
 5415 007c 01B3     		se_mr %r3,%r27
GAS LISTING C:\Users\Vipuls\AppData\Local\Temp\ccgvNFZ7.s 			page 96


 5416 007e 78000001 		e_bl __extendsfdf2
 5417              	.LVL743:
 5418 0082 0146     		se_mr %r6,%r4
 5419 0084 0135     		se_mr %r5,%r3
 5420 0086 01F4     		se_mr %r4,%r31
 5421 0088 01E3     		se_mr %r3,%r30
 5422 008a 78000001 		e_bl __muldf3
 5423              	.LVL744:
 5424 008e 78000001 		e_bl __truncdfsf2
 5425              	.LVL745:
 5426              	.L233:
 5427 0092 013E     		se_mr %r30,%r3
 5428              	.LVL746:
 5429 0094 7088E61C 		e_lis %r4,0x461c
 5430 0098 6514     		se_bseti %r4,17
 5431 009a 78000001 		e_bl __mulsf3
 5432              	.LVL747:
 5433              		.loc 1 1700 0
 5434 009e 01E4     		se_mr %r4,%r30
 5435 00a0 013F     		se_mr %r31,%r3
 5436 00a2 01B3     		se_mr %r3,%r27
 5437 00a4 78000001 		e_bl __subsf3
 5438              	.LVL748:
 5439 00a8 0134     		se_mr %r4,%r3
 5440 00aa 01F3     		se_mr %r3,%r31
 5441 00ac 78000001 		e_bl __divsf3
 5442              	.LVL749:
 5443              		.loc 1 1701 0
 5444 00b0 C901     		se_lwz %r0,36(%r1)
 5445 00b2 0090     		se_mtlr %r0
 5446              		.cfi_remember_state
 5447              		.cfi_restore 65
 5448 00b4 1B61080C 		e_lmw %r27,12(%r1)
 5449              	.LVL750:
 5450 00b8 21F1     		se_addi %r1,32
 5451              	.LCFI136:
 5452              		.cfi_restore 27
 5453              		.cfi_restore 28
 5454              		.cfi_restore 29
 5455              		.cfi_restore 30
 5456              		.cfi_restore 31
 5457              		.cfi_def_cfa_offset 0
 5458 00ba 0004     		se_blr
 5459              	.LVL751:
 5460              	.L234:
 5461              	.LCFI137:
 5462              		.cfi_restore_state
 5463              		.loc 1 1694 0
 5464 00bc 7467043F 		e_rlwinm %r7,%r3,0,0xffff
 5465 00c0 70C8E31B 		e_lis %r6,0x431b
 5466 00c4 18E7A059 		e_mulli %r7,%r7,89
 5467 00c8 70DBC683 		e_or2i %r6,56963
 5468 00cc 7CE3FE70 		srawi %r3,%r7,31
 5469              	.LVL752:
 5470 00d0 7CC73096 		mulhw %r6,%r7,%r6
 5471 00d4 6B26     		se_srawi %r6, 18
 5472 00d6 0763     		se_subf %r3, %r6
GAS LISTING C:\Users\Vipuls\AppData\Local\Temp\ccgvNFZ7.s 			page 97


 5473 00d8 78000001 		e_bl __floatsisf
 5474              	.LVL753:
 5475 00dc 79FFFFB6 		e_b .L233
 5476              		.cfi_endproc
 5477              	.LFE51:
 5478              		.size	AEK_POW_BMS63EN_GetNTCMeasurement, .-AEK_POW_BMS63EN_GetNTCMeasurement
 5479              		.globl __fixunsdfsi
 5480              		.section	.text.AEK_POW_BMS63EN_SetOvercurrentThreshold,"axv",@progbits
 5481              		.align 1
 5482              		.p2align 4,,15
 5483              		.globl AEK_POW_BMS63EN_SetOvercurrentThreshold
 5484              		.type	AEK_POW_BMS63EN_SetOvercurrentThreshold, @function
 5485              	AEK_POW_BMS63EN_SetOvercurrentThreshold:
 5486              	.LFB52:
 5487              		.loc 1 1704 0
 5488              		.cfi_startproc
 5489              	.LVL754:
 5490 0000 182106F0 		e_stwu %r1,-16(%r1)
 5491              	.LCFI138:
 5492              		.cfi_def_cfa_offset 16
 5493 0004 0080     		se_mflr %r0
 5494 0006 1BC10908 		e_stmw %r30,8(%r1)
 5495 000a D501     		se_stw %r0,20(%r1)
 5496              		.cfi_offset 65, 4
 5497              		.cfi_offset 30, -8
 5498              		.cfi_offset 31, -4
 5499              		.loc 1 1704 0
 5500 000c 015E     		se_mr %r30,%r5
 5501              	.LVL755:
 5502 000e 013F     		se_mr %r31,%r3
 5503              		.loc 1 1706 0
 5504 0010 0143     		se_mr %r3,%r4
 5505              	.LVL756:
 5506 0012 78000001 		e_bl __floatsisf
 5507              	.LVL757:
 5508 0016 01E4     		se_mr %r4,%r30
 5509 0018 78000001 		e_bl __mulsf3
 5510              	.LVL758:
 5511 001c 78000001 		e_bl __extendsfdf2
 5512              	.LVL759:
 5513 0020 70A7E755 		e_lis %r5,0x3f55
 5514 0024 70D4E03C 		e_lis %r6,0xa03c
 5515 0028 70B9C26C 		e_or2i %r5,51820
 5516 002c 70C9C30A 		e_or2i %r6,19210
 5517 0030 78000001 		e_bl __divdf3
 5518              	.LVL760:
 5519 0034 78000001 		e_bl __fixunsdfsi
 5520              	.LVL761:
 5521              		.loc 1 1708 0
 5522 0038 C501     		se_lwz %r0,20(%r1)
 5523              		.loc 1 1706 0
 5524 003a 0136     		se_mr %r6,%r3
 5525              		.loc 1 1707 0
 5526 003c 01F4     		se_mr %r4,%r31
 5527 003e 7060E000 		e_lis %r3,AEK_POW_BMS63EN_Drv@ha
 5528              		.loc 1 1708 0
 5529 0042 1BC10808 		e_lmw %r30,8(%r1)
GAS LISTING C:\Users\Vipuls\AppData\Local\Temp\ccgvNFZ7.s 			page 98


 5530              	.LVL762:
 5531              		.loc 1 1707 0
 5532 0046 1C630000 		e_la %r3,AEK_POW_BMS63EN_Drv@l(%r3)
 5533              		.loc 1 1708 0
 5534              		.loc 1 1707 0
 5535 004a 49F5     		se_li %r5,31
 5536              		.loc 1 1708 0
 5537 004c 0090     		se_mtlr %r0
 5538              		.cfi_restore 65
 5539 004e 20F1     		se_addi %r1,16
 5540              	.LCFI139:
 5541              		.cfi_restore 31
 5542              		.cfi_restore 30
 5543              		.cfi_def_cfa_offset 0
 5544              		.loc 1 1707 0
 5545 0050 78000000 		e_b AEK_POW_BMS63EN_SPIWriteRegister
 5546              	.LVL763:
 5547              		.cfi_endproc
 5548              	.LFE52:
 5549              		.size	AEK_POW_BMS63EN_SetOvercurrentThreshold, .-AEK_POW_BMS63EN_SetOvercurrentThreshold
 5550              		.section	.text.AEK_POW_BMS63EN_SetGPIOConv,"axv",@progbits
 5551              		.align 1
 5552              		.p2align 4,,15
 5553              		.globl AEK_POW_BMS63EN_SetGPIOConv
 5554              		.type	AEK_POW_BMS63EN_SetGPIOConv, @function
 5555              	AEK_POW_BMS63EN_SetGPIOConv:
 5556              	.LFB53:
 5557              		.loc 1 1714 0
 5558              		.cfi_startproc
 5559              	.LVL764:
 5560 0000 182106F0 		e_stwu %r1,-16(%r1)
 5561              	.LCFI140:
 5562              		.cfi_def_cfa_offset 16
 5563 0004 0080     		se_mflr %r0
 5564 0006 1BC10908 		e_stmw %r30,8(%r1)
 5565 000a D501     		se_stw %r0,20(%r1)
 5566              		.cfi_offset 65, 4
 5567              		.cfi_offset 30, -8
 5568              		.cfi_offset 31, -4
 5569              		.loc 1 1714 0
 5570 000c 013E     		se_mr %r30,%r3
 5571              		.loc 1 1718 0
 5572 000e 0134     		se_mr %r4,%r3
 5573 0010 48D5     		se_li %r5,13
 5574 0012 73E0E000 		e_lis %r31,AEK_POW_BMS63EN_Drv@ha
 5575 0016 1FFF0000 		e_la %r31,AEK_POW_BMS63EN_Drv@l(%r31)
 5576 001a 01F3     		se_mr %r3,%r31
 5577              	.LVL765:
 5578 001c 78000001 		e_bl AEK_POW_BMS63EN_SPIReadRegister
 5579              	.LVL766:
 5580              		.loc 1 1719 0
 5581 0020 01E4     		se_mr %r4,%r30
 5582 0022 01F3     		se_mr %r3,%r31
 5583 0024 48D5     		se_li %r5,13
 5584 0026 78000001 		e_bl AEK_POW_BMS63EN_SPIReadRegister
 5585              	.LVL767:
 5586              		.loc 1 1725 0
GAS LISTING C:\Users\Vipuls\AppData\Local\Temp\ccgvNFZ7.s 			page 99


 5587 002a C501     		se_lwz %r0,20(%r1)
 5588              		.loc 1 1723 0
 5589 002c 01E4     		se_mr %r4,%r30
 5590              		.loc 1 1721 0
 5591 002e 1866D101 		e_ori %r6,%r3,256
 5592              	.LVL768:
 5593              		.loc 1 1723 0
 5594 0032 48D5     		se_li %r5,13
 5595 0034 01F3     		se_mr %r3,%r31
 5596              		.loc 1 1725 0
 5597 0036 0090     		se_mtlr %r0
 5598              		.cfi_restore 65
 5599 0038 1BC10808 		e_lmw %r30,8(%r1)
 5600              	.LVL769:
 5601 003c 20F1     		se_addi %r1,16
 5602              	.LCFI141:
 5603              		.cfi_restore 31
 5604              		.cfi_restore 30
 5605              		.cfi_def_cfa_offset 0
 5606              		.loc 1 1723 0
 5607 003e 78000000 		e_b AEK_POW_BMS63EN_SPIWriteRegister
 5608              	.LVL770:
 5609              		.cfi_endproc
 5610              	.LFE53:
 5611              		.size	AEK_POW_BMS63EN_SetGPIOConv, .-AEK_POW_BMS63EN_SetGPIOConv
 5612              		.section	.text.AEK_POW_BMS63EN_ConfigGPIO,"axv",@progbits
 5613              		.align 1
 5614              		.p2align 4,,15
 5615              		.globl AEK_POW_BMS63EN_ConfigGPIO
 5616              		.type	AEK_POW_BMS63EN_ConfigGPIO, @function
 5617              	AEK_POW_BMS63EN_ConfigGPIO:
 5618              	.LFB54:
 5619              		.loc 1 1730 0
 5620              		.cfi_startproc
 5621              	.LVL771:
 5622 0000 182106E8 		e_stwu %r1,-24(%r1)
 5623              	.LCFI142:
 5624              		.cfi_def_cfa_offset 24
 5625 0004 0080     		se_mflr %r0
 5626 0006 1B810908 		e_stmw %r28,8(%r1)
 5627 000a D701     		se_stw %r0,28(%r1)
 5628              		.cfi_offset 65, 4
 5629              		.cfi_offset 28, -16
 5630              		.cfi_offset 29, -12
 5631              		.cfi_offset 30, -8
 5632              		.cfi_offset 31, -4
 5633              		.loc 1 1730 0
 5634 000c 013E     		se_mr %r30,%r3
 5635 000e 014D     		se_mr %r29,%r4
 5636 0010 015C     		se_mr %r28,%r5
 5637              		.loc 1 1734 0
 5638 0012 0134     		se_mr %r4,%r3
 5639              	.LVL772:
 5640 0014 4945     		se_li %r5,20
 5641              	.LVL773:
 5642 0016 73E0E000 		e_lis %r31,AEK_POW_BMS63EN_Drv@ha
 5643 001a 1FFF0000 		e_la %r31,AEK_POW_BMS63EN_Drv@l(%r31)
GAS LISTING C:\Users\Vipuls\AppData\Local\Temp\ccgvNFZ7.s 			page 100


 5644 001e 01F3     		se_mr %r3,%r31
 5645              	.LVL774:
 5646 0020 78000001 		e_bl AEK_POW_BMS63EN_SPIReadRegister
 5647              	.LVL775:
 5648              		.loc 1 1735 0
 5649 0024 01F3     		se_mr %r3,%r31
 5650 0026 01E4     		se_mr %r4,%r30
 5651 0028 4945     		se_li %r5,20
 5652 002a 78000001 		e_bl AEK_POW_BMS63EN_SPIReadRegister
 5653              	.LVL776:
 5654              		.loc 1 1737 0
 5655 002e 225D     		se_cmpli %r29,6
 5656              		.loc 1 1735 0
 5657 0030 0136     		se_mr %r6,%r3
 5658              	.LVL777:
 5659              		.loc 1 1737 0
 5660 0032 7A11002E 		e_bgt %cr0,.L283
 5661 0036 6C2D     		se_slwi %r29, 2
 5662              	.LVL778:
 5663 0038 70E0E000 		e_lis %r7,.L241@ha
 5664 003c 1CE70000 		e_la %r7,.L241@l(%r7)
 5665 0040 7C87E82E 		lwzx %r4,%r7,%r29
 5666 0044 7CE43A14 		add %r7,%r4,%r7
 5667 0048 00B7     		se_mtctr %r7
 5668 004a 0006     		se_bctr
 5669              		.section	.rodata.AEK_POW_BMS63EN_ConfigGPIO,"a",@progbits
 5670              		.align 2
 5671              		.align 2
 5672              	.L241:
 5673 0000 00000000 		.long .L240-.L241
 5674 0004 00000000 		.long .L242-.L241
 5675 0008 00000000 		.long .L243-.L241
 5676 000c 00000000 		.long .L244-.L241
 5677 0010 00000000 		.long .L245-.L241
 5678 0014 00000000 		.long .L246-.L241
 5679 0018 00000000 		.long .L247-.L241
 5680              		.section	.text.AEK_POW_BMS63EN_ConfigGPIO
 5681              	.L246:
 5682              		.loc 1 1825 0
 5683 004c 1866C53F 		e_andi %r6,%r3,-49153
 5684              	.LVL779:
 5685              		.loc 1 1826 0
 5686 0050 220C     		se_cmpli %r28,1
 5687 0052 7A12020C 		e_beq %cr0,.L263
 5688 0056 7A1001E8 		e_blt %cr0,.L264
 5689 005a 221C     		se_cmpli %r28,2
 5690 005c 7A12014E 		e_beq %cr0,.L265
 5691              	.L283:
 5692              		.loc 1 1732 0
 5693 0060 4807     		se_li %r7,0
 5694              	.LVL780:
 5695              	.L239:
 5696              		.loc 1 1864 0
 5697 0062 C701     		se_lwz %r0,28(%r1)
 5698              		.loc 1 1862 0
 5699 0064 01E4     		se_mr %r4,%r30
 5700 0066 7060E000 		e_lis %r3,AEK_POW_BMS63EN_Drv@ha
GAS LISTING C:\Users\Vipuls\AppData\Local\Temp\ccgvNFZ7.s 			page 101


 5701              		.loc 1 1864 0
 5702 006a 1B810808 		e_lmw %r28,8(%r1)
 5703              	.LVL781:
 5704              		.loc 1 1862 0
 5705 006e 1C630000 		e_la %r3,AEK_POW_BMS63EN_Drv@l(%r3)
 5706              		.loc 1 1864 0
 5707              		.loc 1 1862 0
 5708 0072 4945     		se_li %r5,20
 5709 0074 4476     		se_or %r6,%r7
 5710              	.LVL782:
 5711              		.loc 1 1864 0
 5712 0076 0090     		se_mtlr %r0
 5713              		.cfi_remember_state
 5714              		.cfi_restore 65
 5715 0078 2171     		se_addi %r1,24
 5716              	.LCFI143:
 5717              		.cfi_restore 31
 5718              		.cfi_restore 30
 5719              		.cfi_restore 29
 5720              		.cfi_restore 28
 5721              		.cfi_def_cfa_offset 0
 5722              		.loc 1 1862 0
 5723 007a 78000000 		e_b AEK_POW_BMS63EN_SPIWriteRegister
 5724              	.LVL783:
 5725              	.L247:
 5726              	.LCFI144:
 5727              		.cfi_restore_state
 5728              		.loc 1 1842 0
 5729 007e 1866C6FC 		e_andi %r6,%r3,-196609
 5730              	.LVL784:
 5731              		.loc 1 1843 0
 5732 0082 220C     		se_cmpli %r28,1
 5733 0084 7A12019C 		e_beq %cr0,.L266
 5734 0088 7A100178 		e_blt %cr0,.L267
 5735 008c 221C     		se_cmpli %r28,2
 5736 008e 7A02FFD2 		e_bne %cr0,.L283
 5737              	.LVL785:
 5738              		.loc 1 1853 0
 5739 0092 18BE84FF 		e_addi %r5,%r30,-1
 5740 0096 7080E000 		e_lis %r4,AEK_POW_BMS63EN_gpio_state@ha
 5741 009a 18A5A08C 		e_mulli %r5,%r5,140
 5742 009e 1C840000 		e_la %r4,AEK_POW_BMS63EN_gpio_state@l(%r4)
 5743              		.loc 1 1852 0
 5744 00a2 70E01800 		e_li %r7,196608
 5745              		.loc 1 1853 0
 5746 00a6 7CA42A14 		add %r5,%r4,%r5
 5747 00aa 57850078 		e_stw %r28,120(%r5)
 5748              		.loc 1 1854 0
 5749 00ae 79FFFFB4 		e_b .L239
 5750              	.LVL786:
 5751              	.L240:
 5752              		.loc 1 1740 0
 5753 00b2 1866C4CF 		e_andi %r6,%r3,-49
 5754              	.LVL787:
 5755              		.loc 1 1741 0
 5756 00b6 220C     		se_cmpli %r28,1
 5757 00b8 7A12012E 		e_beq %cr0,.L248
GAS LISTING C:\Users\Vipuls\AppData\Local\Temp\ccgvNFZ7.s 			page 102


 5758 00bc 7A10010E 		e_blt %cr0,.L249
 5759 00c0 221C     		se_cmpli %r28,2
 5760 00c2 7A02FF9E 		e_bne %cr0,.L283
 5761              	.LVL788:
 5762              		.loc 1 1751 0
 5763 00c6 18BE84FF 		e_addi %r5,%r30,-1
 5764 00ca 7080E000 		e_lis %r4,AEK_POW_BMS63EN_gpio_state@ha
 5765 00ce 18A5A08C 		e_mulli %r5,%r5,140
 5766 00d2 1C840000 		e_la %r4,AEK_POW_BMS63EN_gpio_state@l(%r4)
 5767              		.loc 1 1750 0
 5768 00d6 4B07     		se_li %r7,48
 5769              		.loc 1 1751 0
 5770 00d8 7F84292E 		stwx %r28,%r4,%r5
 5771              		.loc 1 1752 0
 5772 00dc 79FFFF86 		e_b .L239
 5773              	.LVL789:
 5774              	.L242:
 5775              		.loc 1 1757 0
 5776 00e0 1866C43F 		e_andi %r6,%r3,-193
 5777              	.LVL790:
 5778              		.loc 1 1758 0
 5779 00e4 220C     		se_cmpli %r28,1
 5780 00e6 7A1201B4 		e_beq %cr0,.L251
 5781 00ea 7A100192 		e_blt %cr0,.L252
 5782 00ee 221C     		se_cmpli %r28,2
 5783 00f0 7A02FF70 		e_bne %cr0,.L283
 5784              	.LVL791:
 5785              		.loc 1 1768 0
 5786 00f4 18BE84FF 		e_addi %r5,%r30,-1
 5787 00f8 7080E000 		e_lis %r4,AEK_POW_BMS63EN_gpio_state@ha
 5788 00fc 18A5A08C 		e_mulli %r5,%r5,140
 5789 0100 1C840000 		e_la %r4,AEK_POW_BMS63EN_gpio_state@l(%r4)
 5790              		.loc 1 1767 0
 5791 0104 70E000C0 		e_li %r7,192
 5792              		.loc 1 1768 0
 5793 0108 7CA42A14 		add %r5,%r4,%r5
 5794 010c D5C5     		se_stw %r28,20(%r5)
 5795              		.loc 1 1769 0
 5796 010e 79FFFF54 		e_b .L239
 5797              	.LVL792:
 5798              	.L243:
 5799              		.loc 1 1774 0
 5800 0112 1866C5FC 		e_andi %r6,%r3,-769
 5801              	.LVL793:
 5802              		.loc 1 1775 0
 5803 0116 220C     		se_cmpli %r28,1
 5804 0118 7A120234 		e_beq %cr0,.L254
 5805 011c 7A100212 		e_blt %cr0,.L255
 5806 0120 221C     		se_cmpli %r28,2
 5807 0122 7A02FF3E 		e_bne %cr0,.L283
 5808              	.LVL794:
 5809              		.loc 1 1785 0
 5810 0126 18BE84FF 		e_addi %r5,%r30,-1
 5811 012a 7080E000 		e_lis %r4,AEK_POW_BMS63EN_gpio_state@ha
 5812 012e 18A5A08C 		e_mulli %r5,%r5,140
 5813 0132 1C840000 		e_la %r4,AEK_POW_BMS63EN_gpio_state@l(%r4)
 5814              		.loc 1 1784 0
GAS LISTING C:\Users\Vipuls\AppData\Local\Temp\ccgvNFZ7.s 			page 103


 5815 0136 70E00300 		e_li %r7,768
 5816              		.loc 1 1785 0
 5817 013a 7CA42A14 		add %r5,%r4,%r5
 5818 013e DAC5     		se_stw %r28,40(%r5)
 5819              		.loc 1 1786 0
 5820 0140 79FFFF22 		e_b .L239
 5821              	.LVL795:
 5822              	.L244:
 5823              		.loc 1 1791 0
 5824 0144 1866C5F3 		e_andi %r6,%r3,-3073
 5825              	.LVL796:
 5826              		.loc 1 1792 0
 5827 0148 220C     		se_cmpli %r28,1
 5828 014a 7A1201C8 		e_beq %cr0,.L257
 5829 014e 7A1001A6 		e_blt %cr0,.L258
 5830 0152 221C     		se_cmpli %r28,2
 5831 0154 7A02FF0C 		e_bne %cr0,.L283
 5832              	.LVL797:
 5833              		.loc 1 1802 0
 5834 0158 18BE84FF 		e_addi %r5,%r30,-1
 5835 015c 7080E000 		e_lis %r4,AEK_POW_BMS63EN_gpio_state@ha
 5836 0160 18A5A08C 		e_mulli %r5,%r5,140
 5837 0164 1C840000 		e_la %r4,AEK_POW_BMS63EN_gpio_state@l(%r4)
 5838              		.loc 1 1801 0
 5839 0168 70E10400 		e_li %r7,3072
 5840              		.loc 1 1802 0
 5841 016c 7CA42A14 		add %r5,%r4,%r5
 5842 0170 DFC5     		se_stw %r28,60(%r5)
 5843              		.loc 1 1803 0
 5844 0172 79FFFEF0 		e_b .L239
 5845              	.LVL798:
 5846              	.L245:
 5847              		.loc 1 1808 0
 5848 0176 1866C5CF 		e_andi %r6,%r3,-12289
 5849              	.LVL799:
 5850              		.loc 1 1809 0
 5851 017a 220C     		se_cmpli %r28,1
 5852 017c 7A12015A 		e_beq %cr0,.L260
 5853 0180 7A100136 		e_blt %cr0,.L261
 5854 0184 221C     		se_cmpli %r28,2
 5855 0186 7A02FEDA 		e_bne %cr0,.L283
 5856              	.LVL800:
 5857              		.loc 1 1819 0
 5858 018a 18BE84FF 		e_addi %r5,%r30,-1
 5859 018e 7080E000 		e_lis %r4,AEK_POW_BMS63EN_gpio_state@ha
 5860 0192 18A5A08C 		e_mulli %r5,%r5,140
 5861 0196 1C840000 		e_la %r4,AEK_POW_BMS63EN_gpio_state@l(%r4)
 5862              		.loc 1 1818 0
 5863 019a 70E60000 		e_li %r7,12288
 5864              		.loc 1 1819 0
 5865 019e 7CA42A14 		add %r5,%r4,%r5
 5866 01a2 57850050 		e_stw %r28,80(%r5)
 5867              		.loc 1 1820 0
 5868 01a6 79FFFEBC 		e_b .L239
 5869              	.LVL801:
 5870              	.L265:
 5871              		.loc 1 1836 0
GAS LISTING C:\Users\Vipuls\AppData\Local\Temp\ccgvNFZ7.s 			page 104


 5872 01aa 18BE84FF 		e_addi %r5,%r30,-1
 5873 01ae 7080E000 		e_lis %r4,AEK_POW_BMS63EN_gpio_state@ha
 5874 01b2 18A5A08C 		e_mulli %r5,%r5,140
 5875 01b6 1C840000 		e_la %r4,AEK_POW_BMS63EN_gpio_state@l(%r4)
 5876              		.loc 1 1835 0
 5877 01ba 70F80000 		e_li %r7,49152
 5878              		.loc 1 1836 0
 5879 01be 7CA42A14 		add %r5,%r4,%r5
 5880 01c2 57850064 		e_stw %r28,100(%r5)
 5881              		.loc 1 1837 0
 5882 01c6 79FFFE9C 		e_b .L239
 5883              	.LVL802:
 5884              	.L249:
 5885              		.loc 1 1743 0
 5886 01ca 18BE84FF 		e_addi %r5,%r30,-1
 5887 01ce 4803     		se_li %r3,0
 5888 01d0 18A5A08C 		e_mulli %r5,%r5,140
 5889 01d4 7080E000 		e_lis %r4,AEK_POW_BMS63EN_gpio_state@ha
 5890              		.loc 1 1732 0
 5891 01d8 4807     		se_li %r7,0
 5892              		.loc 1 1743 0
 5893 01da 1C840000 		e_la %r4,AEK_POW_BMS63EN_gpio_state@l(%r4)
 5894 01de 7C64292E 		stwx %r3,%r4,%r5
 5895              		.loc 1 1744 0
 5896 01e2 79FFFE80 		e_b .L239
 5897              	.L248:
 5898              	.LVL803:
 5899              		.loc 1 1747 0
 5900 01e6 01E7     		se_mr %r7,%r30
 5901 01e8 7080E000 		e_lis %r4,AEK_POW_BMS63EN_gpio_state@ha
 5902 01ec 2407     		se_subi %r7, 1
 5903 01ee 1C840000 		e_la %r4,AEK_POW_BMS63EN_gpio_state@l(%r4)
 5904 01f2 18A7A08C 		e_mulli %r5,%r7,140
 5905              		.loc 1 1746 0
 5906 01f6 4A07     		se_li %r7,32
 5907              		.loc 1 1747 0
 5908 01f8 7F84292E 		stwx %r28,%r4,%r5
 5909              		.loc 1 1748 0
 5910 01fc 79FFFE66 		e_b .L239
 5911              	.LVL804:
 5912              	.L267:
 5913              		.loc 1 1845 0
 5914 0200 18BE84FF 		e_addi %r5,%r30,-1
 5915 0204 70E0E000 		e_lis %r7,AEK_POW_BMS63EN_gpio_state@ha
 5916 0208 18A5A08C 		e_mulli %r5,%r5,140
 5917 020c 1CE70000 		e_la %r7,AEK_POW_BMS63EN_gpio_state@l(%r7)
 5918 0210 4804     		se_li %r4,0
 5919 0212 7CA72A14 		add %r5,%r7,%r5
 5920              		.loc 1 1732 0
 5921 0216 4807     		se_li %r7,0
 5922              		.loc 1 1845 0
 5923 0218 54850078 		e_stw %r4,120(%r5)
 5924              		.loc 1 1846 0
 5925 021c 79FFFE46 		e_b .L239
 5926              	.L266:
 5927              	.LVL805:
 5928              		.loc 1 1849 0
GAS LISTING C:\Users\Vipuls\AppData\Local\Temp\ccgvNFZ7.s 			page 105


 5929 0220 01E5     		se_mr %r5,%r30
 5930 0222 7080E000 		e_lis %r4,AEK_POW_BMS63EN_gpio_state@ha
 5931 0226 2405     		se_subi %r5, 1
 5932 0228 1C840000 		e_la %r4,AEK_POW_BMS63EN_gpio_state@l(%r4)
 5933 022c 18A5A08C 		e_mulli %r5,%r5,140
 5934              		.loc 1 1848 0
 5935 0230 62E7     		se_bgeni %r7,14
 5936              		.loc 1 1849 0
 5937 0232 7CA42A14 		add %r5,%r4,%r5
 5938 0236 57850078 		e_stw %r28,120(%r5)
 5939              		.loc 1 1850 0
 5940 023a 79FFFE28 		e_b .L239
 5941              	.LVL806:
 5942              	.L264:
 5943              		.loc 1 1828 0
 5944 023e 18BE84FF 		e_addi %r5,%r30,-1
 5945 0242 70E0E000 		e_lis %r7,AEK_POW_BMS63EN_gpio_state@ha
 5946 0246 18A5A08C 		e_mulli %r5,%r5,140
 5947 024a 1CE70000 		e_la %r7,AEK_POW_BMS63EN_gpio_state@l(%r7)
 5948 024e 4804     		se_li %r4,0
 5949 0250 7CA72A14 		add %r5,%r7,%r5
 5950              		.loc 1 1732 0
 5951 0254 4807     		se_li %r7,0
 5952              		.loc 1 1828 0
 5953 0256 54850064 		e_stw %r4,100(%r5)
 5954              		.loc 1 1829 0
 5955 025a 79FFFE08 		e_b .L239
 5956              	.L263:
 5957              	.LVL807:
 5958              		.loc 1 1832 0
 5959 025e 01E5     		se_mr %r5,%r30
 5960 0260 7080E000 		e_lis %r4,AEK_POW_BMS63EN_gpio_state@ha
 5961 0264 2405     		se_subi %r5, 1
 5962 0266 1C840000 		e_la %r4,AEK_POW_BMS63EN_gpio_state@l(%r4)
 5963 026a 18A5A08C 		e_mulli %r5,%r5,140
 5964              		.loc 1 1831 0
 5965 026e 6307     		se_bgeni %r7,16
 5966              		.loc 1 1832 0
 5967 0270 7CA42A14 		add %r5,%r4,%r5
 5968 0274 57850064 		e_stw %r28,100(%r5)
 5969              		.loc 1 1833 0
 5970 0278 79FFFDEA 		e_b .L239
 5971              	.LVL808:
 5972              	.L252:
 5973              		.loc 1 1760 0
 5974 027c 18BE84FF 		e_addi %r5,%r30,-1
 5975 0280 70E0E000 		e_lis %r7,AEK_POW_BMS63EN_gpio_state@ha
 5976 0284 18A5A08C 		e_mulli %r5,%r5,140
 5977 0288 1CE70000 		e_la %r7,AEK_POW_BMS63EN_gpio_state@l(%r7)
 5978 028c 4804     		se_li %r4,0
 5979 028e 7CA72A14 		add %r5,%r7,%r5
 5980              		.loc 1 1732 0
 5981 0292 4807     		se_li %r7,0
 5982              		.loc 1 1760 0
 5983 0294 D545     		se_stw %r4,20(%r5)
 5984              		.loc 1 1761 0
 5985 0296 79FFFDCC 		e_b .L239
GAS LISTING C:\Users\Vipuls\AppData\Local\Temp\ccgvNFZ7.s 			page 106


 5986              	.L251:
 5987              	.LVL809:
 5988              		.loc 1 1764 0
 5989 029a 01E5     		se_mr %r5,%r30
 5990 029c 7080E000 		e_lis %r4,AEK_POW_BMS63EN_gpio_state@ha
 5991 02a0 2405     		se_subi %r5, 1
 5992 02a2 1C840000 		e_la %r4,AEK_POW_BMS63EN_gpio_state@l(%r4)
 5993 02a6 18A5A08C 		e_mulli %r5,%r5,140
 5994              		.loc 1 1763 0
 5995 02aa 6387     		se_bgeni %r7,24
 5996              		.loc 1 1764 0
 5997 02ac 7CA42A14 		add %r5,%r4,%r5
 5998 02b0 D5C5     		se_stw %r28,20(%r5)
 5999              		.loc 1 1765 0
 6000 02b2 79FFFDB0 		e_b .L239
 6001              	.LVL810:
 6002              	.L261:
 6003              		.loc 1 1811 0
 6004 02b6 18BE84FF 		e_addi %r5,%r30,-1
 6005 02ba 70E0E000 		e_lis %r7,AEK_POW_BMS63EN_gpio_state@ha
 6006 02be 18A5A08C 		e_mulli %r5,%r5,140
 6007 02c2 1CE70000 		e_la %r7,AEK_POW_BMS63EN_gpio_state@l(%r7)
 6008 02c6 4804     		se_li %r4,0
 6009 02c8 7CA72A14 		add %r5,%r7,%r5
 6010              		.loc 1 1732 0
 6011 02cc 4807     		se_li %r7,0
 6012              		.loc 1 1811 0
 6013 02ce 54850050 		e_stw %r4,80(%r5)
 6014              		.loc 1 1812 0
 6015 02d2 79FFFD90 		e_b .L239
 6016              	.L260:
 6017              	.LVL811:
 6018              		.loc 1 1815 0
 6019 02d6 01E5     		se_mr %r5,%r30
 6020 02d8 7080E000 		e_lis %r4,AEK_POW_BMS63EN_gpio_state@ha
 6021 02dc 2405     		se_subi %r5, 1
 6022 02de 1C840000 		e_la %r4,AEK_POW_BMS63EN_gpio_state@l(%r4)
 6023 02e2 18A5A08C 		e_mulli %r5,%r5,140
 6024              		.loc 1 1814 0
 6025 02e6 6327     		se_bgeni %r7,18
 6026              		.loc 1 1815 0
 6027 02e8 7CA42A14 		add %r5,%r4,%r5
 6028 02ec 57850050 		e_stw %r28,80(%r5)
 6029              		.loc 1 1816 0
 6030 02f0 79FFFD72 		e_b .L239
 6031              	.LVL812:
 6032              	.L258:
 6033              		.loc 1 1794 0
 6034 02f4 18BE84FF 		e_addi %r5,%r30,-1
 6035 02f8 70E0E000 		e_lis %r7,AEK_POW_BMS63EN_gpio_state@ha
 6036 02fc 18A5A08C 		e_mulli %r5,%r5,140
 6037 0300 1CE70000 		e_la %r7,AEK_POW_BMS63EN_gpio_state@l(%r7)
 6038 0304 4804     		se_li %r4,0
 6039 0306 7CA72A14 		add %r5,%r7,%r5
 6040              		.loc 1 1732 0
 6041 030a 4807     		se_li %r7,0
 6042              		.loc 1 1794 0
GAS LISTING C:\Users\Vipuls\AppData\Local\Temp\ccgvNFZ7.s 			page 107


 6043 030c DF45     		se_stw %r4,60(%r5)
 6044              		.loc 1 1795 0
 6045 030e 79FFFD54 		e_b .L239
 6046              	.L257:
 6047              	.LVL813:
 6048              		.loc 1 1798 0
 6049 0312 01E5     		se_mr %r5,%r30
 6050 0314 7080E000 		e_lis %r4,AEK_POW_BMS63EN_gpio_state@ha
 6051 0318 2405     		se_subi %r5, 1
 6052 031a 1C840000 		e_la %r4,AEK_POW_BMS63EN_gpio_state@l(%r4)
 6053 031e 18A5A08C 		e_mulli %r5,%r5,140
 6054              		.loc 1 1797 0
 6055 0322 6347     		se_bgeni %r7,20
 6056              		.loc 1 1798 0
 6057 0324 7CA42A14 		add %r5,%r4,%r5
 6058 0328 DFC5     		se_stw %r28,60(%r5)
 6059              		.loc 1 1799 0
 6060 032a 79FFFD38 		e_b .L239
 6061              	.LVL814:
 6062              	.L255:
 6063              		.loc 1 1777 0
 6064 032e 18BE84FF 		e_addi %r5,%r30,-1
 6065 0332 70E0E000 		e_lis %r7,AEK_POW_BMS63EN_gpio_state@ha
 6066 0336 18A5A08C 		e_mulli %r5,%r5,140
 6067 033a 1CE70000 		e_la %r7,AEK_POW_BMS63EN_gpio_state@l(%r7)
 6068 033e 4804     		se_li %r4,0
 6069 0340 7CA72A14 		add %r5,%r7,%r5
 6070              		.loc 1 1732 0
 6071 0344 4807     		se_li %r7,0
 6072              		.loc 1 1777 0
 6073 0346 DA45     		se_stw %r4,40(%r5)
 6074              		.loc 1 1778 0
 6075 0348 79FFFD1A 		e_b .L239
 6076              	.L254:
 6077              	.LVL815:
 6078              		.loc 1 1781 0
 6079 034c 01E5     		se_mr %r5,%r30
 6080 034e 7080E000 		e_lis %r4,AEK_POW_BMS63EN_gpio_state@ha
 6081 0352 2405     		se_subi %r5, 1
 6082 0354 1C840000 		e_la %r4,AEK_POW_BMS63EN_gpio_state@l(%r4)
 6083 0358 18A5A08C 		e_mulli %r5,%r5,140
 6084              		.loc 1 1780 0
 6085 035c 6367     		se_bgeni %r7,22
 6086              		.loc 1 1781 0
 6087 035e 7CA42A14 		add %r5,%r4,%r5
 6088 0362 DAC5     		se_stw %r28,40(%r5)
 6089              		.loc 1 1782 0
 6090 0364 79FFFCFE 		e_b .L239
 6091              		.cfi_endproc
 6092              	.LFE54:
 6093              		.size	AEK_POW_BMS63EN_ConfigGPIO, .-AEK_POW_BMS63EN_ConfigGPIO
 6094              		.section	.text.AEK_POW_BMS63EN_SetGPIOModeAbsolute,"axv",@progbits
 6095              		.align 1
 6096              		.p2align 4,,15
 6097              		.globl AEK_POW_BMS63EN_SetGPIOModeAbsolute
 6098              		.type	AEK_POW_BMS63EN_SetGPIOModeAbsolute, @function
 6099              	AEK_POW_BMS63EN_SetGPIOModeAbsolute:
GAS LISTING C:\Users\Vipuls\AppData\Local\Temp\ccgvNFZ7.s 			page 108


 6100              	.LFB55:
 6101              		.loc 1 1870 0
 6102              		.cfi_startproc
 6103              	.LVL816:
 6104 0000 182106E8 		e_stwu %r1,-24(%r1)
 6105              	.LCFI145:
 6106              		.cfi_def_cfa_offset 24
 6107 0004 0080     		se_mflr %r0
 6108 0006 1BA1090C 		e_stmw %r29,12(%r1)
 6109 000a D701     		se_stw %r0,28(%r1)
 6110              		.cfi_offset 65, 4
 6111              		.cfi_offset 29, -12
 6112              		.cfi_offset 30, -8
 6113              		.cfi_offset 31, -4
 6114              		.loc 1 1870 0
 6115 000c 013E     		se_mr %r30,%r3
 6116              		.loc 1 1875 0
 6117 000e 2254     		se_cmpli %r4,6
 6118 0010 7A11024C 		e_bgt %cr0,.L294
 6119 0014 6C24     		se_slwi %r4, 2
 6120              	.LVL817:
 6121 0016 70E0E000 		e_lis %r7,.L287@ha
 6122 001a 1CE70000 		e_la %r7,.L287@l(%r7)
 6123 001e 7CC7202E 		lwzx %r6,%r7,%r4
 6124 0022 7CE63A14 		add %r7,%r6,%r7
 6125 0026 00B7     		se_mtctr %r7
 6126              		.loc 1 1921 0
 6127 0028 0134     		se_mr %r4,%r3
 6128              		.loc 1 1875 0
 6129 002a 0006     		se_bctr
 6130              		.section	.rodata.AEK_POW_BMS63EN_SetGPIOModeAbsolute,"a",@progbits
 6131              		.align 2
 6132              		.align 2
 6133              	.L287:
 6134 0000 00000000 		.long .L286-.L287
 6135 0004 00000000 		.long .L288-.L287
 6136 0008 00000000 		.long .L289-.L287
 6137 000c 00000000 		.long .L290-.L287
 6138 0010 00000000 		.long .L291-.L287
 6139 0014 00000000 		.long .L292-.L287
 6140 0018 00000000 		.long .L293-.L287
 6141              		.section	.text.AEK_POW_BMS63EN_SetGPIOModeAbsolute
 6142              	.L292:
 6143              	.LVL818:
 6144              		.loc 1 1914 0
 6145 002c 4B95     		se_li %r5,57
 6146 002e 73E0E000 		e_lis %r31,AEK_POW_BMS63EN_Drv@ha
 6147              		.loc 1 1913 0
 6148 0032 4B9D     		se_li %r29,57
 6149              		.loc 1 1914 0
 6150 0034 1FFF0000 		e_la %r31,AEK_POW_BMS63EN_Drv@l(%r31)
 6151 0038 01F3     		se_mr %r3,%r31
 6152              	.LVL819:
 6153 003a 78000001 		e_bl AEK_POW_BMS63EN_SPIReadRegister
 6154              	.LVL820:
 6155              		.loc 1 1915 0
 6156 003e 01F3     		se_mr %r3,%r31
GAS LISTING C:\Users\Vipuls\AppData\Local\Temp\ccgvNFZ7.s 			page 109


 6157 0040 01E4     		se_mr %r4,%r30
 6158 0042 4B95     		se_li %r5,57
 6159 0044 78000001 		e_bl AEK_POW_BMS63EN_SPIReadRegister
 6160              	.LVL821:
 6161              		.loc 1 1916 0
 6162 0048 1866C6FD 		e_andi %r6,%r3,-131073
 6163              	.LVL822:
 6164              	.L285:
 6165              		.loc 1 1928 0
 6166 004c 01E4     		se_mr %r4,%r30
 6167 004e 01D5     		se_mr %r5,%r29
 6168 0050 73E0E000 		e_lis %r31,AEK_POW_BMS63EN_Drv@ha
 6169 0054 1FFF0000 		e_la %r31,AEK_POW_BMS63EN_Drv@l(%r31)
 6170 0058 01F3     		se_mr %r3,%r31
 6171 005a 78000001 		e_bl AEK_POW_BMS63EN_SPIWriteRegister
 6172              	.LVL823:
 6173              		.loc 1 1930 0
 6174 005e 01E4     		se_mr %r4,%r30
 6175 0060 01D5     		se_mr %r5,%r29
 6176 0062 01F3     		se_mr %r3,%r31
 6177 0064 78000001 		e_bl AEK_POW_BMS63EN_SPIReadRegister
 6178              	.LVL824:
 6179              		.loc 1 1932 0
 6180 0068 C701     		se_lwz %r0,28(%r1)
 6181              		.loc 1 1931 0
 6182 006a 01F3     		se_mr %r3,%r31
 6183 006c 01E4     		se_mr %r4,%r30
 6184 006e 01D5     		se_mr %r5,%r29
 6185              		.loc 1 1932 0
 6186 0070 0090     		se_mtlr %r0
 6187              		.cfi_remember_state
 6188              		.cfi_restore 65
 6189 0072 1BA1080C 		e_lmw %r29,12(%r1)
 6190              	.LVL825:
 6191 0076 2171     		se_addi %r1,24
 6192              	.LCFI146:
 6193              		.cfi_restore 31
 6194              		.cfi_restore 30
 6195              		.cfi_restore 29
 6196              		.cfi_def_cfa_offset 0
 6197              		.loc 1 1931 0
 6198 0078 78000000 		e_b AEK_POW_BMS63EN_SPIReadRegister
 6199              	.LVL826:
 6200              	.L293:
 6201              	.LCFI147:
 6202              		.cfi_restore_state
 6203              		.loc 1 1920 0
 6204 007c 4BAD     		se_li %r29,58
 6205              		.loc 1 1921 0
 6206 007e 4BA5     		se_li %r5,58
 6207 0080 73E0E000 		e_lis %r31,AEK_POW_BMS63EN_Drv@ha
 6208 0084 1FFF0000 		e_la %r31,AEK_POW_BMS63EN_Drv@l(%r31)
 6209 0088 01F3     		se_mr %r3,%r31
 6210              	.LVL827:
 6211 008a 78000001 		e_bl AEK_POW_BMS63EN_SPIReadRegister
 6212              	.LVL828:
 6213              		.loc 1 1922 0
GAS LISTING C:\Users\Vipuls\AppData\Local\Temp\ccgvNFZ7.s 			page 110


 6214 008e 01E4     		se_mr %r4,%r30
 6215 0090 01F3     		se_mr %r3,%r31
 6216 0092 4BA5     		se_li %r5,58
 6217              		.loc 1 1928 0
 6218 0094 73E0E000 		e_lis %r31,AEK_POW_BMS63EN_Drv@ha
 6219              		.loc 1 1922 0
 6220 0098 78000001 		e_bl AEK_POW_BMS63EN_SPIReadRegister
 6221              	.LVL829:
 6222              		.loc 1 1928 0
 6223 009c 1FFF0000 		e_la %r31,AEK_POW_BMS63EN_Drv@l(%r31)
 6224              		.loc 1 1923 0
 6225 00a0 1866C6FD 		e_andi %r6,%r3,-131073
 6226              	.LVL830:
 6227              		.loc 1 1928 0
 6228 00a4 01E4     		se_mr %r4,%r30
 6229 00a6 01D5     		se_mr %r5,%r29
 6230 00a8 01F3     		se_mr %r3,%r31
 6231 00aa 78000001 		e_bl AEK_POW_BMS63EN_SPIWriteRegister
 6232              	.LVL831:
 6233              		.loc 1 1930 0
 6234 00ae 01E4     		se_mr %r4,%r30
 6235 00b0 01D5     		se_mr %r5,%r29
 6236 00b2 01F3     		se_mr %r3,%r31
 6237 00b4 78000001 		e_bl AEK_POW_BMS63EN_SPIReadRegister
 6238              	.LVL832:
 6239              		.loc 1 1932 0
 6240 00b8 C701     		se_lwz %r0,28(%r1)
 6241              		.loc 1 1931 0
 6242 00ba 01F3     		se_mr %r3,%r31
 6243 00bc 01E4     		se_mr %r4,%r30
 6244 00be 01D5     		se_mr %r5,%r29
 6245              		.loc 1 1932 0
 6246 00c0 0090     		se_mtlr %r0
 6247              		.cfi_remember_state
 6248              		.cfi_restore 65
 6249 00c2 1BA1080C 		e_lmw %r29,12(%r1)
 6250              	.LVL833:
 6251 00c6 2171     		se_addi %r1,24
 6252              	.LCFI148:
 6253              		.cfi_restore 29
 6254              		.cfi_restore 30
 6255              		.cfi_restore 31
 6256              		.cfi_def_cfa_offset 0
 6257              		.loc 1 1931 0
 6258 00c8 78000000 		e_b AEK_POW_BMS63EN_SPIReadRegister
 6259              	.LVL834:
 6260              	.L286:
 6261              	.LCFI149:
 6262              		.cfi_restore_state
 6263              		.loc 1 1878 0
 6264 00cc 4B4D     		se_li %r29,52
 6265              		.loc 1 1879 0
 6266 00ce 4B45     		se_li %r5,52
 6267 00d0 73E0E000 		e_lis %r31,AEK_POW_BMS63EN_Drv@ha
 6268 00d4 1FFF0000 		e_la %r31,AEK_POW_BMS63EN_Drv@l(%r31)
 6269 00d8 01F3     		se_mr %r3,%r31
 6270              	.LVL835:
GAS LISTING C:\Users\Vipuls\AppData\Local\Temp\ccgvNFZ7.s 			page 111


 6271 00da 78000001 		e_bl AEK_POW_BMS63EN_SPIReadRegister
 6272              	.LVL836:
 6273              		.loc 1 1880 0
 6274 00de 01E4     		se_mr %r4,%r30
 6275 00e0 01F3     		se_mr %r3,%r31
 6276 00e2 4B45     		se_li %r5,52
 6277              		.loc 1 1928 0
 6278 00e4 73E0E000 		e_lis %r31,AEK_POW_BMS63EN_Drv@ha
 6279              		.loc 1 1880 0
 6280 00e8 78000001 		e_bl AEK_POW_BMS63EN_SPIReadRegister
 6281              	.LVL837:
 6282              		.loc 1 1928 0
 6283 00ec 1FFF0000 		e_la %r31,AEK_POW_BMS63EN_Drv@l(%r31)
 6284              		.loc 1 1881 0
 6285 00f0 1866C6FD 		e_andi %r6,%r3,-131073
 6286              	.LVL838:
 6287              		.loc 1 1928 0
 6288 00f4 01E4     		se_mr %r4,%r30
 6289 00f6 01D5     		se_mr %r5,%r29
 6290 00f8 01F3     		se_mr %r3,%r31
 6291 00fa 78000001 		e_bl AEK_POW_BMS63EN_SPIWriteRegister
 6292              	.LVL839:
 6293              		.loc 1 1930 0
 6294 00fe 01E4     		se_mr %r4,%r30
 6295 0100 01D5     		se_mr %r5,%r29
 6296 0102 01F3     		se_mr %r3,%r31
 6297 0104 78000001 		e_bl AEK_POW_BMS63EN_SPIReadRegister
 6298              	.LVL840:
 6299              		.loc 1 1932 0
 6300 0108 C701     		se_lwz %r0,28(%r1)
