GAS LISTING C:\Users\Vipuls\AppData\Local\Temp\cc0qwWn7.s 			page 1


   1              		.file	"AEK_POW_BMS63EN_diag.c"
   2              		.section	".text","axv"
   3              	.Ltext0:
   4              		.cfi_sections	.debug_frame
   5              		.section	.text.AEK_POW_BMS63EN_EnableGPIOOpenOnDemandDiagnostic,"axv",@progbits
   6              		.align 1
   7              		.p2align 4,,15
   8              		.globl AEK_POW_BMS63EN_EnableGPIOOpenOnDemandDiagnostic
   9              		.type	AEK_POW_BMS63EN_EnableGPIOOpenOnDemandDiagnostic, @function
  10              	AEK_POW_BMS63EN_EnableGPIOOpenOnDemandDiagnostic:
  11              	.LFB3:
  12              		.file 1 "./components/aek_pow_bms63en_component_rla/lib/src/AEK_POW_BMS63EN_diag.c"
  13              		.loc 1 75 0
  14              		.cfi_startproc
  15              	.LVL0:
  16 0000 182106F0 		e_stwu %r1,-16(%r1)
  17              	.LCFI0:
  18              		.cfi_def_cfa_offset 16
  19 0004 0080     		se_mflr %r0
  20 0006 1BC10908 		e_stmw %r30,8(%r1)
  21 000a D501     		se_stw %r0,20(%r1)
  22              		.cfi_offset 65, 4
  23              		.cfi_offset 30, -8
  24              		.cfi_offset 31, -4
  25              		.loc 1 75 0
  26 000c 013E     		se_mr %r30,%r3
  27              		.loc 1 80 0
  28 000e 0134     		se_mr %r4,%r3
  29 0010 48D5     		se_li %r5,13
  30 0012 73E0E000 		e_lis %r31,AEK_POW_BMS63EN_Drv@ha
  31 0016 1FFF0000 		e_la %r31,AEK_POW_BMS63EN_Drv@l(%r31)
  32 001a 01F3     		se_mr %r3,%r31
  33              	.LVL1:
  34 001c 78000001 		e_bl AEK_POW_BMS63EN_SPIReadRegister
  35              	.LVL2:
  36              		.loc 1 81 0
  37 0020 01E4     		se_mr %r4,%r30
  38 0022 01F3     		se_mr %r3,%r31
  39 0024 48D5     		se_li %r5,13
  40 0026 78000001 		e_bl AEK_POW_BMS63EN_SPIReadRegister
  41              	.LVL3:
  42              		.loc 1 86 0
  43 002a C501     		se_lwz %r0,20(%r1)
  44              		.loc 1 83 0
  45 002c 0136     		se_mr %r6,%r3
  46              		.loc 1 84 0
  47 002e 01E4     		se_mr %r4,%r30
  48 0030 01F3     		se_mr %r3,%r31
  49              	.LVL4:
  50              		.loc 1 83 0
  51 0032 70D0C080 		e_or2i %r6,32896
  52              	.LVL5:
  53              		.loc 1 86 0
  54 0036 1BC10808 		e_lmw %r30,8(%r1)
  55              	.LVL6:
  56              		.loc 1 84 0
  57 003a 48D5     		se_li %r5,13
GAS LISTING C:\Users\Vipuls\AppData\Local\Temp\cc0qwWn7.s 			page 2


  58              		.loc 1 86 0
  59 003c 0090     		se_mtlr %r0
  60              		.cfi_restore 65
  61 003e 20F1     		se_addi %r1,16
  62              	.LCFI1:
  63              		.cfi_restore 31
  64              		.cfi_restore 30
  65              		.cfi_def_cfa_offset 0
  66              		.loc 1 84 0
  67 0040 78000000 		e_b AEK_POW_BMS63EN_SPIWriteRegister
  68              	.LVL7:
  69              		.cfi_endproc
  70              	.LFE3:
  71              		.size	AEK_POW_BMS63EN_EnableGPIOOpenOnDemandDiagnostic, .-AEK_POW_BMS63EN_EnableGPIOOpenOnDemandDi
  72              		.section	.text.AEK_POW_BMS63EN_PCBOpenDiagnostic,"axv",@progbits
  73              		.align 1
  74              		.p2align 4,,15
  75              		.globl AEK_POW_BMS63EN_PCBOpenDiagnostic
  76              		.type	AEK_POW_BMS63EN_PCBOpenDiagnostic, @function
  77              	AEK_POW_BMS63EN_PCBOpenDiagnostic:
  78              	.LFB4:
  79              		.loc 1 92 0
  80              		.cfi_startproc
  81              	.LVL8:
  82 0000 18210698 		e_stwu %r1,-104(%r1)
  83              	.LCFI2:
  84              		.cfi_def_cfa_offset 104
  85 0004 0080     		se_mflr %r0
  86 0006 1B010948 		e_stmw %r24,72(%r1)
  87 000a 7C674070 		e_slwi %r7,%r3,8
  88 000e 5401006C 		e_stw %r0,108(%r1)
  89              		.cfi_offset 65, 4
  90              		.cfi_offset 24, -32
  91              		.cfi_offset 25, -28
  92              		.cfi_offset 26, -24
  93              		.cfi_offset 27, -20
  94              		.cfi_offset 28, -16
  95              		.cfi_offset 29, -12
  96              		.cfi_offset 30, -8
  97              		.cfi_offset 31, -4
  98 0012 7C7C2870 		e_slwi %r28,%r3,5
  99              		.loc 1 92 0
 100 0016 014B     		se_mr %r27,%r4
 101 0018 077C     		se_subf %r28, %r7
 102              		.loc 1 102 0
 103 001a 48E5     		se_li %r5,14
 104              		.loc 1 101 0
 105 001c 70E0E000 		e_lis %r7,AEK_POW_BMS63EN_Drv@ha
 106              		.loc 1 92 0
 107 0020 013D     		se_mr %r29,%r3
 108              		.loc 1 101 0
 109 0022 53E70000 		e_lwz %r31,AEK_POW_BMS63EN_Drv@l(%r7)
 110 0026 1B9C8420 		e_addi %r28,%r28,-224
 111 002a 4804     		se_li %r4,0
 112              	.LVL9:
 113 002c 4807     		se_li %r7,0
 114              		.loc 1 98 0
GAS LISTING C:\Users\Vipuls\AppData\Local\Temp\cc0qwWn7.s 			page 3


 115 002e 4806     		se_li %r6,0
 116              		.loc 1 102 0
 117 0030 4810     		se_li %r0,1
 118 0032 00B5     		se_mtctr %r5
 119 0034 7800001C 		e_b .L5
 120              	.LVL10:
 121              	.L29:
 122              		.loc 1 101 0
 123 0038 C135     		se_lwz %r3,4(%r5)
 124 003a 2A03     		se_cmpi %r3,0
 125 003c 7A12000C 		e_beq %cr0,.L4
 126              		.loc 1 102 0
 127 0040 7C033830 		slw %r3,%r0,%r7
 128              		.loc 1 103 0
 129 0044 D205     		se_stw %r0,8(%r5)
 130              		.loc 1 102 0
 131 0046 4436     		se_or %r6,%r3
 132              	.LVL11:
 133              	.L4:
 134 0048 2007     		se_addi %r7,1
 135              	.LVL12:
 136 004a 20F4     		se_addi %r4,16
 137              		.loc 1 99 0 discriminator 2
 138 004c 7A30001E 		e_bdz .L28
 139              	.LVL13:
 140              	.L5:
 141              		.loc 1 101 0
 142 0050 C15F     		se_lwz %r5,4(%r31)
 143              		.loc 1 100 0
 144 0052 18E3C801 		e_andi. %r3,%r7,1
 145              		.loc 1 101 0
 146 0056 C255     		se_lwz %r5,8(%r5)
 147 0058 04C5     		se_add %r5,%r28
 148 005a 0445     		se_add %r5,%r4
 149              		.loc 1 100 0
 150 005c 7A02FFDC 		e_bne %cr0,.L29
 151              		.loc 1 106 0
 152 0060 D235     		se_stw %r3,8(%r5)
 153              	.LVL14:
 154 0062 2007     		se_addi %r7,1
 155              	.LVL15:
 156 0064 20F4     		se_addi %r4,16
 157              		.loc 1 99 0
 158 0066 7A20FFEA 		e_bdnz .L5
 159              	.LVL16:
 160              	.L28:
 161              		.loc 1 110 0
 162 006a 01D4     		se_mr %r4,%r29
 163 006c 49C5     		se_li %r5,28
 164 006e 1B418008 		e_addi %r26,%r1,8
 165 0072 73E0E000 		e_lis %r31,AEK_POW_BMS63EN_Drv@ha
 166 0076 1FFF0000 		e_la %r31,AEK_POW_BMS63EN_Drv@l(%r31)
 167 007a 01F3     		se_mr %r3,%r31
 168 007c 78000001 		e_bl AEK_POW_BMS63EN_SPIWriteRegister
 169              	.LVL17:
 170              		.loc 1 114 0
 171 0080 01F3     		se_mr %r3,%r31
GAS LISTING C:\Users\Vipuls\AppData\Local\Temp\cc0qwWn7.s 			page 4


 172 0082 01D4     		se_mr %r4,%r29
 173 0084 48D5     		se_li %r5,13
 174 0086 78000001 		e_bl AEK_POW_BMS63EN_SPIReadRegister
 175              	.LVL18:
 176              		.loc 1 115 0
 177 008a 01F3     		se_mr %r3,%r31
 178 008c 01D4     		se_mr %r4,%r29
 179 008e 48D5     		se_li %r5,13
 180 0090 78000001 		e_bl AEK_POW_BMS63EN_SPIReadRegister
 181              	.LVL19:
 182              		.loc 1 117 0
 183 0094 01D4     		se_mr %r4,%r29
 184              		.loc 1 116 0
 185 0096 1866D180 		e_ori %r6,%r3,32768
 186              	.LVL20:
 187              		.loc 1 117 0
 188 009a 48D5     		se_li %r5,13
 189 009c 01F3     		se_mr %r3,%r31
 190 009e 78000001 		e_bl AEK_POW_BMS63EN_SPIWriteRegister
 191              	.LVL21:
 192              		.loc 1 121 0
 193 00a2 706000C8 		e_li %r3,200
 194 00a6 78000001 		e_bl osalThreadDelayMilliseconds
 195              	.LVL22:
 196              		.loc 1 125 0
 197 00aa 01F3     		se_mr %r3,%r31
 198 00ac 01D4     		se_mr %r4,%r29
 199 00ae 4F85     		se_li %r5,120
 200 00b0 73E0E000 		e_lis %r31,.LANCHOR0@ha
 201 00b4 1FFF0000 		e_la %r31,.LANCHOR0@l(%r31)
 202 00b8 01F6     		se_mr %r6,%r31
 203 00ba 1BDF84FC 		e_addi %r30,%r31,-4
 204 00be 78000001 		e_bl AEK_POW_BMS63EN_SPIBurstAccess
 205              	.LVL23:
 206 00c2 1BFF8034 		e_addi %r31,%r31,52
 207              		.loc 1 130 0
 208 00c6 48E7     		se_li %r7,14
 209              		.loc 1 125 0
 210 00c8 01A6     		se_mr %r6,%r26
 211 00ca 01E5     		se_mr %r5,%r30
 212              		.loc 1 130 0
 213 00cc 2D04     		se_bmaski %r4,16
 214 00ce 00B7     		se_mtctr %r7
 215 00d0 78000010 		e_b .L8
 216              	.LVL24:
 217              	.L31:
 218 00d4 4647     		se_and %r7,%r4
 219 00d6 2036     		se_addi %r6,4
 220 00d8 54E6FFFC 		e_stw %r7,-4(%r6)
 221              		.loc 1 127 0
 222 00dc 7A300016 		e_bdz .L30
 223              	.L8:
 224              		.loc 1 128 0
 225 00e0 18E50204 		e_lwzu %r7,4(%r5)
 226 00e4 2A07     		se_cmpi %r7,0
 227 00e6 7A02FFEE 		e_bne %cr0,.L31
 228              		.loc 1 132 0
GAS LISTING C:\Users\Vipuls\AppData\Local\Temp\cc0qwWn7.s 			page 5


 229 00ea D076     		se_stw %r7,0(%r6)
 230 00ec 2036     		se_addi %r6,4
 231              		.loc 1 127 0
 232 00ee 7A20FFF2 		e_bdnz .L8
 233              	.L30:
 234              		.loc 1 138 0
 235 00f2 706000C8 		e_li %r3,200
 236              		.loc 1 142 0
 237 00f6 7300E000 		e_lis %r24,AEK_POW_BMS63EN_Drv@ha
 238              		.loc 1 138 0
 239 00fa 78000001 		e_bl osalThreadDelayMilliseconds
 240              	.LVL25:
 241              		.loc 1 142 0
 242 00fe 1F380000 		e_la %r25,AEK_POW_BMS63EN_Drv@l(%r24)
 243 0102 01D4     		se_mr %r4,%r29
 244 0104 0193     		se_mr %r3,%r25
 245 0106 48E5     		se_li %r5,14
 246 0108 78000001 		e_bl AEK_POW_BMS63EN_SPIReadRegister
 247              	.LVL26:
 248              		.loc 1 143 0
 249 010c 0193     		se_mr %r3,%r25
 250 010e 01D4     		se_mr %r4,%r29
 251 0110 48E5     		se_li %r5,14
 252 0112 78000001 		e_bl AEK_POW_BMS63EN_SPIReadRegister
 253              	.LVL27:
 254              		.loc 1 146 0
 255 0116 01D4     		se_mr %r4,%r29
 256 0118 48E5     		se_li %r5,14
 257              		.loc 1 145 0
 258 011a 1866C4FB 		e_andi %r6,%r3,-5
 259              	.LVL28:
 260              		.loc 1 146 0
 261 011e 0193     		se_mr %r3,%r25
 262 0120 65E6     		se_bseti %r6,30
 263              	.LVL29:
 264 0122 78000001 		e_bl AEK_POW_BMS63EN_SPIWriteRegister
 265              	.LVL30:
 266              		.loc 1 150 0
 267 0126 706000FA 		e_li %r3,250
 268 012a 78000001 		e_bl osalThreadDelayMilliseconds
 269              	.LVL31:
 270              		.loc 1 154 0
 271 012e 0193     		se_mr %r3,%r25
 272 0130 01D4     		se_mr %r4,%r29
 273 0132 48D5     		se_li %r5,13
 274 0134 78000001 		e_bl AEK_POW_BMS63EN_SPIReadRegister
 275              	.LVL32:
 276              		.loc 1 155 0
 277 0138 0193     		se_mr %r3,%r25
 278 013a 01D4     		se_mr %r4,%r29
 279 013c 48D5     		se_li %r5,13
 280 013e 78000001 		e_bl AEK_POW_BMS63EN_SPIReadRegister
 281              	.LVL33:
 282              		.loc 1 157 0
 283 0142 01D4     		se_mr %r4,%r29
 284              		.loc 1 156 0
 285 0144 1866D180 		e_ori %r6,%r3,32768
GAS LISTING C:\Users\Vipuls\AppData\Local\Temp\cc0qwWn7.s 			page 6


 286              	.LVL34:
 287              		.loc 1 157 0
 288 0148 48D5     		se_li %r5,13
 289 014a 0193     		se_mr %r3,%r25
 290 014c 78000001 		e_bl AEK_POW_BMS63EN_SPIWriteRegister
 291              	.LVL35:
 292              		.loc 1 161 0
 293 0150 706000C8 		e_li %r3,200
 294 0154 78000001 		e_bl osalThreadDelayMilliseconds
 295              	.LVL36:
 296              		.loc 1 165 0
 297 0158 0193     		se_mr %r3,%r25
 298 015a 01D4     		se_mr %r4,%r29
 299 015c 4F85     		se_li %r5,120
 300 015e 70C0E000 		e_lis %r6,.LANCHOR0@ha
 301 0162 1CC60000 		e_la %r6,.LANCHOR0@l(%r6)
 302 0166 78000001 		e_bl AEK_POW_BMS63EN_SPIBurstAccess
 303              	.LVL37:
 304              		.loc 1 169 0
 305 016a 4E43     		se_li %r3,100
 306 016c 78000001 		e_bl osalThreadDelayMilliseconds
 307              	.LVL38:
 308              		.loc 1 173 0
 309 0170 0193     		se_mr %r3,%r25
 310 0172 01D4     		se_mr %r4,%r29
 311 0174 48E5     		se_li %r5,14
 312 0176 78000001 		e_bl AEK_POW_BMS63EN_SPIReadRegister
 313              	.LVL39:
 314              		.loc 1 174 0
 315 017a 0193     		se_mr %r3,%r25
 316 017c 01D4     		se_mr %r4,%r29
 317 017e 48E5     		se_li %r5,14
 318 0180 78000001 		e_bl AEK_POW_BMS63EN_SPIReadRegister
 319              	.LVL40:
 320              		.loc 1 176 0
 321 0184 01D4     		se_mr %r4,%r29
 322              		.loc 1 175 0
 323 0186 1866C4FD 		e_andi %r6,%r3,-3
 324              	.LVL41:
 325              		.loc 1 176 0
 326 018a 48E5     		se_li %r5,14
 327 018c 0193     		se_mr %r3,%r25
 328              		.loc 1 185 0
 329 018e 4829     		se_li %r25,2
 330              		.loc 1 176 0
 331 0190 78000001 		e_bl AEK_POW_BMS63EN_SPIWriteRegister
 332              	.LVL42:
 333 0194 50F80000 		e_lwz %r7,AEK_POW_BMS63EN_Drv@l(%r24)
 334 0198 02A3     		se_mtar %r11,%r26
 335 019a C177     		se_lwz %r7,4(%r7)
 336 019c 01E6     		se_mr %r6,%r30
 337 019e C277     		se_lwz %r7,8(%r7)
 338              		.loc 1 184 0
 339 01a0 2D00     		se_bmaski %r0,16
 340 01a2 04C7     		se_add %r7,%r28
 341              		.loc 1 187 0
 342 01a4 71200001 		e_li %r9,1
GAS LISTING C:\Users\Vipuls\AppData\Local\Temp\cc0qwWn7.s 			page 7


 343 01a8 1867800C 		e_addi %r3,%r7,12
 344 01ac 78000012 		e_b .L11
 345              	.LVL43:
 346              	.L33:
 347              		.loc 1 185 0
 348 01b0 D093     		se_stw %r25,0(%r3)
 349              	.L9:
 350 01b2 20F3     		se_addi %r3,16
 351 01b4 196B8004 		e_addi %r11,%r11,4
 352              		.loc 1 181 0 discriminator 2
 353 01b8 0D6F     		se_cmpl %r31,%r6
 354 01ba 7A12002C 		e_beq %cr0,.L32
 355              	.L11:
 356              		.loc 1 182 0
 357 01be 18A60204 		e_lwzu %r5,4(%r6)
 358 01c2 2A05     		se_cmpi %r5,0
 359 01c4 7A12FFEE 		e_beq %cr0,.L9
 360              		.loc 1 184 0
 361 01c8 508B0000 		e_lwz %r4,0(%r11)
 362 01cc 4605     		se_and %r5,%r0
 363 01ce 0745     		se_subf %r5, %r4
 364 01d0 0DB5     		se_cmpl %r5,%r27
 365 01d2 7A01FFDE 		e_ble %cr0,.L33
 366              		.loc 1 187 0
 367 01d6 55230000 		e_stw %r9,0(%r3)
 368 01da 196B8004 		e_addi %r11,%r11,4
 369 01de 20F3     		se_addi %r3,16
 370              		.loc 1 181 0
 371 01e0 0D6F     		se_cmpl %r31,%r6
 372 01e2 7A02FFDC 		e_bne %cr0,.L11
 373              	.L32:
 374              		.loc 1 198 0
 375 01e6 48E4     		se_li %r4,14
 376 01e8 2077     		se_addi %r7,8
 377              		.loc 1 181 0
 378 01ea 4805     		se_li %r5,0
 379 01ec 4806     		se_li %r6,0
 380              		.loc 1 202 0
 381 01ee 4800     		se_li %r0,0
 382              		.loc 1 198 0
 383 01f0 4813     		se_li %r3,1
 384 01f2 00B4     		se_mtctr %r4
 385 01f4 7800001E 		e_b .L14
 386              	.LVL44:
 387              	.L35:
 388              		.loc 1 197 0
 389 01f8 5087FFFC 		e_lwz %r4,-4(%r7)
 390 01fc 2A04     		se_cmpi %r4,0
 391 01fe 7A12000C 		e_beq %cr0,.L13
 392              		.loc 1 198 0
 393 0202 7C642830 		slw %r4,%r3,%r5
 394              		.loc 1 199 0
 395 0206 D037     		se_stw %r3,0(%r7)
 396              		.loc 1 198 0
 397 0208 4446     		se_or %r6,%r4
 398              	.LVL45:
 399              	.L13:
GAS LISTING C:\Users\Vipuls\AppData\Local\Temp\cc0qwWn7.s 			page 8


 400 020a 2005     		se_addi %r5,1
 401              	.LVL46:
 402 020c 20F7     		se_addi %r7,16
 403              		.loc 1 195 0 discriminator 2
 404 020e 7A300014 		e_bdz .L34
 405              	.LVL47:
 406              	.L14:
 407              		.loc 1 196 0
 408 0212 67F5     		se_btsti %r5,31
 409 0214 7A12FFE4 		e_beq %cr0,.L35
 410              		.loc 1 202 0
 411 0218 D007     		se_stw %r0,0(%r7)
 412              	.LVL48:
 413 021a 2005     		se_addi %r5,1
 414              	.LVL49:
 415 021c 20F7     		se_addi %r7,16
 416              		.loc 1 195 0
 417 021e 7A20FFF4 		e_bdnz .L14
 418              	.LVL50:
 419              	.L34:
 420              		.loc 1 206 0
 421 0222 01D4     		se_mr %r4,%r29
 422 0224 49C5     		se_li %r5,28
 423 0226 7320E000 		e_lis %r25,AEK_POW_BMS63EN_Drv@ha
 424 022a 1F390000 		e_la %r25,AEK_POW_BMS63EN_Drv@l(%r25)
 425 022e 0193     		se_mr %r3,%r25
 426 0230 78000001 		e_bl AEK_POW_BMS63EN_SPIWriteRegister
 427              	.LVL51:
 428              		.loc 1 210 0
 429 0234 01D4     		se_mr %r4,%r29
 430 0236 48D5     		se_li %r5,13
 431 0238 0193     		se_mr %r3,%r25
 432 023a 78000001 		e_bl AEK_POW_BMS63EN_SPIReadRegister
 433              	.LVL52:
 434              		.loc 1 211 0
 435 023e 01D4     		se_mr %r4,%r29
 436 0240 48D5     		se_li %r5,13
 437 0242 0193     		se_mr %r3,%r25
 438 0244 78000001 		e_bl AEK_POW_BMS63EN_SPIReadRegister
 439              	.LVL53:
 440              		.loc 1 213 0
 441 0248 01D4     		se_mr %r4,%r29
 442              		.loc 1 212 0
 443 024a 1866D180 		e_ori %r6,%r3,32768
 444              	.LVL54:
 445              		.loc 1 213 0
 446 024e 48D5     		se_li %r5,13
 447 0250 0193     		se_mr %r3,%r25
 448 0252 78000001 		e_bl AEK_POW_BMS63EN_SPIWriteRegister
 449              	.LVL55:
 450              		.loc 1 217 0
 451 0256 706000C8 		e_li %r3,200
 452 025a 78000001 		e_bl osalThreadDelayMilliseconds
 453              	.LVL56:
 454              		.loc 1 221 0
 455 025e 01D4     		se_mr %r4,%r29
 456 0260 4F85     		se_li %r5,120
GAS LISTING C:\Users\Vipuls\AppData\Local\Temp\cc0qwWn7.s 			page 9


 457 0262 0193     		se_mr %r3,%r25
 458 0264 70C0E000 		e_lis %r6,.LANCHOR0@ha
 459 0268 1CC60000 		e_la %r6,.LANCHOR0@l(%r6)
 460 026c 78000001 		e_bl AEK_POW_BMS63EN_SPIBurstAccess
 461              	.LVL57:
 462 0270 01A5     		se_mr %r5,%r26
 463 0272 01E6     		se_mr %r6,%r30
 464              		.loc 1 226 0
 465 0274 2D04     		se_bmaski %r4,16
 466 0276 78000012 		e_b .L17
 467              	.LVL58:
 468              	.L37:
 469 027a 4647     		se_and %r7,%r4
 470 027c 2035     		se_addi %r5,4
 471 027e 54E5FFFC 		e_stw %r7,-4(%r5)
 472              		.loc 1 223 0
 473 0282 0D6F     		se_cmpl %r31,%r6
 474 0284 7A120018 		e_beq %cr0,.L36
 475              	.L17:
 476              		.loc 1 224 0
 477 0288 18E60204 		e_lwzu %r7,4(%r6)
 478 028c 2A07     		se_cmpi %r7,0
 479 028e 7A02FFEC 		e_bne %cr0,.L37
 480              		.loc 1 228 0
 481 0292 D075     		se_stw %r7,0(%r5)
 482              		.loc 1 223 0
 483 0294 0D6F     		se_cmpl %r31,%r6
 484 0296 2035     		se_addi %r5,4
 485 0298 7A02FFF0 		e_bne %cr0,.L17
 486              	.L36:
 487              		.loc 1 234 0
 488 029c 706000C8 		e_li %r3,200
 489              		.loc 1 238 0
 490 02a0 7300E000 		e_lis %r24,AEK_POW_BMS63EN_Drv@ha
 491              		.loc 1 234 0
 492 02a4 78000001 		e_bl osalThreadDelayMilliseconds
 493              	.LVL59:
 494              		.loc 1 238 0
 495 02a8 1F380000 		e_la %r25,AEK_POW_BMS63EN_Drv@l(%r24)
 496 02ac 01D4     		se_mr %r4,%r29
 497 02ae 48E5     		se_li %r5,14
 498 02b0 0193     		se_mr %r3,%r25
 499 02b2 78000001 		e_bl AEK_POW_BMS63EN_SPIReadRegister
 500              	.LVL60:
 501              		.loc 1 239 0
 502 02b6 01D4     		se_mr %r4,%r29
 503 02b8 48E5     		se_li %r5,14
 504 02ba 0193     		se_mr %r3,%r25
 505 02bc 78000001 		e_bl AEK_POW_BMS63EN_SPIReadRegister
 506              	.LVL61:
 507              		.loc 1 242 0
 508 02c0 01D4     		se_mr %r4,%r29
 509 02c2 48E5     		se_li %r5,14
 510              		.loc 1 240 0
 511 02c4 1866C4FD 		e_andi %r6,%r3,-3
 512              	.LVL62:
 513              		.loc 1 242 0
GAS LISTING C:\Users\Vipuls\AppData\Local\Temp\cc0qwWn7.s 			page 10


 514 02c8 0193     		se_mr %r3,%r25
 515 02ca 65D6     		se_bseti %r6,29
 516              	.LVL63:
 517 02cc 78000001 		e_bl AEK_POW_BMS63EN_SPIWriteRegister
 518              	.LVL64:
 519              		.loc 1 246 0
 520 02d0 706000FA 		e_li %r3,250
 521 02d4 78000001 		e_bl osalThreadDelayMilliseconds
 522              	.LVL65:
 523              		.loc 1 250 0
 524 02d8 01D4     		se_mr %r4,%r29
 525 02da 48D5     		se_li %r5,13
 526 02dc 0193     		se_mr %r3,%r25
 527 02de 78000001 		e_bl AEK_POW_BMS63EN_SPIReadRegister
 528              	.LVL66:
 529              		.loc 1 251 0
 530 02e2 01D4     		se_mr %r4,%r29
 531 02e4 48D5     		se_li %r5,13
 532 02e6 0193     		se_mr %r3,%r25
 533 02e8 78000001 		e_bl AEK_POW_BMS63EN_SPIReadRegister
 534              	.LVL67:
 535              		.loc 1 253 0
 536 02ec 01D4     		se_mr %r4,%r29
 537              		.loc 1 252 0
 538 02ee 1866D180 		e_ori %r6,%r3,32768
 539              	.LVL68:
 540              		.loc 1 253 0
 541 02f2 48D5     		se_li %r5,13
 542 02f4 0193     		se_mr %r3,%r25
 543 02f6 78000001 		e_bl AEK_POW_BMS63EN_SPIWriteRegister
 544              	.LVL69:
 545              		.loc 1 257 0
 546 02fa 706000C8 		e_li %r3,200
 547 02fe 78000001 		e_bl osalThreadDelayMilliseconds
 548              	.LVL70:
 549              		.loc 1 261 0
 550 0302 01D4     		se_mr %r4,%r29
 551 0304 4F85     		se_li %r5,120
 552 0306 0193     		se_mr %r3,%r25
 553 0308 70C0E000 		e_lis %r6,.LANCHOR0@ha
 554 030c 1CC60000 		e_la %r6,.LANCHOR0@l(%r6)
 555 0310 78000001 		e_bl AEK_POW_BMS63EN_SPIBurstAccess
 556              	.LVL71:
 557              		.loc 1 265 0
 558 0314 4E43     		se_li %r3,100
 559 0316 78000001 		e_bl osalThreadDelayMilliseconds
 560              	.LVL72:
 561              		.loc 1 269 0
 562 031a 01D4     		se_mr %r4,%r29
 563 031c 48E5     		se_li %r5,14
 564 031e 0193     		se_mr %r3,%r25
 565 0320 78000001 		e_bl AEK_POW_BMS63EN_SPIReadRegister
 566              	.LVL73:
 567              		.loc 1 270 0
 568 0324 01D4     		se_mr %r4,%r29
 569 0326 48E5     		se_li %r5,14
 570 0328 0193     		se_mr %r3,%r25
GAS LISTING C:\Users\Vipuls\AppData\Local\Temp\cc0qwWn7.s 			page 11


 571 032a 78000001 		e_bl AEK_POW_BMS63EN_SPIReadRegister
 572              	.LVL74:
 573              		.loc 1 272 0
 574 032e 01D4     		se_mr %r4,%r29
 575              		.loc 1 271 0
 576 0330 1866C4FB 		e_andi %r6,%r3,-5
 577              	.LVL75:
 578              		.loc 1 272 0
 579 0334 48E5     		se_li %r5,14
 580 0336 0193     		se_mr %r3,%r25
 581              		.loc 1 283 0
 582 0338 481D     		se_li %r29,1
 583              	.LVL76:
 584              		.loc 1 272 0
 585 033a 78000001 		e_bl AEK_POW_BMS63EN_SPIWriteRegister
 586              	.LVL77:
 587              		.loc 1 281 0
 588 033e 50780000 		e_lwz %r3,AEK_POW_BMS63EN_Drv@l(%r24)
 589 0342 4805     		se_li %r5,0
 590              		.loc 1 280 0
 591 0344 2D04     		se_bmaski %r4,16
 592              		.loc 1 281 0
 593 0346 4820     		se_li %r0,2
 594 0348 78000010 		e_b .L20
 595              	.LVL78:
 596              	.L39:
 597 034c D307     		se_stw %r0,12(%r7)
 598              	.L18:
 599 034e 20F5     		se_addi %r5,16
 600 0350 203A     		se_addi %r26,4
 601              		.loc 1 277 0 discriminator 2
 602 0352 0DFE     		se_cmpl %r30,%r31
 603 0354 7A12002E 		e_beq %cr0,.L38
 604              	.L20:
 605              		.loc 1 278 0
 606 0358 18FE0204 		e_lwzu %r7,4(%r30)
 607 035c 2A07     		se_cmpi %r7,0
 608 035e 7A12FFF0 		e_beq %cr0,.L18
 609              		.loc 1 280 0
 610 0362 C06A     		se_lwz %r6,0(%r26)
 611 0364 4647     		se_and %r7,%r4
 612 0366 0767     		se_subf %r7, %r6
 613 0368 0DB7     		se_cmpl %r7,%r27
 614              		.loc 1 281 0
 615 036a C173     		se_lwz %r7,4(%r3)
 616 036c C277     		se_lwz %r7,8(%r7)
 617 036e 04C7     		se_add %r7,%r28
 618 0370 0457     		se_add %r7,%r5
 619              		.loc 1 280 0
 620 0372 7A01FFDA 		e_ble %cr0,.L39
 621              		.loc 1 283 0
 622 0376 D3D7     		se_stw %r29,12(%r7)
 623 0378 20F5     		se_addi %r5,16
 624 037a 203A     		se_addi %r26,4
 625              		.loc 1 277 0
 626 037c 0DFE     		se_cmpl %r30,%r31
 627 037e 7A02FFDA 		e_bne %cr0,.L20
GAS LISTING C:\Users\Vipuls\AppData\Local\Temp\cc0qwWn7.s 			page 12


 628              	.L38:
 629              		.loc 1 289 0
 630 0382 5001006C 		e_lwz %r0,108(%r1)
 631 0386 0090     		se_mtlr %r0
 632              		.cfi_restore 65
 633 0388 1B010848 		e_lmw %r24,72(%r1)
 634 038c 18218068 		e_addi %r1,%r1,104
 635              	.LCFI3:
 636              		.cfi_restore 31
 637              		.cfi_restore 30
 638              		.cfi_restore 29
 639              		.cfi_restore 28
 640              		.cfi_restore 27
 641              		.cfi_restore 26
 642              		.cfi_restore 25
 643              		.cfi_restore 24
 644              		.cfi_def_cfa_offset 0
 645 0390 0004     		se_blr
 646              		.cfi_endproc
 647              	.LFE4:
 648              		.size	AEK_POW_BMS63EN_PCBOpenDiagnostic, .-AEK_POW_BMS63EN_PCBOpenDiagnostic
 649              		.section	.text.AEK_POW_BMS63EN_GetCellOpen,"axv",@progbits
 650              		.align 1
 651              		.p2align 4,,15
 652              		.globl AEK_POW_BMS63EN_GetCellOpen
 653              		.type	AEK_POW_BMS63EN_GetCellOpen, @function
 654              	AEK_POW_BMS63EN_GetCellOpen:
 655              	.LFB5:
 656              		.loc 1 297 0
 657              		.cfi_startproc
 658              	.LVL79:
 659 0000 182106F0 		e_stwu %r1,-16(%r1)
 660              	.LCFI4:
 661              		.cfi_def_cfa_offset 16
 662 0004 0080     		se_mflr %r0
 663 0006 1BC10908 		e_stmw %r30,8(%r1)
 664 000a D501     		se_stw %r0,20(%r1)
 665              		.cfi_offset 65, 4
 666              		.cfi_offset 30, -8
 667              		.cfi_offset 31, -4
 668              		.loc 1 297 0
 669 000c 013E     		se_mr %r30,%r3
 670              		.loc 1 300 0
 671 000e 0134     		se_mr %r4,%r3
 672 0010 4C25     		se_li %r5,66
 673 0012 73E0E000 		e_lis %r31,AEK_POW_BMS63EN_Drv@ha
 674 0016 1FFF0000 		e_la %r31,AEK_POW_BMS63EN_Drv@l(%r31)
 675 001a 01F3     		se_mr %r3,%r31
 676              	.LVL80:
 677 001c 78000001 		e_bl AEK_POW_BMS63EN_SPIReadRegister
 678              	.LVL81:
 679              		.loc 1 304 0
 680 0020 C501     		se_lwz %r0,20(%r1)
 681              		.loc 1 301 0
 682 0022 01F3     		se_mr %r3,%r31
 683 0024 01E4     		se_mr %r4,%r30
 684 0026 4C25     		se_li %r5,66
GAS LISTING C:\Users\Vipuls\AppData\Local\Temp\cc0qwWn7.s 			page 13


 685              		.loc 1 304 0
 686 0028 1BC10808 		e_lmw %r30,8(%r1)
 687              	.LVL82:
 688 002c 0090     		se_mtlr %r0
 689              		.cfi_restore 65
 690 002e 20F1     		se_addi %r1,16
 691              	.LCFI5:
 692              		.cfi_restore 31
 693              		.cfi_restore 30
 694              		.cfi_def_cfa_offset 0
 695              		.loc 1 301 0
 696 0030 78000000 		e_b AEK_POW_BMS63EN_SPIReadRegister
 697              	.LVL83:
 698              		.cfi_endproc
 699              	.LFE5:
 700              		.size	AEK_POW_BMS63EN_GetCellOpen, .-AEK_POW_BMS63EN_GetCellOpen
 701              		.section	.text.AEK_POW_BMS63EN_GetFaults1,"axv",@progbits
 702              		.align 1
 703              		.p2align 4,,15
 704              		.globl AEK_POW_BMS63EN_GetFaults1
 705              		.type	AEK_POW_BMS63EN_GetFaults1, @function
 706              	AEK_POW_BMS63EN_GetFaults1:
 707              	.LFB6:
 708              		.loc 1 306 0
 709              		.cfi_startproc
 710              	.LVL84:
 711 0000 182106F0 		e_stwu %r1,-16(%r1)
 712              	.LCFI6:
 713              		.cfi_def_cfa_offset 16
 714 0004 0080     		se_mflr %r0
 715 0006 1BC10908 		e_stmw %r30,8(%r1)
 716 000a D501     		se_stw %r0,20(%r1)
 717              		.cfi_offset 65, 4
 718              		.cfi_offset 30, -8
 719              		.cfi_offset 31, -4
 720              		.loc 1 306 0
 721 000c 013E     		se_mr %r30,%r3
 722              		.loc 1 309 0
 723 000e 0134     		se_mr %r4,%r3
 724 0010 4BC5     		se_li %r5,60
 725 0012 73E0E000 		e_lis %r31,AEK_POW_BMS63EN_Drv@ha
 726 0016 1FFF0000 		e_la %r31,AEK_POW_BMS63EN_Drv@l(%r31)
 727 001a 01F3     		se_mr %r3,%r31
 728              	.LVL85:
 729 001c 78000001 		e_bl AEK_POW_BMS63EN_SPIReadRegister
 730              	.LVL86:
 731              		.loc 1 313 0
 732 0020 C501     		se_lwz %r0,20(%r1)
 733              		.loc 1 310 0
 734 0022 01F3     		se_mr %r3,%r31
 735 0024 01E4     		se_mr %r4,%r30
 736 0026 4BC5     		se_li %r5,60
 737              		.loc 1 313 0
 738 0028 1BC10808 		e_lmw %r30,8(%r1)
 739              	.LVL87:
 740 002c 0090     		se_mtlr %r0
 741              		.cfi_restore 65
GAS LISTING C:\Users\Vipuls\AppData\Local\Temp\cc0qwWn7.s 			page 14


 742 002e 20F1     		se_addi %r1,16
 743              	.LCFI7:
 744              		.cfi_restore 31
 745              		.cfi_restore 30
 746              		.cfi_def_cfa_offset 0
 747              		.loc 1 310 0
 748 0030 78000000 		e_b AEK_POW_BMS63EN_SPIReadRegister
 749              	.LVL88:
 750              		.cfi_endproc
 751              	.LFE6:
 752              		.size	AEK_POW_BMS63EN_GetFaults1, .-AEK_POW_BMS63EN_GetFaults1
 753              		.section	.text.AEK_POW_BMS63EN_GetFaults2,"axv",@progbits
 754              		.align 1
 755              		.p2align 4,,15
 756              		.globl AEK_POW_BMS63EN_GetFaults2
 757              		.type	AEK_POW_BMS63EN_GetFaults2, @function
 758              	AEK_POW_BMS63EN_GetFaults2:
 759              	.LFB7:
 760              		.loc 1 315 0
 761              		.cfi_startproc
 762              	.LVL89:
 763 0000 182106F0 		e_stwu %r1,-16(%r1)
 764              	.LCFI8:
 765              		.cfi_def_cfa_offset 16
 766 0004 0080     		se_mflr %r0
 767 0006 1BC10908 		e_stmw %r30,8(%r1)
 768 000a D501     		se_stw %r0,20(%r1)
 769              		.cfi_offset 65, 4
 770              		.cfi_offset 30, -8
 771              		.cfi_offset 31, -4
 772              		.loc 1 315 0
 773 000c 013E     		se_mr %r30,%r3
 774              		.loc 1 318 0
 775 000e 0134     		se_mr %r4,%r3
 776 0010 4BD5     		se_li %r5,61
 777 0012 73E0E000 		e_lis %r31,AEK_POW_BMS63EN_Drv@ha
 778 0016 1FFF0000 		e_la %r31,AEK_POW_BMS63EN_Drv@l(%r31)
 779 001a 01F3     		se_mr %r3,%r31
 780              	.LVL90:
 781 001c 78000001 		e_bl AEK_POW_BMS63EN_SPIReadRegister
 782              	.LVL91:
 783              		.loc 1 322 0
 784 0020 C501     		se_lwz %r0,20(%r1)
 785              		.loc 1 319 0
 786 0022 01F3     		se_mr %r3,%r31
 787 0024 01E4     		se_mr %r4,%r30
 788 0026 4BD5     		se_li %r5,61
 789              		.loc 1 322 0
 790 0028 1BC10808 		e_lmw %r30,8(%r1)
 791              	.LVL92:
 792 002c 0090     		se_mtlr %r0
 793              		.cfi_restore 65
 794 002e 20F1     		se_addi %r1,16
 795              	.LCFI9:
 796              		.cfi_restore 31
 797              		.cfi_restore 30
 798              		.cfi_def_cfa_offset 0
GAS LISTING C:\Users\Vipuls\AppData\Local\Temp\cc0qwWn7.s 			page 15


 799              		.loc 1 319 0
 800 0030 78000000 		e_b AEK_POW_BMS63EN_SPIReadRegister
 801              	.LVL93:
 802              		.cfi_endproc
 803              	.LFE7:
 804              		.size	AEK_POW_BMS63EN_GetFaults2, .-AEK_POW_BMS63EN_GetFaults2
 805              		.section	.text.AEK_POW_BMS63EN_GetVCELLUVFaults,"axv",@progbits
 806              		.align 1
 807              		.p2align 4,,15
 808              		.globl AEK_POW_BMS63EN_GetVCELLUVFaults
 809              		.type	AEK_POW_BMS63EN_GetVCELLUVFaults, @function
 810              	AEK_POW_BMS63EN_GetVCELLUVFaults:
 811              	.LFB8:
 812              		.loc 1 325 0
 813              		.cfi_startproc
 814              	.LVL94:
 815 0000 182106F0 		e_stwu %r1,-16(%r1)
 816              	.LCFI10:
 817              		.cfi_def_cfa_offset 16
 818 0004 0080     		se_mflr %r0
 819 0006 1BC10908 		e_stmw %r30,8(%r1)
 820 000a D501     		se_stw %r0,20(%r1)
 821              		.cfi_offset 65, 4
 822              		.cfi_offset 30, -8
 823              		.cfi_offset 31, -4
 824              		.loc 1 325 0
 825 000c 013E     		se_mr %r30,%r3
 826              		.loc 1 328 0
 827 000e 0134     		se_mr %r4,%r3
 828 0010 4C35     		se_li %r5,67
 829 0012 73E0E000 		e_lis %r31,AEK_POW_BMS63EN_Drv@ha
 830 0016 1FFF0000 		e_la %r31,AEK_POW_BMS63EN_Drv@l(%r31)
 831 001a 01F3     		se_mr %r3,%r31
 832              	.LVL95:
 833 001c 78000001 		e_bl AEK_POW_BMS63EN_SPIReadRegister
 834              	.LVL96:
 835              		.loc 1 332 0
 836 0020 C501     		se_lwz %r0,20(%r1)
 837              		.loc 1 329 0
 838 0022 01F3     		se_mr %r3,%r31
 839 0024 01E4     		se_mr %r4,%r30
 840 0026 4C35     		se_li %r5,67
 841              		.loc 1 332 0
 842 0028 1BC10808 		e_lmw %r30,8(%r1)
 843              	.LVL97:
 844 002c 0090     		se_mtlr %r0
 845              		.cfi_restore 65
 846 002e 20F1     		se_addi %r1,16
 847              	.LCFI11:
 848              		.cfi_restore 31
 849              		.cfi_restore 30
 850              		.cfi_def_cfa_offset 0
 851              		.loc 1 329 0
 852 0030 78000000 		e_b AEK_POW_BMS63EN_SPIReadRegister
 853              	.LVL98:
 854              		.cfi_endproc
 855              	.LFE8:
GAS LISTING C:\Users\Vipuls\AppData\Local\Temp\cc0qwWn7.s 			page 16


 856              		.size	AEK_POW_BMS63EN_GetVCELLUVFaults, .-AEK_POW_BMS63EN_GetVCELLUVFaults
 857              		.section	.text.AEK_POW_BMS63EN_GetVCELLOVFaults,"axv",@progbits
 858              		.align 1
 859              		.p2align 4,,15
 860              		.globl AEK_POW_BMS63EN_GetVCELLOVFaults
 861              		.type	AEK_POW_BMS63EN_GetVCELLOVFaults, @function
 862              	AEK_POW_BMS63EN_GetVCELLOVFaults:
 863              	.LFB9:
 864              		.loc 1 334 0
 865              		.cfi_startproc
 866              	.LVL99:
 867 0000 182106F0 		e_stwu %r1,-16(%r1)
 868              	.LCFI12:
 869              		.cfi_def_cfa_offset 16
 870 0004 0080     		se_mflr %r0
 871 0006 1BC10908 		e_stmw %r30,8(%r1)
 872 000a D501     		se_stw %r0,20(%r1)
 873              		.cfi_offset 65, 4
 874              		.cfi_offset 30, -8
 875              		.cfi_offset 31, -4
 876              		.loc 1 334 0
 877 000c 013E     		se_mr %r30,%r3
 878              		.loc 1 337 0
 879 000e 0134     		se_mr %r4,%r3
 880 0010 4C45     		se_li %r5,68
 881 0012 73E0E000 		e_lis %r31,AEK_POW_BMS63EN_Drv@ha
 882 0016 1FFF0000 		e_la %r31,AEK_POW_BMS63EN_Drv@l(%r31)
 883 001a 01F3     		se_mr %r3,%r31
 884              	.LVL100:
 885 001c 78000001 		e_bl AEK_POW_BMS63EN_SPIReadRegister
 886              	.LVL101:
 887              		.loc 1 341 0
 888 0020 C501     		se_lwz %r0,20(%r1)
 889              		.loc 1 338 0
 890 0022 01F3     		se_mr %r3,%r31
 891 0024 01E4     		se_mr %r4,%r30
 892 0026 4C45     		se_li %r5,68
 893              		.loc 1 341 0
 894 0028 1BC10808 		e_lmw %r30,8(%r1)
 895              	.LVL102:
 896 002c 0090     		se_mtlr %r0
 897              		.cfi_restore 65
 898 002e 20F1     		se_addi %r1,16
 899              	.LCFI13:
 900              		.cfi_restore 31
 901              		.cfi_restore 30
 902              		.cfi_def_cfa_offset 0
 903              		.loc 1 338 0
 904 0030 78000000 		e_b AEK_POW_BMS63EN_SPIReadRegister
 905              	.LVL103:
 906              		.cfi_endproc
 907              	.LFE9:
 908              		.size	AEK_POW_BMS63EN_GetVCELLOVFaults, .-AEK_POW_BMS63EN_GetVCELLOVFaults
 909              		.section	.text.AEK_POW_BMS63EN_GetGPIOOTUTFaults,"axv",@progbits
 910              		.align 1
 911              		.p2align 4,,15
 912              		.globl AEK_POW_BMS63EN_GetGPIOOTUTFaults
GAS LISTING C:\Users\Vipuls\AppData\Local\Temp\cc0qwWn7.s 			page 17


 913              		.type	AEK_POW_BMS63EN_GetGPIOOTUTFaults, @function
 914              	AEK_POW_BMS63EN_GetGPIOOTUTFaults:
 915              	.LFB10:
 916              		.loc 1 345 0
 917              		.cfi_startproc
 918              	.LVL104:
 919 0000 182106F0 		e_stwu %r1,-16(%r1)
 920              	.LCFI14:
 921              		.cfi_def_cfa_offset 16
 922 0004 0080     		se_mflr %r0
 923 0006 1BC10908 		e_stmw %r30,8(%r1)
 924 000a D501     		se_stw %r0,20(%r1)
 925              		.cfi_offset 65, 4
 926              		.cfi_offset 30, -8
 927              		.cfi_offset 31, -4
 928              		.loc 1 345 0
 929 000c 013E     		se_mr %r30,%r3
 930              		.loc 1 348 0
 931 000e 0134     		se_mr %r4,%r3
 932 0010 4C55     		se_li %r5,69
 933 0012 73E0E000 		e_lis %r31,AEK_POW_BMS63EN_Drv@ha
 934 0016 1FFF0000 		e_la %r31,AEK_POW_BMS63EN_Drv@l(%r31)
 935 001a 01F3     		se_mr %r3,%r31
 936              	.LVL105:
 937 001c 78000001 		e_bl AEK_POW_BMS63EN_SPIReadRegister
 938              	.LVL106:
 939              		.loc 1 352 0
 940 0020 C501     		se_lwz %r0,20(%r1)
 941              		.loc 1 349 0
 942 0022 01F3     		se_mr %r3,%r31
 943 0024 01E4     		se_mr %r4,%r30
 944 0026 4C55     		se_li %r5,69
 945              		.loc 1 352 0
 946 0028 1BC10808 		e_lmw %r30,8(%r1)
 947              	.LVL107:
 948 002c 0090     		se_mtlr %r0
 949              		.cfi_restore 65
 950 002e 20F1     		se_addi %r1,16
 951              	.LCFI15:
 952              		.cfi_restore 31
 953              		.cfi_restore 30
 954              		.cfi_def_cfa_offset 0
 955              		.loc 1 349 0
 956 0030 78000000 		e_b AEK_POW_BMS63EN_SPIReadRegister
 957              	.LVL108:
 958              		.cfi_endproc
 959              	.LFE10:
 960              		.size	AEK_POW_BMS63EN_GetGPIOOTUTFaults, .-AEK_POW_BMS63EN_GetGPIOOTUTFaults
 961              		.section	.text.AEK_POW_BMS63EN_GetBALUVFaults,"axv",@progbits
 962              		.align 1
 963              		.p2align 4,,15
 964              		.globl AEK_POW_BMS63EN_GetBALUVFaults
 965              		.type	AEK_POW_BMS63EN_GetBALUVFaults, @function
 966              	AEK_POW_BMS63EN_GetBALUVFaults:
 967              	.LFB11:
 968              		.loc 1 354 0
 969              		.cfi_startproc
GAS LISTING C:\Users\Vipuls\AppData\Local\Temp\cc0qwWn7.s 			page 18


 970              	.LVL109:
 971 0000 182106F0 		e_stwu %r1,-16(%r1)
 972              	.LCFI16:
 973              		.cfi_def_cfa_offset 16
 974 0004 0080     		se_mflr %r0
 975 0006 1BC10908 		e_stmw %r30,8(%r1)
 976 000a D501     		se_stw %r0,20(%r1)
 977              		.cfi_offset 65, 4
 978              		.cfi_offset 30, -8
 979              		.cfi_offset 31, -4
 980              		.loc 1 354 0
 981 000c 013E     		se_mr %r30,%r3
 982              		.loc 1 357 0
 983 000e 0134     		se_mr %r4,%r3
 984 0010 4C65     		se_li %r5,70
 985 0012 73E0E000 		e_lis %r31,AEK_POW_BMS63EN_Drv@ha
 986 0016 1FFF0000 		e_la %r31,AEK_POW_BMS63EN_Drv@l(%r31)
 987 001a 01F3     		se_mr %r3,%r31
 988              	.LVL110:
 989 001c 78000001 		e_bl AEK_POW_BMS63EN_SPIReadRegister
 990              	.LVL111:
 991              		.loc 1 361 0
 992 0020 C501     		se_lwz %r0,20(%r1)
 993              		.loc 1 358 0
 994 0022 01F3     		se_mr %r3,%r31
 995 0024 01E4     		se_mr %r4,%r30
 996 0026 4C65     		se_li %r5,70
 997              		.loc 1 361 0
 998 0028 1BC10808 		e_lmw %r30,8(%r1)
 999              	.LVL112:
 1000 002c 0090     		se_mtlr %r0
 1001              		.cfi_restore 65
 1002 002e 20F1     		se_addi %r1,16
 1003              	.LCFI17:
 1004              		.cfi_restore 31
 1005              		.cfi_restore 30
 1006              		.cfi_def_cfa_offset 0
 1007              		.loc 1 358 0
 1008 0030 78000000 		e_b AEK_POW_BMS63EN_SPIReadRegister
 1009              	.LVL113:
 1010              		.cfi_endproc
 1011              	.LFE11:
 1012              		.size	AEK_POW_BMS63EN_GetBALUVFaults, .-AEK_POW_BMS63EN_GetBALUVFaults
 1013              		.section	.text.AEK_POW_BMS63EN_GetFault1,"axv",@progbits
 1014              		.align 1
 1015              		.p2align 4,,15
 1016              		.globl AEK_POW_BMS63EN_GetFault1
 1017              		.type	AEK_POW_BMS63EN_GetFault1, @function
 1018              	AEK_POW_BMS63EN_GetFault1:
 1019              	.LFB12:
 1020              		.loc 1 366 0
 1021              		.cfi_startproc
 1022              	.LVL114:
 1023              		.loc 1 367 0
 1024 0000 4817     		se_li %r7,1
 1025 0002 4247     		se_slw %r7, %r4
 1026 0004 4673     		se_and %r3,%r7
GAS LISTING C:\Users\Vipuls\AppData\Local\Temp\cc0qwWn7.s 			page 19


 1027              	.LVL115:
 1028 0006 4043     		se_srw %r3,%r4
 1029              		.loc 1 368 0
 1030 0008 00C3     		se_extzb %r3
 1031 000a 0004     		se_blr
 1032              		.cfi_endproc
 1033              	.LFE12:
 1034              		.size	AEK_POW_BMS63EN_GetFault1, .-AEK_POW_BMS63EN_GetFault1
 1035              		.section	.text.AEK_POW_BMS63EN_GetFault2,"axv",@progbits
 1036              		.align 1
 1037              		.p2align 4,,15
 1038              		.globl AEK_POW_BMS63EN_GetFault2
 1039              		.type	AEK_POW_BMS63EN_GetFault2, @function
 1040              	AEK_POW_BMS63EN_GetFault2:
 1041              	.LFB13:
 1042              		.loc 1 370 0
 1043              		.cfi_startproc
 1044              	.LVL116:
 1045              		.loc 1 371 0
 1046 0000 4817     		se_li %r7,1
 1047 0002 4247     		se_slw %r7, %r4
 1048 0004 4673     		se_and %r3,%r7
 1049              	.LVL117:
 1050 0006 4043     		se_srw %r3,%r4
 1051              		.loc 1 372 0
 1052 0008 00C3     		se_extzb %r3
 1053 000a 0004     		se_blr
 1054              		.cfi_endproc
 1055              	.LFE13:
 1056              		.size	AEK_POW_BMS63EN_GetFault2, .-AEK_POW_BMS63EN_GetFault2
 1057              		.section	.text.AEK_POW_BMS63EN_GetVCELLUVFault,"axv",@progbits
 1058              		.align 1
 1059              		.p2align 4,,15
 1060              		.globl AEK_POW_BMS63EN_GetVCELLUVFault
 1061              		.type	AEK_POW_BMS63EN_GetVCELLUVFault, @function
 1062              	AEK_POW_BMS63EN_GetVCELLUVFault:
 1063              	.LFB14:
 1064              		.loc 1 374 0
 1065              		.cfi_startproc
 1066              	.LVL118:
 1067              		.loc 1 375 0
 1068 0000 4817     		se_li %r7,1
 1069 0002 4247     		se_slw %r7, %r4
 1070 0004 4673     		se_and %r3,%r7
 1071              	.LVL119:
 1072 0006 4043     		se_srw %r3,%r4
 1073              		.loc 1 376 0
 1074 0008 00C3     		se_extzb %r3
 1075 000a 0004     		se_blr
 1076              		.cfi_endproc
 1077              	.LFE14:
 1078              		.size	AEK_POW_BMS63EN_GetVCELLUVFault, .-AEK_POW_BMS63EN_GetVCELLUVFault
 1079              		.section	.text.AEK_POW_BMS63EN_GetVCELLOVFault,"axv",@progbits
 1080              		.align 1
 1081              		.p2align 4,,15
 1082              		.globl AEK_POW_BMS63EN_GetVCELLOVFault
 1083              		.type	AEK_POW_BMS63EN_GetVCELLOVFault, @function
GAS LISTING C:\Users\Vipuls\AppData\Local\Temp\cc0qwWn7.s 			page 20


 1084              	AEK_POW_BMS63EN_GetVCELLOVFault:
 1085              	.LFB15:
 1086              		.loc 1 378 0
 1087              		.cfi_startproc
 1088              	.LVL120:
 1089              		.loc 1 379 0
 1090 0000 4817     		se_li %r7,1
 1091 0002 4247     		se_slw %r7, %r4
 1092 0004 4673     		se_and %r3,%r7
 1093              	.LVL121:
 1094 0006 4043     		se_srw %r3,%r4
 1095              		.loc 1 380 0
 1096 0008 00C3     		se_extzb %r3
 1097 000a 0004     		se_blr
 1098              		.cfi_endproc
 1099              	.LFE15:
 1100              		.size	AEK_POW_BMS63EN_GetVCELLOVFault, .-AEK_POW_BMS63EN_GetVCELLOVFault
 1101              		.section	.text.AEK_POW_BMS63EN_GetGPIOOTUTFault,"axv",@progbits
 1102              		.align 1
 1103              		.p2align 4,,15
 1104              		.globl AEK_POW_BMS63EN_GetGPIOOTUTFault
 1105              		.type	AEK_POW_BMS63EN_GetGPIOOTUTFault, @function
 1106              	AEK_POW_BMS63EN_GetGPIOOTUTFault:
 1107              	.LFB16:
 1108              		.loc 1 382 0
 1109              		.cfi_startproc
 1110              	.LVL122:
 1111              		.loc 1 383 0
 1112 0000 4817     		se_li %r7,1
 1113 0002 4247     		se_slw %r7, %r4
 1114 0004 4673     		se_and %r3,%r7
 1115              	.LVL123:
 1116 0006 4043     		se_srw %r3,%r4
 1117              		.loc 1 384 0
 1118 0008 00C3     		se_extzb %r3
 1119 000a 0004     		se_blr
 1120              		.cfi_endproc
 1121              	.LFE16:
 1122              		.size	AEK_POW_BMS63EN_GetGPIOOTUTFault, .-AEK_POW_BMS63EN_GetGPIOOTUTFault
 1123              		.section	.text.AEK_POW_BMS63EN_GetBALUVFault,"axv",@progbits
 1124              		.align 1
 1125              		.p2align 4,,15
 1126              		.globl AEK_POW_BMS63EN_GetBALUVFault
 1127              		.type	AEK_POW_BMS63EN_GetBALUVFault, @function
 1128              	AEK_POW_BMS63EN_GetBALUVFault:
 1129              	.LFB17:
 1130              		.loc 1 386 0
 1131              		.cfi_startproc
 1132              	.LVL124:
 1133              		.loc 1 387 0
 1134 0000 4817     		se_li %r7,1
 1135 0002 4247     		se_slw %r7, %r4
 1136 0004 4673     		se_and %r3,%r7
 1137              	.LVL125:
 1138 0006 4043     		se_srw %r3,%r4
 1139              		.loc 1 388 0
 1140 0008 00C3     		se_extzb %r3
GAS LISTING C:\Users\Vipuls\AppData\Local\Temp\cc0qwWn7.s 			page 21


 1141 000a 0004     		se_blr
 1142              		.cfi_endproc
 1143              	.LFE17:
 1144              		.size	AEK_POW_BMS63EN_GetBALUVFault, .-AEK_POW_BMS63EN_GetBALUVFault
 1145              		.globl AEK_POW_BMS63EN_gpio_state
 1146              		.globl AEK_POW_BMS63EN_faultl_state
 1147              		.section	.bss.AEK_POW_BMS63EN_gpio_state,"aw",@nobits
 1148              		.align 2
 1149              		.type	AEK_POW_BMS63EN_gpio_state, @object
 1150              		.size	AEK_POW_BMS63EN_gpio_state, 140
 1151              	AEK_POW_BMS63EN_gpio_state:
 1152 0000 00000000 		.zero	140
 1152      00000000 
 1152      00000000 
 1152      00000000 
 1152      00000000 
 1153              		.section	.bss.AEK_POW_BMS63EN_faultl_state,"aw",@nobits
 1154              		.align 2
 1155              		.type	AEK_POW_BMS63EN_faultl_state, @object
 1156              		.size	AEK_POW_BMS63EN_faultl_state, 60
 1157              	AEK_POW_BMS63EN_faultl_state:
 1158 0000 00000000 		.zero	60
 1158      00000000 
 1158      00000000 
 1158      00000000 
 1158      00000000 
 1159              		.section	.bss.AEK_POW_BMS63EN_burst_read,"aw",@nobits
 1160              		.align 2
 1161              		.set	.LANCHOR0,. + 0
 1162              		.type	AEK_POW_BMS63EN_burst_read, @object
 1163              		.size	AEK_POW_BMS63EN_burst_read, 72
 1164              	AEK_POW_BMS63EN_burst_read:
 1165 0000 00000000 		.zero	72
 1165      00000000 
 1165      00000000 
 1165      00000000 
 1165      00000000 
 1166              		.section	".text","axv"
 1167              	.Letext0:
 1168              		.file 2 "c:\\autodevkitstudio-2.4.0\\eclipse\\plugins\\com.st.tools.spc5.tools.gnu.gcc.ppcvle.win3
 1169              		.file 3 "c:\\autodevkitstudio-2.4.0\\eclipse\\plugins\\com.st.tools.spc5.tools.gnu.gcc.ppcvle.win3
 1170              		.file 4 "c:\\autodevkitstudio-2.4.0\\eclipse\\plugins\\com.st.tools.spc5.tools.gnu.gcc.ppcvle.win3
 1171              		.file 5 "./components/spc58ecxx_platform_component_rla/lib/include/typedefs.h"
 1172              		.file 6 "./components/spc58ecxx_board_initialization_component_rla/lib/include/pal.h"
 1173              		.file 7 "./components/spc58ecxx_low_level_drivers_component_rla/lib/include/spc5_dspi.h"
 1174              		.file 8 "./components/spc58ecxx_low_level_drivers_component_rla/lib/include/spi_lld.h"
 1175              		.file 9 "./components/aek_pow_bms63en_component_rla/lib/include/AEK_POW_BMS63EN_lld.h"
 1176              		.file 10 "./components/aek_pow_bms63en_component_rla/lib/include/AEK_POW_BMS63EN_diag.h"
 1177              		.file 11 "./components/aek_pow_bms63en_component_rla/cfg/AEK_POW_BMS63EN_cfg.h"
 1178              		.file 12 "./components/spc58ecxx_osal_component_rla/lib/include/osal.h"