GAS LISTING C:\Users\Vipuls\AppData\Local\Temp\ccppVci0.s 			page 1


   1              		.file	"BMS_Controller.c"
   2              		.section	".text","axv"
   3              	.Ltext0:
   4              		.cfi_sections	.debug_frame
   5              		.globl __gesf2
   6              		.globl __subsf3
   7              		.globl __divsf3
   8              		.globl __ltsf2
   9              		.globl __mulsf3
  10              		.globl __addsf3
  11              		.section	.text.look2_iflf_binlx.constprop.4,"axv",@progbits
  12              		.align 1
  13              		.p2align 4,,15
  14              		.type	look2_iflf_binlx.constprop.4, @function
  15              	look2_iflf_binlx.constprop.4:
  16              	.LFB14:
  17              		.file 1 "./source/ModelBMS/BMS_Controller.c"
  18              		.loc 1 62 0
  19              		.cfi_startproc
  20              	.LVL0:
  21 0000 182106D0 		e_stwu %r1,-48(%r1)
  22              	.LCFI0:
  23              		.cfi_def_cfa_offset 48
  24              		.loc 1 90 0
  25 0004 70E0E000 		e_lis %r7,SOC_Vector@ha
  26              		.loc 1 62 0
  27 0008 1AE1090C 		e_stmw %r23,12(%r1)
  28 000c 0080     		se_mflr %r0
  29              		.cfi_offset 23, -36
  30              		.cfi_offset 24, -32
  31              		.cfi_offset 25, -28
  32              		.cfi_offset 26, -24
  33              		.cfi_offset 27, -20
  34              		.cfi_offset 28, -16
  35              		.cfi_offset 29, -12
  36              		.cfi_offset 30, -8
  37              		.cfi_offset 31, -4
  38              		.cfi_register 65, 0
  39 000e 0138     		se_mr %r24,%r3
  40              		.loc 1 90 0
  41 0010 53C70000 		e_lwz %r30,SOC_Vector@l(%r7)
  42              		.loc 1 62 0
  43 0014 DD01     		se_stw %r0,52(%r1)
  44              		.cfi_offset 65, 4
  45              		.loc 1 62 0
  46 0016 0149     		se_mr %r25,%r4
  47 0018 015B     		se_mr %r27,%r5
  48              		.loc 1 90 0
  49 001a 1F870000 		e_la %r28,SOC_Vector@l(%r7)
  50 001e 01E3     		se_mr %r3,%r30
  51              	.LVL1:
  52 0020 0184     		se_mr %r4,%r24
  53              	.LVL2:
  54 0022 78000001 		e_bl __gesf2
  55              	.LVL3:
  56 0026 2A03     		se_cmpi %r3,0
  57 0028 7A1000D0 		e_blt %cr0,.L28
GAS LISTING C:\Users\Vipuls\AppData\Local\Temp\ccppVci0.s 			page 2


  58              	.LVL4:
  59              		.loc 1 92 0
  60 002c 01E4     		se_mr %r4,%r30
  61 002e 0183     		se_mr %r3,%r24
  62              		.loc 1 91 0
  63 0030 480A     		se_li %r26,0
  64              		.loc 1 92 0
  65 0032 78000001 		e_bl __subsf3
  66              	.LVL5:
  67 0036 01E4     		se_mr %r4,%r30
  68 0038 013F     		se_mr %r31,%r3
  69 003a 507C0004 		e_lwz %r3,4(%r28)
  70 003e 78000001 		e_bl __subsf3
  71              	.LVL6:
  72 0042 0134     		se_mr %r4,%r3
  73 0044 01F3     		se_mr %r3,%r31
  74 0046 78000001 		e_bl __divsf3
  75              	.LVL7:
  76 004a 0138     		se_mr %r24,%r3
  77              	.LVL8:
  78              	.L4:
  79              		.loc 1 125 0
  80 004c 7380E000 		e_lis %r28,Temperature_Vector@ha
  81 0050 0194     		se_mr %r4,%r25
  82 0052 53BC0000 		e_lwz %r29,Temperature_Vector@l(%r28)
  83 0056 1F9C0000 		e_la %r28,Temperature_Vector@l(%r28)
  84 005a 01D3     		se_mr %r3,%r29
  85              	.LVL9:
  86 005c 78000001 		e_bl __gesf2
  87              	.LVL10:
  88 0060 2A03     		se_cmpi %r3,0
  89 0062 7A00013A 		e_bge %cr0,.L33
  90              	.L30:
  91              		.loc 1 128 0
  92 0066 70E0E000 		e_lis %r7,rtConstP+828@ha
  93 006a 0193     		se_mr %r3,%r25
  94 006c 53C70000 		e_lwz %r30,rtConstP+828@l(%r7)
  95 0070 7FD71070 		e_slwi %r23,%r30,2
  96 0074 7FFCB82E 		lwzx %r31,%r28,%r23
  97 0078 01F4     		se_mr %r4,%r31
  98 007a 78000001 		e_bl __ltsf2
  99              	.LVL11:
 100 007e 2A03     		se_cmpi %r3,0
 101 0080 7A000140 		e_bge %cr0,.L31
 102              		.loc 1 130 0
 103 0084 7FDF0C70 		e_srwi %r31,%r30,1
 104              	.LVL12:
 105              		.loc 1 133 0
 106 0088 220E     		se_cmpli %r30,1
 107 008a 7A0101F4 		e_ble %cr0,.L20
 108 008e 480D     		se_li %r29,0
 109              	.LVL13:
 110              	.L17:
 111              		.loc 1 134 0
 112 0090 7FE71070 		e_slwi %r7,%r31,2
 113 0094 0193     		se_mr %r3,%r25
 114 0096 7C9C382E 		lwzx %r4,%r28,%r7
GAS LISTING C:\Users\Vipuls\AppData\Local\Temp\ccppVci0.s 			page 3


 115 009a 78000001 		e_bl __ltsf2
 116              	.LVL14:
 117 009e 2A03     		se_cmpi %r3,0
 118 00a0 7FBDF81E 		isel %r29,%r29,%r31,0
 119              	.LVL15:
 120 00a4 7FDFF01E 		isel %r30,%r31,%r30,0
 121              	.LVL16:
 122              		.loc 1 140 0
 123 00a8 7FFDF214 		add %r31,%r29,%r30
 124              	.LVL17:
 125              		.loc 1 133 0
 126 00ac 7CFDF050 		subf %r7, %r29, %r30
 127              		.loc 1 140 0
 128 00b0 681F     		se_srwi %r31,1
 129              	.LVL18:
 130              		.loc 1 133 0
 131 00b2 2207     		se_cmpli %r7,1
 132 00b4 7A11FFDC 		e_bgt %cr0,.L17
 133 00b8 7FA61070 		e_slwi %r6,%r29,2
 134 00bc 7380E000 		e_lis %r28,Temperature_Vector@ha
 135 00c0 18E68004 		e_addi %r7,%r6,4
 136 00c4 1F9C0000 		e_la %r28,Temperature_Vector@l(%r28)
 137 00c8 7FBE2070 		e_slwi %r30,%r29,4
 138              	.LVL19:
 139 00cc 7FFC302E 		lwzx %r31,%r28,%r6
 140              	.LVL20:
 141 00d0 04DE     		se_add %r30,%r29
 142 00d2 7F87E214 		add %r28,%r7,%r28
 143              	.LVL21:
 144              	.L15:
 145              		.loc 1 143 0
 146 00d6 01F4     		se_mr %r4,%r31
 147 00d8 0193     		se_mr %r3,%r25
 148 00da 78000001 		e_bl __subsf3
 149              	.LVL22:
 150 00de 01F4     		se_mr %r4,%r31
 151 00e0 013D     		se_mr %r29,%r3
 152 00e2 507C0000 		e_lwz %r3,0(%r28)
 153 00e6 78000001 		e_bl __subsf3
 154              	.LVL23:
 155 00ea 0134     		se_mr %r4,%r3
 156 00ec 01D3     		se_mr %r3,%r29
 157 00ee 78000001 		e_bl __divsf3
 158              	.LVL24:
 159 00f2 013C     		se_mr %r28,%r3
 160              	.LVL25:
 161 00f4 780000FC 		e_b .L12
 162              	.LVL26:
 163              	.L28:
 164              		.loc 1 93 0
 165 00f8 70E0E000 		e_lis %r7,rtConstP+824@ha
 166 00fc 0183     		se_mr %r3,%r24
 167 00fe 53A70000 		e_lwz %r29,rtConstP+824@l(%r7)
 168 0102 7FB71070 		e_slwi %r23,%r29,2
 169 0106 7FFCB82E 		lwzx %r31,%r28,%r23
 170 010a 01F4     		se_mr %r4,%r31
 171 010c 78000001 		e_bl __ltsf2
GAS LISTING C:\Users\Vipuls\AppData\Local\Temp\ccppVci0.s 			page 4


 172              	.LVL27:
 173 0110 2A03     		se_cmpi %r3,0
 174 0112 7A000140 		e_bge %cr0,.L29
 175              		.loc 1 95 0
 176 0116 7FBF0C70 		e_srwi %r31,%r29,1
 177              	.LVL28:
 178              		.loc 1 98 0
 179 011a 220D     		se_cmpli %r29,1
 180 011c 7A01016C 		e_ble %cr0,.L18
 181 0120 480E     		se_li %r30,0
 182              	.LVL29:
 183              	.L9:
 184              		.loc 1 99 0
 185 0122 7FE71070 		e_slwi %r7,%r31,2
 186 0126 0183     		se_mr %r3,%r24
 187 0128 7C9C382E 		lwzx %r4,%r28,%r7
 188 012c 78000001 		e_bl __ltsf2
 189              	.LVL30:
 190 0130 2A03     		se_cmpi %r3,0
 191 0132 7FDEF81E 		isel %r30,%r30,%r31,0
 192              	.LVL31:
 193 0136 7FBFE81E 		isel %r29,%r31,%r29,0
 194              	.LVL32:
 195              		.loc 1 105 0
 196 013a 7FFEEA14 		add %r31,%r30,%r29
 197              	.LVL33:
 198              		.loc 1 98 0
 199 013e 7CFEE850 		subf %r7, %r30, %r29
 200              		.loc 1 105 0
 201 0142 681F     		se_srwi %r31,1
 202              	.LVL34:
 203              		.loc 1 98 0
 204 0144 2207     		se_cmpli %r7,1
 205 0146 7A11FFDC 		e_bgt %cr0,.L9
 206 014a 7FC61070 		e_slwi %r6,%r30,2
 207 014e 01EA     		se_mr %r26,%r30
 208 0150 7380E000 		e_lis %r28,SOC_Vector@ha
 209 0154 18E68004 		e_addi %r7,%r6,4
 210 0158 1F9C0000 		e_la %r28,SOC_Vector@l(%r28)
 211 015c 7FDC302E 		lwzx %r30,%r28,%r6
 212              	.LVL35:
 213 0160 7F87E214 		add %r28,%r7,%r28
 214              	.LVL36:
 215              	.L7:
 216              		.loc 1 108 0
 217 0164 01E4     		se_mr %r4,%r30
 218 0166 0183     		se_mr %r3,%r24
 219 0168 78000001 		e_bl __subsf3
 220              	.LVL37:
 221 016c 01E4     		se_mr %r4,%r30
 222 016e 013F     		se_mr %r31,%r3
 223              	.LVL38:
 224 0170 507C0000 		e_lwz %r3,0(%r28)
 225              		.loc 1 125 0
 226 0174 7380E000 		e_lis %r28,Temperature_Vector@ha
 227              		.loc 1 108 0
 228 0178 78000001 		e_bl __subsf3
GAS LISTING C:\Users\Vipuls\AppData\Local\Temp\ccppVci0.s 			page 5


 229              	.LVL39:
 230 017c 0134     		se_mr %r4,%r3
 231 017e 01F3     		se_mr %r3,%r31
 232 0180 78000001 		e_bl __divsf3
 233              	.LVL40:
 234              		.loc 1 125 0
 235 0184 53BC0000 		e_lwz %r29,Temperature_Vector@l(%r28)
 236              	.LVL41:
 237              		.loc 1 108 0
 238 0188 0138     		se_mr %r24,%r3
 239              	.LVL42:
 240              		.loc 1 125 0
 241 018a 0194     		se_mr %r4,%r25
 242 018c 01D3     		se_mr %r3,%r29
 243              	.LVL43:
 244 018e 1F9C0000 		e_la %r28,Temperature_Vector@l(%r28)
 245 0192 78000001 		e_bl __gesf2
 246              	.LVL44:
 247 0196 2A03     		se_cmpi %r3,0
 248 0198 7A10FECE 		e_blt %cr0,.L30
 249              	.L33:
 250              	.LVL45:
 251              		.loc 1 127 0
 252 019c 01D4     		se_mr %r4,%r29
 253 019e 0193     		se_mr %r3,%r25
 254 01a0 480E     		se_li %r30,0
 255 01a2 78000001 		e_bl __subsf3
 256              	.LVL46:
 257 01a6 01D4     		se_mr %r4,%r29
 258 01a8 013F     		se_mr %r31,%r3
 259 01aa 507C0004 		e_lwz %r3,4(%r28)
 260 01ae 78000001 		e_bl __subsf3
 261              	.LVL47:
 262 01b2 0134     		se_mr %r4,%r3
 263 01b4 01F3     		se_mr %r3,%r31
 264 01b6 78000001 		e_bl __divsf3
 265              	.LVL48:
 266 01ba 013C     		se_mr %r28,%r3
 267              	.LVL49:
 268 01bc 78000034 		e_b .L12
 269              	.LVL50:
 270              	.L31:
 271              		.loc 1 146 0
 272 01c0 1B9C84FC 		e_addi %r28,%r28,-4
 273              		.loc 1 145 0
 274 01c4 1BDE84FF 		e_addi %r30,%r30,-1
 275              	.LVL51:
 276              		.loc 1 146 0
 277 01c8 7FBCB82E 		lwzx %r29,%r28,%r23
 278 01cc 0193     		se_mr %r3,%r25
 279 01ce 01D4     		se_mr %r4,%r29
 280 01d0 78000001 		e_bl __subsf3
 281              	.LVL52:
 282 01d4 01D4     		se_mr %r4,%r29
 283 01d6 013C     		se_mr %r28,%r3
 284 01d8 7FDD2070 		e_slwi %r29,%r30,4
 285 01dc 01F3     		se_mr %r3,%r31
GAS LISTING C:\Users\Vipuls\AppData\Local\Temp\ccppVci0.s 			page 6


 286 01de 7FDDF214 		add %r30,%r29,%r30
 287              	.LVL53:
 288 01e2 78000001 		e_bl __subsf3
 289              	.LVL54:
 290 01e6 0134     		se_mr %r4,%r3
 291 01e8 01C3     		se_mr %r3,%r28
 292 01ea 78000001 		e_bl __divsf3
 293              	.LVL55:
 294 01ee 013C     		se_mr %r28,%r3
 295              	.LVL56:
 296              	.L12:
 297              		.loc 1 155 0
 298 01f0 04AE     		se_add %r30,%r26
 299              	.LVL57:
 300              		.loc 1 156 0
 301 01f2 6C2E     		se_slwi %r30, 2
 302              	.LVL58:
 303 01f4 7FFBF06E 		lwzux %r31,%r27,%r30
 304              	.LVL59:
 305              		.loc 1 157 0
 306 01f8 01F4     		se_mr %r4,%r31
 307 01fa 507B0004 		e_lwz %r3,4(%r27)
 308              	.LVL60:
 309 01fe 78000001 		e_bl __subsf3
 310              	.LVL61:
 311 0202 0184     		se_mr %r4,%r24
 312 0204 78000001 		e_bl __mulsf3
 313              	.LVL62:
 314 0208 0134     		se_mr %r4,%r3
 315 020a 01F3     		se_mr %r3,%r31
 316 020c 78000001 		e_bl __addsf3
 317              	.LVL63:
 318              		.loc 1 159 0
 319 0210 53DB0044 		e_lwz %r30,68(%r27)
 320              		.loc 1 157 0
 321 0214 013F     		se_mr %r31,%r3
 322              	.LVL64:
 323              		.loc 1 160 0
 324 0216 01E4     		se_mr %r4,%r30
 325 0218 507B0048 		e_lwz %r3,72(%r27)
 326              	.LVL65:
 327 021c 78000001 		e_bl __subsf3
 328              	.LVL66:
 329 0220 0134     		se_mr %r4,%r3
 330 0222 0183     		se_mr %r3,%r24
 331 0224 78000001 		e_bl __mulsf3
 332              	.LVL67:
 333 0228 0134     		se_mr %r4,%r3
 334 022a 01E3     		se_mr %r3,%r30
 335 022c 78000001 		e_bl __addsf3
 336              	.LVL68:
 337 0230 01F4     		se_mr %r4,%r31
 338 0232 78000001 		e_bl __subsf3
 339              	.LVL69:
 340 0236 01C4     		se_mr %r4,%r28
 341 0238 78000001 		e_bl __mulsf3
 342              	.LVL70:
GAS LISTING C:\Users\Vipuls\AppData\Local\Temp\ccppVci0.s 			page 7


 343 023c 0134     		se_mr %r4,%r3
 344 023e 01F3     		se_mr %r3,%r31
 345 0240 78000001 		e_bl __addsf3
 346              	.LVL71:
 347              		.loc 1 162 0
 348 0244 CD01     		se_lwz %r0,52(%r1)
 349 0246 0090     		se_mtlr %r0
 350              		.cfi_remember_state
 351              		.cfi_restore 65
 352 0248 1AE1080C 		e_lmw %r23,12(%r1)
 353              	.LVL72:
 354 024c 18218030 		e_addi %r1,%r1,48
 355              	.LCFI1:
 356              		.cfi_restore 31
 357              		.cfi_restore 30
 358              		.cfi_restore 29
 359              		.cfi_restore 28
 360              		.cfi_restore 27
 361              		.cfi_restore 26
 362              		.cfi_restore 25
 363              		.cfi_restore 24
 364              		.cfi_restore 23
 365              		.cfi_def_cfa_offset 0
 366 0250 0004     		se_blr
 367              	.LVL73:
 368              	.L29:
 369              	.LCFI2:
 370              		.cfi_restore_state
 371              		.loc 1 111 0
 372 0252 0183     		se_mr %r3,%r24
 373 0254 1B9C84FC 		e_addi %r28,%r28,-4
 374              		.loc 1 110 0
 375 0258 1B5D84FF 		e_addi %r26,%r29,-1
 376              	.LVL74:
 377              		.loc 1 111 0
 378 025c 7FDCB82E 		lwzx %r30,%r28,%r23
 379 0260 01E4     		se_mr %r4,%r30
 380 0262 78000001 		e_bl __subsf3
 381              	.LVL75:
 382 0266 01E4     		se_mr %r4,%r30
 383 0268 013D     		se_mr %r29,%r3
 384 026a 01F3     		se_mr %r3,%r31
 385 026c 78000001 		e_bl __subsf3
 386              	.LVL76:
 387 0270 0134     		se_mr %r4,%r3
 388 0272 01D3     		se_mr %r3,%r29
 389 0274 78000001 		e_bl __divsf3
 390              	.LVL77:
 391 0278 0138     		se_mr %r24,%r3
 392              	.LVL78:
 393 027a 79FFFDD2 		e_b .L4
 394              	.LVL79:
 395              	.L20:
 396              		.loc 1 133 0
 397 027e 01DF     		se_mr %r31,%r29
 398              	.LVL80:
 399 0280 480E     		se_li %r30,0
GAS LISTING C:\Users\Vipuls\AppData\Local\Temp\ccppVci0.s 			page 8


 400              	.LVL81:
 401 0282 203C     		se_addi %r28,4
 402 0284 79FFFE52 		e_b .L15
 403              	.LVL82:
 404              	.L18:
 405              		.loc 1 98 0
 406 0288 203C     		se_addi %r28,4
 407              		.loc 1 96 0
 408 028a 480A     		se_li %r26,0
 409 028c 79FFFED8 		e_b .L7
 410              		.cfi_endproc
 411              	.LFE14:
 412              		.size	look2_iflf_binlx.constprop.4, .-look2_iflf_binlx.constprop.4
 413              		.globl __lesf2
 414              		.globl __gtsf2
 415              		.globl __fixunssfsi
 416              		.section	.text.BMS_Controller_p,"axv",@progbits
 417              		.align 1
 418              		.p2align 4,,15
 419              		.type	BMS_Controller_p, @function
 420              	BMS_Controller_p:
 421              	.LFB11:
 422              		.loc 1 1055 0
 423              		.cfi_startproc
 424              	.LVL83:
 425 0000 701F7E48 		e_li %r0,-440
 426 0004 7C21016E 		stwux %r1,%r1,%r0
 427              	.LCFI3:
 428              		.cfi_def_cfa_offset 440
 429              	.LVL84:
 430 0008 0080     		se_mflr %r0
 431 000a 55E10174 		e_stw %r15,372(%r1)
 432              	.LVL85:
 433 000e 540101BC 		e_stw %r0,444(%r1)
 434 0012 56010178 		e_stw %r16,376(%r1)
 435 0016 56410180 		e_stw %r18,384(%r1)
 436 001a 56810188 		e_stw %r20,392(%r1)
 437 001e 56A1018C 		e_stw %r21,396(%r1)
 438 0022 56C10190 		e_stw %r22,400(%r1)
 439 0026 56E10194 		e_stw %r23,404(%r1)
 440 002a 57010198 		e_stw %r24,408(%r1)
 441 002e 5721019C 		e_stw %r25,412(%r1)
 442 0032 574101A0 		e_stw %r26,416(%r1)
 443 0036 578101A8 		e_stw %r28,424(%r1)
 444 003a 57A101AC 		e_stw %r29,428(%r1)
 445 003e 57C101B0 		e_stw %r30,432(%r1)
 446 0042 57E101B4 		e_stw %r31,436(%r1)
 447              		.cfi_offset 65, 4
 448              		.cfi_offset 15, -68
 449              		.cfi_offset 16, -64
 450              		.cfi_offset 18, -56
 451              		.cfi_offset 20, -48
 452              		.cfi_offset 21, -44
 453              		.cfi_offset 22, -40
 454              		.cfi_offset 23, -36
 455              		.cfi_offset 24, -32
 456              		.cfi_offset 25, -28
GAS LISTING C:\Users\Vipuls\AppData\Local\Temp\ccppVci0.s 			page 9


 457              		.cfi_offset 26, -24
 458              		.cfi_offset 28, -16
 459              		.cfi_offset 29, -12
 460              		.cfi_offset 30, -8
 461              		.cfi_offset 31, -4
 462 0046 73C0E000 		e_lis %r30,NTC_Vector@ha
 463 004a 1BA1803C 		e_addi %r29,%r1,60
 464 004e 1FFE0000 		e_la %r31,NTC_Vector@l(%r30)
 465 0052 54E10164 		e_stw %r7,356(%r1)
 466 0056 535E0000 		e_lwz %r26,NTC_Vector@l(%r30)
 467 005a 55C10170 		e_stw %r14,368(%r1)
 468 005e 5621017C 		e_stw %r17,380(%r1)
 469 0062 56610184 		e_stw %r19,388(%r1)
 470 0066 576101A4 		e_stw %r27,420(%r1)
 471              		.cfi_offset 14, -72
 472              		.cfi_offset 17, -60
 473              		.cfi_offset 19, -52
 474              		.cfi_offset 27, -20
 475 006a 57A1012C 		e_stw %r29,300(%r1)
 476              		.loc 1 1055 0
 477 006e 54810150 		e_stw %r4,336(%r1)
 478              	.LBB41:
 479              	.LBB42:
 480              		.loc 1 404 0
 481 0072 72C0E000 		e_lis %r22,NTC_Temp_Vector+128@ha
 482              	.LBE42:
 483              	.LBE41:
 484              		.loc 1 1055 0
 485 0076 54A10138 		e_stw %r5,312(%r1)
 486              	.LBB49:
 487              	.LBB44:
 488              		.loc 1 404 0
 489 007a 1ED60000 		e_la %r22,NTC_Temp_Vector+128@l(%r22)
 490              	.LBE44:
 491              	.LBE49:
 492              		.loc 1 1055 0
 493 007e 54C1016C 		e_stw %r6,364(%r1)
 494 0082 1A968480 		e_addi %r20,%r22,-128
 495 0086 5501014C 		e_stw %r8,332(%r1)
 496 008a 55210160 		e_stw %r9,352(%r1)
 497 008e 55410168 		e_stw %r10,360(%r1)
 498              	.LVL86:
 499 0092 51E101C8 		e_lwz %r15,456(%r1)
 500 0096 70E0E000 		e_lis %r7,KELVIN_CON@ha
 501              	.LVL87:
 502              	.LBB50:
 503              	.LBB45:
 504              		.loc 1 382 0
 505 009a 525F0004 		e_lwz %r18,4(%r31)
 506 009e 53070000 		e_lwz %r24,KELVIN_CON@l(%r7)
 507              		.loc 1 383 0
 508 00a2 52FF0080 		e_lwz %r23,128(%r31)
 509 00a6 1BC384FC 		e_addi %r30,%r3,-4
 510              		.loc 1 404 0
 511 00aa 527F007C 		e_lwz %r19,124(%r31)
 512 00ae 1B238034 		e_addi %r25,%r3,52
 513 00b2 01DC     		se_mr %r28,%r29
GAS LISTING C:\Users\Vipuls\AppData\Local\Temp\ccppVci0.s 			page 10


 514              		.loc 1 383 0
 515 00b4 72000020 		e_li %r16,32
 516              		.loc 1 382 0
 517 00b8 1AB48004 		e_addi %r21,%r20,4
 518              	.LVL88:
 519              	.L42:
 520              	.LBE45:
 521              	.LBE50:
 522              		.loc 1 1066 0 discriminator 3
 523 00bc 1A3E0204 		e_lwzu %r17,4(%r30)
 524              	.LVL89:
 525              	.LBB51:
 526              	.LBB46:
 527              		.loc 1 380 0 discriminator 3
 528 00c0 01A4     		se_mr %r4,%r26
 529 00c2 0393     		se_mfar %r3,%r17
 530 00c4 78000001 		e_bl __lesf2
 531              	.LVL90:
 532 00c8 2A03     		se_cmpi %r3,0
 533              		.loc 1 382 0 discriminator 3
 534 00ca 0393     		se_mfar %r3,%r17
 535              		.loc 1 380 0 discriminator 3
 536 00cc 7A010B3A 		e_ble %cr0,.L185
 537              		.loc 1 383 0
 538 00d0 03F4     		se_mfar %r4,%r23
 539 00d2 78000001 		e_bl __ltsf2
 540              	.LVL91:
 541 00d6 2A03     		se_cmpi %r3,0
 542 00d8 7A000B70 		e_bge %cr0,.L172
 543 00dc 480B     		se_li %r27,0
 544 00de 7E0E8378 		mr %r14,%r16
 545 00e2 490D     		se_li %r29,16
 546              	.L41:
 547              	.LVL92:
 548              	.LBB43:
 549              		.loc 1 392 0
 550 00e4 7FA71070 		e_slwi %r7,%r29,2
 551 00e8 0393     		se_mfar %r3,%r17
 552 00ea 7C9F382E 		lwzx %r4,%r31,%r7
 553 00ee 78000001 		e_bl __ltsf2
 554              	.LVL93:
 555 00f2 2A03     		se_cmpi %r3,0
 556 00f4 7F7BE81E 		isel %r27,%r27,%r29,0
 557              	.LVL94:
 558 00f8 7DDD701E 		isel %r14,%r29,%r14,0
 559              	.LVL95:
 560              		.loc 1 398 0
 561 00fc 7FBB7214 		add %r29,%r27,%r14
 562              	.LVL96:
 563              		.loc 1 391 0
 564 0100 7CFB7050 		subf %r7, %r27, %r14
 565              		.loc 1 398 0
 566 0104 681D     		se_srwi %r29,1
 567              	.LVL97:
 568              		.loc 1 391 0
 569 0106 2207     		se_cmpli %r7,1
 570 0108 7A11FFDC 		e_bgt %cr0,.L41
GAS LISTING C:\Users\Vipuls\AppData\Local\Temp\ccppVci0.s 			page 11


 571              		.loc 1 401 0
 572 010c 6C2B     		se_slwi %r27, 2
 573              	.LVL98:
 574 010e 0393     		se_mfar %r3,%r17
 575 0110 1BBB8004 		e_addi %r29,%r27,4
 576              	.LVL99:
 577 0114 7E3FD82E 		lwzx %r17,%r31,%r27
 578              	.LVL100:
 579 0118 7F7BA214 		add %r27,%r27,%r20
 580 011c 0394     		se_mfar %r4,%r17
 581 011e 78000001 		e_bl __subsf3
 582              	.LVL101:
 583 0122 0394     		se_mfar %r4,%r17
 584 0124 0236     		se_mtar %r14,%r3
 585              	.LVL102:
 586 0126 7C7FE82E 		lwzx %r3,%r31,%r29
 587 012a 78000001 		e_bl __subsf3
 588              	.LVL103:
 589 012e 0134     		se_mr %r4,%r3
 590 0130 0363     		se_mfar %r3,%r14
 591 0132 78000001 		e_bl __divsf3
 592              	.LVL104:
 593 0136 7CFDA214 		add %r7,%r29,%r20
 594 013a 0239     		se_mtar %r17,%r3
 595              	.LVL105:
 596              	.L37:
 597              	.LBE43:
 598              		.loc 1 413 0
 599 013c 50670000 		e_lwz %r3,0(%r7)
 600              	.LVL106:
 601              		.loc 1 412 0
 602 0140 53BB0000 		e_lwz %r29,0(%r27)
 603              	.LVL107:
 604              		.loc 1 413 0
 605 0144 01D4     		se_mr %r4,%r29
 606 0146 78000001 		e_bl __subsf3
 607              	.LVL108:
 608 014a 0394     		se_mfar %r4,%r17
 609 014c 78000001 		e_bl __mulsf3
 610              	.LVL109:
 611 0150 0134     		se_mr %r4,%r3
 612 0152 01D3     		se_mr %r3,%r29
 613 0154 78000001 		e_bl __addsf3
 614              	.LVL110:
 615              	.LBE46:
 616              	.LBE51:
 617              		.loc 1 1067 0
 618 0158 0184     		se_mr %r4,%r24
 619 015a 78000001 		e_bl __addsf3
 620              	.LVL111:
 621              		.loc 1 1061 0
 622 015e 0D9E     		se_cmpl %r30,%r25
 623              		.loc 1 1066 0
 624 0160 187C0604 		e_stwu %r3,4(%r28)
 625              		.loc 1 1061 0
 626 0164 7A02FF58 		e_bne %cr0,.L42
 627 0168 70E0E000 		e_lis %r7,Temperature_Vector@ha
GAS LISTING C:\Users\Vipuls\AppData\Local\Temp\ccppVci0.s 			page 12


 628              	.LBB52:
 629              	.LBB53:
 630              	.LBB54:
 631              		.loc 1 322 0
 632 016c 72A0E000 		e_lis %r21,SOC_Vector+4@ha
 633 0170 1FC70000 		e_la %r30,Temperature_Vector@l(%r7)
 634 0174 1EB50000 		e_la %r21,SOC_Vector+4@l(%r21)
 635 0178 50E70000 		e_lwz %r7,Temperature_Vector@l(%r7)
 636              	.LBE54:
 637              	.LBE53:
 638              	.LBB63:
 639              	.LBB64:
 640              	.LBB65:
 641              	.LBB66:
 642              		.loc 1 422 0
 643 017c 53FE0008 		e_lwz %r31,8(%r30)
 644 0180 53A10150 		e_lwz %r29,336(%r1)
 645              	.LVL112:
 646              	.LBE66:
 647              	.LBE65:
 648              	.LBE64:
 649              	.LBE63:
 650              	.LBB78:
 651              	.LBB56:
 652              		.loc 1 322 0
 653 0184 7320E000 		e_lis %r25,OCV_Vector@ha
 654              	.LVL113:
 655 0188 54E10130 		e_stw %r7,304(%r1)
 656              	.LBE56:
 657              	.LBE78:
 658              	.LBB79:
 659              	.LBB75:
 660              		.loc 1 289 0
 661 018c 527E0010 		e_lwz %r19,16(%r30)
 662              	.LBB71:
 663              	.LBB67:
 664              		.loc 1 422 0
 665 0190 57E10134 		e_stw %r31,308(%r1)
 666 0194 1F6F0590 		e_add16i %r27,%r15,1424
 667 0198 1AFD84FC 		e_addi %r23,%r29,-4
 668 019c 1E8F05C8 		e_add16i %r20,%r15,1480
 669 01a0 5301012C 		e_lwz %r24,300(%r1)
 670              	.LBE67:
 671              	.LBE71:
 672              		.loc 1 286 0
 673 01a4 72C00000 		e_li %r22,0
 674              	.LBB72:
 675              	.LBB68:
 676              		.loc 1 422 0
 677 01a8 2C0C     		se_bmaski %r28,0
 678              	.LBE68:
 679              	.LBE72:
 680              	.LBE75:
 681              	.LBE79:
 682              	.LBB80:
 683              	.LBB57:
 684              		.loc 1 322 0
GAS LISTING C:\Users\Vipuls\AppData\Local\Temp\ccppVci0.s 			page 13


 685 01aa 1F390000 		e_la %r25,OCV_Vector@l(%r25)
 686              		.loc 1 325 0
 687 01ae 1A55803C 		e_addi %r18,%r21,60
 688 01b2 0278     		se_mtar %r16,%r7
 689 01b4 55E1013C 		e_stw %r15,316(%r1)
 690              	.LVL114:
 691              	.L53:
 692              	.LBE57:
 693              	.LBE80:
 694              		.loc 1 1079 0 discriminator 3
 695 01b8 1B580204 		e_lwzu %r26,4(%r24)
 696              	.LVL115:
 697              	.LBB81:
 698              	.LBB76:
 699              		.loc 1 286 0 discriminator 3
 700 01bc 0384     		se_mfar %r4,%r16
 701 01be 01A3     		se_mr %r3,%r26
 702 01c0 03EF     		se_mfar %r31,%r22
 703 01c2 78000001 		e_bl __lesf2
 704              	.LVL116:
 705 01c6 2A03     		se_cmpi %r3,0
 706 01c8 7A01006A 		e_ble %cr0,.L43
 707              		.loc 1 289 0
 708 01cc 01A3     		se_mr %r3,%r26
 709 01ce 03B4     		se_mfar %r4,%r19
 710 01d0 4B3F     		se_li %r31,51
 711 01d2 78000001 		e_bl __ltsf2
 712              	.LVL117:
 713 01d6 2A03     		se_cmpi %r3,0
 714 01d8 7A00005A 		e_bge %cr0,.L43
 715              	.LVL118:
 716              	.LBB73:
 717              	.LBB69:
 718              		.loc 1 422 0
 719 01dc 01A3     		se_mr %r3,%r26
 720 01de 50810134 		e_lwz %r4,308(%r1)
 721 01e2 78000001 		e_bl __ltsf2
 722              	.LVL119:
 723 01e6 2A03     		se_cmpi %r3,0
 724 01e8 7A000CEC 		e_bge %cr0,.L174
 725 01ec 73E0E000 		e_lis %r31,Temperature_Vector+8@ha
 726 01f0 1FBF0000 		e_la %r29,Temperature_Vector+8@l(%r31)
 727 01f4 482F     		se_li %r31,2
 728              	.LVL120:
 729              	.L47:
 730 01f6 01A3     		se_mr %r3,%r26
 731 01f8 189D02FC 		e_lwzu %r4,-4(%r29)
 732 01fc 04CF     		se_add %r31,%r28
 733              	.LVL121:
 734 01fe 78000001 		e_bl __ltsf2
 735              	.LVL122:
 736 0202 2A03     		se_cmpi %r3,0
 737 0204 7A10FFF2 		e_blt %cr0,.L47
 738              	.LVL123:
 739              	.L45:
 740 0208 1BBF8001 		e_addi %r29,%r31,1
 741 020c 6C2D     		se_slwi %r29, 2
GAS LISTING C:\Users\Vipuls\AppData\Local\Temp\ccppVci0.s 			page 14


 742 020e 78000006 		e_b .L48
 743              	.LVL124:
 744              	.L128:
 745              		.loc 1 426 0
 746 0212 039F     		se_mfar %r31,%r17
 747              	.LVL125:
 748              	.L48:
 749              		.loc 1 425 0
 750 0214 7C9EE82E 		lwzx %r4,%r30,%r29
 751 0218 01A3     		se_mr %r3,%r26
 752 021a 1A3F8001 		e_addi %r17,%r31,1
 753 021e 78000001 		e_bl __gesf2
 754              	.LVL126:
 755 0222 203D     		se_addi %r29,4
 756 0224 2A03     		se_cmpi %r3,0
 757 0226 7A00FFEC 		e_bge %cr0,.L128
 758              	.LVL127:
 759 022a 7FE72070 		e_slwi %r7,%r31,4
 760 022e 7FE7FA14 		add %r31,%r7,%r31
 761              	.LVL128:
 762              	.L43:
 763              	.LBE69:
 764              	.LBE73:
 765              	.LBE76:
 766              	.LBE81:
 767              	.LBB82:
 768              	.LBB58:
 769              		.loc 1 322 0
 770 0232 6C2F     		se_slwi %r31, 2
 771              	.LBE58:
 772              	.LBE82:
 773              		.loc 1 1088 0
 774 0234 1BB70204 		e_lwzu %r29,4(%r23)
 775              	.LVL129:
 776              	.LBB83:
 777              	.LBB59:
 778              		.loc 1 322 0
 779 0238 7C79F82E 		lwzx %r3,%r25,%r31
 780 023c 01D4     		se_mr %r4,%r29
 781 023e 7E39FA14 		add %r17,%r25,%r31
 782 0242 78000001 		e_bl __gesf2
 783              	.LVL130:
 784 0246 2A03     		se_cmpi %r3,0
 785 0248 7A0009B2 		e_bge %cr0,.L129
 786              		.loc 1 325 0
 787 024c 01D3     		se_mr %r3,%r29
 788 024e 50910040 		e_lwz %r4,64(%r17)
 789              	.LBE59:
 790              	.LBE83:
 791              		.loc 1 1089 0
 792 0252 039A     		se_mfar %r26,%r17
 793              	.LBB84:
 794              	.LBB60:
 795              		.loc 1 325 0
 796 0254 78000001 		e_bl __ltsf2
 797              	.LVL131:
 798 0258 2A03     		se_cmpi %r3,0
GAS LISTING C:\Users\Vipuls\AppData\Local\Temp\ccppVci0.s 			page 15


 799 025a 7A0009E0 		e_bge %cr0,.L175
 800 025e 7ECFB378 		mr %r15,%r22
 801 0262 71C00010 		e_li %r14,16
 802 0266 488F     		se_li %r31,8
 803              	.L52:
 804              	.LVL132:
 805              	.LBB55:
 806              		.loc 1 334 0
 807 0268 7FE71070 		e_slwi %r7,%r31,2
 808 026c 01D3     		se_mr %r3,%r29
 809 026e 7C9A382E 		lwzx %r4,%r26,%r7
 810 0272 78000001 		e_bl __ltsf2
 811              	.LVL133:
 812 0276 2A03     		se_cmpi %r3,0
 813 0278 7DEFF81E 		isel %r15,%r15,%r31,0
 814              	.LVL134:
 815 027c 7DDF701E 		isel %r14,%r31,%r14,0
 816              	.LVL135:
 817              		.loc 1 340 0
 818 0280 7FEF7214 		add %r31,%r15,%r14
 819              	.LVL136:
 820              		.loc 1 333 0
 821 0284 7CEF7050 		subf %r7, %r15, %r14
 822              		.loc 1 340 0
 823 0288 681F     		se_srwi %r31,1
 824              	.LVL137:
 825              		.loc 1 333 0
 826 028a 2207     		se_cmpli %r7,1
 827 028c 7A11FFDC 		e_bgt %cr0,.L52
 828              		.loc 1 343 0
 829 0290 7DFF1070 		e_slwi %r31,%r15,2
 830              	.LVL138:
 831 0294 01D3     		se_mr %r3,%r29
 832 0296 7F51F82E 		lwzx %r26,%r17,%r31
 833 029a 1BBF8004 		e_addi %r29,%r31,4
 834              	.LVL139:
 835 029e 01A4     		se_mr %r4,%r26
 836 02a0 78000001 		e_bl __subsf3
 837              	.LVL140:
 838 02a4 01A4     		se_mr %r4,%r26
 839 02a6 0237     		se_mtar %r15,%r3
 840              	.LVL141:
 841 02a8 7C71E82E 		lwzx %r3,%r17,%r29
 842 02ac 78000001 		e_bl __subsf3
 843              	.LVL142:
 844 02b0 0134     		se_mr %r4,%r3
 845 02b2 0373     		se_mfar %r3,%r15
 846 02b4 78000001 		e_bl __divsf3
 847              	.LVL143:
 848 02b8 7080E000 		e_lis %r4,SOC_Vector@ha
 849 02bc 013A     		se_mr %r26,%r3
 850              	.LVL144:
 851 02be 1C840000 		e_la %r4,SOC_Vector@l(%r4)
 852 02c2 7CFF2214 		add %r7,%r31,%r4
 853 02c6 044D     		se_add %r29,%r4
 854              	.LVL145:
 855              	.L49:
GAS LISTING C:\Users\Vipuls\AppData\Local\Temp\ccppVci0.s 			page 16


 856              	.LBE55:
 857              		.loc 1 354 0
 858 02c8 53E70000 		e_lwz %r31,0(%r7)
 859              	.LVL146:
 860              		.loc 1 355 0
 861 02cc 507D0000 		e_lwz %r3,0(%r29)
 862 02d0 01F4     		se_mr %r4,%r31
 863 02d2 78000001 		e_bl __subsf3
 864              	.LVL147:
 865 02d6 01A4     		se_mr %r4,%r26
 866 02d8 78000001 		e_bl __mulsf3
 867              	.LVL148:
 868 02dc 0134     		se_mr %r4,%r3
 869 02de 01F3     		se_mr %r3,%r31
 870 02e0 78000001 		e_bl __addsf3
 871              	.LVL149:
 872              	.LBE60:
 873              	.LBE84:
 874              		.loc 1 1088 0
 875 02e4 187B0604 		e_stwu %r3,4(%r27)
 876              	.LBE52:
 877              		.loc 1 1073 0
 878 02e8 7C1BA040 		cmpl %cr0,%r27,%r20
 879 02ec 7A02FECC 		e_bne %cr0,.L53
 880 02f0 51E1013C 		e_lwz %r15,316(%r1)
 881 02f4 70A0E000 		e_lis %r5,SOC_Vector@ha
 882              	.LBB88:
 883              	.LBB89:
 884              	.LBB90:
 885              	.LBB91:
 886              		.loc 1 216 0
 887 02f8 2C06     		se_bmaski %r6,0
 888 02fa 1EE50000 		e_la %r23,SOC_Vector@l(%r5)
 889              		.loc 1 196 0
 890 02fe 70E0E000 		e_lis %r7,rtConstP@ha
 891 0302 50A50000 		e_lwz %r5,SOC_Vector@l(%r5)
 892 0306 1CE70000 		e_la %r7,rtConstP@l(%r7)
 893              		.loc 1 234 0
 894 030a 7320E000 		e_lis %r25,Temperature_Vector@ha
 895              		.loc 1 196 0
 896 030e 53A70338 		e_lwz %r29,824(%r7)
 897              		.loc 1 234 0
 898 0312 1F390000 		e_la %r25,Temperature_Vector@l(%r25)
 899 0316 50E7033C 		e_lwz %r7,828(%r7)
 900              		.loc 1 196 0
 901 031a 01D3     		se_mr %r3,%r29
 902              		.loc 1 234 0
 903 031c 54E10140 		e_stw %r7,320(%r1)
 904              		.loc 1 196 0
 905 0320 57A10148 		e_stw %r29,328(%r1)
 906              		.loc 1 254 0
 907 0324 0467     		se_add %r7,%r6
 908              		.loc 1 196 0
 909 0326 6C23     		se_slwi %r3, 2
 910              		.loc 1 254 0
 911 0328 54E10144 		e_stw %r7,324(%r1)
 912              		.loc 1 234 0
GAS LISTING C:\Users\Vipuls\AppData\Local\Temp\ccppVci0.s 			page 17


 913 032c 50810140 		e_lwz %r4,320(%r1)
 914 0330 6C47     		se_slwi %r7, 4
 915 0332 6C24     		se_slwi %r4, 2
 916              	.LBE91:
 917              	.LBE90:
 918              	.LBE89:
 919              	.LBE88:
 920              		.loc 1 1096 0
 921 0334 1FEF0594 		e_add16i %r31,%r15,1428
 922              	.LVL150:
 923 0338 54A10128 		e_stw %r5,296(%r1)
 924              	.LBB129:
 925              	.LBB125:
 926              	.LBB104:
 927              	.LBB92:
 928              		.loc 1 196 0
 929 033c 7C63BA14 		add %r3,%r3,%r23
 930              		.loc 1 216 0
 931 0340 046D     		se_add %r29,%r6
 932              		.loc 1 234 0
 933 0342 0494     		se_add %r4,%r25
 934 0344 50A10144 		e_lwz %r5,324(%r1)
 935              		.loc 1 266 0
 936 0348 7300E000 		e_lis %r24,R0_Vector@ha
 937 034c 0457     		se_add %r7,%r5
 938              	.LBE92:
 939              	.LBE104:
 940              	.LBE125:
 941              	.LBE129:
 942              		.loc 1 1096 0
 943 034e 57E10154 		e_stw %r31,340(%r1)
 944              	.LVL151:
 945              	.LBB130:
 946              	.LBB126:
 947              	.LBB105:
 948              	.LBB93:
 949              		.loc 1 196 0
 950 0352 5461013C 		e_stw %r3,316(%r1)
 951              		.loc 1 216 0
 952 0356 57A1015C 		e_stw %r29,348(%r1)
 953              		.loc 1 234 0
 954 035a 54810134 		e_stw %r4,308(%r1)
 955 035e 54E10158 		e_stw %r7,344(%r1)
 956 0362 1E0F0590 		e_add16i %r16,%r15,1424
 957 0366 1E2F04CC 		e_add16i %r17,%r15,1228
 958              	.LBE93:
 959              	.LBE105:
 960              		.loc 1 631 0
 961 036a 72C00000 		e_li %r22,0
 962              	.LBB106:
 963              	.LBB94:
 964              		.loc 1 194 0
 965 036e 71C00000 		e_li %r14,0
 966              		.loc 1 204 0
 967 0372 2C0A     		se_bmaski %r26,0
 968              	.LVL152:
 969              		.loc 1 266 0
GAS LISTING C:\Users\Vipuls\AppData\Local\Temp\ccppVci0.s 			page 18


 970 0374 1F180000 		e_la %r24,R0_Vector@l(%r24)
 971              	.LVL153:
 972              	.L66:
 973              	.LBE94:
 974              	.LBE106:
 975              		.loc 1 632 0
 976 0378 53E1012C 		e_lwz %r31,300(%r1)
 977 037c 1B900204 		e_lwzu %r28,4(%r16)
 978 0380 1BBF0204 		e_lwzu %r29,4(%r31)
 979              		.loc 1 634 0
 980 0384 7EDE0870 		e_slwi %r30,%r22,1
 981              		.loc 1 632 0
 982 0388 57E1012C 		e_stw %r31,300(%r1)
 983              	.LBB107:
 984              	.LBB95:
 985              		.loc 1 193 0
 986 038c 01C3     		se_mr %r3,%r28
 987              	.LBE95:
 988              	.LBE107:
 989              		.loc 1 632 0
 990 038e 1FFE0140 		e_add16i %r31,%r30,320
 991              	.LBB108:
 992              	.LBB96:
 993              		.loc 1 193 0
 994 0392 50810128 		e_lwz %r4,296(%r1)
 995              	.LBE96:
 996              	.LBE108:
 997              		.loc 1 632 0
 998 0396 6C2F     		se_slwi %r31, 2
 999              	.LBB109:
 1000              	.LBB97:
 1001              		.loc 1 193 0
 1002 0398 78000001 		e_bl __lesf2
 1003              	.LVL154:
 1004              	.LBE97:
 1005              	.LBE109:
 1006              		.loc 1 632 0
 1007 039c 7FEFFA14 		add %r31,%r15,%r31
 1008              	.LBB110:
 1009              	.LBB98:
 1010              		.loc 1 193 0
 1011 03a0 2A03     		se_cmpi %r3,0
 1012              	.LBE98:
 1013              	.LBE110:
 1014              		.loc 1 632 0
 1015 03a2 1A7F8008 		e_addi %r19,%r31,8
 1016              	.LVL155:
 1017              	.LBB111:
 1018              	.LBB99:
 1019              		.loc 1 193 0
 1020 03a6 7A010598 		e_ble %cr0,.L132
 1021              		.loc 1 196 0
 1022 03aa 50A1013C 		e_lwz %r5,316(%r1)
 1023 03ae 01C3     		se_mr %r3,%r28
 1024 03b0 50850000 		e_lwz %r4,0(%r5)
 1025 03b4 78000001 		e_bl __ltsf2
 1026              	.LVL156:
GAS LISTING C:\Users\Vipuls\AppData\Local\Temp\ccppVci0.s 			page 19


 1027 03b8 2A03     		se_cmpi %r3,0
 1028 03ba 7A0008B4 		e_bge %cr0,.L176
 1029              		.loc 1 198 0
 1030 03be C2FF     		se_lwz %r31,8(%r31)
 1031              	.LVL157:
 1032              		.loc 1 200 0
 1033 03c0 52410148 		e_lwz %r18,328(%r1)
 1034              		.loc 1 199 0
 1035 03c4 7DD47378 		mr %r20,%r14
 1036              	.LVL158:
 1037              	.L122:
 1038              		.loc 1 203 0
 1039 03c8 7FF51070 		e_slwi %r21,%r31,2
 1040 03cc 01C3     		se_mr %r3,%r28
 1041 03ce 7F77A82E 		lwzx %r27,%r23,%r21
 1042 03d2 01B4     		se_mr %r4,%r27
 1043 03d4 78000001 		e_bl __ltsf2
 1044              	.LVL159:
 1045 03d8 2A03     		se_cmpi %r3,0
 1046 03da 7A000028 		e_bge %cr0,.L177
 1047              	.LVL160:
 1048              	.L186:
 1049              		.loc 1 205 0
 1050 03de 7CFFA214 		add %r7,%r31,%r20
 1051              		.loc 1 204 0
 1052 03e2 7E5FD214 		add %r18,%r31,%r26
 1053              		.loc 1 203 0
 1054 03e6 01C3     		se_mr %r3,%r28
 1055              		.loc 1 205 0
 1056 03e8 7FE7D214 		add %r31,%r7,%r26
 1057              	.LVL161:
 1058 03ec 681F     		se_srwi %r31,1
 1059              	.LVL162:
 1060              		.loc 1 203 0
 1061 03ee 7FF51070 		e_slwi %r21,%r31,2
 1062 03f2 7F77A82E 		lwzx %r27,%r23,%r21
 1063 03f6 01B4     		se_mr %r4,%r27
 1064 03f8 78000001 		e_bl __ltsf2
 1065              	.LVL163:
 1066 03fc 2A03     		se_cmpi %r3,0
 1067 03fe 7A10FFE0 		e_blt %cr0,.L186
 1068              	.LVL164:
 1069              	.L177:
 1070              		.loc 1 206 0
 1071 0402 18F78004 		e_addi %r7,%r23,4
 1072 0406 01C3     		se_mr %r3,%r28
 1073 0408 7EA7A82E 		lwzx %r21,%r7,%r21
 1074 040c 1A9F8001 		e_addi %r20,%r31,1
 1075 0410 03D4     		se_mfar %r4,%r21
 1076 0412 78000001 		e_bl __ltsf2
 1077              	.LVL165:
 1078 0416 2A03     		se_cmpi %r3,0
 1079 0418 7A100010 		e_blt %cr0,.L59
 1080              		.loc 1 210 0
 1081 041c 7FFF9214 		add %r31,%r31,%r18
 1082              	.LVL166:
 1083 0420 200F     		se_addi %r31,1
GAS LISTING C:\Users\Vipuls\AppData\Local\Temp\ccppVci0.s 			page 20


 1084 0422 681F     		se_srwi %r31,1
 1085              	.LVL167:
 1086 0424 79FFFFA4 		e_b .L122
 1087              	.L59:
 1088              	.LVL168:
 1089              		.loc 1 214 0
 1090 0428 01C3     		se_mr %r3,%r28
 1091 042a 01B4     		se_mr %r4,%r27
 1092 042c 78000001 		e_bl __subsf3
 1093              	.LVL169:
 1094 0430 01B4     		se_mr %r4,%r27
 1095 0432 013C     		se_mr %r28,%r3
 1096              	.LVL170:
 1097 0434 03D3     		se_mfar %r3,%r21
 1098 0436 78000001 		e_bl __subsf3
 1099              	.LVL171:
 1100 043a 0134     		se_mr %r4,%r3
 1101 043c 01C3     		se_mr %r3,%r28
 1102 043e 78000001 		e_bl __divsf3
 1103              	.LVL172:
 1104 0442 023D     		se_mtar %r21,%r3
 1105              	.LVL173:
 1106              	.L54:
 1107              		.loc 1 220 0
 1108 0444 1FDE0140 		e_add16i %r30,%r30,320
 1109              		.loc 1 231 0
 1110 0448 01D3     		se_mr %r3,%r29
 1111              		.loc 1 220 0
 1112 044a 6C2E     		se_slwi %r30, 2
 1113              		.loc 1 231 0
 1114 044c 50810130 		e_lwz %r4,304(%r1)
 1115              		.loc 1 220 0
 1116 0450 7FCFF214 		add %r30,%r15,%r30
 1117 0454 D2FE     		se_stw %r31,8(%r30)
 1118              	.LVL174:
 1119              		.loc 1 231 0
 1120 0456 78000001 		e_bl __lesf2
 1121              	.LVL175:
 1122 045a 2A03     		se_cmpi %r3,0
 1123 045c 7A010504 		e_ble %cr0,.L134
 1124              	.L191:
 1125              		.loc 1 234 0
 1126 0460 50C10134 		e_lwz %r6,308(%r1)
 1127 0464 01D3     		se_mr %r3,%r29
 1128 0466 50860000 		e_lwz %r4,0(%r6)
 1129 046a 78000001 		e_bl __ltsf2
 1130              	.LVL176:
 1131 046e 2A03     		se_cmpi %r3,0
 1132 0470 7A0007BA 		e_bge %cr0,.L178
 1133              		.loc 1 236 0
 1134 0474 52530004 		e_lwz %r18,4(%r19)
 1135              	.LVL177:
 1136              		.loc 1 238 0
 1137 0478 52810140 		e_lwz %r20,320(%r1)
 1138              		.loc 1 237 0
 1139 047c 036B     		se_mfar %r27,%r14
 1140              	.LVL178:
GAS LISTING C:\Users\Vipuls\AppData\Local\Temp\ccppVci0.s 			page 21


 1141              	.L123:
 1142              		.loc 1 241 0
 1143 047e 7E5C1070 		e_slwi %r28,%r18,2
 1144 0482 01D3     		se_mr %r3,%r29
 1145 0484 7FD9E02E 		lwzx %r30,%r25,%r28
 1146 0488 01E4     		se_mr %r4,%r30
 1147 048a 78000001 		e_bl __ltsf2
 1148              	.LVL179:
 1149 048e 2A03     		se_cmpi %r3,0
 1150 0490 7A00002A 		e_bge %cr0,.L179
 1151              	.LVL180:
 1152              	.L187:
 1153              		.loc 1 243 0
 1154 0494 7CF2DA14 		add %r7,%r18,%r27
 1155              		.loc 1 242 0
 1156 0498 7E92D214 		add %r20,%r18,%r26
 1157              		.loc 1 241 0
 1158 049c 01D3     		se_mr %r3,%r29
 1159              		.loc 1 243 0
 1160 049e 7E47D214 		add %r18,%r7,%r26
 1161              	.LVL181:
 1162 04a2 7E520C70 		e_srwi %r18,%r18,1
 1163              	.LVL182:
 1164              		.loc 1 241 0
 1165 04a6 7E5C1070 		e_slwi %r28,%r18,2
 1166 04aa 7FD9E02E 		lwzx %r30,%r25,%r28
 1167 04ae 01E4     		se_mr %r4,%r30
 1168 04b0 78000001 		e_bl __ltsf2
 1169              	.LVL183:
 1170 04b4 2A03     		se_cmpi %r3,0
 1171 04b6 7A10FFDE 		e_blt %cr0,.L187
 1172              	.LVL184:
 1173              	.L179:
 1174              		.loc 1 244 0
 1175 04ba 18F98004 		e_addi %r7,%r25,4
 1176 04be 01D3     		se_mr %r3,%r29
 1177 04c0 7F87E02E 		lwzx %r28,%r7,%r28
 1178 04c4 1B728001 		e_addi %r27,%r18,1
 1179 04c8 01C4     		se_mr %r4,%r28
 1180 04ca 78000001 		e_bl __ltsf2
 1181              	.LVL185:
 1182 04ce 2A03     		se_cmpi %r3,0
 1183 04d0 7A100014 		e_blt %cr0,.L65
 1184              		.loc 1 248 0
 1185 04d4 7E52A214 		add %r18,%r18,%r20
 1186              	.LVL186:
 1187 04d8 1A528001 		e_addi %r18,%r18,1
 1188 04dc 7E520C70 		e_srwi %r18,%r18,1
 1189              	.LVL187:
 1190 04e0 79FFFF9E 		e_b .L123
 1191              	.L65:
 1192              	.LVL188:
 1193              		.loc 1 252 0
 1194 04e4 01D3     		se_mr %r3,%r29
 1195 04e6 01E4     		se_mr %r4,%r30
 1196 04e8 78000001 		e_bl __subsf3
 1197              	.LVL189:
GAS LISTING C:\Users\Vipuls\AppData\Local\Temp\ccppVci0.s 			page 22


 1198 04ec 01E4     		se_mr %r4,%r30
 1199 04ee 013D     		se_mr %r29,%r3
 1200              	.LVL190:
 1201 04f0 01C3     		se_mr %r3,%r28
 1202 04f2 78000001 		e_bl __subsf3
 1203              	.LVL191:
 1204 04f6 0134     		se_mr %r4,%r3
 1205 04f8 01D3     		se_mr %r3,%r29
 1206 04fa 78000001 		e_bl __divsf3
 1207              	.LVL192:
 1208 04fe 7E472070 		e_slwi %r7,%r18,4
 1209 0502 013C     		se_mr %r28,%r3
 1210              	.LVL193:
 1211 0504 7CE79214 		add %r7,%r7,%r18
 1212              	.LVL194:
 1213              	.L60:
 1214              		.loc 1 265 0
 1215 0508 7FE7FA14 		add %r31,%r7,%r31
 1216              	.LVL195:
 1217              		.loc 1 258 0
 1218 050c 56530004 		e_stw %r18,4(%r19)
 1219              		.loc 1 267 0
 1220 0510 18F88004 		e_addi %r7,%r24,4
 1221              		.loc 1 266 0
 1222 0514 6C2F     		se_slwi %r31, 2
 1223              	.LBE99:
 1224              	.LBE111:
 1225              		.loc 1 631 0
 1226 0516 1AD68001 		e_addi %r22,%r22,1
 1227              	.LVL196:
 1228              	.LBB112:
 1229              	.LBB100:
 1230              		.loc 1 267 0
 1231 051a 7C67F82E 		lwzx %r3,%r7,%r31
 1232              		.loc 1 266 0
 1233 051e 7FD8F82E 		lwzx %r30,%r24,%r31
 1234              	.LVL197:
 1235              		.loc 1 267 0
 1236 0522 01E4     		se_mr %r4,%r30
 1237 0524 78000001 		e_bl __subsf3
 1238              	.LVL198:
 1239 0528 03D4     		se_mfar %r4,%r21
 1240 052a 78000001 		e_bl __mulsf3
 1241              	.LVL199:
 1242 052e 0134     		se_mr %r4,%r3
 1243 0530 01E3     		se_mr %r3,%r30
 1244 0532 78000001 		e_bl __addsf3
 1245              	.LVL200:
 1246              		.loc 1 269 0
 1247 0536 18D88044 		e_addi %r6,%r24,68
 1248              		.loc 1 270 0
 1249 053a 18F88048 		e_addi %r7,%r24,72
 1250              		.loc 1 269 0
 1251 053e 7FA6F82E 		lwzx %r29,%r6,%r31
 1252              		.loc 1 267 0
 1253 0542 013E     		se_mr %r30,%r3
 1254              	.LVL201:
GAS LISTING C:\Users\Vipuls\AppData\Local\Temp\ccppVci0.s 			page 23


 1255              		.loc 1 270 0
 1256 0544 01D4     		se_mr %r4,%r29
 1257 0546 7C67F82E 		lwzx %r3,%r7,%r31
 1258              	.LVL202:
 1259 054a 78000001 		e_bl __subsf3
 1260              	.LVL203:
 1261 054e 0134     		se_mr %r4,%r3
 1262 0550 03D3     		se_mfar %r3,%r21
 1263 0552 78000001 		e_bl __mulsf3
 1264              	.LVL204:
 1265 0556 0134     		se_mr %r4,%r3
 1266 0558 01D3     		se_mr %r3,%r29
 1267 055a 78000001 		e_bl __addsf3
 1268              	.LVL205:
 1269 055e 01E4     		se_mr %r4,%r30
 1270 0560 78000001 		e_bl __subsf3
 1271              	.LVL206:
 1272 0564 01C4     		se_mr %r4,%r28
 1273 0566 78000001 		e_bl __mulsf3
 1274              	.LVL207:
 1275 056a 0134     		se_mr %r4,%r3
 1276 056c 01E3     		se_mr %r3,%r30
 1277 056e 78000001 		e_bl __addsf3
 1278              	.LVL208:
 1279              	.LBE100:
 1280              	.LBE112:
 1281              		.loc 1 631 0
 1282 0572 7016980E 		e_cmp16i %r22,14
 1283              		.loc 1 632 0
 1284 0576 18710604 		e_stwu %r3,4(%r17)
 1285              		.loc 1 631 0
 1286 057a 7A02FDFE 		e_bne %cr0,.L66
 1287 057e 50E10160 		e_lwz %r7,352(%r1)
 1288 0582 480F     		se_li %r31,0
 1289 0584 18E784FC 		e_addi %r7,%r7,-4
 1290 0588 7080E000 		e_lis %r4,rtConstP@ha
 1291 058c 54E10158 		e_stw %r7,344(%r1)
 1292 0590 1C840000 		e_la %r4,rtConstP@l(%r4)
 1293 0594 54E10134 		e_stw %r7,308(%r1)
 1294 0598 1C840310 		e_add16i %r4,%r4,784
 1295 059c 72000000 		e_li %r16,0
 1296 05a0 71C00000 		e_li %r14,0
 1297 05a4 57E1012C 		e_stw %r31,300(%r1)
 1298 05a8 54810148 		e_stw %r4,328(%r1)
 1299 05ac 7800009C 		e_b .L94
 1300              	.LVL209:
 1301              	.L189:
 1302 05b0 53FE0048 		e_lwz %r31,72(%r30)
 1303              	.LBB113:
 1304              		.loc 1 680 0
 1305 05b4 70E0E000 		e_lis %r7,SOC_MAX@ha
 1306 05b8 01F4     		se_mr %r4,%r31
 1307 05ba 1CE70000 		e_la %r7,SOC_MAX@l(%r7)
 1308 05be 50670000 		e_lwz %r3,0(%r7)
 1309 05c2 78000001 		e_bl __lesf2
 1310              	.LVL210:
 1311 05c6 2A03     		se_cmpi %r3,0
GAS LISTING C:\Users\Vipuls\AppData\Local\Temp\ccppVci0.s 			page 24


 1312 05c8 7A1100C4 		e_bgt %cr0,.L70
 1313              	.L190:
 1314              		.loc 1 677 0
 1315 05cc 50610138 		e_lwz %r3,312(%r1)
 1316 05d0 4804     		se_li %r4,0
 1317 05d2 78000001 		e_bl __gtsf2
 1318              	.LVL211:
 1319 05d6 2A03     		se_cmpi %r3,0
 1320 05d8 7A0100B4 		e_ble %cr0,.L70
 1321              	.L72:
 1322              	.LVL212:
 1323              		.loc 1 685 0
 1324 05dc 30FE0052 		e_lbz %r7,82(%r30)
 1325 05e0 2A07     		se_cmpi %r7,0
 1326 05e2 7A120010 		e_beq %cr0,.L119
 1327 05e6 7CEF8214 		add %r7,%r15,%r16
 1328              		.loc 1 687 0
 1329 05ea 50E704D0 		e_lwz %r7,1232(%r7)
 1330              		.loc 1 686 0
 1331 05ee 54FE004C 		e_stw %r7,76(%r30)
 1332              	.L119:
 1333              		.loc 1 942 0
 1334 05f2 4807     		se_li %r7,0
 1335              		.loc 1 951 0
 1336 05f4 50BE004C 		e_lwz %r5,76(%r30)
 1337              	.LVL213:
 1338              		.loc 1 942 0
 1339 05f8 34FE0054 		e_stb %r7,84(%r30)
 1340              		.loc 1 957 0
 1341 05fc 50FE0044 		e_lwz %r7,68(%r30)
 1342              	.LVL214:
 1343              	.L93:
 1344              		.loc 1 968 0
 1345 0600 4806     		se_li %r6,0
 1346              		.loc 1 980 0
 1347 0602 53A10134 		e_lwz %r29,308(%r1)
 1348              		.loc 1 968 0
 1349 0606 34DE0050 		e_stb %r6,80(%r30)
 1350              		.loc 1 972 0
 1351 060a 34DE0051 		e_stb %r6,81(%r30)
 1352              		.loc 1 976 0
 1353 060e 34DE0052 		e_stb %r6,82(%r30)
 1354              	.LBE113:
 1355              		.loc 1 642 0
 1356 0612 53E1012C 		e_lwz %r31,300(%r1)
 1357              	.LBB118:
 1358              		.loc 1 969 0
 1359 0616 54FE0044 		e_stw %r7,68(%r30)
 1360              		.loc 1 973 0
 1361 061a 54FE0048 		e_stw %r7,72(%r30)
 1362              		.loc 1 977 0
 1363 061e 54BE004C 		e_stw %r5,76(%r30)
 1364 0622 19CE8058 		e_addi %r14,%r14,88
 1365              		.loc 1 983 0
 1366 0626 18C18078 		e_addi %r6,%r1,120
 1367              	.LVL215:
 1368              		.loc 1 980 0
GAS LISTING C:\Users\Vipuls\AppData\Local\Temp\ccppVci0.s 			page 25


 1369 062a 18FD0604 		e_stwu %r7,4(%r29)
 1370              		.loc 1 983 0
 1371 062e 7CB0312E 		stwx %r5,%r16,%r6
 1372              	.LBE118:
 1373              		.loc 1 642 0
 1374 0632 200F     		se_addi %r31,1
 1375              	.LBB119:
 1376              		.loc 1 980 0
 1377 0634 57A10134 		e_stw %r29,308(%r1)
 1378              	.LBE119:
 1379              		.loc 1 642 0
 1380 0638 57E1012C 		e_stw %r31,300(%r1)
 1381              	.LVL216:
 1382 063c 1A108004 		e_addi %r16,%r16,4
 1383 0640 700EACD0 		e_cmpl16i %r14,1232
 1384 0644 7A120636 		e_beq %cr0,.L188
 1385              	.LVL217:
 1386              	.L94:
 1387 0648 7FCF7214 		add %r30,%r15,%r14
 1388              	.LBB120:
 1389              		.loc 1 650 0
 1390 064c 30FE0050 		e_lbz %r7,80(%r30)
 1391 0650 2A07     		se_cmpi %r7,0
 1392 0652 7A120010 		e_beq %cr0,.L67
 1393              		.loc 1 652 0
 1394 0656 50C10154 		e_lwz %r6,340(%r1)
 1395 065a 7CE6802E 		lwzx %r7,%r6,%r16
 1396              		.loc 1 651 0
 1397 065e 54FE0044 		e_stw %r7,68(%r30)
 1398              	.L67:
 1399              		.loc 1 658 0
 1400 0662 30FE0051 		e_lbz %r7,81(%r30)
 1401 0666 2A07     		se_cmpi %r7,0
 1402 0668 7A12FF48 		e_beq %cr0,.L189
 1403              		.loc 1 660 0
 1404 066c 53FE0044 		e_lwz %r31,68(%r30)
 1405              		.loc 1 680 0
 1406 0670 70E0E000 		e_lis %r7,SOC_MAX@ha
 1407              		.loc 1 659 0
 1408 0674 57FE0048 		e_stw %r31,72(%r30)
 1409              		.loc 1 680 0
 1410 0678 1CE70000 		e_la %r7,SOC_MAX@l(%r7)
 1411 067c 01F4     		se_mr %r4,%r31
 1412 067e 50670000 		e_lwz %r3,0(%r7)
 1413 0682 78000001 		e_bl __lesf2
 1414              	.LVL218:
 1415 0686 2A03     		se_cmpi %r3,0
 1416 0688 7A01FF44 		e_ble %cr0,.L190
 1417              	.L70:
 1418              		.loc 1 678 0
 1419 068c 73A0E000 		e_lis %r29,SOC_MIN@ha
 1420 0690 01F4     		se_mr %r4,%r31
 1421 0692 1FBD0000 		e_la %r29,SOC_MIN@l(%r29)
 1422 0696 507D0000 		e_lwz %r3,0(%r29)
 1423 069a 78000001 		e_bl __gesf2
 1424              	.LVL219:
 1425 069e 2A03     		se_cmpi %r3,0
GAS LISTING C:\Users\Vipuls\AppData\Local\Temp\ccppVci0.s 			page 26


 1426 06a0 7A100014 		e_blt %cr0,.L73
 1427              		.loc 1 679 0
 1428 06a4 50610138 		e_lwz %r3,312(%r1)
 1429 06a8 4804     		se_li %r4,0
 1430 06aa 78000001 		e_bl __ltsf2
 1431              	.LVL220:
 1432 06ae 2A03     		se_cmpi %r3,0
 1433 06b0 7A10FF2C 		e_blt %cr0,.L72
 1434              	.L73:
 1435              		.loc 1 680 0
 1436 06b4 53E1014C 		e_lwz %r31,332(%r1)
 1437 06b8 50C1012C 		e_lwz %r6,300(%r1)
 1438 06bc 7CFF30AE 		lbzx %r7,%r31,%r6
 1439 06c0 2A07     		se_cmpi %r7,0
 1440 06c2 7A12FF1A 		e_beq %cr0,.L72
 1441              	.LVL221:
 1442              		.loc 1 685 0
 1443 06c6 30FE0052 		e_lbz %r7,82(%r30)
 1444 06ca 2A07     		se_cmpi %r7,0
 1445 06cc 7A120010 		e_beq %cr0,.L121
 1446 06d0 7CEF8214 		add %r7,%r15,%r16
 1447              		.loc 1 687 0
 1448 06d4 50E704D0 		e_lwz %r7,1232(%r7)
 1449              		.loc 1 686 0
 1450 06d8 54FE004C 		e_stw %r7,76(%r30)
 1451              	.L121:
 1452              	.LBB114:
 1453              		.loc 1 696 0
 1454 06dc 30FE0054 		e_lbz %r7,84(%r30)
 1455 06e0 2A07     		se_cmpi %r7,0
 1456 06e2 7A020032 		e_bne %cr0,.L76
 1457              		.loc 1 698 0
 1458 06e6 4817     		se_li %r7,1
 1459 06e8 18CE801C 		e_addi %r6,%r14,28
 1460 06ec 34FE0053 		e_stb %r7,83(%r30)
 1461              	.LVL222:
 1462 06f0 73A0E000 		e_lis %r29,.LC0@ha
 1463 06f4 7CCF3214 		add %r6,%r15,%r6
 1464 06f8 50FD0000 		e_lwz %r7,.LC0@l(%r29)
 1465 06fc 50810148 		e_lwz %r4,328(%r1)
 1466              	.LVL223:
 1467              	.L77:
 1468              		.loc 1 703 0
 1469 0700 18A70204 		e_lwzu %r5,4(%r7)
 1470              		.loc 1 702 0
 1471 0704 18A60604 		e_stwu %r5,4(%r6)
 1472              		.loc 1 701 0
 1473 0708 0D47     		se_cmpl %r7,%r4
 1474 070a 7A02FFF6 		e_bne %cr0,.L77
 1475              		.loc 1 707 0
 1476 070e 4817     		se_li %r7,1
 1477 0710 34FE0054 		e_stb %r7,84(%r30)
 1478              	.L76:
 1479              		.loc 1 716 0
 1480 0714 30FE0053 		e_lbz %r7,83(%r30)
 1481 0718 2A07     		se_cmpi %r7,0
 1482 071a 7A12001A 		e_beq %cr0,.L78
GAS LISTING C:\Users\Vipuls\AppData\Local\Temp\ccppVci0.s 			page 27


 1483              		.loc 1 717 0
 1484 071e 50DE0044 		e_lwz %r6,68(%r30)
 1485              		.loc 1 720 0
 1486 0722 50FE004C 		e_lwz %r7,76(%r30)
 1487              		.loc 1 717 0
 1488 0726 54DE0014 		e_stw %r6,20(%r30)
 1489              		.loc 1 720 0
 1490 072a 54FE001C 		e_stw %r7,28(%r30)
 1491              		.loc 1 719 0
 1492 072e 4806     		se_li %r6,0
 1493 0730 54DE0018 		e_stw %r6,24(%r30)
 1494              	.L78:
 1495              		.loc 1 731 0
 1496 0734 53FE0014 		e_lwz %r31,20(%r30)
 1497 0738 7080E000 		e_lis %r4,.LC1@ha
 1498 073c 01F3     		se_mr %r3,%r31
 1499 073e 50A40000 		e_lwz %r5,.LC1@l(%r4)
 1500 0742 18E18040 		e_addi %r7,%r1,64
 1501              	.LVL224:
 1502 0746 7CF0382E 		lwzx %r7,%r16,%r7
 1503              	.LVL225:
 1504 074a 0174     		se_mr %r4,%r7
 1505 074c 54E10130 		e_stw %r7,304(%r1)
 1506 0750 78000001 		e_bl look2_iflf_binlx.constprop.4
 1507              	.LVL226:
 1508              		.loc 1 742 0
 1509 0754 70C0E000 		e_lis %r6,.LC2@ha
 1510              		.loc 1 735 0
 1511 0758 70F7E780 		e_lis %r7,0xbf80
 1512              		.loc 1 742 0
 1513 075c 50A60000 		e_lwz %r5,.LC2@l(%r6)
 1514              		.loc 1 736 0
 1515 0760 53A10138 		e_lwz %r29,312(%r1)
 1516              		.loc 1 742 0
 1517 0764 50810130 		e_lwz %r4,304(%r1)
 1518              		.loc 1 731 0
 1519 0768 54610110 		e_stw %r3,272(%r1)
 1520              		.loc 1 735 0
 1521 076c 54E10114 		e_stw %r7,276(%r1)
 1522              		.loc 1 736 0
 1523 0770 57A10118 		e_stw %r29,280(%r1)
 1524              		.loc 1 731 0
 1525 0774 013B     		se_mr %r27,%r3
 1526 0776 73A0E000 		e_lis %r29,rtConstP+72@ha
 1527              		.loc 1 742 0
 1528 077a 01F3     		se_mr %r3,%r31
 1529 077c 1FBD0000 		e_la %r29,rtConstP+72@l(%r29)
 1530 0780 78000001 		e_bl look2_iflf_binlx.constprop.4
 1531              	.LVL227:
 1532              		.loc 1 758 0
 1533 0784 70E0E000 		e_lis %r7,.LC3@ha
 1534 0788 50810130 		e_lwz %r4,304(%r1)
 1535 078c 50A70000 		e_lwz %r5,.LC3@l(%r7)
 1536              		.loc 1 742 0
 1537 0790 5461013C 		e_stw %r3,316(%r1)
 1538              	.LVL228:
 1539              		.loc 1 758 0
GAS LISTING C:\Users\Vipuls\AppData\Local\Temp\ccppVci0.s 			page 28


 1540 0794 01F3     		se_mr %r3,%r31
 1541              	.LVL229:
 1542 0796 78000001 		e_bl look2_iflf_binlx.constprop.4
 1543              	.LVL230:
 1544              		.loc 1 757 0
 1545 079a 7FEF702E 		lwzx %r31,%r15,%r14
 1546              		.loc 1 758 0
 1547 079e 0134     		se_mr %r4,%r3
 1548              		.loc 1 757 0
 1549 07a0 1BFF8380 		e_addi %r31,%r31,-2147483648
 1550              		.loc 1 758 0
 1551 07a4 5061013C 		e_lwz %r3,316(%r1)
 1552 07a8 78000001 		e_bl __mulsf3
 1553              	.LVL231:
 1554 07ac 0134     		se_mr %r4,%r3
 1555              		.loc 1 757 0
 1556 07ae 01F3     		se_mr %r3,%r31
 1557 07b0 489F     		se_li %r31,9
 1558 07b2 78000001 		e_bl __divsf3
 1559              	.LVL232:
 1560 07b6 78000001 		e_bl expf
 1561              	.LVL233:
 1562 07ba 18DD84D8 		e_addi %r6,%r29,-40
 1563 07be 54610140 		e_stw %r3,320(%r1)
 1564              	.LVL234:
 1565 07c2 18E180D0 		e_addi %r7,%r1,208
 1566 07c6 00BF     		se_mtctr %r31
 1567              	.LVL235:
 1568              	.L79:
 1569              		.loc 1 768 0
 1570 07c8 18A60204 		e_lwzu %r5,4(%r6)
 1571 07cc 18A70604 		e_stwu %r5,4(%r7)
 1572              		.loc 1 767 0
 1573 07d0 7A20FFF8 		e_bdnz .L79
 1574 07d4 1BAE801C 		e_addi %r29,%r14,28
 1575              		.loc 1 774 0
 1576 07d8 50C10140 		e_lwz %r6,320(%r1)
 1577 07dc 7FAFEA14 		add %r29,%r15,%r29
 1578 07e0 54C100E4 		e_stw %r6,228(%r1)
 1579              	.LVL236:
 1580 07e4 72A00000 		e_li %r21,0
 1581              		.loc 1 757 0
 1582 07e8 72E00000 		e_li %r23,0
 1583              		.loc 1 785 0
 1584 07ec 4808     		se_li %r24,0
 1585              	.LVL237:
 1586              	.L80:
 1587 07ee 1A9D0204 		e_lwzu %r20,4(%r29)
 1588              		.loc 1 757 0
 1589 07f2 1B8180D0 		e_addi %r28,%r1,208
 1590 07f6 52DD000C 		e_lwz %r22,12(%r29)
 1591 07fa 533D0018 		e_lwz %r25,24(%r29)
 1592 07fe 03FF     		se_mfar %r31,%r23
 1593              	.LVL238:
 1594              	.L81:
 1595              		.loc 1 786 0
 1596 0800 189C0204 		e_lwzu %r4,4(%r28)
GAS LISTING C:\Users\Vipuls\AppData\Local\Temp\ccppVci0.s 			page 29


 1597 0804 03C3     		se_mfar %r3,%r20
 1598 0806 78000001 		e_bl __mulsf3
 1599              	.LVL239:
 1600              		.loc 1 785 0
 1601 080a 0184     		se_mr %r4,%r24
 1602 080c 78000001 		e_bl __addsf3
 1603              	.LVL240:
 1604              		.loc 1 788 0
 1605 0810 509C000C 		e_lwz %r4,12(%r28)
 1606              		.loc 1 785 0
 1607 0814 013A     		se_mr %r26,%r3
 1608              		.loc 1 788 0
 1609 0816 03E3     		se_mfar %r3,%r22
 1610 0818 78000001 		e_bl __mulsf3
 1611              	.LVL241:
 1612 081c 0134     		se_mr %r4,%r3
 1613              		.loc 1 787 0
 1614 081e 01A3     		se_mr %r3,%r26
 1615 0820 78000001 		e_bl __addsf3
 1616              	.LVL242:
 1617              		.loc 1 790 0
 1618 0824 509C0018 		e_lwz %r4,24(%r28)
 1619              		.loc 1 787 0
 1620 0828 013A     		se_mr %r26,%r3
 1621              		.loc 1 790 0
 1622 082a 0193     		se_mr %r3,%r25
 1623 082c 78000001 		e_bl __mulsf3
 1624              	.LVL243:
 1625 0830 0134     		se_mr %r4,%r3
 1626              		.loc 1 789 0
 1627 0832 01A3     		se_mr %r3,%r26
 1628 0834 78000001 		e_bl __addsf3
 1629              	.LVL244:
 1630 0838 18818008 		e_addi %r4,%r1,8
 1631 083c 7CE4AA14 		add %r7,%r4,%r21
 1632 0840 7C67F92E 		stwx %r3,%r7,%r31
 1633 0844 20BF     		se_addi %r31,12
 1634              		.loc 1 782 0
 1635 0846 701FA824 		e_cmpl16i %r31,36
 1636 084a 7A02FFB6 		e_bne %cr0,.L81
 1637 084e 1AB58004 		e_addi %r21,%r21,4
 1638              		.loc 1 781 0
 1639 0852 7015A80C 		e_cmpl16i %r21,12
 1640 0856 7A02FF98 		e_bne %cr0,.L80
 1641 085a 72A00000 		e_li %r21,0
 1642 085e 02BC     		se_mtar %r20,%r27
 1643 0860 480D     		se_li %r29,0
 1644 0862 1EC10110 		e_add16i %r22,%r1,272
 1645 0866 014C     		se_mr %r28,%r4
 1646 0868 57C10144 		e_stw %r30,324(%r1)
 1647              	.L82:
 1648              	.LVL245:
 1649              		.loc 1 800 0
 1650 086c 480F     		se_li %r31,0
 1651 086e 18A180D4 		e_addi %r5,%r1,212
 1652 0872 1CC10104 		e_add16i %r6,%r1,260
 1653 0876 7CE5EA14 		add %r7,%r5,%r29
GAS LISTING C:\Users\Vipuls\AppData\Local\Temp\ccppVci0.s 			page 30


 1654 087a 7FFD312E 		stwx %r31,%r29,%r6
 1655              	.LVL246:
 1656 087e 189D80D4 		e_addi %r4,%r29,212
 1657 0882 52E7000C 		e_lwz %r23,12(%r7)
 1658 0886 7F04082E 		lwzx %r24,%r4,%r1
 1659 088a 53270018 		e_lwz %r25,24(%r7)
 1660 088e 56C10128 		e_stw %r22,296(%r1)
 1661 0892 03EA     		se_mfar %r26,%r22
 1662 0894 01BE     		se_mr %r30,%r27
 1663 0896 480F     		se_li %r31,0
 1664 0898 72200000 		e_li %r17,0
 1665              	.LVL247:
 1666              	.L84:
 1667 089c 7E7CFA14 		add %r19,%r28,%r31
 1668              	.LBB115:
 1669              		.loc 1 810 0
 1670 08a0 03F3     		se_mfar %r3,%r23
 1671 08a2 50930004 		e_lwz %r4,4(%r19)
 1672 08a6 78000001 		e_bl __mulsf3
 1673              	.LVL248:
 1674 08aa 7C9FE02E 		lwzx %r4,%r31,%r28
 1675 08ae 023A     		se_mtar %r18,%r3
 1676 08b0 0183     		se_mr %r3,%r24
 1677 08b2 78000001 		e_bl __mulsf3
 1678              	.LVL249:
 1679 08b6 0134     		se_mr %r4,%r3
 1680 08b8 03A3     		se_mfar %r3,%r18
 1681 08ba 78000001 		e_bl __addsf3
 1682              	.LVL250:
 1683              		.loc 1 811 0
 1684 08be 50930008 		e_lwz %r4,8(%r19)
 1685              		.loc 1 810 0
 1686 08c2 023A     		se_mtar %r18,%r3
 1687              		.loc 1 811 0
 1688 08c4 0193     		se_mr %r3,%r25
 1689 08c6 78000001 		e_bl __mulsf3
 1690              	.LVL251:
 1691 08ca 0134     		se_mr %r4,%r3
 1692 08cc 03A3     		se_mfar %r3,%r18
 1693 08ce 78000001 		e_bl __addsf3
 1694              	.LVL252:
 1695 08d2 7CFFEA14 		add %r7,%r31,%r29
 1696 08d6 70A0E000 		e_lis %r5,rtConstP@ha
 1697 08da 1CA50000 		e_la %r5,rtConstP@l(%r5)
 1698 08de 0457     		se_add %r7,%r5
 1699              		.loc 1 810 0
 1700 08e0 50870314 		e_lwz %r4,788(%r7)
 1701 08e4 78000001 		e_bl __addsf3
 1702              	.LVL253:
 1703 08e8 18C180B0 		e_addi %r6,%r1,176
 1704              		.loc 1 820 0
 1705 08ec 01E4     		se_mr %r4,%r30
 1706 08ee 7CE6EA14 		add %r7,%r6,%r29
 1707              		.loc 1 814 0
 1708 08f2 7C67F92E 		stwx %r3,%r7,%r31
 1709 08f6 20BF     		se_addi %r31,12
 1710              		.loc 1 820 0
GAS LISTING C:\Users\Vipuls\AppData\Local\Temp\ccppVci0.s 			page 31


 1711 08f8 78000001 		e_bl __mulsf3
 1712              	.LVL254:
 1713 08fc 0134     		se_mr %r4,%r3
 1714 08fe 0393     		se_mfar %r3,%r17
 1715 0900 78000001 		e_bl __addsf3
 1716              	.LVL255:
 1717              	.LBE115:
 1718              		.loc 1 801 0
 1719 0904 701FA824 		e_cmpl16i %r31,36
 1720              	.LBB116:
 1721              		.loc 1 820 0
 1722 0908 0239     		se_mtar %r17,%r3
 1723              	.LBE116:
 1724              		.loc 1 801 0
 1725 090a 7A12000C 		e_beq %cr0,.L83
 1726 090e 1BDA0204 		e_lwzu %r30,4(%r26)
 1727 0912 79FFFF8A 		e_b .L84
 1728              	.L83:
 1729 0916 1CE10104 		e_add16i %r7,%r1,260
 1730              		.loc 1 826 0
 1731 091a 03C4     		se_mfar %r4,%r20
 1732 091c 7C7D392E 		stwx %r3,%r29,%r7
 1733 0920 203D     		se_addi %r29,4
 1734 0922 78000001 		e_bl __mulsf3
 1735              	.LVL256:
 1736 0926 0134     		se_mr %r4,%r3
 1737 0928 03D3     		se_mfar %r3,%r21
 1738 092a 78000001 		e_bl __addsf3
 1739              	.LVL257:
 1740              		.loc 1 796 0
 1741 092e 22BD     		se_cmpli %r29,12
 1742              		.loc 1 826 0
 1743 0930 023D     		se_mtar %r21,%r3
 1744              	.LVL258:
 1745              		.loc 1 796 0
 1746 0932 7A12003A 		e_beq %cr0,.L85
 1747 0936 7E9DB02E 		lwzx %r20,%r29,%r22
 1748 093a 79FFFF32 		e_b .L82
 1749              	.LVL259:
 1750              	.L132:
 1751              	.LBE114:
 1752              	.LBE120:
 1753              	.LBB121:
 1754              	.LBB101:
 1755              		.loc 1 194 0
 1756 093e 036F     		se_mfar %r31,%r14
 1757              		.loc 1 220 0
 1758 0940 1FDE0140 		e_add16i %r30,%r30,320
 1759              		.loc 1 231 0
 1760 0944 01D3     		se_mr %r3,%r29
 1761              		.loc 1 220 0
 1762 0946 6C2E     		se_slwi %r30, 2
 1763              		.loc 1 231 0
 1764 0948 50810130 		e_lwz %r4,304(%r1)
 1765              		.loc 1 220 0
 1766 094c 7FCFF214 		add %r30,%r15,%r30
 1767              		.loc 1 195 0
GAS LISTING C:\Users\Vipuls\AppData\Local\Temp\ccppVci0.s 			page 32


 1768 0950 72A00000 		e_li %r21,0
 1769              	.LVL260:
 1770              		.loc 1 220 0
 1771 0954 D2FE     		se_stw %r31,8(%r30)
 1772              	.LVL261:
 1773              		.loc 1 231 0
 1774 0956 78000001 		e_bl __lesf2
 1775              	.LVL262:
 1776 095a 2A03     		se_cmpi %r3,0
 1777 095c 7A11FB04 		e_bgt %cr0,.L191
 1778              	.LVL263:
 1779              	.L134:
 1780 0960 0367     		se_mfar %r7,%r14
 1781              		.loc 1 232 0
 1782 0962 7DD27378 		mr %r18,%r14
 1783              		.loc 1 233 0
 1784 0966 480C     		se_li %r28,0
 1785 0968 79FFFBA0 		e_b .L60
 1786              	.LVL264:
 1787              	.L85:
 1788              	.LBE101:
 1789              	.LBE121:
 1790              	.LBB122:
 1791              	.LBB117:
 1792              		.loc 1 874 0
 1793 096c 50E10138 		e_lwz %r7,312(%r1)
 1794 0970 53C10144 		e_lwz %r30,324(%r1)
 1795 0974 1AC78380 		e_addi %r22,%r7,-2147483648
 1796              		.loc 1 835 0
 1797 0978 7087E5CC 		e_lis %r4,0x3dcc
 1798 097c 1A6E8004 		e_addi %r19,%r14,4
 1799 0980 7099C4CD 		e_or2i %r4,52429
 1800 0984 1BE180D4 		e_addi %r31,%r1,212
 1801 0988 78000001 		e_bl __addsf3
 1802              	.LVL265:
 1803 098c 7E6F9A14 		add %r19,%r15,%r19
 1804 0990 0134     		se_mr %r4,%r3
 1805              		.loc 1 875 0
 1806 0992 72800000 		e_li %r20,0
 1807              		.loc 1 835 0
 1808 0996 7067E780 		e_lis %r3,0x3f80
 1809 099a 78000001 		e_bl __divsf3
 1810              	.LVL266:
 1811              		.loc 1 841 0
 1812 099e 50810104 		e_lwz %r4,260(%r1)
 1813              		.loc 1 835 0
 1814 09a2 013D     		se_mr %r29,%r3
 1815              	.LVL267:
 1816              		.loc 1 841 0
 1817 09a4 78000001 		e_bl __mulsf3
 1818              	.LVL268:
 1819              		.loc 1 842 0
 1820 09a8 50810108 		e_lwz %r4,264(%r1)
 1821              		.loc 1 841 0
 1822 09ac 0139     		se_mr %r25,%r3
 1823 09ae 54610104 		e_stw %r3,260(%r1)
 1824              		.loc 1 842 0
GAS LISTING C:\Users\Vipuls\AppData\Local\Temp\ccppVci0.s 			page 33


 1825 09b2 01D3     		se_mr %r3,%r29
 1826 09b4 78000001 		e_bl __mulsf3
 1827              	.LVL269:
 1828              		.loc 1 843 0
 1829 09b8 5081010C 		e_lwz %r4,268(%r1)
 1830              		.loc 1 842 0
 1831 09bc 54610108 		e_stw %r3,264(%r1)
 1832 09c0 0138     		se_mr %r24,%r3
 1833              		.loc 1 843 0
 1834 09c2 01D3     		se_mr %r3,%r29
 1835 09c4 78000001 		e_bl __mulsf3
 1836              	.LVL270:
 1837              		.loc 1 854 0
 1838 09c8 50810130 		e_lwz %r4,304(%r1)
 1839 09cc 50A10150 		e_lwz %r5,336(%r1)
 1840 09d0 535E0014 		e_lwz %r26,20(%r30)
 1841 09d4 7FA5802E 		lwzx %r29,%r5,%r16
 1842              	.LVL271:
 1843              		.loc 1 843 0
 1844 09d8 5461010C 		e_stw %r3,268(%r1)
 1845 09dc 023F     		se_mtar %r23,%r3
 1846              		.loc 1 854 0
 1847 09de 70A0E000 		e_lis %r5,OCV_Vector@ha
 1848 09e2 01A3     		se_mr %r3,%r26
 1849 09e4 1CA50000 		e_la %r5,OCV_Vector@l(%r5)
 1850 09e8 78000001 		e_bl look2_iflf_binlx.constprop.4
 1851              	.LVL272:
 1852              		.loc 1 859 0
 1853 09ec 525E0018 		e_lwz %r18,24(%r30)
 1854              		.loc 1 854 0
 1855 09f0 023D     		se_mtar %r21,%r3
 1856              		.loc 1 858 0
 1857 09f2 539E001C 		e_lwz %r28,28(%r30)
 1858 09f6 50610138 		e_lwz %r3,312(%r1)
 1859 09fa 01C4     		se_mr %r4,%r28
 1860 09fc 78000001 		e_bl __mulsf3
 1861              	.LVL273:
 1862 0a00 0134     		se_mr %r4,%r3
 1863              		.loc 1 857 0
 1864 0a02 03D3     		se_mfar %r3,%r21
 1865 0a04 78000001 		e_bl __addsf3
 1866              	.LVL274:
 1867              		.loc 1 858 0
 1868 0a08 03A4     		se_mfar %r4,%r18
 1869 0a0a 78000001 		e_bl __subsf3
 1870              	.LVL275:
 1871 0a0e 0134     		se_mr %r4,%r3
 1872              		.loc 1 854 0
 1873 0a10 01D3     		se_mr %r3,%r29
 1874 0a12 78000001 		e_bl __subsf3
 1875              	.LVL276:
 1876              		.loc 1 871 0
 1877 0a16 70E0E000 		e_lis %r7,Cap_Nom@ha
 1878 0a1a 7088E561 		e_lis %r4,0x4561
 1879              		.loc 1 854 0
 1880 0a1e 023D     		se_mtar %r21,%r3
 1881              	.LVL277:
GAS LISTING C:\Users\Vipuls\AppData\Local\Temp\ccppVci0.s 			page 34


 1882              		.loc 1 871 0
 1883 0a20 50670000 		e_lwz %r3,Cap_Nom@l(%r7)
 1884              	.LVL278:
 1885 0a24 78000001 		e_bl __mulsf3
 1886              	.LVL279:
 1887 0a28 0134     		se_mr %r4,%r3
 1888 0a2a 7067E780 		e_lis %r3,0x3f80
 1889 0a2e 78000001 		e_bl __divsf3
 1890              	.LVL280:
 1891 0a32 7C8F702E 		lwzx %r4,%r15,%r14
 1892 0a36 78000001 		e_bl __mulsf3
 1893              	.LVL281:
 1894 0a3a 0134     		se_mr %r4,%r3
 1895              		.loc 1 872 0
 1896 0a3c 50610138 		e_lwz %r3,312(%r1)
 1897 0a40 78000001 		e_bl __mulsf3
 1898              	.LVL282:
 1899              		.loc 1 873 0
 1900 0a44 50810140 		e_lwz %r4,320(%r1)
 1901              		.loc 1 871 0
 1902 0a48 546100F8 		e_stw %r3,248(%r1)
 1903              		.loc 1 872 0
 1904 0a4c 013D     		se_mr %r29,%r3
 1905              		.loc 1 873 0
 1906 0a4e 7067E780 		e_lis %r3,0x3f80
 1907 0a52 78000001 		e_bl __subsf3
 1908              	.LVL283:
 1909 0a56 0134     		se_mr %r4,%r3
 1910 0a58 5061013C 		e_lwz %r3,316(%r1)
 1911 0a5c 78000001 		e_bl __mulsf3
 1912              	.LVL284:
 1913 0a60 03E4     		se_mfar %r4,%r22
 1914 0a62 78000001 		e_bl __mulsf3
 1915              	.LVL285:
 1916              		.loc 1 875 0
 1917 0a66 4804     		se_li %r4,0
 1918              		.loc 1 873 0
 1919 0a68 546100FC 		e_stw %r3,252(%r1)
 1920              		.loc 1 875 0
 1921 0a6c 03E3     		se_mfar %r3,%r22
 1922 0a6e 029E     		se_mtar %r22,%r25
 1923 0a70 78000001 		e_bl __mulsf3
 1924              	.LVL286:
 1925 0a74 54610100 		e_stw %r3,256(%r1)
 1926              	.LVL287:
 1927 0a78 03A3     		se_mfar %r3,%r18
 1928              	.LVL288:
 1929              	.L87:
 1930 0a7a 7E5FA214 		add %r18,%r31,%r20
 1931              		.loc 1 885 0
 1932 0a7e 5092000C 		e_lwz %r4,12(%r18)
 1933 0a82 78000001 		e_bl __mulsf3
 1934              	.LVL289:
 1935              		.loc 1 887 0
 1936 0a86 7C94F82E 		lwzx %r4,%r20,%r31
 1937              		.loc 1 885 0
 1938 0a8a 0239     		se_mtar %r17,%r3
GAS LISTING C:\Users\Vipuls\AppData\Local\Temp\ccppVci0.s 			page 35


 1939 0a8c 1A948004 		e_addi %r20,%r20,4
 1940              		.loc 1 887 0
 1941 0a90 01A3     		se_mr %r3,%r26
 1942 0a92 78000001 		e_bl __mulsf3
 1943              	.LVL290:
 1944 0a96 0134     		se_mr %r4,%r3
 1945              		.loc 1 886 0
 1946 0a98 0393     		se_mfar %r3,%r17
 1947 0a9a 78000001 		e_bl __addsf3
 1948              	.LVL291:
 1949              		.loc 1 888 0
 1950 0a9e 50920018 		e_lwz %r4,24(%r18)
 1951              		.loc 1 886 0
 1952 0aa2 013A     		se_mr %r26,%r3
 1953              		.loc 1 888 0
 1954 0aa4 01C3     		se_mr %r3,%r28
 1955 0aa6 78000001 		e_bl __mulsf3
 1956              	.LVL292:
 1957 0aaa 0134     		se_mr %r4,%r3
 1958              		.loc 1 887 0
 1959 0aac 01A3     		se_mr %r3,%r26
 1960 0aae 78000001 		e_bl __addsf3
 1961              	.LVL293:
 1962              		.loc 1 889 0
 1963 0ab2 01D4     		se_mr %r4,%r29
 1964 0ab4 78000001 		e_bl __addsf3
 1965              	.LVL294:
 1966 0ab8 03E4     		se_mfar %r4,%r22
 1967 0aba 013D     		se_mr %r29,%r3
 1968 0abc 03D3     		se_mfar %r3,%r21
 1969 0abe 78000001 		e_bl __mulsf3
 1970              	.LVL295:
 1971 0ac2 0134     		se_mr %r4,%r3
 1972 0ac4 01D3     		se_mr %r3,%r29
 1973 0ac6 78000001 		e_bl __addsf3
 1974              	.LVL296:
 1975              		.loc 1 876 0
 1976 0aca 7014A80C 		e_cmpl16i %r20,12
 1977              		.loc 1 885 0
 1978 0ace 18730604 		e_stwu %r3,4(%r19)
 1979              		.loc 1 876 0
 1980 0ad2 7A120024 		e_beq %cr0,.L86
 1981 0ad6 18E180F8 		e_addi %r7,%r1,248
 1982 0ada 507E0018 		e_lwz %r3,24(%r30)
 1983 0ade 7FB4382E 		lwzx %r29,%r20,%r7
 1984 0ae2 535E0014 		e_lwz %r26,20(%r30)
 1985 0ae6 1CE10104 		e_add16i %r7,%r1,260
 1986 0aea 539E001C 		e_lwz %r28,28(%r30)
 1987 0aee 7ED4382E 		lwzx %r22,%r20,%r7
 1988 0af2 79FFFF88 		e_b .L87
 1989              	.L86:
 1990              		.loc 1 897 0
 1991 0af6 4807     		se_li %r7,0
 1992 0af8 70C0E000 		e_lis %r6,.LC4@ha
 1993 0afc 01EC     		se_mr %r28,%r30
 1994 0afe 34FE0053 		e_stb %r7,83(%r30)
 1995              	.LVL297:
GAS LISTING C:\Users\Vipuls\AppData\Local\Temp\ccppVci0.s 			page 36


 1996 0b02 53E60000 		e_lwz %r31,.LC4@l(%r6)
 1997 0b06 01EA     		se_mr %r26,%r30
 1998 0b08 72C00000 		e_li %r22,0
 1999              		.loc 1 909 0
 2000 0b0c 52A10128 		e_lwz %r21,296(%r1)
 2001              	.LVL298:
 2002              	.L90:
 2003              		.loc 1 900 0
 2004 0b10 50FA0008 		e_lwz %r7,8(%r26)
 2005 0b14 20BF     		se_addi %r31,12
 2006 0b16 54FA0014 		e_stw %r7,20(%r26)
 2007              		.loc 1 909 0
 2008 0b1a 1BA18008 		e_addi %r29,%r1,8
 2009              		.loc 1 910 0
 2010 0b1e 01B4     		se_mr %r4,%r27
 2011 0b20 0193     		se_mr %r3,%r25
 2012 0b22 203A     		se_addi %r26,4
 2013 0b24 78000001 		e_bl __mulsf3
 2014              	.LVL299:
 2015 0b28 0134     		se_mr %r4,%r3
 2016              		.loc 1 909 0
 2017 0b2a 507FFFF4 		e_lwz %r3,-12(%r31)
 2018 0b2e 78000001 		e_bl __subsf3
 2019              	.LVL300:
 2020              		.loc 1 913 0
 2021 0b32 01B4     		se_mr %r4,%r27
 2022              		.loc 1 909 0
 2023 0b34 7C7DB16E 		stwux %r3,%r29,%r22
 2024              		.loc 1 913 0
 2025 0b38 0183     		se_mr %r3,%r24
 2026 0b3a 1AD6800C 		e_addi %r22,%r22,12
 2027 0b3e 78000001 		e_bl __mulsf3
 2028              	.LVL301:
 2029 0b42 0134     		se_mr %r4,%r3
 2030              		.loc 1 912 0
 2031 0b44 507FFFF8 		e_lwz %r3,-8(%r31)
 2032 0b48 78000001 		e_bl __subsf3
 2033              	.LVL302:
 2034              		.loc 1 916 0
 2035 0b4c 01B4     		se_mr %r4,%r27
 2036              		.loc 1 912 0
 2037 0b4e 547D0004 		e_stw %r3,4(%r29)
 2038              		.loc 1 916 0
 2039 0b52 03F3     		se_mfar %r3,%r23
 2040 0b54 78000001 		e_bl __mulsf3
 2041              	.LVL303:
 2042 0b58 0134     		se_mr %r4,%r3
 2043              		.loc 1 915 0
 2044 0b5a 507FFFFC 		e_lwz %r3,-4(%r31)
 2045 0b5e 78000001 		e_bl __subsf3
 2046              	.LVL304:
 2047              		.loc 1 898 0
 2048 0b62 7016A824 		e_cmpl16i %r22,36
 2049              		.loc 1 915 0
 2050 0b66 547D0008 		e_stw %r3,8(%r29)
 2051              		.loc 1 898 0
 2052 0b6a 7A12000C 		e_beq %cr0,.L192
GAS LISTING C:\Users\Vipuls\AppData\Local\Temp\ccppVci0.s 			page 37


 2053 0b6e 1B750204 		e_lwzu %r27,4(%r21)
 2054              	.LVL305:
 2055 0b72 79FFFF9E 		e_b .L90
 2056              	.LVL306:
 2057              	.L192:
 2058 0b76 1BA18004 		e_addi %r29,%r1,4
 2059 0b7a 1AC18010 		e_addi %r22,%r1,16
 2060              		.loc 1 897 0
 2061 0b7e 72E00000 		e_li %r23,0
 2062 0b82 1A8180B0 		e_addi %r20,%r1,176
 2063              		.loc 1 931 0
 2064 0b86 4808     		se_li %r24,0
 2065              	.LVL307:
 2066              	.L89:
 2067 0b88 1A7D0204 		e_lwzu %r19,4(%r29)
 2068              		.loc 1 897 0
 2069 0b8c 03FF     		se_mfar %r31,%r23
 2070 0b8e 52BD000C 		e_lwz %r21,12(%r29)
 2071 0b92 533D0018 		e_lwz %r25,24(%r29)
 2072              	.LVL308:
 2073              	.L91:
 2074 0b96 7F74FA14 		add %r27,%r20,%r31
 2075              		.loc 1 932 0
 2076 0b9a 7C9FA02E 		lwzx %r4,%r31,%r20
 2077 0b9e 7F5CFA14 		add %r26,%r28,%r31
 2078 0ba2 03B3     		se_mfar %r3,%r19
 2079 0ba4 20BF     		se_addi %r31,12
 2080 0ba6 78000001 		e_bl __mulsf3
 2081              	.LVL309:
 2082              		.loc 1 931 0
 2083 0baa 0184     		se_mr %r4,%r24
 2084 0bac 78000001 		e_bl __addsf3
 2085              	.LVL310:
 2086              		.loc 1 934 0
 2087 0bb0 509B0004 		e_lwz %r4,4(%r27)
 2088              		.loc 1 931 0
 2089 0bb4 023A     		se_mtar %r18,%r3
 2090              		.loc 1 934 0
 2091 0bb6 03D3     		se_mfar %r3,%r21
 2092 0bb8 78000001 		e_bl __mulsf3
 2093              	.LVL311:
 2094 0bbc 0134     		se_mr %r4,%r3
 2095              		.loc 1 933 0
 2096 0bbe 03A3     		se_mfar %r3,%r18
 2097 0bc0 78000001 		e_bl __addsf3
 2098              	.LVL312:
 2099              		.loc 1 936 0
 2100 0bc4 509B0008 		e_lwz %r4,8(%r27)
 2101              		.loc 1 933 0
 2102 0bc8 023A     		se_mtar %r18,%r3
 2103              		.loc 1 936 0
 2104 0bca 0193     		se_mr %r3,%r25
 2105 0bcc 78000001 		e_bl __mulsf3
 2106              	.LVL313:
 2107 0bd0 0134     		se_mr %r4,%r3
 2108              		.loc 1 935 0
 2109 0bd2 03A3     		se_mfar %r3,%r18
GAS LISTING C:\Users\Vipuls\AppData\Local\Temp\ccppVci0.s 			page 38


 2110 0bd4 78000001 		e_bl __addsf3
 2111              	.LVL314:
 2112              		.loc 1 926 0
 2113 0bd8 701FA824 		e_cmpl16i %r31,36
 2114              		.loc 1 935 0
 2115 0bdc 547A0020 		e_stw %r3,32(%r26)
 2116              		.loc 1 926 0
 2117 0be0 7A02FFB6 		e_bne %cr0,.L91
 2118 0be4 203C     		se_addi %r28,4
 2119              		.loc 1 925 0
 2120 0be6 7C1DB040 		cmpl %cr0,%r29,%r22
 2121 0bea 7A02FF9E 		e_bne %cr0,.L89
 2122              	.LBE117:
 2123              		.loc 1 959 0
 2124 0bee 50BE0010 		e_lwz %r5,16(%r30)
 2125              	.LVL315:
 2126              		.loc 1 962 0
 2127 0bf2 50FE0008 		e_lwz %r7,8(%r30)
 2128              	.LVL316:
 2129 0bf6 79FFFA0A 		e_b .L93
 2130              	.LVL317:
 2131              	.L129:
 2132              	.LBE122:
 2133              	.LBE126:
 2134              	.LBE130:
 2135              	.LBB131:
 2136              	.LBB85:
 2137              	.LBB61:
 2138              		.loc 1 322 0
 2139 0bfa 03DD     		se_mfar %r29,%r21
 2140              	.LVL318:
 2141 0bfc 18F584FC 		e_addi %r7,%r21,-4
 2142              		.loc 1 324 0
 2143 0c00 480A     		se_li %r26,0
 2144 0c02 79FFF6C6 		e_b .L49
 2145              	.LVL319:
 2146              	.L185:
 2147              	.LBE61:
 2148              	.LBE85:
 2149              	.LBE131:
 2150              	.LBB132:
 2151              	.LBB47:
 2152              		.loc 1 382 0
 2153 0c06 01A4     		se_mr %r4,%r26
 2154 0c08 1B7584FC 		e_addi %r27,%r21,-4
 2155 0c0c 78000001 		e_bl __subsf3
 2156              	.LVL320:
 2157 0c10 01A4     		se_mr %r4,%r26
 2158 0c12 013D     		se_mr %r29,%r3
 2159 0c14 03A3     		se_mfar %r3,%r18
 2160 0c16 78000001 		e_bl __subsf3
 2161              	.LVL321:
 2162 0c1a 0134     		se_mr %r4,%r3
 2163 0c1c 01D3     		se_mr %r3,%r29
 2164 0c1e 78000001 		e_bl __divsf3
 2165              	.LVL322:
 2166 0c22 03D7     		se_mfar %r7,%r21
GAS LISTING C:\Users\Vipuls\AppData\Local\Temp\ccppVci0.s 			page 39


 2167 0c24 0239     		se_mtar %r17,%r3
 2168              	.LVL323:
 2169 0c26 79FFF516 		e_b .L37
 2170              	.LVL324:
 2171              	.L178:
 2172              	.LBE47:
 2173              	.LBE132:
 2174              	.LBB133:
 2175              	.LBB127:
 2176              	.LBB123:
 2177              	.LBB102:
 2178              		.loc 1 234 0
 2179 0c2a 50E10158 		e_lwz %r7,344(%r1)
 2180              		.loc 1 254 0
 2181 0c2e 52410144 		e_lwz %r18,324(%r1)
 2182              		.loc 1 255 0
 2183 0c32 7387E780 		e_lis %r28,0x3f80
 2184 0c36 79FFF8D2 		e_b .L60
 2185              	.LVL325:
 2186              	.L175:
 2187              	.LBE102:
 2188              	.LBE123:
 2189              	.LBE127:
 2190              	.LBE133:
 2191              	.LBB134:
 2192              	.LBB86:
 2193              	.LBB62:
 2194              		.loc 1 325 0
 2195 0c3a 03AD     		se_mfar %r29,%r18
 2196              	.LVL326:
 2197 0c3c 18F284FC 		e_addi %r7,%r18,-4
 2198              		.loc 1 346 0
 2199 0c40 7347E780 		e_lis %r26,0x3f80
 2200 0c44 79FFF684 		e_b .L49
 2201              	.LVL327:
 2202              	.L172:
 2203              	.LBE62:
 2204              	.LBE86:
 2205              	.LBE134:
 2206              	.LBB135:
 2207              	.LBB48:
 2208              		.loc 1 404 0
 2209 0c48 0393     		se_mfar %r3,%r17
 2210 0c4a 03B4     		se_mfar %r4,%r19
 2211 0c4c 1B7684FC 		e_addi %r27,%r22,-4
 2212 0c50 78000001 		e_bl __subsf3
 2213              	.LVL328:
 2214 0c54 03B4     		se_mfar %r4,%r19
 2215 0c56 013D     		se_mr %r29,%r3
 2216 0c58 03F3     		se_mfar %r3,%r23
 2217 0c5a 78000001 		e_bl __subsf3
 2218              	.LVL329:
 2219 0c5e 0134     		se_mr %r4,%r3
 2220 0c60 01D3     		se_mr %r3,%r29
 2221 0c62 78000001 		e_bl __divsf3
 2222              	.LVL330:
 2223 0c66 03E7     		se_mfar %r7,%r22
GAS LISTING C:\Users\Vipuls\AppData\Local\Temp\ccppVci0.s 			page 40


 2224 0c68 0239     		se_mtar %r17,%r3
 2225              	.LVL331:
 2226 0c6a 79FFF4D2 		e_b .L37
 2227              	.LVL332:
 2228              	.L176:
 2229              	.LBE48:
 2230              	.LBE135:
 2231              	.LBB136:
 2232              	.LBB128:
 2233              	.LBB124:
 2234              	.LBB103:
 2235              		.loc 1 216 0
 2236 0c6e 53E1015C 		e_lwz %r31,348(%r1)
 2237              		.loc 1 217 0
 2238 0c72 72A7E780 		e_lis %r21,0x3f80
 2239 0c76 79FFF7CE 		e_b .L54
 2240              	.LVL333:
 2241              	.L188:
 2242              	.LBE103:
 2243              	.LBE124:
 2244              	.LBE128:
 2245              	.LBE136:
 2246              	.LBB137:
 2247              	.LBB138:
 2248              		.loc 1 445 0
 2249 0c7a 50C10164 		e_lwz %r6,356(%r1)
 2250              	.LVL334:
 2251 0c7e 2A06     		se_cmpi %r6,0
 2252 0c80 7A120174 		e_beq %cr0,.L95
 2253              		.loc 1 453 0
 2254 0c84 48ED     		se_li %r29,14
 2255 0c86 1CEF0577 		e_add16i %r7,%r15,1399
 2256              	.LVL335:
 2257 0c8a 4816     		se_li %r6,1
 2258 0c8c 00BD     		se_mtctr %r29
 2259              	.LVL336:
 2260              	.L96:
 2261 0c8e 18C70401 		e_stbu %r6,1(%r7)
 2262              	.LVL337:
 2263              		.loc 1 449 0
 2264 0c92 7A20FFFC 		e_bdnz .L96
 2265              	.LVL338:
 2266              	.L108:
 2267 0c96 2C04     		se_bmaski %r4,0
 2268 0c98 53E1014C 		e_lwz %r31,332(%r1)
 2269 0c9c 50E101C0 		e_lwz %r7,448(%r1)
 2270 0ca0 7C7F2214 		add %r3,%r31,%r4
 2271              	.LBB139:
 2272              		.loc 1 546 0
 2273 0ca4 48ED     		se_li %r29,14
 2274 0ca6 1CCF0578 		e_add16i %r6,%r15,1400
 2275 0caa 7C872214 		add %r4,%r7,%r4
 2276 0cae 4800     		se_li %r0,0
 2277 0cb0 00BD     		se_mtctr %r29
 2278              	.LVL339:
 2279              	.L97:
 2280              		.loc 1 542 0
GAS LISTING C:\Users\Vipuls\AppData\Local\Temp\ccppVci0.s 			page 41


 2281 0cb2 18E30001 		e_lbzu %r7,1(%r3)
 2282              	.LVL340:
 2283              		.loc 1 546 0
 2284 0cb6 0105     		se_mr %r5,%r0
 2285              		.loc 1 542 0
 2286 0cb8 2A07     		se_cmpi %r7,0
 2287 0cba 7A120006 		e_beq %cr0,.L109
 2288              		.loc 1 551 0
 2289 0cbe 8056     		se_lbz %r5,0(%r6)
 2290              	.LVL341:
 2291              	.L109:
 2292              		.loc 1 555 0
 2293 0cc0 18A40401 		e_stbu %r5,1(%r4)
 2294              	.LVL342:
 2295 0cc4 2006     		se_addi %r6,1
 2296              	.LBE139:
 2297              		.loc 1 536 0
 2298 0cc6 7A20FFEC 		e_bdnz .L97
 2299              		.loc 1 562 0
 2300 0cca 53E101C0 		e_lwz %r31,448(%r1)
 2301 0cce 48D4     		se_li %r4,13
 2302 0cd0 807F     		se_lbz %r7,0(%r31)
 2303              	.LVL343:
 2304 0cd2 01F5     		se_mr %r5,%r31
 2305              	.LVL344:
 2306 0cd4 00B4     		se_mtctr %r4
 2307              	.LVL345:
 2308              	.L111:
 2309              	.LBB140:
 2310              		.loc 1 565 0
 2311 0cd6 18C50001 		e_lbzu %r6,1(%r5)
 2312              	.LVL346:
 2313 0cda 0D67     		se_cmpl %r7,%r6
 2314 0cdc 7CE6381E 		isel %r7,%r6,%r7,0
 2315              	.LVL347:
 2316              	.LBE140:
 2317              		.loc 1 563 0
 2318 0ce0 7A20FFF6 		e_bdnz .L111
 2319              		.loc 1 571 0
 2320 0ce4 50C101C4 		e_lwz %r6,452(%r1)
 2321              	.LBE138:
 2322              	.LBE137:
 2323              	.LBB145:
 2324              	.LBB146:
 2325              	.LBB147:
 2326              		.loc 1 1005 0
 2327 0ce8 7300E000 		e_lis %r24,R0_EOL_Vector@ha
 2328              		.loc 1 1018 0
 2329 0cec 7320E000 		e_lis %r25,R0_Vector@ha
 2330              		.loc 1 1023 0
 2331 0cf0 7340E000 		e_lis %r26,SOH_MAX@ha
 2332              		.loc 1 1026 0
 2333 0cf4 72A0E000 		e_lis %r21,SOH_MIN@ha
 2334              	.LBE147:
 2335              	.LBE146:
 2336              	.LBE145:
 2337              	.LBB151:
GAS LISTING C:\Users\Vipuls\AppData\Local\Temp\ccppVci0.s 			page 42


 2338              	.LBB143:
 2339              		.loc 1 571 0
 2340 0cf8 9076     		se_stb %r7,0(%r6)
 2341              	.LVL348:
 2342 0cfa 480F     		se_li %r31,0
 2343              	.LBE143:
 2344              	.LBE151:
 2345              	.LBB152:
 2346              	.LBB150:
 2347              	.LBB148:
 2348              		.loc 1 1005 0
 2349 0cfc 1AC18040 		e_addi %r22,%r1,64
 2350              	.LVL349:
 2351 0d00 1F180000 		e_la %r24,R0_EOL_Vector@l(%r24)
 2352              		.loc 1 1017 0
 2353 0d04 72E00070 		e_li %r23,112
 2354              		.loc 1 1018 0
 2355 0d08 1F390000 		e_la %r25,R0_Vector@l(%r25)
 2356              		.loc 1 1023 0
 2357 0d0c 1F5A0000 		e_la %r26,SOH_MAX@l(%r26)
 2358              		.loc 1 1026 0
 2359 0d10 1EB50000 		e_la %r21,SOH_MIN@l(%r21)
 2360 0d14 53810158 		e_lwz %r28,344(%r1)
 2361 0d18 52610168 		e_lwz %r19,360(%r1)
 2362 0d1c 78000024 		e_b .L117
 2363              	.LVL350:
 2364              	.L194:
 2365 0d20 53D50000 		e_lwz %r30,0(%r21)
 2366 0d24 01D3     		se_mr %r3,%r29
 2367 0d26 01E4     		se_mr %r4,%r30
 2368 0d28 78000001 		e_bl __ltsf2
 2369              	.LVL351:
 2370 0d2c 2A03     		se_cmpi %r3,0
 2371 0d2e 7A100064 		e_blt %cr0,.L183
 2372              		.loc 1 1031 0
 2373 0d32 7FB3F92E 		stwx %r29,%r19,%r31
 2374 0d36 203F     		se_addi %r31,4
 2375              	.LBE148:
 2376              		.loc 1 998 0
 2377 0d38 701FA838 		e_cmpl16i %r31,56
 2378 0d3c 7A120064 		e_beq %cr0,.L193
 2379              	.LVL352:
 2380              	.L117:
 2381              	.LBB149:
 2382              		.loc 1 1005 0
 2383 0d40 1BBC0204 		e_lwzu %r29,4(%r28)
 2384 0d44 7FDFB02E 		lwzx %r30,%r31,%r22
 2385 0d48 0185     		se_mr %r5,%r24
 2386 0d4a 01E4     		se_mr %r4,%r30
 2387 0d4c 01D3     		se_mr %r3,%r29
 2388 0d4e 78000001 		e_bl look2_iflf_binlx.constprop.4
 2389              	.LVL353:
 2390              		.loc 1 1017 0
 2391 0d52 18C18008 		e_addi %r6,%r1,8
 2392              		.loc 1 1005 0
 2393 0d56 023C     		se_mtar %r20,%r3
 2394              	.LVL354:
GAS LISTING C:\Users\Vipuls\AppData\Local\Temp\ccppVci0.s 			page 43


 2395              		.loc 1 1017 0
 2396 0d58 7CE6BA14 		add %r7,%r6,%r23
 2397 0d5c 7C9F382E 		lwzx %r4,%r31,%r7
 2398 0d60 78000001 		e_bl __subsf3
 2399              	.LVL355:
 2400              		.loc 1 1018 0
 2401 0d64 0195     		se_mr %r5,%r25
 2402 0d66 01E4     		se_mr %r4,%r30
 2403              		.loc 1 1017 0
 2404 0d68 013B     		se_mr %r27,%r3
 2405              		.loc 1 1018 0
 2406 0d6a 01D3     		se_mr %r3,%r29
 2407 0d6c 78000001 		e_bl look2_iflf_binlx.constprop.4
 2408              	.LVL356:
 2409 0d70 0134     		se_mr %r4,%r3
 2410 0d72 03C3     		se_mfar %r3,%r20
 2411 0d74 78000001 		e_bl __subsf3
 2412              	.LVL357:
 2413 0d78 0134     		se_mr %r4,%r3
 2414              		.loc 1 1017 0
 2415 0d7a 01B3     		se_mr %r3,%r27
 2416 0d7c 78000001 		e_bl __divsf3
 2417              	.LVL358:
 2418              		.loc 1 1023 0
 2419 0d80 53DA0000 		e_lwz %r30,0(%r26)
 2420              		.loc 1 1017 0
 2421 0d84 013D     		se_mr %r29,%r3
 2422              	.LVL359:
 2423              		.loc 1 1023 0
 2424 0d86 01E4     		se_mr %r4,%r30
 2425 0d88 78000001 		e_bl __gtsf2
 2426              	.LVL360:
 2427 0d8c 2A03     		se_cmpi %r3,0
 2428 0d8e 7A01FF92 		e_ble %cr0,.L194
 2429              	.L183:
 2430              		.loc 1 1028 0
 2431 0d92 7FD3F92E 		stwx %r30,%r19,%r31
 2432 0d96 203F     		se_addi %r31,4
 2433              	.LBE149:
 2434              		.loc 1 998 0
 2435 0d98 701FA838 		e_cmpl16i %r31,56
 2436 0d9c 7A02FFA4 		e_bne %cr0,.L117
 2437              	.L193:
 2438              	.LBE150:
 2439              	.LBE152:
 2440              		.loc 1 1112 0
 2441 0da0 500101BC 		e_lwz %r0,444(%r1)
 2442 0da4 0090     		se_mtlr %r0
 2443              		.cfi_remember_state
 2444              		.cfi_restore 65
 2445 0da6 51C10170 		e_lwz %r14,368(%r1)
 2446 0daa 51E10174 		e_lwz %r15,372(%r1)
 2447              	.LVL361:
 2448 0dae 52010178 		e_lwz %r16,376(%r1)
 2449 0db2 5221017C 		e_lwz %r17,380(%r1)
 2450 0db6 52410180 		e_lwz %r18,384(%r1)
 2451 0dba 52610184 		e_lwz %r19,388(%r1)
GAS LISTING C:\Users\Vipuls\AppData\Local\Temp\ccppVci0.s 			page 44


 2452              	.LVL362:
 2453 0dbe 52810188 		e_lwz %r20,392(%r1)
 2454 0dc2 52A1018C 		e_lwz %r21,396(%r1)
 2455 0dc6 52C10190 		e_lwz %r22,400(%r1)
 2456              	.LVL363:
 2457 0dca 52E10194 		e_lwz %r23,404(%r1)
 2458 0dce 53010198 		e_lwz %r24,408(%r1)
 2459 0dd2 5321019C 		e_lwz %r25,412(%r1)
 2460 0dd6 534101A0 		e_lwz %r26,416(%r1)
 2461 0dda 536101A4 		e_lwz %r27,420(%r1)
 2462 0dde 538101A8 		e_lwz %r28,424(%r1)
 2463 0de2 53A101AC 		e_lwz %r29,428(%r1)
 2464              	.LVL364:
 2465 0de6 53C101B0 		e_lwz %r30,432(%r1)
 2466 0dea 53E101B4 		e_lwz %r31,436(%r1)
 2467 0dee 1C2101B8 		e_add16i %r1,%r1,440
 2468              	.LCFI4:
 2469              		.cfi_restore 31
 2470              		.cfi_restore 30
 2471              		.cfi_restore 29
 2472              		.cfi_restore 28
 2473              		.cfi_restore 27
 2474              		.cfi_restore 26
 2475              		.cfi_restore 25
 2476              		.cfi_restore 24
 2477              		.cfi_restore 23
 2478              		.cfi_restore 22
 2479              		.cfi_restore 21
 2480              		.cfi_restore 20
 2481              		.cfi_restore 19
 2482              		.cfi_restore 18
 2483              		.cfi_restore 17
 2484              		.cfi_restore 16
 2485              		.cfi_restore 15
 2486              		.cfi_restore 14
 2487              		.cfi_def_cfa_offset 0
 2488              	.LVL365:
 2489 0df2 0004     		se_blr
 2490              	.LVL366:
 2491              	.L95:
 2492              	.LCFI5:
 2493              		.cfi_restore_state
 2494 0df4 53E1014C 		e_lwz %r31,332(%r1)
 2495              	.LVL367:
 2496              	.LBB153:
 2497              	.LBB144:
 2498              		.loc 1 472 0
 2499 0df8 70E0E000 		e_lis %r7,SOC_MAX@ha
 2500              	.LVL368:
 2501 0dfc 18BF84FF 		e_addi %r5,%r31,-1
 2502              	.LVL369:
 2503 0e00 48E4     		se_li %r4,14
 2504 0e02 50670000 		e_lwz %r3,SOC_MAX@l(%r7)
 2505 0e06 4806     		se_li %r6,0
 2506 0e08 00B4     		se_mtctr %r4
 2507 0e0a 53E10160 		e_lwz %r31,352(%r1)
 2508 0e0e 78000012 		e_b .L100
GAS LISTING C:\Users\Vipuls\AppData\Local\Temp\ccppVci0.s 			page 45


 2509              	.LVL370:
 2510              	.L196:
 2511 0e12 18E18008 		e_addi %r7,%r1,8
 2512 0e16 7C66392E 		stwx %r3,%r6,%r7
 2513              	.LVL371:
 2514 0e1a 2036     		se_addi %r6,4
 2515              		.loc 1 464 0
 2516 0e1c 7A300020 		e_bdz .L195
 2517              	.LVL372:
 2518              	.L100:
 2519              		.loc 1 468 0
 2520 0e20 18E50001 		e_lbzu %r7,1(%r5)
 2521              	.LVL373:
 2522 0e24 2A07     		se_cmpi %r7,0
 2523 0e26 7A12FFEC 		e_beq %cr0,.L196
 2524              		.loc 1 477 0
 2525 0e2a 7C9F302E 		lwzx %r4,%r31,%r6
 2526 0e2e 18E18008 		e_addi %r7,%r1,8
 2527 0e32 7C86392E 		stwx %r4,%r6,%r7
 2528              	.LVL374:
 2529 0e36 2036     		se_addi %r6,4
 2530              		.loc 1 464 0
 2531 0e38 7A20FFE8 		e_bdnz .L100
 2532              	.LVL375:
 2533              	.L195:
 2534              		.loc 1 488 0
 2535 0e3c 50C1016C 		e_lwz %r6,364(%r1)
 2536 0e40 2A06     		se_cmpi %r6,0
 2537 0e42 7A12007A 		e_beq %cr0,.L107
 2538 0e46 1BA18004 		e_addi %r29,%r1,4
 2539              	.LVL376:
 2540              	.LBB141:
 2541              		.loc 1 494 0
 2542 0e4a 70E0E000 		e_lis %r7,SOC_MAX@ha
 2543 0e4e 1B61803C 		e_addi %r27,%r1,60
 2544 0e52 53870000 		e_lwz %r28,SOC_MAX@l(%r7)
 2545              	.LVL377:
 2546 0e56 01DF     		se_mr %r31,%r29
 2547              	.LVL378:
 2548              	.L105:
 2549              	.LBB142:
 2550              		.loc 1 497 0
 2551 0e58 1BDF0204 		e_lwzu %r30,4(%r31)
 2552              	.LVL379:
 2553              		.loc 1 499 0
 2554 0e5c 01C4     		se_mr %r4,%r28
 2555 0e5e 01E3     		se_mr %r3,%r30
 2556 0e60 78000001 		e_bl __ltsf2
 2557              	.LVL380:
 2558 0e64 2A03     		se_cmpi %r3,0
 2559 0e66 7A000006 		e_bge %cr0,.L103
 2560              		.loc 1 500 0
 2561 0e6a 01EC     		se_mr %r28,%r30
 2562              	.LVL381:
 2563              	.L103:
 2564              	.LBE142:
 2565              		.loc 1 495 0
GAS LISTING C:\Users\Vipuls\AppData\Local\Temp\ccppVci0.s 			page 46


 2566 0e6c 0DBF     		se_cmpl %r31,%r27
 2567 0e6e 7A02FFEA 		e_bne %cr0,.L105
 2568              		.loc 1 507 0
 2569 0e72 01C3     		se_mr %r3,%r28
 2570 0e74 7088E2C8 		e_lis %r4,0x42c8
 2571 0e78 1FEF0585 		e_add16i %r31,%r15,1413
 2572 0e7c 78000001 		e_bl __mulsf3
 2573              	.LVL382:
 2574 0e80 1F2F0593 		e_add16i %r25,%r15,1427
 2575 0e84 78000001 		e_bl __fixunssfsi
 2576              	.LVL383:
 2577              		.loc 1 514 0
 2578 0e88 7388E2C8 		e_lis %r28,0x42c8
 2579              	.LVL384:
 2580 0e8c 70E0E000 		e_lis %r7,.LANCHOR0@ha
 2581              		.loc 1 507 0
 2582 0e90 747A063F 		e_rlwinm %r26,%r3,0,0xff
 2583              	.LVL385:
 2584 0e94 33670000 		e_lbz %r27,.LANCHOR0@l(%r7)
 2585              		.loc 1 515 0
 2586 0e98 481E     		se_li %r30,1
 2587              	.LVL386:
 2588              	.L106:
 2589              		.loc 1 514 0
 2590 0e9a 01C4     		se_mr %r4,%r28
 2591 0e9c 187D0204 		e_lwzu %r3,4(%r29)
 2592 0ea0 78000001 		e_bl __mulsf3
 2593              	.LVL387:
 2594 0ea4 78000001 		e_bl __fixunssfsi
 2595              	.LVL388:
 2596 0ea8 06A3     		se_sub %r3, %r26
 2597              		.loc 1 515 0
 2598 0eaa 00C3     		se_extzb %r3
 2599 0eac 0DB3     		se_cmpl %r3,%r27
 2600 0eae 7C60F01E 		isel %r3,0,%r30,0
 2601 0eb2 187F0401 		e_stbu %r3,1(%r31)
 2602              		.loc 1 508 0
 2603 0eb6 0D9F     		se_cmpl %r31,%r25
 2604 0eb8 7A02FFE2 		e_bne %cr0,.L106
 2605              	.LVL389:
 2606              	.L107:
 2607 0ebc 48ED     		se_li %r29,14
 2608 0ebe 1CEF0585 		e_add16i %r7,%r15,1413
 2609 0ec2 00BD     		se_mtctr %r29
 2610              	.LVL390:
 2611              	.L102:
 2612              	.LBE141:
 2613              		.loc 1 524 0
 2614 0ec4 18C70001 		e_lbzu %r6,1(%r7)
 2615 0ec8 34C7FFF2 		e_stb %r6,-14(%r7)
 2616              		.loc 1 520 0
 2617 0ecc 7A20FFF8 		e_bdnz .L102
 2618 0ed0 79FFFDC6 		e_b .L108
 2619              	.LVL391:
 2620              	.L174:
 2621              	.LBE144:
 2622              	.LBE153:
GAS LISTING C:\Users\Vipuls\AppData\Local\Temp\ccppVci0.s 			page 47


 2623              	.LBB154:
 2624              	.LBB87:
 2625              	.LBB77:
 2626              	.LBB74:
 2627              	.LBB70:
 2628              		.loc 1 422 0
 2629 0ed4 482F     		se_li %r31,2
 2630 0ed6 79FFF332 		e_b .L45
 2631              	.LBE70:
 2632              	.LBE74:
 2633              	.LBE77:
 2634              	.LBE87:
 2635              	.LBE154:
 2636              		.cfi_endproc
 2637              	.LFE11:
 2638              		.size	BMS_Controller_p, .-BMS_Controller_p
 2639              		.section	.text.BMS_Controller_step,"axv",@progbits
 2640              		.align 1
 2641              		.p2align 4,,15
 2642              		.globl BMS_Controller_step
 2643              		.type	BMS_Controller_step, @function
 2644              	BMS_Controller_step:
 2645              	.LFB12:
 2646              		.loc 1 1119 0
 2647              		.cfi_startproc
 2648              	.LVL392:
 2649              		.loc 1 1119 0
 2650 0000 5161000C 		e_lwz %r11,12(%r1)
 2651 0004 C201     		se_lwz %r0,8(%r1)
 2652              		.loc 1 1135 0
 2653 0006 55610008 		e_stw %r11,8(%r1)
 2654              	.LVL393:
 2655 000a 51610010 		e_lwz %r11,16(%r1)
 2656 000e 5561000C 		e_stw %r11,12(%r1)
 2657              	.LVL394:
 2658 0012 51630004 		e_lwz %r11,4(%r3)
 2659 0016 0143     		se_mr %r3,%r4
 2660              	.LVL395:
 2661 0018 55610010 		e_stw %r11,16(%r1)
 2662              	.LVL396:
 2663 001c 0154     		se_mr %r4,%r5
 2664              	.LVL397:
 2665              		.loc 1 1141 0
 2666              		.loc 1 1135 0
 2667 001e 0165     		se_mr %r5,%r6
 2668              	.LVL398:
 2669 0020 0176     		se_mr %r6,%r7
 2670              	.LVL399:
 2671 0022 0307     		se_mfar %r7,%r8
 2672              	.LVL400:
 2673 0024 7D284B78 		mr %r8,%r9
 2674              	.LVL401:
 2675 0028 7D495378 		mr %r9,%r10
 2676              	.LVL402:
 2677 002c 0202     		se_mtar %r10,%r0
 2678              	.LVL403:
 2679 002e 78000000 		e_b BMS_Controller_p
GAS LISTING C:\Users\Vipuls\AppData\Local\Temp\ccppVci0.s 			page 48


 2680              	.LVL404:
 2681              		.cfi_endproc
 2682              	.LFE12:
 2683              		.size	BMS_Controller_step, .-BMS_Controller_step
 2684              		.section	.text.BMS_Controller_initialize,"axv",@progbits
 2685              		.align 1
 2686              		.p2align 4,,15
 2687              		.globl BMS_Controller_initialize
 2688              		.type	BMS_Controller_initialize, @function
 2689              	BMS_Controller_initialize:
 2690              	.LFB13:
 2691              		.loc 1 1145 0
 2692              		.cfi_startproc
 2693              	.LVL405:
 2694              		.loc 1 1146 0
 2695 0000 C103     		se_lwz %r0,4(%r3)
 2696              	.LVL406:
 2697 0002 7160E000 		e_lis %r11,rtConstP+748@ha
 2698 0006 1880801C 		e_addi %r4,%r0,28
 2699              	.LBB155:
 2700              	.LBB156:
 2701              	.LBB157:
 2702              		.loc 1 585 0
 2703 000a 4813     		se_li %r3,1
 2704              	.LVL407:
 2705 000c 1C0004EC 		e_add16i %r0,%r0,1260
 2706              	.LVL408:
 2707              		.loc 1 595 0
 2708 0010 7107E780 		e_lis %r8,0x3f80
 2709              		.loc 1 596 0
 2710 0014 71400000 		e_li %r10,0
 2711 0018 1D6B0000 		e_la %r11,rtConstP+748@l(%r11)
 2712 001c 71200058 		e_li %r9,88
 2713              	.LVL409:
 2714              	.L200:
 2715              		.loc 1 599 0
 2716 0020 4895     		se_li %r5,9
 2717              		.loc 1 585 0
 2718 0022 34640034 		e_stb %r3,52(%r4)
 2719              		.loc 1 588 0
 2720 0026 34640035 		e_stb %r3,53(%r4)
 2721              		.loc 1 591 0
 2722 002a 34640036 		e_stb %r3,54(%r4)
 2723              		.loc 1 595 0
 2724 002e 5504FFE4 		e_stw %r8,-28(%r4)
 2725              		.loc 1 596 0
 2726 0032 5544FFE8 		e_stw %r10,-24(%r4)
 2727              		.loc 1 599 0
 2728 0036 34640037 		e_stb %r3,55(%r4)
 2729              	.LVL410:
 2730 003a 0336     		se_mfar %r6,%r11
 2731 003c 0147     		se_mr %r7,%r4
 2732 003e 00B5     		se_mtctr %r5
 2733              	.LVL411:
 2734              	.L199:
 2735              		.loc 1 604 0
 2736 0040 18A60204 		e_lwzu %r5,4(%r6)
GAS LISTING C:\Users\Vipuls\AppData\Local\Temp\ccppVci0.s 			page 49


 2737              		.loc 1 603 0
 2738 0044 18A70604 		e_stwu %r5,4(%r7)
 2739              		.loc 1 602 0
 2740 0048 7A20FFF8 		e_bdnz .L199
 2741 004c 7C844A14 		add %r4,%r4,%r9
 2742              		.loc 1 583 0
 2743 0050 0D04     		se_cmpl %r4,%r0
 2744 0052 7A02FFCE 		e_bne %cr0,.L200
 2745              	.LBE157:
 2746              	.LBE156:
 2747              	.LBE155:
 2748              		.loc 1 1152 0
 2749 0056 0004     		se_blr
 2750              		.cfi_endproc
 2751              	.LFE13:
 2752              		.size	BMS_Controller_initialize, .-BMS_Controller_initialize
 2753              		.globl TH_Bal
 2754              		.section	.rodata.cst4,"aM",@progbits,4
 2755              		.align 2
 2756              	.LC0:
 2757 0000 00000000 		.long	rtConstP+748
 2758              	.LC1:
 2759 0004 00000000 		.long	rtConstP+72
 2760              	.LC2:
 2761 0008 00000000 		.long	R1_Vector
 2762              	.LC3:
 2763 000c 00000000 		.long	rtConstP+412
 2764              	.LC4:
 2765 0010 00000000 		.long	rtConstP
 2766              		.section	.data.TH_Bal,"aw",@progbits
 2767              		.set	.LANCHOR0,. + 0
 2768              		.type	TH_Bal, @object
 2769              		.size	TH_Bal, 1
 2770              	TH_Bal:
 2771 0000 03       		.byte	3
 2772              		.section	".text","axv"
 2773              	.Letext0:
 2774              		.file 2 "./source/ModelBMS/rtwtypes.h"
 2775              		.file 3 "./source/ModelBMS/BMS_Controller_types.h"
 2776              		.file 4 "./source/ModelBMS/BMS_Controller.h"
 2777              		.file 5 "./source/ModelBMS/Cell_Model_parameter.h"
 2778              		.file 6 "c:\\autodevkitstudio-2.4.0\\eclipse\\plugins\\com.st.tools.spc5.tools.gnu.gcc.ppcvle.win3