GAS LISTING C:\Users\Vipuls\AppData\Local\Temp\ccvj9uHc.s 			page 1


   1              		.file	"can_lld.c"
   2              		.section	".text","axv"
   3              	.Ltext0:
   4              		.cfi_sections	.debug_frame
   5              		.section	.text.can_lld_getframesize,"axv",@progbits
   6              		.align 1
   7              		.p2align 4,,15
   8              		.globl can_lld_getframesize
   9              		.type	can_lld_getframesize, @function
  10              	can_lld_getframesize:
  11              	.LFB5:
  12              		.file 1 "./components/spc58ecxx_low_level_drivers_component_rla/lib/src/can_lld.c"
  13              		.loc 1 310 0
  14              		.cfi_startproc
  15              	.LVL0:
  16              		.loc 1 311 0
  17 0000 18E384F7 		e_addi %r7,%r3,-9
  18 0004 00C7     		se_extzb %r7
  19 0006 2257     		se_cmpli %r7,6
  20 0008 7A11001C 		e_bgt %cr0,.L3
  21 000c 6C27     		se_slwi %r7, 2
  22 000e 70C0E000 		e_lis %r6,.L4@ha
  23 0012 1CC60000 		e_la %r6,.L4@l(%r6)
  24 0016 7CE6382E 		lwzx %r7,%r6,%r7
  25 001a 7CC73214 		add %r6,%r7,%r6
  26 001e 00B6     		se_mtctr %r6
  27 0020 0006     		se_bctr
  28              		.section	.rodata.can_lld_getframesize,"a",@progbits
  29              		.align 2
  30              		.align 2
  31              	.L4:
  32 0000 00000000 		.long .L11-.L4
  33 0004 00000000 		.long .L5-.L4
  34 0008 00000000 		.long .L6-.L4
  35 000c 00000000 		.long .L7-.L4
  36 0010 00000000 		.long .L8-.L4
  37 0014 00000000 		.long .L9-.L4
  38 0018 00000000 		.long .L10-.L4
  39              		.section	.text.can_lld_getframesize
  40              	.L11:
  41              		.loc 1 313 0
  42 0022 48C3     		se_li %r3,12
  43              	.LVL1:
  44              	.L3:
  45              		.loc 1 329 0
  46 0024 0004     		se_blr
  47              	.LVL2:
  48              	.L5:
  49              		.loc 1 315 0
  50 0026 4903     		se_li %r3,16
  51              	.LVL3:
  52 0028 0004     		se_blr
  53              	.LVL4:
  54              	.L6:
  55              		.loc 1 317 0
  56 002a 4943     		se_li %r3,20
  57              	.LVL5:
GAS LISTING C:\Users\Vipuls\AppData\Local\Temp\ccvj9uHc.s 			page 2


  58 002c 0004     		se_blr
  59              	.LVL6:
  60              	.L7:
  61              		.loc 1 319 0
  62 002e 4983     		se_li %r3,24
  63              	.LVL7:
  64 0030 0004     		se_blr
  65              	.LVL8:
  66              	.L8:
  67              		.loc 1 321 0
  68 0032 4A03     		se_li %r3,32
  69              	.LVL9:
  70 0034 0004     		se_blr
  71              	.LVL10:
  72              	.L9:
  73              		.loc 1 323 0
  74 0036 4B03     		se_li %r3,48
  75              	.LVL11:
  76 0038 0004     		se_blr
  77              	.LVL12:
  78              	.L10:
  79              		.loc 1 325 0
  80 003a 4C03     		se_li %r3,64
  81              	.LVL13:
  82 003c 0004     		se_blr
  83              		.cfi_endproc
  84              	.LFE5:
  85              		.size	can_lld_getframesize, .-can_lld_getframesize
  86              		.section	.text.can_lld_readBuffer,"axv",@progbits
  87              		.align 1
  88              		.p2align 4,,15
  89              		.globl can_lld_readBuffer
  90              		.type	can_lld_readBuffer, @function
  91              	can_lld_readBuffer:
  92              	.LFB3:
  93              		.loc 1 161 0
  94              		.cfi_startproc
  95              	.LVL14:
  96 0000 182106E8 		e_stwu %r1,-24(%r1)
  97              	.LCFI0:
  98              		.cfi_def_cfa_offset 24
  99 0004 0080     		se_mflr %r0
 100 0006 1B810908 		e_stmw %r28,8(%r1)
 101 000a D701     		se_stw %r0,28(%r1)
 102              		.cfi_offset 65, 4
 103              		.cfi_offset 28, -16
 104              		.cfi_offset 29, -12
 105              		.cfi_offset 30, -8
 106              		.cfi_offset 31, -4
 107              		.loc 1 161 0
 108 000c 013C     		se_mr %r28,%r3
 109 000e 016E     		se_mr %r30,%r6
 110              		.loc 1 169 0
 111 0010 7004A8FD 		e_cmpl16i %r4,253
 112 0014 7A12010A 		e_beq %cr0,.L15
 113 0018 7004A8FE 		e_cmpl16i %r4,254
 114 001c 7A1200F6 		e_beq %cr0,.L16
GAS LISTING C:\Users\Vipuls\AppData\Local\Temp\ccvj9uHc.s 			page 3


 115 0020 7004A8FC 		e_cmpl16i %r4,252
 116 0024 7A12008E 		e_beq %cr0,.L30
 117 0028 4807     		se_li %r7,0
 118              	.LVL15:
 119 002a 488F     		se_li %r31,8
 120              		.loc 1 188 0
 121 002c C067     		se_lwz %r6,0(%r7)
 122              	.LVL16:
 123              		.loc 1 169 0
 124 002e 4845     		se_li %r5,4
 125              	.LVL17:
 126              		.loc 1 188 0
 127 0030 69E6     		se_srwi %r6,30
 128 0032 2206     		se_cmpli %r6,1
 129 0034 7A1200A8 		e_beq %cr0,.L31
 130              	.LVL18:
 131              	.L18:
 132              		.loc 1 193 0
 133 0038 4806     		se_li %r6,0
 134 003a 946E     		se_stb %r6,4(%r30)
 135              		.loc 1 194 0
 136 003c C077     		se_lwz %r7,0(%r7)
 137 003e 6927     		se_srwi %r7,18
 138 0040 D27E     		se_stw %r7,8(%r30)
 139              		.loc 1 199 0
 140 0042 C0D5     		se_lwz %r29,0(%r5)
 141              	.LVL19:
 142              		.loc 1 200 0
 143 0044 77A3873F 		e_rlwinm %r3,%r29,16,28,31
 144              	.LVL20:
 145 0048 78000001 		e_bl can_lld_getframesize
 146              	.LVL21:
 147              		.loc 1 204 0
 148 004c 77A55FFF 		e_rlwinm %r5,%r29,11,31,31
 149              		.loc 1 211 0
 150 0050 1866C003 		e_andi %r6,%r3,3
 151              		.loc 1 207 0
 152 0054 00CD     		se_extzb %r29
 153              	.LVL22:
 154              		.loc 1 201 0
 155 0056 9C3E     		se_stb %r3,12(%r30)
 156              		.loc 1 204 0
 157 0058 925E     		se_stb %r5,2(%r30)
 158              		.loc 1 207 0
 159 005a B0DE     		se_sth %r29,0(%r30)
 160              	.LVL23:
 161              		.loc 1 211 0
 162 005c 2A06     		se_cmpi %r6,0
 163 005e 7A0200A8 		e_bne %cr0,.L20
 164              	.LVL24:
 165              	.L33:
 166              		.loc 1 217 0
 167 0062 7C661471 		e_srwi. %r6,%r3,2
 168 0066 7A120040 		e_beq %cr0,.L13
 169              	.LVL25:
 170              	.L21:
 171 006a 18E684FF 		e_addi %r7,%r6,-1
GAS LISTING C:\Users\Vipuls\AppData\Local\Temp\ccvj9uHc.s 			page 4


 172 006e 189F8004 		e_addi %r4,%r31,4
 173 0072 74E715BB 		e_rlwinm %r7,%r7,2,22,29
 174 0076 18DE8010 		e_addi %r6,%r30,16
 175              	.LVL26:
 176              		.loc 1 220 0
 177 007a C03C     		se_lwz %r3,0(%r28)
 178 007c 0474     		se_add %r4,%r7
 179 007e 78000010 		e_b .L25
 180              	.LVL27:
 181              	.L32:
 182              		.loc 1 221 0
 183 0082 D056     		se_stw %r5,0(%r6)
 184              		.loc 1 225 0
 185 0084 203F     		se_addi %r31,4
 186              	.LVL28:
 187 0086 2036     		se_addi %r6,4
 188              		.loc 1 217 0
 189 0088 0D4F     		se_cmpl %r31,%r4
 190 008a 7A12001C 		e_beq %cr0,.L13
 191              	.LVL29:
 192              	.L25:
 193              		.loc 1 220 0
 194 008e 8173     		se_lbz %r7,1(%r3)
 195              		.loc 1 218 0
 196 0090 C05F     		se_lwz %r5,0(%r31)
 197              	.LVL30:
 198              		.loc 1 220 0
 199 0092 2A07     		se_cmpi %r7,0
 200 0094 7A12FFEE 		e_beq %cr0,.L32
 201              		.loc 1 223 0
 202 0098 7CA0352C 		stwbrx %r5,0,%r6
 203              		.loc 1 225 0
 204 009c 203F     		se_addi %r31,4
 205              	.LVL31:
 206 009e 2036     		se_addi %r6,4
 207              		.loc 1 217 0
 208 00a0 0D4F     		se_cmpl %r31,%r4
 209 00a2 7A02FFEC 		e_bne %cr0,.L25
 210              	.LVL32:
 211              	.L13:
 212              		.loc 1 231 0
 213 00a6 C701     		se_lwz %r0,28(%r1)
 214 00a8 0090     		se_mtlr %r0
 215              		.cfi_remember_state
 216              		.cfi_restore 65
 217 00aa 1B810808 		e_lmw %r28,8(%r1)
 218              	.LVL33:
 219 00ae 2171     		se_addi %r1,24
 220              	.LCFI1:
 221              		.cfi_restore 31
 222              		.cfi_restore 30
 223              		.cfi_restore 29
 224              		.cfi_restore 28
 225              		.cfi_def_cfa_offset 0
 226 00b0 0004     		se_blr
 227              	.LVL34:
 228              	.L30:
GAS LISTING C:\Users\Vipuls\AppData\Local\Temp\ccvj9uHc.s 			page 5


 229              	.LCFI2:
 230              		.cfi_restore_state
 231              		.loc 1 171 0
 232 00b2 C173     		se_lwz %r7,4(%r3)
 233 00b4 C243     		se_lwz %r4,8(%r3)
 234              	.LVL35:
 235 00b6 50C700AC 		e_lwz %r6,172(%r7)
 236              	.LVL36:
 237              	.L29:
 238              		.loc 1 180 0
 239 00ba 8C7C     		se_lbz %r7,12(%r28)
 240              		.loc 1 179 0
 241 00bc 74C6043B 		e_rlwinm %r6,%r6,0,16,29
 242              		.loc 1 180 0
 243 00c0 2077     		se_addi %r7,8
 244              		.loc 1 179 0
 245 00c2 0446     		se_add %r6,%r4
 246              		.loc 1 180 0
 247 00c4 0557     		se_mullw %r7,%r5
 248              		.loc 1 179 0
 249 00c6 7CE63A14 		add %r7,%r6,%r7
 250              	.LVL37:
 251              		.loc 1 188 0
 252 00ca C067     		se_lwz %r6,0(%r7)
 253 00cc 18A78004 		e_addi %r5,%r7,4
 254              	.LVL38:
 255 00d0 69E6     		se_srwi %r6,30
 256 00d2 1BE78008 		e_addi %r31,%r7,8
 257 00d6 2206     		se_cmpli %r6,1
 258 00d8 7A02FF60 		e_bne %cr0,.L18
 259              	.L31:
 260              		.loc 1 189 0
 261 00dc 946E     		se_stb %r6,4(%r30)
 262              		.loc 1 190 0
 263 00de C077     		se_lwz %r7,0(%r7)
 264 00e0 18E7C71F 		e_andi %r7,%r7,536870911
 265 00e4 D27E     		se_stw %r7,8(%r30)
 266              		.loc 1 199 0
 267 00e6 C0D5     		se_lwz %r29,0(%r5)
 268              	.LVL39:
 269              		.loc 1 200 0
 270 00e8 77A3873F 		e_rlwinm %r3,%r29,16,28,31
 271              	.LVL40:
 272 00ec 78000001 		e_bl can_lld_getframesize
 273              	.LVL41:
 274              		.loc 1 204 0
 275 00f0 77A55FFF 		e_rlwinm %r5,%r29,11,31,31
 276              		.loc 1 211 0
 277 00f4 1866C003 		e_andi %r6,%r3,3
 278              		.loc 1 207 0
 279 00f8 00CD     		se_extzb %r29
 280              	.LVL42:
 281              		.loc 1 201 0
 282 00fa 9C3E     		se_stb %r3,12(%r30)
 283              		.loc 1 204 0
 284 00fc 925E     		se_stb %r5,2(%r30)
 285              		.loc 1 207 0
GAS LISTING C:\Users\Vipuls\AppData\Local\Temp\ccvj9uHc.s 			page 6


 286 00fe B0DE     		se_sth %r29,0(%r30)
 287              	.LVL43:
 288              		.loc 1 211 0
 289 0100 2A06     		se_cmpi %r6,0
 290 0102 7A12FF60 		e_beq %cr0,.L33
 291              	.LVL44:
 292              	.L20:
 293              		.loc 1 215 0
 294 0106 7C671470 		e_srwi %r7,%r3,2
 295 010a 18C78001 		e_addi %r6,%r7,1
 296              	.LVL45:
 297 010e 79FFFF5C 		e_b .L21
 298              	.LVL46:
 299              	.L16:
 300              		.loc 1 179 0
 301 0112 C173     		se_lwz %r7,4(%r3)
 302 0114 C243     		se_lwz %r4,8(%r3)
 303              	.LVL47:
 304 0116 50C700B0 		e_lwz %r6,176(%r7)
 305              	.LVL48:
 306 011a 79FFFFA0 		e_b .L29
 307              	.LVL49:
 308              	.L15:
 309              		.loc 1 175 0
 310 011e C173     		se_lwz %r7,4(%r3)
 311 0120 C243     		se_lwz %r4,8(%r3)
 312              	.LVL50:
 313 0122 50C700A0 		e_lwz %r6,160(%r7)
 314              	.LVL51:
 315 0126 79FFFF94 		e_b .L29
 316              		.cfi_endproc
 317              	.LFE3:
 318              		.size	can_lld_readBuffer, .-can_lld_readBuffer
 319              		.section	.text.can_lld_getDLC,"axv",@progbits
 320              		.align 1
 321              		.p2align 4,,15
 322              		.globl can_lld_getDLC
 323              		.type	can_lld_getDLC, @function
 324              	can_lld_getDLC:
 325              	.LFB6:
 326              		.loc 1 339 0
 327              		.cfi_startproc
 328              	.LVL52:
 329 0000 0137     		se_mr %r7,%r3
 330              		.loc 1 340 0
 331 0002 2273     		se_cmpli %r3,8
 332 0004 7A010042 		e_ble %cr0,.L35
 333              		.loc 1 344 0
 334 0008 4893     		se_li %r3,9
 335              	.LVL53:
 336              		.loc 1 343 0
 337 000a 22B7     		se_cmpli %r7,12
 338 000c 7A12003A 		e_beq %cr0,.L35
 339              		.loc 1 347 0
 340 0010 48A3     		se_li %r3,10
 341              		.loc 1 346 0
 342 0012 22F7     		se_cmpli %r7,16
GAS LISTING C:\Users\Vipuls\AppData\Local\Temp\ccvj9uHc.s 			page 7


 343 0014 7A120032 		e_beq %cr0,.L35
 344              		.loc 1 350 0
 345 0018 48B3     		se_li %r3,11
 346              		.loc 1 349 0
 347 001a 2337     		se_cmpli %r7,20
 348 001c 7A12002A 		e_beq %cr0,.L35
 349              		.loc 1 353 0
 350 0020 48C3     		se_li %r3,12
 351              		.loc 1 352 0
 352 0022 2377     		se_cmpli %r7,24
 353 0024 7A120022 		e_beq %cr0,.L35
 354              		.loc 1 356 0
 355 0028 48D3     		se_li %r3,13
 356              		.loc 1 355 0
 357 002a 23F7     		se_cmpli %r7,32
 358 002c 7A12001A 		e_beq %cr0,.L35
 359              	.LVL54:
 360              	.LBB5:
 361              	.LBB6:
 362              		.loc 1 359 0
 363 0030 48E3     		se_li %r3,14
 364              		.loc 1 358 0
 365 0032 7007A830 		e_cmpl16i %r7,48
 366 0036 7A120010 		e_beq %cr0,.L35
 367              		.loc 1 361 0
 368 003a 7007A840 		e_cmpl16i %r7,64
 369              		.loc 1 365 0
 370 003e 48F6     		se_li %r6,15
 371 0040 4807     		se_li %r7,0
 372              	.LVL55:
 373 0042 7C66389E 		isel %r3,%r6,%r7,2
 374              	.L35:
 375              	.LBE6:
 376              	.LBE5:
 377              		.loc 1 367 0
 378 0046 0004     		se_blr
 379              		.cfi_endproc
 380              	.LFE6:
 381              		.size	can_lld_getDLC, .-can_lld_getDLC
 382              		.section	.text.can_lld_writeTxBuffer,"axv",@progbits
 383              		.align 1
 384              		.p2align 4,,15
 385              		.globl can_lld_writeTxBuffer
 386              		.type	can_lld_writeTxBuffer, @function
 387              	can_lld_writeTxBuffer:
 388              	.LFB4:
 389              		.loc 1 241 0
 390              		.cfi_startproc
 391              	.LVL56:
 392 0000 182106E8 		e_stwu %r1,-24(%r1)
 393              	.LCFI3:
 394              		.cfi_def_cfa_offset 24
 395 0004 0080     		se_mflr %r0
 396 0006 1BA1090C 		e_stmw %r29,12(%r1)
 397 000a D701     		se_stw %r0,28(%r1)
 398              		.cfi_offset 65, 4
 399              		.cfi_offset 29, -12
GAS LISTING C:\Users\Vipuls\AppData\Local\Temp\ccvj9uHc.s 			page 8


 400              		.cfi_offset 30, -8
 401              		.cfi_offset 31, -4
 402              		.loc 1 241 0
 403 000c 015F     		se_mr %r31,%r5
 404              		.loc 1 250 0
 405 000e 8C73     		se_lbz %r7,12(%r3)
 406              		.loc 1 241 0
 407 0010 013D     		se_mr %r29,%r3
 408              		.loc 1 254 0
 409 0012 7C852070 		e_slwi %r5,%r4,4
 410              	.LVL57:
 411              		.loc 1 250 0
 412 0016 70079840 		e_cmp16i %r7,64
 413 001a 7A120096 		e_beq %cr0,.L60
 414              	.LVL58:
 415              		.loc 1 259 0
 416 001e 826F     		se_lbz %r6,2(%r31)
 417              		.loc 1 256 0
 418 0020 C17D     		se_lwz %r7,4(%r29)
 419 0022 C24D     		se_lwz %r4,8(%r29)
 420              	.LVL59:
 421 0024 50E700C0 		e_lwz %r7,192(%r7)
 422              		.loc 1 259 0
 423 0028 2A16     		se_cmpi %r6,1
 424              		.loc 1 256 0
 425 002a 74E7043B 		e_rlwinm %r7,%r7,0,16,29
 426              		.loc 1 260 0
 427 002e C16F     		se_lwz %r6,4(%r31)
 428              		.loc 1 256 0
 429 0030 0447     		se_add %r7,%r4
 430 0032 7FC72A14 		add %r30,%r7,%r5
 431              	.LVL60:
 432              		.loc 1 259 0
 433 0036 7A1200A0 		e_beq %cr0,.L61
 434              	.L47:
 435              	.LVL61:
 436              		.loc 1 263 0
 437 003a 6D26     		se_slwi %r6, 18
 438 003c 7CC7292E 		stwx %r6,%r7,%r5
 439              		.loc 1 267 0
 440 0040 883F     		se_lbz %r3,8(%r31)
 441              	.LVL62:
 442 0042 78000001 		e_bl can_lld_getDLC
 443              	.LVL63:
 444              		.loc 1 268 0
 445 0046 6D03     		se_slwi %r3, 16
 446              	.LVL64:
 447              		.loc 1 269 0
 448 0048 D13E     		se_stw %r3,4(%r30)
 449              		.loc 1 272 0
 450 004a 807F     		se_lbz %r7,0(%r31)
 451 004c 2A17     		se_cmpi %r7,1
 452 004e 7A1200A0 		e_beq %cr0,.L62
 453              	.LVL65:
 454              	.L50:
 455              		.loc 1 281 0
 456 0052 887F     		se_lbz %r7,8(%r31)
GAS LISTING C:\Users\Vipuls\AppData\Local\Temp\ccvj9uHc.s 			page 9


 457 0054 18E6C003 		e_andi %r6,%r7,3
 458 0058 2A06     		se_cmpi %r6,0
 459 005a 7A020018 		e_bne %cr0,.L52
 460              	.LVL66:
 461              		.loc 1 287 0
 462 005e 7CE41471 		e_srwi. %r4,%r7,2
 463 0062 7A020016 		e_bne %cr0,.L53
 464              	.LVL67:
 465              	.L44:
 466              		.loc 1 300 0
 467 0066 C701     		se_lwz %r0,28(%r1)
 468 0068 0090     		se_mtlr %r0
 469              		.cfi_remember_state
 470              		.cfi_restore 65
 471 006a 1BA1080C 		e_lmw %r29,12(%r1)
 472              	.LVL68:
 473 006e 2171     		se_addi %r1,24
 474              	.LCFI4:
 475              		.cfi_restore 31
 476              		.cfi_restore 30
 477              		.cfi_restore 29
 478              		.cfi_def_cfa_offset 0
 479 0070 0004     		se_blr
 480              	.LVL69:
 481              	.L52:
 482              	.LCFI5:
 483              		.cfi_restore_state
 484              		.loc 1 285 0
 485 0072 6827     		se_srwi %r7,2
 486 0074 18878001 		e_addi %r4,%r7,1
 487              	.LVL70:
 488              	.L53:
 489              		.loc 1 280 0
 490 0078 18DE8008 		e_addi %r6,%r30,8
 491 007c 207F     		se_addi %r31,8
 492              	.LVL71:
 493 007e C0ED     		se_lwz %r30,0(%r29)
 494              	.LVL72:
 495 0080 4807     		se_li %r7,0
 496              	.LVL73:
 497              		.loc 1 290 0
 498 0082 815E     		se_lbz %r5,1(%r30)
 499              		.loc 1 288 0
 500 0084 187F0204 		e_lwzu %r3,4(%r31)
 501              	.LVL74:
 502              		.loc 1 290 0
 503 0088 2A05     		se_cmpi %r5,0
 504 008a 7A02001E 		e_bne %cr0,.L55
 505              	.LVL75:
 506              	.L63:
 507              		.loc 1 291 0
 508 008e D036     		se_stw %r3,0(%r6)
 509              	.L56:
 510              		.loc 1 287 0 discriminator 2
 511 0090 2007     		se_addi %r7,1
 512              		.loc 1 295 0 discriminator 2
 513 0092 2036     		se_addi %r6,4
GAS LISTING C:\Users\Vipuls\AppData\Local\Temp\ccvj9uHc.s 			page 10


 514              	.LVL76:
 515              		.loc 1 287 0 discriminator 2
 516 0094 00C7     		se_extzb %r7
 517              	.LVL77:
 518 0096 0D47     		se_cmpl %r7,%r4
 519 0098 7A12FFCE 		e_beq %cr0,.L44
 520              		.loc 1 290 0
 521 009c 815E     		se_lbz %r5,1(%r30)
 522              		.loc 1 288 0
 523 009e 187F0204 		e_lwzu %r3,4(%r31)
 524              	.LVL78:
 525              		.loc 1 290 0
 526 00a2 2A05     		se_cmpi %r5,0
 527 00a4 7A12FFEA 		e_beq %cr0,.L63
 528              	.LVL79:
 529              	.L55:
 530              		.loc 1 293 0
 531 00a8 7C60352C 		stwbrx %r3,0,%r6
 532 00ac 79FFFFE4 		e_b .L56
 533              	.LVL80:
 534              	.L60:
 535              		.loc 1 251 0
 536 00b0 7C871870 		e_slwi %r7,%r4,3
 537              		.loc 1 259 0
 538 00b4 826F     		se_lbz %r6,2(%r31)
 539              		.loc 1 251 0
 540 00b6 6C64     		se_slwi %r4, 6
 541              	.LVL81:
 542              		.loc 1 259 0
 543 00b8 2A16     		se_cmpi %r6,1
 544              		.loc 1 251 0
 545 00ba 7CA72214 		add %r5,%r7,%r4
 546              	.LVL82:
 547              		.loc 1 260 0
 548 00be C16F     		se_lwz %r6,4(%r31)
 549              		.loc 1 256 0
 550 00c0 C17D     		se_lwz %r7,4(%r29)
 551 00c2 C24D     		se_lwz %r4,8(%r29)
 552 00c4 50E700C0 		e_lwz %r7,192(%r7)
 553 00c8 74E7043B 		e_rlwinm %r7,%r7,0,16,29
 554 00cc 0447     		se_add %r7,%r4
 555 00ce 7FC72A14 		add %r30,%r7,%r5
 556              	.LVL83:
 557              		.loc 1 259 0
 558 00d2 7A02FF68 		e_bne %cr0,.L47
 559              	.L61:
 560              		.loc 1 260 0
 561 00d6 6416     		se_bseti %r6,1
 562 00d8 7CC7292E 		stwx %r6,%r7,%r5
 563              	.LVL84:
 564              		.loc 1 267 0
 565 00dc 883F     		se_lbz %r3,8(%r31)
 566              	.LVL85:
 567 00de 78000001 		e_bl can_lld_getDLC
 568              	.LVL86:
 569              		.loc 1 268 0
 570 00e2 6D03     		se_slwi %r3, 16
GAS LISTING C:\Users\Vipuls\AppData\Local\Temp\ccvj9uHc.s 			page 11


 571              	.LVL87:
 572              		.loc 1 269 0
 573 00e4 D13E     		se_stw %r3,4(%r30)
 574              		.loc 1 272 0
 575 00e6 807F     		se_lbz %r7,0(%r31)
 576 00e8 2A17     		se_cmpi %r7,1
 577 00ea 7A02FF68 		e_bne %cr0,.L50
 578              	.LVL88:
 579              	.L62:
 580              		.loc 1 273 0
 581 00ee C17E     		se_lwz %r7,4(%r30)
 582              		.loc 1 274 0
 583 00f0 C06D     		se_lwz %r6,0(%r29)
 584              		.loc 1 273 0
 585 00f2 64A7     		se_bseti %r7,10
 586 00f4 D17E     		se_stw %r7,4(%r30)
 587              		.loc 1 274 0
 588 00f6 8976     		se_lbz %r7,9(%r6)
 589 00f8 2A17     		se_cmpi %r7,1
 590 00fa 7A02FF58 		e_bne %cr0,.L50
 591              		.loc 1 275 0
 592 00fe C17E     		se_lwz %r7,4(%r30)
 593 0100 64B7     		se_bseti %r7,11
 594 0102 D17E     		se_stw %r7,4(%r30)
 595 0104 79FFFF4E 		e_b .L50
 596              		.cfi_endproc
 597              	.LFE4:
 598              		.size	can_lld_writeTxBuffer, .-can_lld_writeTxBuffer
 599              		.section	.text.vector694,"axv",@progbits
 600              		.align 1
 601              		.p2align 4,,15
 602              		.globl vector694
 603              		.type	vector694, @function
 604              	vector694:
 605              	.LFB9:
 606              		.loc 1 906 0
 607              		.cfi_startproc
 608              	.LVL89:
 609 0000 182106A0 		e_stwu %r1,-96(%r1)
 610              	.LCFI6:
 611              		.cfi_def_cfa_offset 96
 612 0004 0080     		se_mflr %r0
 613 0006 1BA10954 		e_stmw %r29,84(%r1)
 614 000a 54010064 		e_stw %r0,100(%r1)
 615              		.cfi_offset 65, 4
 616              		.cfi_offset 29, -12
 617              		.cfi_offset 30, -8
 618              		.cfi_offset 31, -4
 619              	.LBB10:
 620              	.LBB11:
 621              		.loc 1 383 0
 622 000e 73E0E000 		e_lis %r31,.LANCHOR0@ha
 623 0012 62C5     		se_bgeni %r5,12
 624 0014 1C7F0000 		e_la %r3,.LANCHOR0@l(%r31)
 625 0018 C173     		se_lwz %r7,4(%r3)
 626 001a 50C70050 		e_lwz %r6,80(%r7)
 627 001e 7CC42839 		and. %r4,%r6,%r5
GAS LISTING C:\Users\Vipuls\AppData\Local\Temp\ccvj9uHc.s 			page 12


 628 0022 7A1200AE 		e_beq %cr0,.L65
 629              		.loc 1 384 0
 630 0026 50C70058 		e_lwz %r6,88(%r7)
 631 002a 7CC42839 		and. %r4,%r6,%r5
 632 002e 7A0200A2 		e_bne %cr0,.L65
 633              		.loc 1 386 0
 634 0032 50BF0000 		e_lwz %r5,.LANCHOR0@l(%r31)
 635 0036 C565     		se_lwz %r6,20(%r5)
 636 0038 2A06     		se_cmpi %r6,0
 637 003a 7A120090 		e_beq %cr0,.L66
 638              		.loc 1 387 0
 639 003e 33A500AE 		e_lbz %r29,174(%r5)
 640 0042 2A0D     		se_cmpi %r29,0
 641 0044 7A120462 		e_beq %cr0,.L67
 642 0048 480F     		se_li %r31,0
 643 004a 00BD     		se_mtctr %r29
 644 004c 78000016 		e_b .L72
 645              	.LVL90:
 646              	.L99:
 647              		.loc 1 389 0
 648 0050 50C70098 		e_lwz %r6,152(%r7)
 649 0054 40F6     		se_srw %r6,%r31
 650 0056 67F6     		se_btsti %r6,31
 651 0058 7A0203F2 		e_bne %cr0,.L97
 652              	.L70:
 653              		.loc 1 387 0
 654 005c 200F     		se_addi %r31,1
 655              	.LVL91:
 656 005e 7A300398 		e_bdz .L98
 657              	.LVL92:
 658              	.L72:
 659              		.loc 1 388 0
 660 0062 23EF     		se_cmpli %r31,31
 661 0064 7A01FFEC 		e_ble %cr0,.L99
 662              		.loc 1 393 0
 663 0068 50C7009C 		e_lwz %r6,156(%r7)
 664 006c 1BDF84E0 		e_addi %r30,%r31,-32
 665 0070 40E6     		se_srw %r6,%r30
 666 0072 67F6     		se_btsti %r6,31
 667 0074 7A12FFE8 		e_beq %cr0,.L70
 668              		.loc 1 399 0
 669 0078 73A0E000 		e_lis %r29,.LANCHOR0@ha
 670 007c 708000FC 		e_li %r4,252
 671 0080 1C7D0000 		e_la %r3,.LANCHOR0@l(%r29)
 672 0084 01F5     		se_mr %r5,%r31
 673 0086 18C18008 		e_addi %r6,%r1,8
 674 008a 78000001 		e_bl can_lld_readBuffer
 675              	.LVL93:
 676              		.loc 1 401 0
 677 008e C271     		se_lwz %r7,8(%r1)
 678 0090 01F3     		se_mr %r3,%r31
 679 0092 DC71     		se_stw %r7,48(%r1)
 680 0094 18818030 		e_addi %r4,%r1,48
 681 0098 C371     		se_lwz %r7,12(%r1)
 682 009a DD71     		se_stw %r7,52(%r1)
 683 009c C471     		se_lwz %r7,16(%r1)
 684 009e DE71     		se_stw %r7,56(%r1)
GAS LISTING C:\Users\Vipuls\AppData\Local\Temp\ccvj9uHc.s 			page 13


 685 00a0 C571     		se_lwz %r7,20(%r1)
 686 00a2 DF71     		se_stw %r7,60(%r1)
 687 00a4 C671     		se_lwz %r7,24(%r1)
 688 00a6 54E10040 		e_stw %r7,64(%r1)
 689 00aa C771     		se_lwz %r7,28(%r1)
 690 00ac 54E10044 		e_stw %r7,68(%r1)
 691 00b0 50FD0000 		e_lwz %r7,.LANCHOR0@l(%r29)
 692 00b4 C577     		se_lwz %r7,20(%r7)
 693 00b6 00B7     		se_mtctr %r7
 694 00b8 0007     		se_bctrl
 695              	.LVL94:
 696              	.L94:
 697              		.loc 1 406 0
 698 00ba 70E0E000 		e_lis %r7,.LANCHOR0+4@ha
 699 00be 4816     		se_li %r6,1
 700 00c0 50E70000 		e_lwz %r7,.LANCHOR0+4@l(%r7)
 701 00c4 42E6     		se_slw %r6, %r30
 702 00c6 54C7009C 		e_stw %r6,156(%r7)
 703              	.LVL95:
 704              	.L66:
 705              		.loc 1 410 0
 706 00ca 62C6     		se_bgeni %r6,12
 707 00cc 54C70050 		e_stw %r6,80(%r7)
 708              	.L65:
 709              		.loc 1 415 0
 710 00d0 50C70050 		e_lwz %r6,80(%r7)
 711 00d4 67C6     		se_btsti %r6,28
 712 00d6 7A12001A 		e_beq %cr0,.L74
 713              		.loc 1 416 0
 714 00da 70C0E000 		e_lis %r6,.LANCHOR0@ha
 715 00de 50A60000 		e_lwz %r5,.LANCHOR0@l(%r6)
 716 00e2 1FE60000 		e_la %r31,.LANCHOR0@l(%r6)
 717              		.loc 1 415 0
 718 00e6 30C50030 		e_lbz %r6,48(%r5)
 719 00ea 2A16     		se_cmpi %r6,1
 720 00ec 7A120254 		e_beq %cr0,.L100
 721              	.L74:
 722              		.loc 1 429 0
 723 00f0 50C70050 		e_lwz %r6,80(%r7)
 724 00f4 67D6     		se_btsti %r6,29
 725 00f6 7A12001A 		e_beq %cr0,.L76
 726              		.loc 1 430 0
 727 00fa 70C0E000 		e_lis %r6,.LANCHOR0@ha
 728 00fe 50A60000 		e_lwz %r5,.LANCHOR0@l(%r6)
 729 0102 1FE60000 		e_la %r31,.LANCHOR0@l(%r6)
 730              		.loc 1 429 0
 731 0106 30C50028 		e_lbz %r6,40(%r5)
 732 010a 2A16     		se_cmpi %r6,1
 733 010c 7A1202C8 		e_beq %cr0,.L101
 734              	.L76:
 735              		.loc 1 443 0
 736 0110 50C70050 		e_lwz %r6,80(%r7)
 737 0114 67E6     		se_btsti %r6,30
 738 0116 7A12001A 		e_beq %cr0,.L78
 739              		.loc 1 444 0
 740 011a 70C0E000 		e_lis %r6,.LANCHOR0@ha
 741 011e 50A60000 		e_lwz %r5,.LANCHOR0@l(%r6)
GAS LISTING C:\Users\Vipuls\AppData\Local\Temp\ccvj9uHc.s 			page 14


 742 0122 1FE60000 		e_la %r31,.LANCHOR0@l(%r6)
 743              		.loc 1 443 0
 744 0126 30C50020 		e_lbz %r6,32(%r5)
 745 012a 2A06     		se_cmpi %r6,0
 746 012c 7A020126 		e_bne %cr0,.L102
 747              	.L78:
 748              		.loc 1 457 0
 749 0130 50C70050 		e_lwz %r6,80(%r7)
 750 0134 67F6     		se_btsti %r6,31
 751 0136 7A12001A 		e_beq %cr0,.L80
 752              		.loc 1 458 0
 753 013a 73E0E000 		e_lis %r31,.LANCHOR0@ha
 754 013e 50BF0000 		e_lwz %r5,.LANCHOR0@l(%r31)
 755 0142 1FDF0000 		e_la %r30,.LANCHOR0@l(%r31)
 756              		.loc 1 457 0
 757 0146 30C50019 		e_lbz %r6,25(%r5)
 758 014a 2A16     		se_cmpi %r6,1
 759 014c 7A120182 		e_beq %cr0,.L103
 760              	.L80:
 761              		.loc 1 476 0
 762 0150 50C70050 		e_lwz %r6,80(%r7)
 763 0154 6385     		se_bgeni %r5,24
 764 0156 7CC32839 		and. %r3,%r6,%r5
 765 015a 7A12001A 		e_beq %cr0,.L82
 766              		.loc 1 477 0
 767 015e 70C0E000 		e_lis %r6,.LANCHOR0@ha
 768 0162 50860000 		e_lwz %r4,.LANCHOR0@l(%r6)
 769 0166 1FE60000 		e_la %r31,.LANCHOR0@l(%r6)
 770              		.loc 1 476 0
 771 016a 30C40050 		e_lbz %r6,80(%r4)
 772 016e 2A16     		se_cmpi %r6,1
 773 0170 7A120112 		e_beq %cr0,.L104
 774              	.L82:
 775              		.loc 1 490 0
 776 0174 50C70050 		e_lwz %r6,80(%r7)
 777 0178 4C05     		se_li %r5,64
 778 017a 7CC32839 		and. %r3,%r6,%r5
 779 017e 7A12001A 		e_beq %cr0,.L84
 780              		.loc 1 491 0
 781 0182 70C0E000 		e_lis %r6,.LANCHOR0@ha
 782 0186 50860000 		e_lwz %r4,.LANCHOR0@l(%r6)
 783 018a 1FE60000 		e_la %r31,.LANCHOR0@l(%r6)
 784              		.loc 1 490 0
 785 018e 30C40048 		e_lbz %r6,72(%r4)
 786 0192 2A16     		se_cmpi %r6,1
 787 0194 7A120114 		e_beq %cr0,.L105
 788              	.L84:
 789              		.loc 1 504 0
 790 0198 50C70050 		e_lwz %r6,80(%r7)
 791 019c 4A05     		se_li %r5,32
 792 019e 7CC32839 		and. %r3,%r6,%r5
 793 01a2 7A12001A 		e_beq %cr0,.L86
 794              		.loc 1 505 0
 795 01a6 70C0E000 		e_lis %r6,.LANCHOR0@ha
 796 01aa 50860000 		e_lwz %r4,.LANCHOR0@l(%r6)
 797 01ae 1FE60000 		e_la %r31,.LANCHOR0@l(%r6)
 798              		.loc 1 504 0
GAS LISTING C:\Users\Vipuls\AppData\Local\Temp\ccvj9uHc.s 			page 15


 799 01b2 30C40040 		e_lbz %r6,64(%r4)
 800 01b6 2A06     		se_cmpi %r6,0
 801 01b8 7A020074 		e_bne %cr0,.L106
 802              	.L86:
 803              		.loc 1 518 0
 804 01bc 50C70050 		e_lwz %r6,80(%r7)
 805 01c0 67B6     		se_btsti %r6,27
 806 01c2 7A12001A 		e_beq %cr0,.L88
 807              		.loc 1 519 0
 808 01c6 73E0E000 		e_lis %r31,.LANCHOR0@ha
 809 01ca 50BF0000 		e_lwz %r5,.LANCHOR0@l(%r31)
 810 01ce 1FDF0000 		e_la %r30,.LANCHOR0@l(%r31)
 811              		.loc 1 518 0
 812 01d2 30C50039 		e_lbz %r6,57(%r5)
 813 01d6 2A16     		se_cmpi %r6,1
 814 01d8 7A12018A 		e_beq %cr0,.L107
 815              	.L88:
 816              		.loc 1 537 0
 817 01dc 50C70050 		e_lwz %r6,80(%r7)
 818 01e0 70C7EFF6 		e_and2is. %r6,0x3ff6
 819 01e4 7A120038 		e_beq %cr0,.L64
 820              	.LBB12:
 821              		.loc 1 539 0
 822 01e8 7060E000 		e_lis %r3,.LANCHOR0@ha
 823              		.loc 1 538 0
 824 01ec 50870044 		e_lwz %r4,68(%r7)
 825              	.LVL96:
 826              		.loc 1 539 0
 827 01f0 50C30000 		e_lwz %r6,.LANCHOR0@l(%r3)
 828 01f4 1FE30000 		e_la %r31,.LANCHOR0@l(%r3)
 829 01f8 50C600B4 		e_lwz %r6,180(%r6)
 830 01fc 2A06     		se_cmpi %r6,0
 831 01fe 7A12000C 		e_beq %cr0,.L91
 832              		.loc 1 540 0
 833 0202 01F3     		se_mr %r3,%r31
 834 0204 00B6     		se_mtctr %r6
 835 0206 0007     		se_bctrl
 836              	.LVL97:
 837 0208 C17F     		se_lwz %r7,4(%r31)
 838              	.L91:
 839              		.loc 1 543 0
 840 020a 50C70050 		e_lwz %r6,80(%r7)
 841 020e 6666     		se_btsti %r6,6
 842 0210 7A020064 		e_bne %cr0,.L108
 843              	.L92:
 844              		.loc 1 548 0
 845 0214 70C7E7F6 		e_lis %r6,0x3ff6
 846 0218 54C70050 		e_stw %r6,80(%r7)
 847              	.L64:
 848              	.LBE12:
 849              	.LBE11:
 850              	.LBE10:
 851              		.loc 1 913 0
 852 021c 50010064 		e_lwz %r0,100(%r1)
 853 0220 0090     		se_mtlr %r0
 854              		.cfi_remember_state
 855              		.cfi_restore 65
GAS LISTING C:\Users\Vipuls\AppData\Local\Temp\ccvj9uHc.s 			page 16


 856 0222 1BA10854 		e_lmw %r29,84(%r1)
 857 0226 18218060 		e_addi %r1,%r1,96
 858              	.LCFI7:
 859              		.cfi_restore 31
 860              		.cfi_restore 30
 861              		.cfi_restore 29
 862              		.cfi_def_cfa_offset 0
 863 022a 0004     		se_blr
 864              	.L106:
 865              	.LCFI8:
 866              		.cfi_restore_state
 867              	.LBB15:
 868              	.LBB14:
 869              		.loc 1 506 0
 870 022c 50C70058 		e_lwz %r6,88(%r7)
 871 0230 7CC32839 		and. %r3,%r6,%r5
 872 0234 7A02FF88 		e_bne %cr0,.L86
 873              		.loc 1 508 0
 874 0238 50C40044 		e_lwz %r6,68(%r4)
 875 023c 2A06     		se_cmpi %r6,0
 876 023e 7A12000A 		e_beq %cr0,.L87
 877              		.loc 1 510 0
 878 0242 00B6     		se_mtctr %r6
 879 0244 0007     		se_bctrl
 880              	.LVL98:
 881 0246 C17F     		se_lwz %r7,4(%r31)
 882              	.L87:
 883              		.loc 1 513 0
 884 0248 4A06     		se_li %r6,32
 885 024a 54C70050 		e_stw %r6,80(%r7)
 886 024e 79FFFF6E 		e_b .L86
 887              	.L102:
 888              		.loc 1 445 0
 889 0252 50C70058 		e_lwz %r6,88(%r7)
 890 0256 67E6     		se_btsti %r6,30
 891 0258 7A02FED8 		e_bne %cr0,.L78
 892              		.loc 1 447 0
 893 025c C965     		se_lwz %r6,36(%r5)
 894 025e 2A06     		se_cmpi %r6,0
 895 0260 7A12000A 		e_beq %cr0,.L79
 896              		.loc 1 449 0
 897 0264 00B6     		se_mtctr %r6
 898 0266 0007     		se_bctrl
 899              	.LVL99:
 900 0268 C17F     		se_lwz %r7,4(%r31)
 901              	.L79:
 902              		.loc 1 452 0
 903 026a 4826     		se_li %r6,2
 904 026c 54C70050 		e_stw %r6,80(%r7)
 905 0270 79FFFEC0 		e_b .L78
 906              	.L108:
 907              	.LBB13:
 908              		.loc 1 545 0
 909 0274 C667     		se_lwz %r6,24(%r7)
 910 0276 4805     		se_li %r5,0
 911 0278 74A607FE 		e_rlwimi %r6,%r5,0,31,31
 912 027c D667     		se_stw %r6,24(%r7)
GAS LISTING C:\Users\Vipuls\AppData\Local\Temp\ccvj9uHc.s 			page 17


 913 027e 79FFFF96 		e_b .L92
 914              	.L104:
 915              	.LBE13:
 916              		.loc 1 478 0
 917 0282 50C70058 		e_lwz %r6,88(%r7)
 918 0286 7CC32839 		and. %r3,%r6,%r5
 919 028a 7A02FEEA 		e_bne %cr0,.L82
 920              		.loc 1 480 0
 921 028e 50C40054 		e_lwz %r6,84(%r4)
 922 0292 2A06     		se_cmpi %r6,0
 923 0294 7A12000A 		e_beq %cr0,.L83
 924              		.loc 1 482 0
 925 0298 00B6     		se_mtctr %r6
 926 029a 0007     		se_bctrl
 927              	.LVL100:
 928 029c C17F     		se_lwz %r7,4(%r31)
 929              	.L83:
 930              		.loc 1 485 0
 931 029e 6386     		se_bgeni %r6,24
 932 02a0 54C70050 		e_stw %r6,80(%r7)
 933 02a4 79FFFED0 		e_b .L82
 934              	.L105:
 935              		.loc 1 492 0
 936 02a8 50C70058 		e_lwz %r6,88(%r7)
 937 02ac 7CC32839 		and. %r3,%r6,%r5
 938 02b0 7A02FEE8 		e_bne %cr0,.L84
 939              		.loc 1 494 0
 940 02b4 50C4004C 		e_lwz %r6,76(%r4)
 941 02b8 2A06     		se_cmpi %r6,0
 942 02ba 7A12000A 		e_beq %cr0,.L85
 943              		.loc 1 496 0
 944 02be 00B6     		se_mtctr %r6
 945 02c0 0007     		se_bctrl
 946              	.LVL101:
 947 02c2 C17F     		se_lwz %r7,4(%r31)
 948              	.L85:
 949              		.loc 1 499 0
 950 02c4 4C06     		se_li %r6,64
 951 02c6 54C70050 		e_stw %r6,80(%r7)
 952 02ca 79FFFECE 		e_b .L84
 953              	.L103:
 954              		.loc 1 459 0
 955 02ce 50C70058 		e_lwz %r6,88(%r7)
 956 02d2 67F6     		se_btsti %r6,31
 957 02d4 7A02FE7C 		e_bne %cr0,.L80
 958              		.loc 1 461 0
 959 02d8 C765     		se_lwz %r6,28(%r5)
 960 02da 2A06     		se_cmpi %r6,0
 961 02dc 7A12005A 		e_beq %cr0,.L81
 962              		.loc 1 462 0
 963 02e0 53A700A4 		e_lwz %r29,164(%r7)
 964              		.loc 1 464 0
 965 02e4 18C18008 		e_addi %r6,%r1,8
 966 02e8 01E3     		se_mr %r3,%r30
 967              		.loc 1 462 0
 968 02ea 77BDC6BF 		e_rlwinm %r29,%r29,24,26,31
 969              	.LVL102:
GAS LISTING C:\Users\Vipuls\AppData\Local\Temp\ccvj9uHc.s 			page 18


 970              		.loc 1 464 0
 971 02ee 708000FD 		e_li %r4,253
 972 02f2 01D5     		se_mr %r5,%r29
 973 02f4 78000001 		e_bl can_lld_readBuffer
 974              	.LVL103:
 975              		.loc 1 466 0
 976 02f8 C271     		se_lwz %r7,8(%r1)
 977 02fa 01D3     		se_mr %r3,%r29
 978 02fc DC71     		se_stw %r7,48(%r1)
 979 02fe 18818030 		e_addi %r4,%r1,48
 980 0302 C371     		se_lwz %r7,12(%r1)
 981 0304 DD71     		se_stw %r7,52(%r1)
 982 0306 C471     		se_lwz %r7,16(%r1)
 983 0308 DE71     		se_stw %r7,56(%r1)
 984 030a C571     		se_lwz %r7,20(%r1)
 985 030c DF71     		se_stw %r7,60(%r1)
 986 030e C671     		se_lwz %r7,24(%r1)
 987 0310 54E10040 		e_stw %r7,64(%r1)
 988 0314 C771     		se_lwz %r7,28(%r1)
 989 0316 54E10044 		e_stw %r7,68(%r1)
 990 031a 50FF0000 		e_lwz %r7,.LANCHOR0@l(%r31)
 991 031e C777     		se_lwz %r7,28(%r7)
 992 0320 00B7     		se_mtctr %r7
 993 0322 0007     		se_bctrl
 994              	.LVL104:
 995              		.loc 1 468 0
 996 0324 C17E     		se_lwz %r7,4(%r30)
 997 0326 50A700A4 		e_lwz %r5,164(%r7)
 998 032a 50C700A8 		e_lwz %r6,168(%r7)
 999 032e 74A6C6BE 		e_rlwimi %r6,%r5,24,26,31
 1000 0332 54C700A8 		e_stw %r6,168(%r7)
 1001              	.LVL105:
 1002              	.L81:
 1003              		.loc 1 471 0
 1004 0336 4816     		se_li %r6,1
 1005 0338 54C70050 		e_stw %r6,80(%r7)
 1006 033c 79FFFE14 		e_b .L80
 1007              	.L100:
 1008              		.loc 1 417 0
 1009 0340 50C70058 		e_lwz %r6,88(%r7)
 1010 0344 67C6     		se_btsti %r6,28
 1011 0346 7A02FDAA 		e_bne %cr0,.L74
 1012              		.loc 1 419 0
 1013 034a CD65     		se_lwz %r6,52(%r5)
 1014 034c 2A06     		se_cmpi %r6,0
 1015 034e 7A12000A 		e_beq %cr0,.L75
 1016              		.loc 1 421 0
 1017 0352 00B6     		se_mtctr %r6
 1018 0354 0007     		se_bctrl
 1019              	.LVL106:
 1020 0356 C17F     		se_lwz %r7,4(%r31)
 1021              	.L75:
 1022              		.loc 1 424 0
 1023 0358 4886     		se_li %r6,8
 1024 035a 54C70050 		e_stw %r6,80(%r7)
 1025 035e 79FFFD92 		e_b .L74
 1026              	.L107:
GAS LISTING C:\Users\Vipuls\AppData\Local\Temp\ccvj9uHc.s 			page 19


 1027              		.loc 1 520 0
 1028 0362 50C70058 		e_lwz %r6,88(%r7)
 1029 0366 67B6     		se_btsti %r6,27
 1030 0368 7A02FE74 		e_bne %cr0,.L88
 1031              		.loc 1 522 0
 1032 036c CF65     		se_lwz %r6,60(%r5)
 1033 036e 2A06     		se_cmpi %r6,0
 1034 0370 7A12005A 		e_beq %cr0,.L89
 1035              		.loc 1 523 0
 1036 0374 53A700B4 		e_lwz %r29,180(%r7)
 1037              		.loc 1 525 0
 1038 0378 18C18008 		e_addi %r6,%r1,8
 1039 037c 01E3     		se_mr %r3,%r30
 1040              		.loc 1 523 0
 1041 037e 77BDC6BF 		e_rlwinm %r29,%r29,24,26,31
 1042              	.LVL107:
 1043              		.loc 1 525 0
 1044 0382 708000FE 		e_li %r4,254
 1045 0386 01D5     		se_mr %r5,%r29
 1046 0388 78000001 		e_bl can_lld_readBuffer
 1047              	.LVL108:
 1048              		.loc 1 527 0
 1049 038c C271     		se_lwz %r7,8(%r1)
 1050 038e 01D3     		se_mr %r3,%r29
 1051 0390 DC71     		se_stw %r7,48(%r1)
 1052 0392 18818030 		e_addi %r4,%r1,48
 1053 0396 C371     		se_lwz %r7,12(%r1)
 1054 0398 DD71     		se_stw %r7,52(%r1)
 1055 039a C471     		se_lwz %r7,16(%r1)
 1056 039c DE71     		se_stw %r7,56(%r1)
 1057 039e C571     		se_lwz %r7,20(%r1)
 1058 03a0 DF71     		se_stw %r7,60(%r1)
 1059 03a2 C671     		se_lwz %r7,24(%r1)
 1060 03a4 54E10040 		e_stw %r7,64(%r1)
 1061 03a8 C771     		se_lwz %r7,28(%r1)
 1062 03aa 54E10044 		e_stw %r7,68(%r1)
 1063 03ae 50FF0000 		e_lwz %r7,.LANCHOR0@l(%r31)
 1064 03b2 CF77     		se_lwz %r7,60(%r7)
 1065 03b4 00B7     		se_mtctr %r7
 1066 03b6 0007     		se_bctrl
 1067              	.LVL109:
 1068              		.loc 1 529 0
 1069 03b8 C17E     		se_lwz %r7,4(%r30)
 1070 03ba 50A700B4 		e_lwz %r5,180(%r7)
 1071 03be 50C700B8 		e_lwz %r6,184(%r7)
 1072 03c2 74A6C6BE 		e_rlwimi %r6,%r5,24,26,31
 1073 03c6 54C700B8 		e_stw %r6,184(%r7)
 1074              	.LVL110:
 1075              	.L89:
 1076              		.loc 1 532 0
 1077 03ca 4906     		se_li %r6,16
 1078 03cc 54C70050 		e_stw %r6,80(%r7)
 1079 03d0 79FFFE0C 		e_b .L88
 1080              	.L101:
 1081              		.loc 1 431 0
 1082 03d4 50C70058 		e_lwz %r6,88(%r7)
 1083 03d8 67D6     		se_btsti %r6,29
GAS LISTING C:\Users\Vipuls\AppData\Local\Temp\ccvj9uHc.s 			page 20


 1084 03da 7A02FD36 		e_bne %cr0,.L76
 1085              		.loc 1 433 0
 1086 03de CB65     		se_lwz %r6,44(%r5)
 1087 03e0 2A06     		se_cmpi %r6,0
 1088 03e2 7A12000A 		e_beq %cr0,.L77
 1089              		.loc 1 435 0
 1090 03e6 00B6     		se_mtctr %r6
 1091 03e8 0007     		se_bctrl
 1092              	.LVL111:
 1093 03ea C17F     		se_lwz %r7,4(%r31)
 1094              	.L77:
 1095              		.loc 1 438 0
 1096 03ec 4846     		se_li %r6,4
 1097 03ee 54C70050 		e_stw %r6,80(%r7)
 1098 03f2 79FFFD1E 		e_b .L76
 1099              	.LVL112:
 1100              	.L98:
 1101              		.loc 1 399 0
 1102 03f6 73C0E000 		e_lis %r30,.LANCHOR0@ha
 1103 03fa 708000FC 		e_li %r4,252
 1104 03fe 1C7E0000 		e_la %r3,.LANCHOR0@l(%r30)
 1105 0402 01F5     		se_mr %r5,%r31
 1106 0404 18C18008 		e_addi %r6,%r1,8
 1107 0408 78000001 		e_bl can_lld_readBuffer
 1108              	.LVL113:
 1109              		.loc 1 401 0
 1110 040c C271     		se_lwz %r7,8(%r1)
 1111 040e 01F3     		se_mr %r3,%r31
 1112 0410 DC71     		se_stw %r7,48(%r1)
 1113 0412 18818030 		e_addi %r4,%r1,48
 1114 0416 C371     		se_lwz %r7,12(%r1)
 1115 0418 DD71     		se_stw %r7,52(%r1)
 1116 041a C471     		se_lwz %r7,16(%r1)
 1117 041c DE71     		se_stw %r7,56(%r1)
 1118 041e C571     		se_lwz %r7,20(%r1)
 1119 0420 DF71     		se_stw %r7,60(%r1)
 1120 0422 C671     		se_lwz %r7,24(%r1)
 1121 0424 54E10040 		e_stw %r7,64(%r1)
 1122 0428 C771     		se_lwz %r7,28(%r1)
 1123 042a 54E10044 		e_stw %r7,68(%r1)
 1124 042e 50FE0000 		e_lwz %r7,.LANCHOR0@l(%r30)
 1125 0432 C577     		se_lwz %r7,20(%r7)
 1126 0434 00B7     		se_mtctr %r7
 1127 0436 1BDF84E0 		e_addi %r30,%r31,-32
 1128 043a 0007     		se_bctrl
 1129              	.LVL114:
 1130              		.loc 1 403 0
 1131 043c 23EF     		se_cmpli %r31,31
 1132 043e 7A11FC7C 		e_bgt %cr0,.L94
 1133 0442 4816     		se_li %r6,1
 1134 0444 42D6     		se_slw %r6, %r29
 1135 0446 7800004A 		e_b .L93
 1136              	.L97:
 1137              		.loc 1 399 0
 1138 044a 18C18008 		e_addi %r6,%r1,8
 1139 044e 73C0E000 		e_lis %r30,.LANCHOR0@ha
 1140 0452 708000FC 		e_li %r4,252
GAS LISTING C:\Users\Vipuls\AppData\Local\Temp\ccvj9uHc.s 			page 21


 1141 0456 1C7E0000 		e_la %r3,.LANCHOR0@l(%r30)
 1142 045a 01F5     		se_mr %r5,%r31
 1143 045c 78000001 		e_bl can_lld_readBuffer
 1144              	.LVL115:
 1145              		.loc 1 401 0
 1146 0460 C271     		se_lwz %r7,8(%r1)
 1147 0462 01F3     		se_mr %r3,%r31
 1148 0464 DC71     		se_stw %r7,48(%r1)
 1149 0466 18818030 		e_addi %r4,%r1,48
 1150 046a C371     		se_lwz %r7,12(%r1)
 1151 046c DD71     		se_stw %r7,52(%r1)
 1152 046e C471     		se_lwz %r7,16(%r1)
 1153 0470 DE71     		se_stw %r7,56(%r1)
 1154 0472 C571     		se_lwz %r7,20(%r1)
 1155 0474 DF71     		se_stw %r7,60(%r1)
 1156 0476 C671     		se_lwz %r7,24(%r1)
 1157 0478 54E10040 		e_stw %r7,64(%r1)
 1158 047c C771     		se_lwz %r7,28(%r1)
 1159 047e 54E10044 		e_stw %r7,68(%r1)
 1160 0482 50FE0000 		e_lwz %r7,.LANCHOR0@l(%r30)
 1161 0486 C577     		se_lwz %r7,20(%r7)
 1162 0488 00B7     		se_mtctr %r7
 1163 048a 0007     		se_bctrl
 1164              	.LVL116:
 1165 048c 4816     		se_li %r6,1
 1166 048e 42F6     		se_slw %r6, %r31
 1167              	.LVL117:
 1168              	.L93:
 1169              		.loc 1 404 0
 1170 0490 70E0E000 		e_lis %r7,.LANCHOR0+4@ha
 1171 0494 50E70000 		e_lwz %r7,.LANCHOR0+4@l(%r7)
 1172 0498 54C70098 		e_stw %r6,152(%r7)
 1173              		.loc 1 410 0
 1174 049c 62C6     		se_bgeni %r6,12
 1175 049e 54C70050 		e_stw %r6,80(%r7)
 1176 04a2 79FFFC2E 		e_b .L65
 1177              	.LVL118:
 1178              	.L67:
 1179              		.loc 1 399 0
 1180 04a6 18C18008 		e_addi %r6,%r1,8
 1181 04aa 708000FC 		e_li %r4,252
 1182 04ae 4805     		se_li %r5,0
 1183 04b0 78000001 		e_bl can_lld_readBuffer
 1184              	.LVL119:
 1185              		.loc 1 401 0
 1186 04b4 C271     		se_lwz %r7,8(%r1)
 1187 04b6 4803     		se_li %r3,0
 1188 04b8 DC71     		se_stw %r7,48(%r1)
 1189 04ba 18818030 		e_addi %r4,%r1,48
 1190 04be C371     		se_lwz %r7,12(%r1)
 1191 04c0 DD71     		se_stw %r7,52(%r1)
 1192 04c2 C471     		se_lwz %r7,16(%r1)
 1193 04c4 DE71     		se_stw %r7,56(%r1)
 1194 04c6 C571     		se_lwz %r7,20(%r1)
 1195 04c8 DF71     		se_stw %r7,60(%r1)
 1196 04ca C671     		se_lwz %r7,24(%r1)
 1197 04cc 54E10040 		e_stw %r7,64(%r1)
GAS LISTING C:\Users\Vipuls\AppData\Local\Temp\ccvj9uHc.s 			page 22


 1198 04d0 C771     		se_lwz %r7,28(%r1)
 1199 04d2 54E10044 		e_stw %r7,68(%r1)
 1200 04d6 50FF0000 		e_lwz %r7,.LANCHOR0@l(%r31)
 1201 04da C577     		se_lwz %r7,20(%r7)
 1202 04dc 00B7     		se_mtctr %r7
 1203 04de 0007     		se_bctrl
 1204              	.LVL120:
 1205 04e0 4816     		se_li %r6,1
 1206 04e2 79FFFFAE 		e_b .L93
 1207              	.LBE14:
 1208              	.LBE15:
 1209              		.cfi_endproc
 1210              	.LFE9:
 1211              		.size	vector694, .-vector694
 1212              		.section	.text.vector695,"axv",@progbits
 1213              		.align 1
 1214              		.p2align 4,,15
 1215              		.globl vector695
 1216              		.type	vector695, @function
 1217              	vector695:
 1218              	.LFB10:
 1219              		.loc 1 920 0
 1220              		.cfi_startproc
 1221              	.LVL121:
 1222 0000 182106A0 		e_stwu %r1,-96(%r1)
 1223              	.LCFI9:
 1224              		.cfi_def_cfa_offset 96
 1225 0004 0080     		se_mflr %r0
 1226 0006 1BA10954 		e_stmw %r29,84(%r1)
 1227 000a 54010064 		e_stw %r0,100(%r1)
 1228              		.cfi_offset 65, 4
 1229              		.cfi_offset 29, -12
 1230              		.cfi_offset 30, -8
 1231              		.cfi_offset 31, -4
 1232              	.LBB18:
 1233              	.LBB19:
 1234              		.loc 1 566 0
 1235 000e 73E0E000 		e_lis %r31,.LANCHOR0@ha
 1236 0012 62C5     		se_bgeni %r5,12
 1237 0014 1C7F0000 		e_la %r3,.LANCHOR0@l(%r31)
 1238 0018 C173     		se_lwz %r7,4(%r3)
 1239 001a 50C70050 		e_lwz %r6,80(%r7)
 1240 001e 7CC42839 		and. %r4,%r6,%r5
 1241 0022 7A1200AE 		e_beq %cr0,.L110
 1242              		.loc 1 567 0
 1243 0026 50C70058 		e_lwz %r6,88(%r7)
 1244 002a 7CC42839 		and. %r4,%r6,%r5
 1245 002e 7A1200A2 		e_beq %cr0,.L110
 1246              		.loc 1 569 0
 1247 0032 50BF0000 		e_lwz %r5,.LANCHOR0@l(%r31)
 1248 0036 C565     		se_lwz %r6,20(%r5)
 1249 0038 2A06     		se_cmpi %r6,0
 1250 003a 7A120090 		e_beq %cr0,.L111
 1251              		.loc 1 570 0
 1252 003e 33A500AE 		e_lbz %r29,174(%r5)
 1253 0042 2A0D     		se_cmpi %r29,0
 1254 0044 7A120420 		e_beq %cr0,.L112
GAS LISTING C:\Users\Vipuls\AppData\Local\Temp\ccvj9uHc.s 			page 23


 1255 0048 480F     		se_li %r31,0
 1256 004a 00BD     		se_mtctr %r29
 1257 004c 78000016 		e_b .L117
 1258              	.LVL122:
 1259              	.L141:
 1260              		.loc 1 572 0
 1261 0050 50C70098 		e_lwz %r6,152(%r7)
 1262 0054 40F6     		se_srw %r6,%r31
 1263 0056 67F6     		se_btsti %r6,31
 1264 0058 7A0203B0 		e_bne %cr0,.L139
 1265              	.L115:
 1266              		.loc 1 570 0
 1267 005c 200F     		se_addi %r31,1
 1268              	.LVL123:
 1269 005e 7A300356 		e_bdz .L140
 1270              	.LVL124:
 1271              	.L117:
 1272              		.loc 1 571 0
 1273 0062 23EF     		se_cmpli %r31,31
 1274 0064 7A01FFEC 		e_ble %cr0,.L141
 1275              		.loc 1 576 0
 1276 0068 50C7009C 		e_lwz %r6,156(%r7)
 1277 006c 1BDF84E0 		e_addi %r30,%r31,-32
 1278 0070 40E6     		se_srw %r6,%r30
 1279 0072 67F6     		se_btsti %r6,31
 1280 0074 7A12FFE8 		e_beq %cr0,.L115
 1281              		.loc 1 582 0
 1282 0078 73A0E000 		e_lis %r29,.LANCHOR0@ha
 1283 007c 708000FC 		e_li %r4,252
 1284 0080 1C7D0000 		e_la %r3,.LANCHOR0@l(%r29)
 1285 0084 01F5     		se_mr %r5,%r31
 1286 0086 18C18008 		e_addi %r6,%r1,8
 1287 008a 78000001 		e_bl can_lld_readBuffer
 1288              	.LVL125:
 1289              		.loc 1 584 0
 1290 008e C271     		se_lwz %r7,8(%r1)
 1291 0090 01F3     		se_mr %r3,%r31
 1292 0092 DC71     		se_stw %r7,48(%r1)
 1293 0094 18818030 		e_addi %r4,%r1,48
 1294 0098 C371     		se_lwz %r7,12(%r1)
 1295 009a DD71     		se_stw %r7,52(%r1)
 1296 009c C471     		se_lwz %r7,16(%r1)
 1297 009e DE71     		se_stw %r7,56(%r1)
 1298 00a0 C571     		se_lwz %r7,20(%r1)
 1299 00a2 DF71     		se_stw %r7,60(%r1)
 1300 00a4 C671     		se_lwz %r7,24(%r1)
 1301 00a6 54E10040 		e_stw %r7,64(%r1)
 1302 00aa C771     		se_lwz %r7,28(%r1)
 1303 00ac 54E10044 		e_stw %r7,68(%r1)
 1304 00b0 50FD0000 		e_lwz %r7,.LANCHOR0@l(%r29)
 1305 00b4 C577     		se_lwz %r7,20(%r7)
 1306 00b6 00B7     		se_mtctr %r7
 1307 00b8 0007     		se_bctrl
 1308              	.LVL126:
 1309              	.L136:
 1310              		.loc 1 589 0
 1311 00ba 70E0E000 		e_lis %r7,.LANCHOR0+4@ha
GAS LISTING C:\Users\Vipuls\AppData\Local\Temp\ccvj9uHc.s 			page 24


 1312 00be 4816     		se_li %r6,1
 1313 00c0 50E70000 		e_lwz %r7,.LANCHOR0+4@l(%r7)
 1314 00c4 42E6     		se_slw %r6, %r30
 1315 00c6 54C7009C 		e_stw %r6,156(%r7)
 1316              	.LVL127:
 1317              	.L111:
 1318              		.loc 1 593 0
 1319 00ca 62C6     		se_bgeni %r6,12
 1320 00cc 54C70050 		e_stw %r6,80(%r7)
 1321              	.L110:
 1322              		.loc 1 598 0
 1323 00d0 50C70050 		e_lwz %r6,80(%r7)
 1324 00d4 67C6     		se_btsti %r6,28
 1325 00d6 7A12001A 		e_beq %cr0,.L119
 1326              		.loc 1 599 0
 1327 00da 70C0E000 		e_lis %r6,.LANCHOR0@ha
 1328 00de 50A60000 		e_lwz %r5,.LANCHOR0@l(%r6)
 1329 00e2 1FE60000 		e_la %r31,.LANCHOR0@l(%r6)
 1330              		.loc 1 598 0
 1331 00e6 30C50030 		e_lbz %r6,48(%r5)
 1332 00ea 2A16     		se_cmpi %r6,1
 1333 00ec 7A1201C6 		e_beq %cr0,.L142
 1334              	.L119:
 1335              		.loc 1 612 0
 1336 00f0 50C70050 		e_lwz %r6,80(%r7)
 1337 00f4 67D6     		se_btsti %r6,29
 1338 00f6 7A12001A 		e_beq %cr0,.L121
 1339              		.loc 1 613 0
 1340 00fa 70C0E000 		e_lis %r6,.LANCHOR0@ha
 1341 00fe 50A60000 		e_lwz %r5,.LANCHOR0@l(%r6)
 1342 0102 1FE60000 		e_la %r31,.LANCHOR0@l(%r6)
 1343              		.loc 1 612 0
 1344 0106 30C50028 		e_lbz %r6,40(%r5)
 1345 010a 2A16     		se_cmpi %r6,1
 1346 010c 7A1201C8 		e_beq %cr0,.L143
 1347              	.L121:
 1348              		.loc 1 626 0
 1349 0110 50C70050 		e_lwz %r6,80(%r7)
 1350 0114 67E6     		se_btsti %r6,30
 1351 0116 7A12001A 		e_beq %cr0,.L123
 1352              		.loc 1 627 0
 1353 011a 70C0E000 		e_lis %r6,.LANCHOR0@ha
 1354 011e 50A60000 		e_lwz %r5,.LANCHOR0@l(%r6)
 1355 0122 1FE60000 		e_la %r31,.LANCHOR0@l(%r6)
 1356              		.loc 1 626 0
 1357 0126 30C50020 		e_lbz %r6,32(%r5)
 1358 012a 2A06     		se_cmpi %r6,0
 1359 012c 7A0200E6 		e_bne %cr0,.L144
 1360              	.L123:
 1361              		.loc 1 640 0
 1362 0130 50C70050 		e_lwz %r6,80(%r7)
 1363 0134 67F6     		se_btsti %r6,31
 1364 0136 7A12001A 		e_beq %cr0,.L125
 1365              		.loc 1 641 0
 1366 013a 73E0E000 		e_lis %r31,.LANCHOR0@ha
 1367 013e 50BF0000 		e_lwz %r5,.LANCHOR0@l(%r31)
 1368 0142 1FDF0000 		e_la %r30,.LANCHOR0@l(%r31)
GAS LISTING C:\Users\Vipuls\AppData\Local\Temp\ccvj9uHc.s 			page 25


 1369              		.loc 1 640 0
 1370 0146 30C50019 		e_lbz %r6,25(%r5)
 1371 014a 2A16     		se_cmpi %r6,1
 1372 014c 7A1201D0 		e_beq %cr0,.L145
 1373              	.L125:
 1374              		.loc 1 659 0
 1375 0150 50C70050 		e_lwz %r6,80(%r7)
 1376 0154 6385     		se_bgeni %r5,24
 1377 0156 7CC32839 		and. %r3,%r6,%r5
 1378 015a 7A12001A 		e_beq %cr0,.L127
 1379              		.loc 1 660 0
 1380 015e 70C0E000 		e_lis %r6,.LANCHOR0@ha
 1381 0162 50860000 		e_lwz %r4,.LANCHOR0@l(%r6)
 1382 0166 1FE60000 		e_la %r31,.LANCHOR0@l(%r6)
 1383              		.loc 1 659 0
 1384 016a 30C40050 		e_lbz %r6,80(%r4)
 1385 016e 2A16     		se_cmpi %r6,1
 1386 0170 7A120186 		e_beq %cr0,.L146
 1387              	.L127:
 1388              		.loc 1 673 0
 1389 0174 50C70050 		e_lwz %r6,80(%r7)
 1390 0178 4C05     		se_li %r5,64
 1391 017a 7CC32839 		and. %r3,%r6,%r5
 1392 017e 7A12001A 		e_beq %cr0,.L129
 1393              		.loc 1 674 0
 1394 0182 70C0E000 		e_lis %r6,.LANCHOR0@ha
 1395 0186 50860000 		e_lwz %r4,.LANCHOR0@l(%r6)
 1396 018a 1FE60000 		e_la %r31,.LANCHOR0@l(%r6)
 1397              		.loc 1 673 0
 1398 018e 30C40048 		e_lbz %r6,72(%r4)
 1399 0192 2A16     		se_cmpi %r6,1
 1400 0194 7A1201FA 		e_beq %cr0,.L147
 1401              	.L129:
 1402              		.loc 1 687 0
 1403 0198 50C70050 		e_lwz %r6,80(%r7)
 1404 019c 4A05     		se_li %r5,32
 1405 019e 7CC32839 		and. %r3,%r6,%r5
 1406 01a2 7A12001A 		e_beq %cr0,.L131
 1407              		.loc 1 688 0
 1408 01a6 70C0E000 		e_lis %r6,.LANCHOR0@ha
 1409 01aa 50860000 		e_lwz %r4,.LANCHOR0@l(%r6)
 1410 01ae 1FE60000 		e_la %r31,.LANCHOR0@l(%r6)
 1411              		.loc 1 687 0
 1412 01b2 30C40040 		e_lbz %r6,64(%r4)
 1413 01b6 2A06     		se_cmpi %r6,0
 1414 01b8 7A020034 		e_bne %cr0,.L148
 1415              	.L131:
 1416              		.loc 1 701 0
 1417 01bc 50C70050 		e_lwz %r6,80(%r7)
 1418 01c0 67B6     		se_btsti %r6,27
 1419 01c2 7A12001A 		e_beq %cr0,.L109
 1420              		.loc 1 702 0
 1421 01c6 73E0E000 		e_lis %r31,.LANCHOR0@ha
 1422 01ca 50BF0000 		e_lwz %r5,.LANCHOR0@l(%r31)
 1423 01ce 1FDF0000 		e_la %r30,.LANCHOR0@l(%r31)
 1424              		.loc 1 701 0
 1425 01d2 30C50039 		e_lbz %r6,57(%r5)
GAS LISTING C:\Users\Vipuls\AppData\Local\Temp\ccvj9uHc.s 			page 26


 1426 01d6 2A16     		se_cmpi %r6,1
 1427 01d8 7A12005C 		e_beq %cr0,.L149
 1428              	.L109:
 1429              	.LBE19:
 1430              	.LBE18:
 1431              		.loc 1 927 0
 1432 01dc 50010064 		e_lwz %r0,100(%r1)
 1433 01e0 0090     		se_mtlr %r0
 1434              		.cfi_remember_state
 1435              		.cfi_restore 65
 1436 01e2 1BA10854 		e_lmw %r29,84(%r1)
 1437 01e6 18218060 		e_addi %r1,%r1,96
 1438              	.LCFI10:
 1439              		.cfi_restore 31
 1440              		.cfi_restore 30
 1441              		.cfi_restore 29
 1442              		.cfi_def_cfa_offset 0
 1443 01ea 0004     		se_blr
 1444              	.L148:
 1445              	.LCFI11:
 1446              		.cfi_restore_state
 1447              	.LBB22:
 1448              	.LBB20:
 1449              		.loc 1 689 0
 1450 01ec 50C70058 		e_lwz %r6,88(%r7)
 1451 01f0 7CC32839 		and. %r3,%r6,%r5
 1452 01f4 7A12FFC8 		e_beq %cr0,.L131
 1453              		.loc 1 691 0
 1454 01f8 50C40044 		e_lwz %r6,68(%r4)
 1455 01fc 2A06     		se_cmpi %r6,0
 1456 01fe 7A12000A 		e_beq %cr0,.L132
 1457              		.loc 1 693 0
 1458 0202 00B6     		se_mtctr %r6
 1459 0204 0007     		se_bctrl
 1460              	.LVL128:
 1461 0206 C17F     		se_lwz %r7,4(%r31)
 1462              	.L132:
 1463              		.loc 1 696 0
 1464 0208 4A06     		se_li %r6,32
 1465 020a 54C70050 		e_stw %r6,80(%r7)
 1466 020e 79FFFFAE 		e_b .L131
 1467              	.L144:
 1468              		.loc 1 628 0
 1469 0212 50C70058 		e_lwz %r6,88(%r7)
 1470 0216 67E6     		se_btsti %r6,30
 1471 0218 7A12FF18 		e_beq %cr0,.L123
 1472              		.loc 1 630 0
 1473 021c C965     		se_lwz %r6,36(%r5)
 1474 021e 2A06     		se_cmpi %r6,0
 1475 0220 7A12000A 		e_beq %cr0,.L124
 1476              		.loc 1 632 0
 1477 0224 00B6     		se_mtctr %r6
 1478 0226 0007     		se_bctrl
 1479              	.LVL129:
 1480 0228 C17F     		se_lwz %r7,4(%r31)
 1481              	.L124:
 1482              		.loc 1 635 0
GAS LISTING C:\Users\Vipuls\AppData\Local\Temp\ccvj9uHc.s 			page 27


 1483 022a 4826     		se_li %r6,2
 1484 022c 54C70050 		e_stw %r6,80(%r7)
 1485 0230 79FFFF00 		e_b .L123
 1486              	.L149:
 1487              		.loc 1 703 0
 1488 0234 50C70058 		e_lwz %r6,88(%r7)
 1489 0238 67B6     		se_btsti %r6,27
 1490 023a 7A02FFA2 		e_bne %cr0,.L109
 1491              		.loc 1 705 0
 1492 023e CF65     		se_lwz %r6,60(%r5)
 1493 0240 2A06     		se_cmpi %r6,0
 1494 0242 7A12005A 		e_beq %cr0,.L134
 1495              		.loc 1 706 0
 1496 0246 53A700B4 		e_lwz %r29,180(%r7)
 1497              		.loc 1 708 0
 1498 024a 18C18008 		e_addi %r6,%r1,8
 1499 024e 01E3     		se_mr %r3,%r30
 1500              		.loc 1 706 0
 1501 0250 77BDC6BF 		e_rlwinm %r29,%r29,24,26,31
 1502              	.LVL130:
 1503              		.loc 1 708 0
 1504 0254 708000FE 		e_li %r4,254
 1505 0258 01D5     		se_mr %r5,%r29
 1506 025a 78000001 		e_bl can_lld_readBuffer
 1507              	.LVL131:
 1508              		.loc 1 710 0
 1509 025e C271     		se_lwz %r7,8(%r1)
 1510 0260 01D3     		se_mr %r3,%r29
 1511 0262 DC71     		se_stw %r7,48(%r1)
 1512 0264 18818030 		e_addi %r4,%r1,48
 1513 0268 C371     		se_lwz %r7,12(%r1)
 1514 026a DD71     		se_stw %r7,52(%r1)
 1515 026c C471     		se_lwz %r7,16(%r1)
 1516 026e DE71     		se_stw %r7,56(%r1)
 1517 0270 C571     		se_lwz %r7,20(%r1)
 1518 0272 DF71     		se_stw %r7,60(%r1)
 1519 0274 C671     		se_lwz %r7,24(%r1)
 1520 0276 54E10040 		e_stw %r7,64(%r1)
 1521 027a C771     		se_lwz %r7,28(%r1)
 1522 027c 54E10044 		e_stw %r7,68(%r1)
 1523 0280 50FF0000 		e_lwz %r7,.LANCHOR0@l(%r31)
 1524 0284 CF77     		se_lwz %r7,60(%r7)
 1525 0286 00B7     		se_mtctr %r7
 1526 0288 0007     		se_bctrl
 1527              	.LVL132:
 1528              		.loc 1 712 0
 1529 028a C17E     		se_lwz %r7,4(%r30)
 1530 028c 50A700B4 		e_lwz %r5,180(%r7)
 1531 0290 50C700B8 		e_lwz %r6,184(%r7)
 1532 0294 74A6C6BE 		e_rlwimi %r6,%r5,24,26,31
 1533 0298 54C700B8 		e_stw %r6,184(%r7)
 1534              	.LVL133:
 1535              	.L134:
 1536              		.loc 1 715 0
 1537 029c 4906     		se_li %r6,16
 1538 029e 54C70050 		e_stw %r6,80(%r7)
 1539              	.LBE20:
GAS LISTING C:\Users\Vipuls\AppData\Local\Temp\ccvj9uHc.s 			page 28


 1540              	.LBE22:
 1541              		.loc 1 927 0
 1542 02a2 50010064 		e_lwz %r0,100(%r1)
 1543 02a6 0090     		se_mtlr %r0
 1544              		.cfi_remember_state
 1545              		.cfi_restore 65
 1546 02a8 1BA10854 		e_lmw %r29,84(%r1)
 1547 02ac 18218060 		e_addi %r1,%r1,96
 1548              	.LCFI12:
 1549              		.cfi_restore 29
 1550              		.cfi_restore 30
 1551              		.cfi_restore 31
 1552              		.cfi_def_cfa_offset 0
 1553 02b0 0004     		se_blr
 1554              	.L142:
 1555              	.LCFI13:
 1556              		.cfi_restore_state
 1557              	.LBB23:
 1558              	.LBB21:
 1559              		.loc 1 600 0
 1560 02b2 50C70058 		e_lwz %r6,88(%r7)
 1561 02b6 67C6     		se_btsti %r6,28
 1562 02b8 7A12FE38 		e_beq %cr0,.L119
 1563              		.loc 1 602 0
 1564 02bc CD65     		se_lwz %r6,52(%r5)
 1565 02be 2A06     		se_cmpi %r6,0
 1566 02c0 7A12000A 		e_beq %cr0,.L120
 1567              		.loc 1 604 0
 1568 02c4 00B6     		se_mtctr %r6
 1569 02c6 0007     		se_bctrl
 1570              	.LVL134:
 1571 02c8 C17F     		se_lwz %r7,4(%r31)
 1572              	.L120:
 1573              		.loc 1 607 0
 1574 02ca 4886     		se_li %r6,8
 1575 02cc 54C70050 		e_stw %r6,80(%r7)
 1576 02d0 79FFFE20 		e_b .L119
 1577              	.L143:
 1578              		.loc 1 614 0
 1579 02d4 50C70058 		e_lwz %r6,88(%r7)
 1580 02d8 67D6     		se_btsti %r6,29
 1581 02da 7A12FE36 		e_beq %cr0,.L121
 1582              		.loc 1 616 0
 1583 02de CB65     		se_lwz %r6,44(%r5)
 1584 02e0 2A06     		se_cmpi %r6,0
 1585 02e2 7A12000A 		e_beq %cr0,.L122
 1586              		.loc 1 618 0
 1587 02e6 00B6     		se_mtctr %r6
 1588 02e8 0007     		se_bctrl
 1589              	.LVL135:
 1590 02ea C17F     		se_lwz %r7,4(%r31)
 1591              	.L122:
 1592              		.loc 1 621 0
 1593 02ec 4846     		se_li %r6,4
 1594 02ee 54C70050 		e_stw %r6,80(%r7)
 1595 02f2 79FFFE1E 		e_b .L121
 1596              	.L146:
GAS LISTING C:\Users\Vipuls\AppData\Local\Temp\ccvj9uHc.s 			page 29


 1597              		.loc 1 661 0
 1598 02f6 50C70058 		e_lwz %r6,88(%r7)
 1599 02fa 7CC32839 		and. %r3,%r6,%r5
 1600 02fe 7A12FE76 		e_beq %cr0,.L127
 1601              		.loc 1 663 0
 1602 0302 50C40054 		e_lwz %r6,84(%r4)
 1603 0306 2A06     		se_cmpi %r6,0
 1604 0308 7A12000A 		e_beq %cr0,.L128
 1605              		.loc 1 665 0
 1606 030c 00B6     		se_mtctr %r6
 1607 030e 0007     		se_bctrl
 1608              	.LVL136:
 1609 0310 C17F     		se_lwz %r7,4(%r31)
 1610              	.L128:
 1611              		.loc 1 668 0
 1612 0312 6386     		se_bgeni %r6,24
 1613 0314 54C70050 		e_stw %r6,80(%r7)
 1614 0318 79FFFE5C 		e_b .L127
 1615              	.L145:
 1616              		.loc 1 642 0
 1617 031c 50C70058 		e_lwz %r6,88(%r7)
 1618 0320 67F6     		se_btsti %r6,31
 1619 0322 7A12FE2E 		e_beq %cr0,.L125
 1620              		.loc 1 644 0
 1621 0326 C765     		se_lwz %r6,28(%r5)
 1622 0328 2A06     		se_cmpi %r6,0
 1623 032a 7A12005A 		e_beq %cr0,.L126
 1624              		.loc 1 645 0
 1625 032e 53A700A4 		e_lwz %r29,164(%r7)
 1626              		.loc 1 647 0
 1627 0332 18C18008 		e_addi %r6,%r1,8
 1628 0336 01E3     		se_mr %r3,%r30
 1629              		.loc 1 645 0
 1630 0338 77BDC6BF 		e_rlwinm %r29,%r29,24,26,31
 1631              	.LVL137:
 1632              		.loc 1 647 0
 1633 033c 708000FD 		e_li %r4,253
 1634 0340 01D5     		se_mr %r5,%r29
 1635 0342 78000001 		e_bl can_lld_readBuffer
 1636              	.LVL138:
 1637              		.loc 1 649 0
 1638 0346 C271     		se_lwz %r7,8(%r1)
 1639 0348 01D3     		se_mr %r3,%r29
 1640 034a DC71     		se_stw %r7,48(%r1)
 1641 034c 18818030 		e_addi %r4,%r1,48
 1642 0350 C371     		se_lwz %r7,12(%r1)
 1643 0352 DD71     		se_stw %r7,52(%r1)
 1644 0354 C471     		se_lwz %r7,16(%r1)
 1645 0356 DE71     		se_stw %r7,56(%r1)
 1646 0358 C571     		se_lwz %r7,20(%r1)
 1647 035a DF71     		se_stw %r7,60(%r1)
 1648 035c C671     		se_lwz %r7,24(%r1)
 1649 035e 54E10040 		e_stw %r7,64(%r1)
 1650 0362 C771     		se_lwz %r7,28(%r1)
 1651 0364 54E10044 		e_stw %r7,68(%r1)
 1652 0368 50FF0000 		e_lwz %r7,.LANCHOR0@l(%r31)
 1653 036c C777     		se_lwz %r7,28(%r7)
GAS LISTING C:\Users\Vipuls\AppData\Local\Temp\ccvj9uHc.s 			page 30


 1654 036e 00B7     		se_mtctr %r7
 1655 0370 0007     		se_bctrl
 1656              	.LVL139:
 1657              		.loc 1 651 0
 1658 0372 C17E     		se_lwz %r7,4(%r30)
 1659 0374 50A700A4 		e_lwz %r5,164(%r7)
 1660 0378 50C700A8 		e_lwz %r6,168(%r7)
 1661 037c 74A6C6BE 		e_rlwimi %r6,%r5,24,26,31
 1662 0380 54C700A8 		e_stw %r6,168(%r7)
 1663              	.LVL140:
 1664              	.L126:
 1665              		.loc 1 654 0
 1666 0384 4816     		se_li %r6,1
 1667 0386 54C70050 		e_stw %r6,80(%r7)
 1668 038a 79FFFDC6 		e_b .L125
 1669              	.L147:
 1670              		.loc 1 675 0
 1671 038e 50C70058 		e_lwz %r6,88(%r7)
 1672 0392 7CC32839 		and. %r3,%r6,%r5
 1673 0396 7A12FE02 		e_beq %cr0,.L129
 1674              		.loc 1 677 0
 1675 039a 50C4004C 		e_lwz %r6,76(%r4)
 1676 039e 2A06     		se_cmpi %r6,0
 1677 03a0 7A12000A 		e_beq %cr0,.L130
 1678              		.loc 1 679 0
 1679 03a4 00B6     		se_mtctr %r6
 1680 03a6 0007     		se_bctrl
 1681              	.LVL141:
 1682 03a8 C17F     		se_lwz %r7,4(%r31)
 1683              	.L130:
 1684              		.loc 1 682 0
 1685 03aa 4C06     		se_li %r6,64
 1686 03ac 54C70050 		e_stw %r6,80(%r7)
 1687 03b0 79FFFDE8 		e_b .L129
 1688              	.LVL142:
 1689              	.L140:
 1690              		.loc 1 582 0
 1691 03b4 73C0E000 		e_lis %r30,.LANCHOR0@ha
 1692 03b8 708000FC 		e_li %r4,252
 1693 03bc 1C7E0000 		e_la %r3,.LANCHOR0@l(%r30)
 1694 03c0 01F5     		se_mr %r5,%r31
 1695 03c2 18C18008 		e_addi %r6,%r1,8
 1696 03c6 78000001 		e_bl can_lld_readBuffer
 1697              	.LVL143:
 1698              		.loc 1 584 0
 1699 03ca C271     		se_lwz %r7,8(%r1)
 1700 03cc 01F3     		se_mr %r3,%r31
 1701 03ce DC71     		se_stw %r7,48(%r1)
 1702 03d0 18818030 		e_addi %r4,%r1,48
 1703 03d4 C371     		se_lwz %r7,12(%r1)
 1704 03d6 DD71     		se_stw %r7,52(%r1)
 1705 03d8 C471     		se_lwz %r7,16(%r1)
 1706 03da DE71     		se_stw %r7,56(%r1)
 1707 03dc C571     		se_lwz %r7,20(%r1)
 1708 03de DF71     		se_stw %r7,60(%r1)
 1709 03e0 C671     		se_lwz %r7,24(%r1)
 1710 03e2 54E10040 		e_stw %r7,64(%r1)
GAS LISTING C:\Users\Vipuls\AppData\Local\Temp\ccvj9uHc.s 			page 31


 1711 03e6 C771     		se_lwz %r7,28(%r1)
 1712 03e8 54E10044 		e_stw %r7,68(%r1)
 1713 03ec 50FE0000 		e_lwz %r7,.LANCHOR0@l(%r30)
 1714 03f0 C577     		se_lwz %r7,20(%r7)
 1715 03f2 00B7     		se_mtctr %r7
 1716 03f4 1BDF84E0 		e_addi %r30,%r31,-32
 1717 03f8 0007     		se_bctrl
 1718              	.LVL144:
 1719              		.loc 1 586 0
 1720 03fa 23EF     		se_cmpli %r31,31
 1721 03fc 7A11FCBE 		e_bgt %cr0,.L136
 1722 0400 4816     		se_li %r6,1
 1723 0402 42D6     		se_slw %r6, %r29
 1724 0404 7800004A 		e_b .L135
 1725              	.L139:
 1726              		.loc 1 582 0
 1727 0408 18C18008 		e_addi %r6,%r1,8
 1728 040c 73C0E000 		e_lis %r30,.LANCHOR0@ha
 1729 0410 708000FC 		e_li %r4,252
 1730 0414 1C7E0000 		e_la %r3,.LANCHOR0@l(%r30)
 1731 0418 01F5     		se_mr %r5,%r31
 1732 041a 78000001 		e_bl can_lld_readBuffer
 1733              	.LVL145:
 1734              		.loc 1 584 0
 1735 041e C271     		se_lwz %r7,8(%r1)
 1736 0420 01F3     		se_mr %r3,%r31
 1737 0422 DC71     		se_stw %r7,48(%r1)
 1738 0424 18818030 		e_addi %r4,%r1,48
 1739 0428 C371     		se_lwz %r7,12(%r1)
 1740 042a DD71     		se_stw %r7,52(%r1)
 1741 042c C471     		se_lwz %r7,16(%r1)
 1742 042e DE71     		se_stw %r7,56(%r1)
 1743 0430 C571     		se_lwz %r7,20(%r1)
 1744 0432 DF71     		se_stw %r7,60(%r1)
 1745 0434 C671     		se_lwz %r7,24(%r1)
 1746 0436 54E10040 		e_stw %r7,64(%r1)
 1747 043a C771     		se_lwz %r7,28(%r1)
 1748 043c 54E10044 		e_stw %r7,68(%r1)
 1749 0440 50FE0000 		e_lwz %r7,.LANCHOR0@l(%r30)
 1750 0444 C577     		se_lwz %r7,20(%r7)
 1751 0446 00B7     		se_mtctr %r7
 1752 0448 0007     		se_bctrl
 1753              	.LVL146:
 1754 044a 4816     		se_li %r6,1
 1755 044c 42F6     		se_slw %r6, %r31
 1756              	.LVL147:
 1757              	.L135:
 1758              		.loc 1 587 0
 1759 044e 70E0E000 		e_lis %r7,.LANCHOR0+4@ha
 1760 0452 50E70000 		e_lwz %r7,.LANCHOR0+4@l(%r7)
 1761 0456 54C70098 		e_stw %r6,152(%r7)
 1762              		.loc 1 593 0
 1763 045a 62C6     		se_bgeni %r6,12
 1764 045c 54C70050 		e_stw %r6,80(%r7)
 1765 0460 79FFFC70 		e_b .L110
 1766              	.LVL148:
 1767              	.L112:
GAS LISTING C:\Users\Vipuls\AppData\Local\Temp\ccvj9uHc.s 			page 32


 1768              		.loc 1 582 0
 1769 0464 18C18008 		e_addi %r6,%r1,8
 1770 0468 708000FC 		e_li %r4,252
 1771 046c 4805     		se_li %r5,0
 1772 046e 78000001 		e_bl can_lld_readBuffer
 1773              	.LVL149:
 1774              		.loc 1 584 0
 1775 0472 C271     		se_lwz %r7,8(%r1)
 1776 0474 4803     		se_li %r3,0
 1777 0476 DC71     		se_stw %r7,48(%r1)
 1778 0478 18818030 		e_addi %r4,%r1,48
 1779 047c C371     		se_lwz %r7,12(%r1)
 1780 047e DD71     		se_stw %r7,52(%r1)
 1781 0480 C471     		se_lwz %r7,16(%r1)
 1782 0482 DE71     		se_stw %r7,56(%r1)
 1783 0484 C571     		se_lwz %r7,20(%r1)
 1784 0486 DF71     		se_stw %r7,60(%r1)
 1785 0488 C671     		se_lwz %r7,24(%r1)
 1786 048a 54E10040 		e_stw %r7,64(%r1)
 1787 048e C771     		se_lwz %r7,28(%r1)
 1788 0490 54E10044 		e_stw %r7,68(%r1)
 1789 0494 50FF0000 		e_lwz %r7,.LANCHOR0@l(%r31)
 1790 0498 C577     		se_lwz %r7,20(%r7)
 1791 049a 00B7     		se_mtctr %r7
 1792 049c 0007     		se_bctrl
 1793              	.LVL150:
 1794 049e 4816     		se_li %r6,1
 1795 04a0 79FFFFAE 		e_b .L135
 1796              	.LBE21:
 1797              	.LBE23:
 1798              		.cfi_endproc
 1799              	.LFE10:
 1800              		.size	vector695, .-vector695
 1801              		.section	.text.can_lld_init,"axv",@progbits
 1802              		.align 1
 1803              		.p2align 4,,15
 1804              		.globl can_lld_init
 1805              		.type	can_lld_init, @function
 1806              	can_lld_init:
 1807              	.LFB11:
 1808              		.loc 1 1328 0
 1809              		.cfi_startproc
 1810 0000 182106F8 		e_stwu %r1,-8(%r1)
 1811              	.LCFI14:
 1812              		.cfi_def_cfa_offset 8
 1813              		.loc 1 1387 0
 1814 0004 70E4000A 		e_li %r7,8202
 1815              		.loc 1 1385 0
 1816 0008 70C0E000 		e_lis %r6,.LANCHOR0@ha
 1817              		.loc 1 1328 0
 1818 000c 0080     		se_mflr %r0
 1819              		.loc 1 1385 0
 1820 000e 1CA60000 		e_la %r5,.LANCHOR0@l(%r6)
 1821              		.loc 1 1328 0
 1822 0012 D301     		se_stw %r0,12(%r1)
 1823              		.cfi_offset 65, 4
 1824              		.loc 1 1385 0
GAS LISTING C:\Users\Vipuls\AppData\Local\Temp\ccvj9uHc.s 			page 33


 1825 0014 4804     		se_li %r4,0
 1826              		.loc 1 1504 0
 1827 0016 706000CA 		e_li %r3,202
 1828              		.loc 1 1385 0
 1829 001a 54860000 		e_stw %r4,.LANCHOR0@l(%r6)
 1830              		.loc 1 1387 0
 1831 001e 70DEE404 		e_lis %r6,0xf404
 1832              		.loc 1 1504 0
 1833 0022 4924     		se_li %r4,18
 1834              		.loc 1 1387 0
 1835 0024 70C8C5CC 		e_or2i %r6,17868
 1836 0028 B076     		se_sth %r7,0(%r6)
 1837              		.loc 1 1386 0
 1838 002a 70DFE3EE 		e_lis %r6,0xfbee
 1839 002e 6516     		se_bseti %r6,17
 1840 0030 D165     		se_stw %r6,4(%r5)
 1841              		.loc 1 1388 0
 1842 0032 70DEE404 		e_lis %r6,0xf404
 1843 0036 70C8C5CE 		e_or2i %r6,17870
 1844 003a B076     		se_sth %r7,0(%r6)
 1845              		.loc 1 1504 0
 1846 003c 78000001 		e_bl SPCSetPeripheralClockMode
 1847              	.LVL151:
 1848 0040 70FFE3ED 		e_lis %r7,0xfbed
 1849              		.loc 1 1505 0
 1850 0044 70A10780 		e_li %r5,3968
 1851              		.loc 1 1507 0
 1852 0048 4806     		se_li %r6,0
 1853              		.loc 1 1504 0
 1854 004a 6517     		se_bseti %r7,17
 1855              		.loc 1 1505 0
 1856 004c 00B5     		se_mtctr %r5
 1857              	.LVL152:
 1858              	.L151:
 1859              		.loc 1 1507 0 discriminator 3
 1860 004e D067     		se_stw %r6,0(%r7)
 1861              	.LVL153:
 1862 0050 2037     		se_addi %r7,4
 1863              	.LVL154:
 1864              		.loc 1 1505 0 discriminator 3
 1865 0052 7A20FFFC 		e_bdnz .L151
 1866              		.loc 1 1539 0
 1867 0056 C301     		se_lwz %r0,12(%r1)
 1868 0058 0090     		se_mtlr %r0
 1869              		.cfi_restore 65
 1870 005a 2071     		se_addi %r1,8
 1871              	.LCFI15:
 1872              		.cfi_def_cfa_offset 0
 1873 005c 0004     		se_blr
 1874              		.cfi_endproc
 1875              	.LFE11:
 1876              		.size	can_lld_init, .-can_lld_init
 1877              		.section	.text.can_lld_start,"axv",@progbits
 1878              		.align 1
 1879              		.p2align 4,,15
 1880              		.globl can_lld_start
 1881              		.type	can_lld_start, @function
GAS LISTING C:\Users\Vipuls\AppData\Local\Temp\ccvj9uHc.s 			page 34


 1882              	can_lld_start:
 1883              	.LFB12:
 1884              		.loc 1 1549 0
 1885              		.cfi_startproc
 1886              	.LVL155:
 1887 0000 182106F0 		e_stwu %r1,-16(%r1)
 1888              	.LCFI16:
 1889              		.cfi_def_cfa_offset 16
 1890 0004 0080     		se_mflr %r0
 1891 0006 1BC10908 		e_stmw %r30,8(%r1)
 1892 000a D501     		se_stw %r0,20(%r1)
 1893              		.cfi_offset 65, 4
 1894              		.cfi_offset 30, -8
 1895              		.cfi_offset 31, -4
 1896              		.loc 1 1615 0
 1897 000c 70E0E000 		e_lis %r7,.LANCHOR0@ha
 1898              		.loc 1 1549 0
 1899 0010 013F     		se_mr %r31,%r3
 1900              		.loc 1 1615 0
 1901 0012 1CE70000 		e_la %r7,.LANCHOR0@l(%r7)
 1902              		.loc 1 1561 0
 1903 0016 D043     		se_stw %r4,0(%r3)
 1904              		.loc 1 1615 0
 1905 0018 0C73     		se_cmp %r3,%r7
 1906 001a 7A120704 		e_beq %cr0,.L194
 1907              	.LVL156:
 1908              	.L154:
 1909              		.loc 1 1716 0
 1910 001e 4836     		se_li %r6,3
 1911 0020 C17F     		se_lwz %r7,4(%r31)
 1912 0022 D667     		se_stw %r6,24(%r7)
 1913 0024 C16F     		se_lwz %r6,4(%r31)
 1914              	.L155:
 1915              		.loc 1 1717 0 discriminator 1
 1916 0026 C676     		se_lwz %r7,24(%r6)
 1917 0028 67F7     		se_btsti %r7,31
 1918 002a 7A12FFFC 		e_beq %cr0,.L155
 1919              		.loc 1 1722 0
 1920 002e 4BE3     		se_li %r3,62
 1921 0030 4924     		se_li %r4,18
 1922 0032 78000001 		e_bl SPCSetPeripheralClockMode
 1923              	.LVL157:
 1924              		.loc 1 1724 0
 1925 0036 70DEE7F0 		e_lis %r6,0xf7f0
 1926 003a 6516     		se_bseti %r6,17
 1927 003c C176     		se_lwz %r7,4(%r6)
 1928 003e 7007AC44 		e_cmpl16i %r7,1092
 1929 0042 7A12000A 		e_beq %cr0,.L156
 1930              		.loc 1 1725 0
 1931 0046 70E00444 		e_li %r7,1092
 1932 004a D176     		se_stw %r7,4(%r6)
 1933              	.L156:
 1934              		.loc 1 1727 0
 1935 004c 4BE3     		se_li %r3,62
 1936 004e 4804     		se_li %r4,0
 1937 0050 78000001 		e_bl SPCSetPeripheralClockMode
 1938              	.LVL158:
GAS LISTING C:\Users\Vipuls\AppData\Local\Temp\ccvj9uHc.s 			page 35


 1939              		.loc 1 1745 0
 1940 0054 C07F     		se_lwz %r7,0(%r31)
 1941 0056 8067     		se_lbz %r6,0(%r7)
 1942 0058 2A06     		se_cmpi %r6,0
 1943 005a 7A120024 		e_beq %cr0,.L157
 1944              		.loc 1 1746 0
 1945 005e C17F     		se_lwz %r7,4(%r31)
 1946 0060 4815     		se_li %r5,1
 1947 0062 C667     		se_lwz %r6,24(%r7)
 1948 0064 74A63E30 		e_rlwimi %r6,%r5,7,24,24
 1949 0068 D667     		se_stw %r6,24(%r7)
 1950              		.loc 1 1747 0
 1951 006a C17F     		se_lwz %r7,4(%r31)
 1952 006c C467     		se_lwz %r6,16(%r7)
 1953 006e 74A626F6 		e_rlwimi %r6,%r5,4,27,27
 1954 0072 D467     		se_stw %r6,16(%r7)
 1955              		.loc 1 1748 0
 1956 0074 C07F     		se_lwz %r7,0(%r31)
 1957 0076 8067     		se_lbz %r6,0(%r7)
 1958 0078 2A16     		se_cmpi %r6,1
 1959 007a 7A120640 		e_beq %cr0,.L195
 1960              	.L157:
 1961              		.loc 1 1772 0
 1962 007e C16F     		se_lwz %r6,4(%r31)
 1963 0080 8257     		se_lbz %r5,2(%r7)
 1964 0082 C776     		se_lwz %r7,28(%r6)
 1965 0084 74A7C80C 		e_rlwimi %r7,%r5,25,0,6
 1966 0088 D776     		se_stw %r7,28(%r6)
 1967              		.loc 1 1773 0
 1968 008a C06F     		se_lwz %r6,0(%r31)
 1969 008c C17F     		se_lwz %r7,4(%r31)
 1970 008e 8366     		se_lbz %r6,3(%r6)
 1971 0090 34C7001E 		e_stb %r6,30(%r7)
 1972              		.loc 1 1774 0
 1973 0094 C17F     		se_lwz %r7,4(%r31)
 1974 0096 C05F     		se_lwz %r5,0(%r31)
 1975 0098 C767     		se_lwz %r6,28(%r7)
 1976 009a 8455     		se_lbz %r5,4(%r5)
 1977 009c 74A6067E 		e_rlwimi %r6,%r5,0,25,31
 1978 00a0 D767     		se_stw %r6,28(%r7)
 1979              		.loc 1 1775 0
 1980 00a2 C16F     		se_lwz %r6,4(%r31)
 1981 00a4 C07F     		se_lwz %r7,0(%r31)
 1982 00a6 C756     		se_lwz %r5,28(%r6)
 1983 00a8 A377     		se_lhz %r7,6(%r7)
 1984 00aa 18E784FF 		e_addi %r7,%r7,-1
 1985 00ae 74E581DE 		e_rlwimi %r5,%r7,16,7,15
 1986 00b2 D756     		se_stw %r5,28(%r6)
 1987              		.loc 1 1778 0
 1988 00b4 C07F     		se_lwz %r7,0(%r31)
 1989              		.loc 1 1779 0
 1990 00b6 C16F     		se_lwz %r6,4(%r31)
 1991              		.loc 1 1778 0
 1992 00b8 8877     		se_lbz %r7,8(%r7)
 1993 00ba 2A17     		se_cmpi %r7,1
 1994 00bc 7A1204F8 		e_beq %cr0,.L196
 1995              		.loc 1 1818 0
GAS LISTING C:\Users\Vipuls\AppData\Local\Temp\ccvj9uHc.s 			page 36


 1996 00c0 4807     		se_li %r7,0
 1997              		.loc 1 1817 0
 1998 00c2 4885     		se_li %r5,8
 1999              	.L193:
 2000 00c4 9C5F     		se_stb %r5,12(%r31)
 2001              		.loc 1 1829 0
 2002 00c6 71600000 		e_li %r11,0
 2003              		.loc 1 1818 0
 2004 00ca 50A600BC 		e_lwz %r5,188(%r6)
 2005 00ce 74E5077E 		e_rlwimi %r5,%r7,0,29,31
 2006 00d2 54A600BC 		e_stw %r5,188(%r6)
 2007              		.loc 1 1819 0
 2008 00d6 C16F     		se_lwz %r6,4(%r31)
 2009 00d8 50A600BC 		e_lwz %r5,188(%r6)
 2010 00dc 74E52676 		e_rlwimi %r5,%r7,4,25,27
 2011 00e0 54A600BC 		e_stw %r5,188(%r6)
 2012              		.loc 1 1820 0
 2013 00e4 C16F     		se_lwz %r6,4(%r31)
 2014 00e6 50A600BC 		e_lwz %r5,188(%r6)
 2015 00ea 74E5456E 		e_rlwimi %r5,%r7,8,21,23
 2016 00ee 54A600BC 		e_stw %r5,188(%r6)
 2017              		.loc 1 1821 0
 2018 00f2 C16F     		se_lwz %r6,4(%r31)
 2019 00f4 50A600C8 		e_lwz %r5,200(%r6)
 2020 00f8 74E5077E 		e_rlwimi %r5,%r7,0,29,31
 2021 00fc 54A600C8 		e_stw %r5,200(%r6)
 2022              		.loc 1 1825 0
 2023 0100 4835     		se_li %r5,3
 2024 0102 C17F     		se_lwz %r7,4(%r31)
 2025 0104 50C70080 		e_lwz %r6,128(%r7)
 2026 0108 74A626B6 		e_rlwimi %r6,%r5,4,26,27
 2027 010c 54C70080 		e_stw %r6,128(%r7)
 2028              		.loc 1 1829 0
 2029 0110 C17F     		se_lwz %r7,4(%r31)
 2030 0112 50C70084 		e_lwz %r6,132(%r7)
 2031 0116 7566143A 		e_rlwimi %r6,%r11,2,16,29
 2032 011a 54C70084 		e_stw %r6,132(%r7)
 2033              		.loc 1 1830 0
 2034 011e C06F     		se_lwz %r6,0(%r31)
 2035 0120 C17F     		se_lwz %r7,4(%r31)
 2036 0122 30C600AC 		e_lbz %r6,172(%r6)
 2037 0126 34C70085 		e_stb %r6,133(%r7)
 2038              		.loc 1 1831 0
 2039 012a C07F     		se_lwz %r7,0(%r31)
 2040              		.loc 1 1838 0
 2041 012c C13F     		se_lwz %r3,4(%r31)
 2042              		.loc 1 1831 0
 2043 012e 30A700AC 		e_lbz %r5,172(%r7)
 2044              	.LVL159:
 2045              		.loc 1 1838 0
 2046 0132 50030088 		e_lwz %r0,136(%r3)
 2047 0136 7CA61070 		e_slwi %r6,%r5,2
 2048              	.LVL160:
 2049 013a 74A504BF 		e_rlwinm %r5,%r5,0,18,31
 2050 013e 74A0143A 		e_rlwimi %r0,%r5,2,16,29
 2051 0142 54030088 		e_stw %r0,136(%r3)
 2052              		.loc 1 1839 0
GAS LISTING C:\Users\Vipuls\AppData\Local\Temp\ccvj9uHc.s 			page 37


 2053 0146 C15F     		se_lwz %r5,4(%r31)
 2054 0148 C07F     		se_lwz %r7,0(%r31)
 2055 014a 50650088 		e_lwz %r3,136(%r5)
 2056 014e 30E700AD 		e_lbz %r7,173(%r7)
 2057 0152 74E3825E 		e_rlwimi %r3,%r7,16,9,15
 2058 0156 54650088 		e_stw %r3,136(%r5)
 2059              		.loc 1 1840 0
 2060 015a C07F     		se_lwz %r7,0(%r31)
 2061              		.loc 1 1846 0
 2062 015c C15F     		se_lwz %r5,4(%r31)
 2063              		.loc 1 1840 0
 2064 015e 30E700AD 		e_lbz %r7,173(%r7)
 2065              		.loc 1 1846 0
 2066 0162 506500A0 		e_lwz %r3,160(%r5)
 2067              		.loc 1 1840 0
 2068 0166 6C37     		se_slwi %r7, 3
 2069 0168 7C873214 		add %r4,%r7,%r6
 2070              	.LVL161:
 2071              		.loc 1 1846 0
 2072 016c 7483043A 		e_rlwimi %r3,%r4,0,16,29
 2073 0170 546500A0 		e_stw %r3,160(%r5)
 2074              		.loc 1 1847 0
 2075 0174 C17F     		se_lwz %r7,4(%r31)
 2076 0176 C05F     		se_lwz %r5,0(%r31)
 2077 0178 50C700A0 		e_lwz %r6,160(%r7)
 2078 017c 30A500AF 		e_lbz %r5,175(%r5)
 2079 0180 74A6825E 		e_rlwimi %r6,%r5,16,9,15
 2080 0184 54C700A0 		e_stw %r6,160(%r7)
 2081              		.loc 1 1849 0
 2082 0188 C07F     		se_lwz %r7,0(%r31)
 2083 018a 30E70030 		e_lbz %r7,48(%r7)
 2084 018e 2A17     		se_cmpi %r7,1
 2085              		.loc 1 1850 0
 2086 0190 C17F     		se_lwz %r7,4(%r31)
 2087 0192 50C700A0 		e_lwz %r6,160(%r7)
 2088              		.loc 1 1849 0
 2089 0196 7A120412 		e_beq %cr0,.L197
 2090              		.loc 1 1853 0
 2091 019a 4815     		se_li %r5,1
 2092 019c 74A6F800 		e_rlwimi %r6,%r5,31,0,0
 2093 01a0 54C700A0 		e_stw %r6,160(%r7)
 2094              	.L165:
 2095              		.loc 1 1855 0
 2096 01a4 C06F     		se_lwz %r6,0(%r31)
 2097 01a6 30E60020 		e_lbz %r7,32(%r6)
 2098 01aa 2A07     		se_cmpi %r7,0
 2099 01ac 7A120014 		e_beq %cr0,.L166
 2100              		.loc 1 1856 0
 2101 01b0 C16F     		se_lwz %r6,4(%r31)
 2102 01b2 50A600A0 		e_lwz %r5,160(%r6)
 2103 01b6 74E5C04E 		e_rlwimi %r5,%r7,24,1,7
 2104 01ba 54A600A0 		e_stw %r5,160(%r6)
 2105 01be C06F     		se_lwz %r6,0(%r31)
 2106              	.L166:
 2107              		.loc 1 1858 0
 2108 01c0 30A600AF 		e_lbz %r5,175(%r6)
 2109 01c4 8C7F     		se_lbz %r7,12(%r31)
GAS LISTING C:\Users\Vipuls\AppData\Local\Temp\ccvj9uHc.s 			page 38


 2110              		.loc 1 1864 0
 2111 01c6 C13F     		se_lwz %r3,4(%r31)
 2112              		.loc 1 1858 0
 2113 01c8 2077     		se_addi %r7,8
 2114              		.loc 1 1864 0
 2115 01ca 500300B0 		e_lwz %r0,176(%r3)
 2116              		.loc 1 1858 0
 2117 01ce 0557     		se_mullw %r7,%r5
 2118 01d0 7CC72214 		add %r6,%r7,%r4
 2119              	.LVL162:
 2120              		.loc 1 1864 0
 2121 01d4 74C0043A 		e_rlwimi %r0,%r6,0,16,29
 2122 01d8 540300B0 		e_stw %r0,176(%r3)
 2123              		.loc 1 1865 0
 2124 01dc C17F     		se_lwz %r7,4(%r31)
 2125 01de C04F     		se_lwz %r4,0(%r31)
 2126 01e0 50A700B0 		e_lwz %r5,176(%r7)
 2127 01e4 308400B0 		e_lbz %r4,176(%r4)
 2128 01e8 7485825E 		e_rlwimi %r5,%r4,16,9,15
 2129 01ec 54A700B0 		e_stw %r5,176(%r7)
 2130              		.loc 1 1867 0
 2131 01f0 C07F     		se_lwz %r7,0(%r31)
 2132 01f2 30E70050 		e_lbz %r7,80(%r7)
 2133 01f6 2A17     		se_cmpi %r7,1
 2134              		.loc 1 1868 0
 2135 01f8 C17F     		se_lwz %r7,4(%r31)
 2136 01fa 50A700B0 		e_lwz %r5,176(%r7)
 2137              		.loc 1 1867 0
 2138 01fe 7A12045A 		e_beq %cr0,.L198
 2139              		.loc 1 1871 0
 2140 0202 4814     		se_li %r4,1
 2141 0204 7485F800 		e_rlwimi %r5,%r4,31,0,0
 2142 0208 54A700B0 		e_stw %r5,176(%r7)
 2143              	.L168:
 2144              		.loc 1 1873 0
 2145 020c C05F     		se_lwz %r5,0(%r31)
 2146 020e 30E50040 		e_lbz %r7,64(%r5)
 2147 0212 2A07     		se_cmpi %r7,0
 2148 0214 7A120014 		e_beq %cr0,.L169
 2149              		.loc 1 1874 0
 2150 0218 C15F     		se_lwz %r5,4(%r31)
 2151 021a 508500B0 		e_lwz %r4,176(%r5)
 2152 021e 74E4C04E 		e_rlwimi %r4,%r7,24,1,7
 2153 0222 548500B0 		e_stw %r4,176(%r5)
 2154 0226 C05F     		se_lwz %r5,0(%r31)
 2155              	.L169:
 2156              		.loc 1 1876 0
 2157 0228 30A500B0 		e_lbz %r5,176(%r5)
 2158              		.loc 1 1882 0
 2159 022c C14F     		se_lwz %r4,4(%r31)
 2160              		.loc 1 1876 0
 2161 022e 8C7F     		se_lbz %r7,12(%r31)
 2162              		.loc 1 1882 0
 2163 0230 506400AC 		e_lwz %r3,172(%r4)
 2164              		.loc 1 1876 0
 2165 0234 2077     		se_addi %r7,8
 2166 0236 0557     		se_mullw %r7,%r5
GAS LISTING C:\Users\Vipuls\AppData\Local\Temp\ccvj9uHc.s 			page 39


 2167 0238 7CE63A14 		add %r7,%r6,%r7
 2168              	.LVL163:
 2169              		.loc 1 1882 0
 2170 023c 74E3043A 		e_rlwimi %r3,%r7,0,16,29
 2171 0240 546400AC 		e_stw %r3,172(%r4)
 2172              	.LVL164:
 2173              		.loc 1 1888 0
 2174 0244 8C6F     		se_lbz %r6,12(%r31)
 2175              		.loc 1 1895 0
 2176 0246 C14F     		se_lwz %r4,4(%r31)
 2177              		.loc 1 1888 0
 2178 0248 517F0000 		e_lwz %r11,0(%r31)
 2179              		.loc 1 1895 0
 2180 024c 506400C0 		e_lwz %r3,192(%r4)
 2181              		.loc 1 1888 0
 2182 0250 18A68008 		e_addi %r5,%r6,8
 2183 0254 30CB00AE 		e_lbz %r6,174(%r11)
 2184 0258 0556     		se_mullw %r6,%r5
 2185 025a 0467     		se_add %r7,%r6
 2186              	.LVL165:
 2187              		.loc 1 1895 0
 2188 025c 74E3043A 		e_rlwimi %r3,%r7,0,16,29
 2189 0260 546400C0 		e_stw %r3,192(%r4)
 2190              		.loc 1 1896 0
 2191 0264 C17F     		se_lwz %r7,4(%r31)
 2192 0266 C05F     		se_lwz %r5,0(%r31)
 2193 0268 50C700C0 		e_lwz %r6,192(%r7)
 2194 026c 30A500B2 		e_lbz %r5,178(%r5)
 2195 0270 74A6829E 		e_rlwimi %r6,%r5,16,10,15
 2196 0274 54C700C0 		e_stw %r6,192(%r7)
 2197              		.loc 1 1898 0
 2198 0278 C03F     		se_lwz %r3,0(%r31)
 2199 027a 30E300B1 		e_lbz %r7,177(%r3)
 2200 027e 700798FF 		e_cmp16i %r7,255
 2201 0282 7A12003E 		e_beq %cr0,.L170
 2202              		.loc 1 1899 0
 2203 0286 30E300B3 		e_lbz %r7,179(%r3)
 2204 028a C16F     		se_lwz %r6,4(%r31)
 2205 028c 18E7C03F 		e_andi %r7,%r7,63
 2206 0290 50A600C0 		e_lwz %r5,192(%r6)
 2207 0294 74E5C08E 		e_rlwimi %r5,%r7,24,2,7
 2208 0298 54A600C0 		e_stw %r5,192(%r6)
 2209              		.loc 1 1901 0
 2210 029c C03F     		se_lwz %r3,0(%r31)
 2211 029e 30E300B1 		e_lbz %r7,177(%r3)
 2212 02a2 18E7C0FD 		e_andi %r7,%r7,253
 2213 02a6 700798FC 		e_cmp16i %r7,252
 2214 02aa 7A020016 		e_bne %cr0,.L170
 2215              		.loc 1 1902 0
 2216 02ae C17F     		se_lwz %r7,4(%r31)
 2217 02b0 4815     		se_li %r5,1
 2218 02b2 50C700C0 		e_lwz %r6,192(%r7)
 2219 02b6 74A6F042 		e_rlwimi %r6,%r5,30,1,1
 2220 02ba 54C700C0 		e_stw %r6,192(%r7)
 2221 02be C03F     		se_lwz %r3,0(%r31)
 2222              	.L170:
 2223              	.LVL166:
GAS LISTING C:\Users\Vipuls\AppData\Local\Temp\ccvj9uHc.s 			page 40


 2224              		.loc 1 1908 0 discriminator 1
 2225 02c0 30E300AC 		e_lbz %r7,172(%r3)
 2226 02c4 515F0004 		e_lwz %r10,4(%r31)
 2227 02c8 18A3805C 		e_addi %r5,%r3,92
 2228 02cc 4800     		se_li %r0,0
 2229 02ce 2A07     		se_cmpi %r7,0
 2230 02d0 7A12004E 		e_beq %cr0,.L172
 2231              	.LVL167:
 2232              	.L173:
 2233              	.LBB24:
 2234              		.loc 1 1913 0 discriminator 3
 2235 02d4 50E5FFFC 		e_lwz %r7,-4(%r5)
 2236              		.loc 1 1914 0 discriminator 3
 2237 02d8 31250005 		e_lbz %r9,5(%r5)
 2238              		.loc 1 1915 0 discriminator 3
 2239 02dc 31650004 		e_lbz %r11,4(%r5)
 2240              		.loc 1 1913 0 discriminator 3
 2241 02e0 C0E5     		se_lwz %r30,0(%r5)
 2242              		.loc 1 1916 0 discriminator 3
 2243 02e2 508A0084 		e_lwz %r4,132(%r10)
 2244 02e6 519F0008 		e_lwz %r12,8(%r31)
 2245 02ea 7C081070 		e_slwi %r8,%r0,2
 2246              		.loc 1 1913 0 discriminator 3
 2247 02ee 7CE68070 		e_slwi %r6,%r7,16
 2248              		.loc 1 1915 0 discriminator 3
 2249 02f2 7D6BF070 		e_slwi %r11,%r11,30
 2250              		.loc 1 1913 0 discriminator 3
 2251 02f6 04E6     		se_add %r6,%r30
 2252              	.LVL168:
 2253              		.loc 1 1914 0 discriminator 3
 2254 02f8 7D27D870 		e_slwi %r7,%r9,27
 2255              	.LBE24:
 2256              		.loc 1 1908 0 discriminator 3
 2257 02fc 2000     		se_addi %r0,1
 2258              	.LVL169:
 2259              	.LBB25:
 2260              		.loc 1 1914 0 discriminator 3
 2261 02fe 7CE63A14 		add %r7,%r6,%r7
 2262              	.LVL170:
 2263 0302 20B5     		se_addi %r5,12
 2264              		.loc 1 1915 0 discriminator 3
 2265 0304 7CE75A14 		add %r7,%r7,%r11
 2266              	.LVL171:
 2267              		.loc 1 1916 0 discriminator 3
 2268 0308 7486043B 		e_rlwinm %r6,%r4,0,16,29
 2269 030c 7CC66214 		add %r6,%r6,%r12
 2270              		.loc 1 1917 0 discriminator 3
 2271 0310 7CE6412E 		stwx %r7,%r6,%r8
 2272              	.LBE25:
 2273              		.loc 1 1908 0 discriminator 3
 2274 0314 30E300AC 		e_lbz %r7,172(%r3)
 2275              	.LVL172:
 2276 0318 0D07     		se_cmpl %r7,%r0
 2277 031a 7A11FFBA 		e_bgt %cr0,.L173
 2278              	.LVL173:
 2279              	.L172:
 2280              		.loc 1 1921 0 discriminator 1
GAS LISTING C:\Users\Vipuls\AppData\Local\Temp\ccvj9uHc.s 			page 41


 2281 031e 30E300AD 		e_lbz %r7,173(%r3)
 2282 0322 2A07     		se_cmpi %r7,0
 2283 0324 7A120058 		e_beq %cr0,.L178
 2284 0328 18E38094 		e_addi %r7,%r3,148
 2285              		.loc 1 1921 0 is_stmt 0
 2286 032c 4804     		se_li %r4,0
 2287              	.LVL174:
 2288              	.L177:
 2289              	.LBB26:
 2290              		.loc 1 1926 0 is_stmt 1 discriminator 3
 2291 032e 51270000 		e_lwz %r9,0(%r7)
 2292              	.LVL175:
 2293              		.loc 1 1927 0 discriminator 3
 2294 0332 8957     		se_lbz %r5,9(%r7)
 2295              		.loc 1 1928 0 discriminator 3
 2296 0334 50CA0088 		e_lwz %r6,136(%r10)
 2297 0338 C20F     		se_lwz %r0,8(%r31)
 2298 033a 7C8B1870 		e_slwi %r11,%r4,3
 2299 033e 20B7     		se_addi %r7,12
 2300              		.loc 1 1927 0 discriminator 3
 2301 0340 6DD5     		se_slwi %r5, 29
 2302              		.loc 1 1928 0 discriminator 3
 2303 0342 74C6043B 		e_rlwinm %r6,%r6,0,16,29
 2304              		.loc 1 1927 0 discriminator 3
 2305 0346 7CA54A14 		add %r5,%r5,%r9
 2306              	.LVL176:
 2307              		.loc 1 1928 0 discriminator 3
 2308 034a 0406     		se_add %r6,%r0
 2309              	.LBE26:
 2310              		.loc 1 1921 0 discriminator 3
 2311 034c 2004     		se_addi %r4,1
 2312              	.LVL177:
 2313              	.LBB27:
 2314              		.loc 1 1929 0 discriminator 3
 2315 034e 7CA6592E 		stwx %r5,%r6,%r11
 2316              		.loc 1 1931 0 discriminator 3
 2317 0352 5127FFF8 		e_lwz %r9,-8(%r7)
 2318              	.LVL178:
 2319              		.loc 1 1932 0 discriminator 3
 2320 0356 30A7FFFC 		e_lbz %r5,-4(%r7)
 2321              		.loc 1 1933 0 discriminator 3
 2322 035a 500A0088 		e_lwz %r0,136(%r10)
 2323 035e C26F     		se_lwz %r6,8(%r31)
 2324              		.loc 1 1932 0 discriminator 3
 2325 0360 6DE5     		se_slwi %r5, 30
 2326 0362 2036     		se_addi %r6,4
 2327 0364 7CA54A14 		add %r5,%r5,%r9
 2328              	.LVL179:
 2329              		.loc 1 1933 0 discriminator 3
 2330 0368 7400043B 		e_rlwinm %r0,%r0,0,16,29
 2331              	.LVL180:
 2332 036c 0406     		se_add %r6,%r0
 2333              		.loc 1 1934 0 discriminator 3
 2334 036e 7CA6592E 		stwx %r5,%r6,%r11
 2335              	.LBE27:
 2336              		.loc 1 1921 0 discriminator 3
 2337 0372 30C300AD 		e_lbz %r6,173(%r3)
GAS LISTING C:\Users\Vipuls\AppData\Local\Temp\ccvj9uHc.s 			page 42


 2338 0376 0D46     		se_cmpl %r6,%r4
 2339 0378 7A11FFB6 		e_bgt %cr0,.L177
 2340              	.LVL181:
 2341              	.L178:
 2342              		.loc 1 1938 0
 2343 037c 30E30012 		e_lbz %r7,18(%r3)
 2344 0380 700798FF 		e_cmp16i %r7,255
 2345 0384 7A12002C 		e_beq %cr0,.L176
 2346              		.loc 1 1939 0
 2347 0388 50EA0054 		e_lwz %r7,84(%r10)
 2348 038c 4816     		se_li %r6,1
 2349 038e 74C79B18 		e_rlwimi %r7,%r6,19,12,12
 2350 0392 54EA0054 		e_stw %r7,84(%r10)
 2351              		.loc 1 1941 0
 2352 0396 C17F     		se_lwz %r7,4(%r31)
 2353 0398 C05F     		se_lwz %r5,0(%r31)
 2354 039a 50C70058 		e_lwz %r6,88(%r7)
 2355 039e 30A50012 		e_lbz %r5,18(%r5)
 2356 03a2 74A69B18 		e_rlwimi %r6,%r5,19,12,12
 2357 03a6 54C70058 		e_stw %r6,88(%r7)
 2358 03aa C03F     		se_lwz %r3,0(%r31)
 2359 03ac 515F0004 		e_lwz %r10,4(%r31)
 2360              	.L176:
 2361              		.loc 1 1945 0
 2362 03b0 30E30018 		e_lbz %r7,24(%r3)
 2363 03b4 700798FF 		e_cmp16i %r7,255
 2364 03b8 7A12002C 		e_beq %cr0,.L179
 2365              		.loc 1 1946 0
 2366 03bc 30E30019 		e_lbz %r7,25(%r3)
 2367 03c0 2A17     		se_cmpi %r7,1
 2368 03c2 7A1202A4 		e_beq %cr0,.L199
 2369              	.L180:
 2370              		.loc 1 1950 0
 2371 03c6 30E30020 		e_lbz %r7,32(%r3)
 2372 03ca 2A07     		se_cmpi %r7,0
 2373 03cc 7A020150 		e_bne %cr0,.L200
 2374              		.loc 1 1954 0
 2375 03d0 30E30028 		e_lbz %r7,40(%r3)
 2376 03d4 2A17     		se_cmpi %r7,1
 2377 03d6 7A120178 		e_beq %cr0,.L201
 2378              	.L182:
 2379              		.loc 1 1958 0
 2380 03da 30E30030 		e_lbz %r7,48(%r3)
 2381 03de 2A17     		se_cmpi %r7,1
 2382 03e0 7A12019E 		e_beq %cr0,.L202
 2383              	.L179:
 2384              		.loc 1 1965 0
 2385 03e4 30E30038 		e_lbz %r7,56(%r3)
 2386 03e8 700798FF 		e_cmp16i %r7,255
 2387 03ec 7A12002C 		e_beq %cr0,.L183
 2388              		.loc 1 1966 0
 2389 03f0 30E30039 		e_lbz %r7,57(%r3)
 2390 03f4 2A17     		se_cmpi %r7,1
 2391 03f6 7A12029A 		e_beq %cr0,.L203
 2392              	.L184:
 2393              		.loc 1 1970 0
 2394 03fa 30E30040 		e_lbz %r7,64(%r3)
GAS LISTING C:\Users\Vipuls\AppData\Local\Temp\ccvj9uHc.s 			page 43


 2395 03fe 2A07     		se_cmpi %r7,0
 2396 0400 7A020092 		e_bne %cr0,.L204
 2397              		.loc 1 1974 0
 2398 0404 30E30048 		e_lbz %r7,72(%r3)
 2399 0408 2A17     		se_cmpi %r7,1
 2400 040a 7A1200BA 		e_beq %cr0,.L205
 2401              	.L186:
 2402              		.loc 1 1978 0
 2403 040e 30E30050 		e_lbz %r7,80(%r3)
 2404 0412 2A17     		se_cmpi %r7,1
 2405 0414 7A1200E0 		e_beq %cr0,.L206
 2406              	.L183:
 2407              		.loc 1 1985 0
 2408 0418 2C07     		se_bmaski %r7,0
 2409              		.loc 1 1988 0
 2410 041a 4815     		se_li %r5,1
 2411              		.loc 1 1985 0
 2412 041c 54EA0098 		e_stw %r7,152(%r10)
 2413              		.loc 1 1986 0
 2414 0420 C16F     		se_lwz %r6,4(%r31)
 2415 0422 54E6009C 		e_stw %r7,156(%r6)
 2416              		.loc 1 1988 0
 2417 0426 C17F     		se_lwz %r7,4(%r31)
 2418 0428 50C70054 		e_lwz %r6,84(%r7)
 2419 042c 74A6C98C 		e_rlwimi %r6,%r5,25,6,6
 2420              		.loc 1 1989 0
 2421 0430 4805     		se_li %r5,0
 2422              		.loc 1 1988 0
 2423 0432 54C70054 		e_stw %r6,84(%r7)
 2424              		.loc 1 1989 0
 2425 0436 C17F     		se_lwz %r7,4(%r31)
 2426 0438 50C70058 		e_lwz %r6,88(%r7)
 2427 043c 74A6C98C 		e_rlwimi %r6,%r5,25,6,6
 2428 0440 54C70058 		e_stw %r6,88(%r7)
 2429              		.loc 1 2014 0
 2430 0444 C07F     		se_lwz %r7,0(%r31)
 2431 0446 50E700B4 		e_lwz %r7,180(%r7)
 2432 044a 2A07     		se_cmpi %r7,0
 2433 044c 7A120012 		e_beq %cr0,.L187
 2434              		.loc 1 2015 0
 2435 0450 C16F     		se_lwz %r6,4(%r31)
 2436 0452 50E60054 		e_lwz %r7,84(%r6)
 2437 0456 70E7D7F6 		e_or2is %r7,0x3ff6
 2438 045a 54E60054 		e_stw %r7,84(%r6)
 2439              	.L187:
 2440              		.loc 1 2019 0
 2441 045e C17F     		se_lwz %r7,4(%r31)
 2442              		.loc 1 2022 0
 2443 0460 4805     		se_li %r5,0
 2444              		.loc 1 2019 0
 2445 0462 4836     		se_li %r6,3
 2446 0464 54C7005C 		e_stw %r6,92(%r7)
 2447              		.loc 1 2022 0
 2448 0468 C17F     		se_lwz %r7,4(%r31)
 2449 046a C667     		se_lwz %r6,24(%r7)
 2450 046c 74A6177A 		e_rlwimi %r6,%r5,2,29,29
 2451 0470 D667     		se_stw %r6,24(%r7)
GAS LISTING C:\Users\Vipuls\AppData\Local\Temp\ccvj9uHc.s 			page 44


 2452              		.loc 1 2023 0
 2453 0472 C17F     		se_lwz %r7,4(%r31)
 2454 0474 C667     		se_lwz %r6,24(%r7)
 2455 0476 74A607FE 		e_rlwimi %r6,%r5,0,31,31
 2456 047a D667     		se_stw %r6,24(%r7)
 2457 047c C16F     		se_lwz %r6,4(%r31)
 2458              	.L188:
 2459              		.loc 1 2024 0 discriminator 1
 2460 047e C676     		se_lwz %r7,24(%r6)
 2461 0480 67F7     		se_btsti %r7,31
 2462 0482 7A02FFFC 		e_bne %cr0,.L188
 2463              		.loc 1 2027 0
 2464 0486 C501     		se_lwz %r0,20(%r1)
 2465 0488 0090     		se_mtlr %r0
 2466              		.cfi_remember_state
 2467              		.cfi_restore 65
 2468 048a 1BC10808 		e_lmw %r30,8(%r1)
 2469              	.LVL182:
 2470 048e 20F1     		se_addi %r1,16
 2471              	.LCFI17:
 2472              		.cfi_restore 31
 2473              		.cfi_restore 30
 2474              		.cfi_def_cfa_offset 0
 2475 0490 0004     		se_blr
 2476              	.LVL183:
 2477              	.L204:
 2478              	.LCFI18:
 2479              		.cfi_restore_state
 2480              		.loc 1 1971 0
 2481 0492 50EA0054 		e_lwz %r7,84(%r10)
 2482 0496 4816     		se_li %r6,1
 2483 0498 74C72EB4 		e_rlwimi %r7,%r6,5,26,26
 2484 049c 54EA0054 		e_stw %r7,84(%r10)
 2485              		.loc 1 1972 0
 2486 04a0 C17F     		se_lwz %r7,4(%r31)
 2487 04a2 C05F     		se_lwz %r5,0(%r31)
 2488 04a4 50C70058 		e_lwz %r6,88(%r7)
 2489 04a8 30A50038 		e_lbz %r5,56(%r5)
 2490 04ac 74A62EB4 		e_rlwimi %r6,%r5,5,26,26
 2491 04b0 54C70058 		e_stw %r6,88(%r7)
 2492 04b4 C03F     		se_lwz %r3,0(%r31)
 2493 04b6 515F0004 		e_lwz %r10,4(%r31)
 2494              		.loc 1 1974 0
 2495 04ba 30E30048 		e_lbz %r7,72(%r3)
 2496 04be 2A17     		se_cmpi %r7,1
 2497 04c0 7A02FF4E 		e_bne %cr0,.L186
 2498              	.L205:
 2499              		.loc 1 1975 0
 2500 04c4 50CA0054 		e_lwz %r6,84(%r10)
 2501 04c8 74E63672 		e_rlwimi %r6,%r7,6,25,25
 2502 04cc 54CA0054 		e_stw %r6,84(%r10)
 2503              		.loc 1 1976 0
 2504 04d0 C17F     		se_lwz %r7,4(%r31)
 2505 04d2 C05F     		se_lwz %r5,0(%r31)
 2506 04d4 50C70058 		e_lwz %r6,88(%r7)
 2507 04d8 30A50038 		e_lbz %r5,56(%r5)
 2508 04dc 74A63672 		e_rlwimi %r6,%r5,6,25,25
GAS LISTING C:\Users\Vipuls\AppData\Local\Temp\ccvj9uHc.s 			page 45


 2509 04e0 54C70058 		e_stw %r6,88(%r7)
 2510 04e4 C03F     		se_lwz %r3,0(%r31)
 2511 04e6 515F0004 		e_lwz %r10,4(%r31)
 2512              		.loc 1 1978 0
 2513 04ea 30E30050 		e_lbz %r7,80(%r3)
 2514 04ee 2A17     		se_cmpi %r7,1
 2515 04f0 7A02FF28 		e_bne %cr0,.L183
 2516              	.L206:
 2517              		.loc 1 1979 0
 2518 04f4 50CA0054 		e_lwz %r6,84(%r10)
 2519 04f8 74E63E30 		e_rlwimi %r6,%r7,7,24,24
 2520 04fc 54CA0054 		e_stw %r6,84(%r10)
 2521              		.loc 1 1980 0
 2522 0500 C17F     		se_lwz %r7,4(%r31)
 2523 0502 C05F     		se_lwz %r5,0(%r31)
 2524 0504 50C70058 		e_lwz %r6,88(%r7)
 2525 0508 30A50038 		e_lbz %r5,56(%r5)
 2526 050c 74A63E30 		e_rlwimi %r6,%r5,7,24,24
 2527 0510 54C70058 		e_stw %r6,88(%r7)
 2528 0514 515F0004 		e_lwz %r10,4(%r31)
 2529 0518 79FFFF00 		e_b .L183
 2530              	.L200:
 2531              		.loc 1 1951 0
 2532 051c 50EA0054 		e_lwz %r7,84(%r10)
 2533 0520 4816     		se_li %r6,1
 2534 0522 74C70FBC 		e_rlwimi %r7,%r6,1,30,30
 2535 0526 54EA0054 		e_stw %r7,84(%r10)
 2536              		.loc 1 1952 0
 2537 052a C17F     		se_lwz %r7,4(%r31)
 2538 052c C05F     		se_lwz %r5,0(%r31)
 2539 052e 50C70058 		e_lwz %r6,88(%r7)
 2540 0532 30A50018 		e_lbz %r5,24(%r5)
 2541 0536 74A60FBC 		e_rlwimi %r6,%r5,1,30,30
 2542 053a 54C70058 		e_stw %r6,88(%r7)
 2543 053e C03F     		se_lwz %r3,0(%r31)
 2544 0540 515F0004 		e_lwz %r10,4(%r31)
 2545              		.loc 1 1954 0
 2546 0544 30E30028 		e_lbz %r7,40(%r3)
 2547 0548 2A17     		se_cmpi %r7,1
 2548 054a 7A02FE90 		e_bne %cr0,.L182
 2549              	.L201:
 2550              		.loc 1 1955 0
 2551 054e 50CA0054 		e_lwz %r6,84(%r10)
 2552 0552 74E6177A 		e_rlwimi %r6,%r7,2,29,29
 2553 0556 54CA0054 		e_stw %r6,84(%r10)
 2554              		.loc 1 1956 0
 2555 055a C17F     		se_lwz %r7,4(%r31)
 2556 055c C05F     		se_lwz %r5,0(%r31)
 2557 055e 50C70058 		e_lwz %r6,88(%r7)
 2558 0562 30A50018 		e_lbz %r5,24(%r5)
 2559 0566 74A6177A 		e_rlwimi %r6,%r5,2,29,29
 2560 056a 54C70058 		e_stw %r6,88(%r7)
 2561 056e C03F     		se_lwz %r3,0(%r31)
 2562 0570 515F0004 		e_lwz %r10,4(%r31)
 2563              		.loc 1 1958 0
 2564 0574 30E30030 		e_lbz %r7,48(%r3)
 2565 0578 2A17     		se_cmpi %r7,1
GAS LISTING C:\Users\Vipuls\AppData\Local\Temp\ccvj9uHc.s 			page 46


 2566 057a 7A02FE6A 		e_bne %cr0,.L179
 2567              	.L202:
 2568              		.loc 1 1959 0
 2569 057e 50CA0054 		e_lwz %r6,84(%r10)
 2570 0582 74E61F38 		e_rlwimi %r6,%r7,3,28,28
 2571 0586 54CA0054 		e_stw %r6,84(%r10)
 2572              		.loc 1 1960 0
 2573 058a C17F     		se_lwz %r7,4(%r31)
 2574 058c C05F     		se_lwz %r5,0(%r31)
 2575 058e 50C70058 		e_lwz %r6,88(%r7)
 2576 0592 30A50018 		e_lbz %r5,24(%r5)
 2577 0596 74A61F38 		e_rlwimi %r6,%r5,3,28,28
 2578 059a 54C70058 		e_stw %r6,88(%r7)
 2579 059e C03F     		se_lwz %r3,0(%r31)
 2580 05a0 515F0004 		e_lwz %r10,4(%r31)
 2581 05a4 79FFFE40 		e_b .L179
 2582              	.LVL184:
 2583              	.L197:
 2584              		.loc 1 1850 0
 2585 05a8 7566F800 		e_rlwimi %r6,%r11,31,0,0
 2586 05ac 54C700A0 		e_stw %r6,160(%r7)
 2587 05b0 79FFFBF4 		e_b .L165
 2588              	.LVL185:
 2589              	.L196:
 2590              		.loc 1 1779 0
 2591 05b4 C656     		se_lwz %r5,24(%r6)
 2592 05b6 74E545EE 		e_rlwimi %r5,%r7,8,23,23
 2593 05ba D656     		se_stw %r5,24(%r6)
 2594              		.loc 1 1780 0
 2595 05bc C07F     		se_lwz %r7,0(%r31)
 2596 05be 8977     		se_lbz %r7,9(%r7)
 2597 05c0 2A17     		se_cmpi %r7,1
 2598 05c2 7A12014E 		e_beq %cr0,.L207
 2599              		.loc 1 1784 0
 2600 05c6 C17F     		se_lwz %r7,4(%r31)
 2601 05c8 4805     		se_li %r5,0
 2602 05ca C667     		se_lwz %r6,24(%r7)
 2603 05cc 74A64DAC 		e_rlwimi %r6,%r5,9,22,22
 2604 05d0 D667     		se_stw %r6,24(%r7)
 2605              	.L160:
 2606              		.loc 1 1788 0
 2607 05d2 C17F     		se_lwz %r7,4(%r31)
 2608 05d4 C05F     		se_lwz %r5,0(%r31)
 2609 05d6 C367     		se_lwz %r6,12(%r7)
 2610 05d8 8A55     		se_lbz %r5,10(%r5)
 2611 05da 74A6073E 		e_rlwimi %r6,%r5,0,28,31
 2612 05de D367     		se_stw %r6,12(%r7)
 2613              		.loc 1 1789 0
 2614 05e0 C17F     		se_lwz %r7,4(%r31)
 2615 05e2 C05F     		se_lwz %r5,0(%r31)
 2616 05e4 C367     		se_lwz %r6,12(%r7)
 2617 05e6 8B55     		se_lbz %r5,11(%r5)
 2618 05e8 74A644EE 		e_rlwimi %r6,%r5,8,19,23
 2619 05ec D367     		se_stw %r6,12(%r7)
 2620              		.loc 1 1790 0
 2621 05ee C17F     		se_lwz %r7,4(%r31)
 2622 05f0 C05F     		se_lwz %r5,0(%r31)
GAS LISTING C:\Users\Vipuls\AppData\Local\Temp\ccvj9uHc.s 			page 47


 2623 05f2 C367     		se_lwz %r6,12(%r7)
 2624 05f4 8C55     		se_lbz %r5,12(%r5)
 2625 05f6 74A62636 		e_rlwimi %r6,%r5,4,24,27
 2626 05fa D367     		se_stw %r6,12(%r7)
 2627              		.loc 1 1791 0
 2628 05fc C16F     		se_lwz %r6,4(%r31)
 2629 05fe C07F     		se_lwz %r7,0(%r31)
 2630 0600 C356     		se_lwz %r5,12(%r6)
 2631 0602 8D77     		se_lbz %r7,13(%r7)
 2632 0604 18E784FF 		e_addi %r7,%r7,-1
 2633 0608 74E582DE 		e_rlwimi %r5,%r7,16,11,15
 2634 060c D356     		se_stw %r5,12(%r6)
 2635              		.loc 1 1794 0
 2636 060e C07F     		se_lwz %r7,0(%r31)
 2637              		.loc 1 1795 0
 2638 0610 C16F     		se_lwz %r6,4(%r31)
 2639              		.loc 1 1794 0
 2640 0612 8E77     		se_lbz %r7,14(%r7)
 2641 0614 2A17     		se_cmpi %r7,1
 2642 0616 7A1200B4 		e_beq %cr0,.L208
 2643              		.loc 1 1801 0
 2644 061a C356     		se_lwz %r5,12(%r6)
 2645 061c 4807     		se_li %r7,0
 2646 061e 74E5BA10 		e_rlwimi %r5,%r7,23,8,8
 2647 0622 D356     		se_stw %r5,12(%r6)
 2648              		.loc 1 1802 0
 2649 0624 C16F     		se_lwz %r6,4(%r31)
 2650 0626 50A60044 		e_lwz %r5,68(%r6)
 2651 062a 74E5825E 		e_rlwimi %r5,%r7,16,9,15
 2652 062e 54A60044 		e_stw %r5,68(%r6)
 2653              		.loc 1 1803 0
 2654 0632 C16F     		se_lwz %r6,4(%r31)
 2655 0634 50A60048 		e_lwz %r5,72(%r6)
 2656 0638 74E5446E 		e_rlwimi %r5,%r7,8,17,23
 2657 063c 54A60048 		e_stw %r5,72(%r6)
 2658              		.loc 1 1804 0
 2659 0640 C16F     		se_lwz %r6,4(%r31)
 2660 0642 50A60048 		e_lwz %r5,72(%r6)
 2661 0646 74E5067E 		e_rlwimi %r5,%r7,0,25,31
 2662 064a 54A60048 		e_stw %r5,72(%r6)
 2663              	.L162:
 2664              		.loc 1 1809 0
 2665 064e C16F     		se_lwz %r6,4(%r31)
 2666 0650 4877     		se_li %r7,7
 2667              		.loc 1 1808 0
 2668 0652 4C05     		se_li %r5,64
 2669 0654 79FFFA70 		e_b .L193
 2670              	.LVL186:
 2671              	.L198:
 2672              		.loc 1 1868 0
 2673 0658 4804     		se_li %r4,0
 2674 065a 7485F800 		e_rlwimi %r5,%r4,31,0,0
 2675 065e 54A700B0 		e_stw %r5,176(%r7)
 2676 0662 79FFFBAA 		e_b .L168
 2677              	.LVL187:
 2678              	.L199:
 2679              		.loc 1 1947 0
GAS LISTING C:\Users\Vipuls\AppData\Local\Temp\ccvj9uHc.s 			page 48


 2680 0666 50CA0054 		e_lwz %r6,84(%r10)
 2681 066a 74E607FE 		e_rlwimi %r6,%r7,0,31,31
 2682 066e 54CA0054 		e_stw %r6,84(%r10)
 2683              		.loc 1 1948 0
 2684 0672 C17F     		se_lwz %r7,4(%r31)
 2685 0674 C05F     		se_lwz %r5,0(%r31)
 2686 0676 50C70058 		e_lwz %r6,88(%r7)
 2687 067a 30A50018 		e_lbz %r5,24(%r5)
 2688 067e 74A607FE 		e_rlwimi %r6,%r5,0,31,31
 2689 0682 54C70058 		e_stw %r6,88(%r7)
 2690 0686 C03F     		se_lwz %r3,0(%r31)
 2691 0688 515F0004 		e_lwz %r10,4(%r31)
 2692 068c 79FFFD3A 		e_b .L180
 2693              	.L203:
 2694              		.loc 1 1967 0
 2695 0690 50CA0054 		e_lwz %r6,84(%r10)
 2696 0694 74E626F6 		e_rlwimi %r6,%r7,4,27,27
 2697 0698 54CA0054 		e_stw %r6,84(%r10)
 2698              		.loc 1 1968 0
 2699 069c C17F     		se_lwz %r7,4(%r31)
 2700 069e C05F     		se_lwz %r5,0(%r31)
 2701 06a0 50C70058 		e_lwz %r6,88(%r7)
 2702 06a4 30A50038 		e_lbz %r5,56(%r5)
 2703 06a8 74A626F6 		e_rlwimi %r6,%r5,4,27,27
 2704 06ac 54C70058 		e_stw %r6,88(%r7)
 2705 06b0 C03F     		se_lwz %r3,0(%r31)
 2706 06b2 515F0004 		e_lwz %r10,4(%r31)
 2707 06b6 79FFFD44 		e_b .L184
 2708              	.LVL188:
 2709              	.L195:
 2710              		.loc 1 1749 0
 2711 06ba C17F     		se_lwz %r7,4(%r31)
 2712 06bc C657     		se_lwz %r5,24(%r7)
 2713 06be 74C52EB4 		e_rlwimi %r5,%r6,5,26,26
 2714 06c2 D657     		se_stw %r5,24(%r7)
 2715 06c4 C07F     		se_lwz %r7,0(%r31)
 2716 06c6 79FFF9B8 		e_b .L157
 2717              	.L208:
 2718              		.loc 1 1795 0
 2719 06ca C356     		se_lwz %r5,12(%r6)
 2720 06cc 74E5BA10 		e_rlwimi %r5,%r7,23,8,8
 2721 06d0 D356     		se_stw %r5,12(%r6)
 2722              		.loc 1 1796 0
 2723 06d2 C17F     		se_lwz %r7,4(%r31)
 2724 06d4 C05F     		se_lwz %r5,0(%r31)
 2725 06d6 50C70044 		e_lwz %r6,68(%r7)
 2726 06da 8F55     		se_lbz %r5,15(%r5)
 2727 06dc 74A6825E 		e_rlwimi %r6,%r5,16,9,15
 2728 06e0 54C70044 		e_stw %r6,68(%r7)
 2729              		.loc 1 1797 0
 2730 06e4 C17F     		se_lwz %r7,4(%r31)
 2731 06e6 C05F     		se_lwz %r5,0(%r31)
 2732 06e8 50C70048 		e_lwz %r6,72(%r7)
 2733 06ec 30A50010 		e_lbz %r5,16(%r5)
 2734 06f0 74A6446E 		e_rlwimi %r6,%r5,8,17,23
 2735 06f4 54C70048 		e_stw %r6,72(%r7)
 2736              		.loc 1 1798 0
GAS LISTING C:\Users\Vipuls\AppData\Local\Temp\ccvj9uHc.s 			page 49


 2737 06f8 C17F     		se_lwz %r7,4(%r31)
 2738 06fa C05F     		se_lwz %r5,0(%r31)
 2739 06fc 50C70048 		e_lwz %r6,72(%r7)
 2740 0700 30A50011 		e_lbz %r5,17(%r5)
 2741 0704 74A6067E 		e_rlwimi %r6,%r5,0,25,31
 2742 0708 54C70048 		e_stw %r6,72(%r7)
 2743 070c 79FFFF42 		e_b .L162
 2744              	.L207:
 2745              		.loc 1 1781 0
 2746 0710 C16F     		se_lwz %r6,4(%r31)
 2747 0712 C656     		se_lwz %r5,24(%r6)
 2748 0714 74E54DAC 		e_rlwimi %r5,%r7,9,22,22
 2749 0718 D656     		se_stw %r5,24(%r6)
 2750 071a 79FFFEB8 		e_b .L160
 2751              	.LVL189:
 2752              	.L194:
 2753              		.loc 1 1618 0
 2754 071e 706000C6 		e_li %r3,198
 2755              	.LVL190:
 2756 0722 4924     		se_li %r4,18
 2757              	.LVL191:
 2758              		.loc 1 1617 0
 2759 0724 70FFE3ED 		e_lis %r7,0xfbed
 2760 0728 6517     		se_bseti %r7,17
 2761 072a D27F     		se_stw %r7,8(%r31)
 2762              		.loc 1 1618 0
 2763 072c 78000001 		e_bl SPCSetPeripheralClockMode
 2764              	.LVL192:
 2765 0730 79FFF8EE 		e_b .L154
 2766              		.cfi_endproc
 2767              	.LFE12:
 2768              		.size	can_lld_start, .-can_lld_start
 2769              		.section	.text.can_lld_stop,"axv",@progbits
 2770              		.align 1
 2771              		.p2align 4,,15
 2772              		.globl can_lld_stop
 2773              		.type	can_lld_stop, @function
 2774              	can_lld_stop:
 2775              	.LFB13:
 2776              		.loc 1 2036 0
 2777              		.cfi_startproc
 2778              	.LVL193:
 2779 0000 182106F0 		e_stwu %r1,-16(%r1)
 2780              	.LCFI19:
 2781              		.cfi_def_cfa_offset 16
 2782              		.loc 1 2046 0
 2783 0004 4806     		se_li %r6,0
 2784              		.loc 1 2036 0
 2785 0006 D3F1     		se_stw %r31,12(%r1)
 2786 0008 0080     		se_mflr %r0
 2787              		.loc 1 2043 0
 2788 000a 4814     		se_li %r4,1
 2789              		.loc 1 2036 0
 2790 000c D501     		se_stw %r0,20(%r1)
 2791              		.cfi_offset 31, -4
 2792              		.cfi_offset 65, 4
 2793              		.loc 1 2036 0
GAS LISTING C:\Users\Vipuls\AppData\Local\Temp\ccvj9uHc.s 			page 50


 2794 000e 013F     		se_mr %r31,%r3
 2795              		.loc 1 2043 0
 2796 0010 C173     		se_lwz %r7,4(%r3)
 2797 0012 C657     		se_lwz %r5,24(%r7)
 2798 0014 748507FE 		e_rlwimi %r5,%r4,0,31,31
 2799 0018 D657     		se_stw %r5,24(%r7)
 2800              		.loc 1 2094 0
 2801 001a 70E0E000 		e_lis %r7,.LANCHOR0@ha
 2802 001e 1CE70000 		e_la %r7,.LANCHOR0@l(%r7)
 2803 0022 0C73     		se_cmp %r3,%r7
 2804              		.loc 1 2046 0
 2805 0024 C173     		se_lwz %r7,4(%r3)
 2806 0026 54C70054 		e_stw %r6,84(%r7)
 2807              		.loc 1 2047 0
 2808 002a C173     		se_lwz %r7,4(%r3)
 2809 002c 54C7005C 		e_stw %r6,92(%r7)
 2810              		.loc 1 2048 0
 2811 0030 C173     		se_lwz %r7,4(%r3)
 2812 0032 54C70058 		e_stw %r6,88(%r7)
 2813              		.loc 1 2094 0
 2814 0036 7A120012 		e_beq %cr0,.L210
 2815              		.loc 1 2200 0
 2816 003a C501     		se_lwz %r0,20(%r1)
 2817 003c 0090     		se_mtlr %r0
 2818              		.cfi_remember_state
 2819              		.cfi_restore 65
 2820              		.loc 1 2199 0
 2821 003e 4807     		se_li %r7,0
 2822 0040 D07F     		se_stw %r7,0(%r31)
 2823              		.loc 1 2200 0
 2824 0042 C3F1     		se_lwz %r31,12(%r1)
 2825 0044 20F1     		se_addi %r1,16
 2826              	.LCFI20:
 2827              		.cfi_restore 31
 2828              		.cfi_def_cfa_offset 0
 2829 0046 0004     		se_blr
 2830              	.L210:
 2831              	.LCFI21:
 2832              		.cfi_restore_state
 2833              	.LVL194:
 2834              		.loc 1 2097 0
 2835 0048 706000C6 		e_li %r3,198
 2836              	.LVL195:
 2837 004c 4804     		se_li %r4,0
 2838 004e 78000001 		e_bl SPCSetPeripheralClockMode
 2839              	.LVL196:
 2840 0052 70FFE3ED 		e_lis %r7,0xfbed
 2841              		.loc 1 2193 0
 2842 0056 70A003E0 		e_li %r5,992
 2843              		.loc 1 2195 0
 2844 005a 4806     		se_li %r6,0
 2845              		.loc 1 2097 0
 2846 005c 6517     		se_bseti %r7,17
 2847              		.loc 1 2193 0
 2848 005e 00B5     		se_mtctr %r5
 2849              	.LVL197:
 2850              	.L211:
GAS LISTING C:\Users\Vipuls\AppData\Local\Temp\ccvj9uHc.s 			page 51


 2851              		.loc 1 2195 0 discriminator 3
 2852 0060 D067     		se_stw %r6,0(%r7)
 2853              	.LVL198:
 2854 0062 2037     		se_addi %r7,4
 2855              	.LVL199:
 2856              		.loc 1 2193 0 discriminator 3
 2857 0064 7A20FFFC 		e_bdnz .L211
 2858              		.loc 1 2200 0
 2859 0068 C501     		se_lwz %r0,20(%r1)
 2860 006a 0090     		se_mtlr %r0
 2861              		.cfi_restore 65
 2862              		.loc 1 2199 0
 2863 006c 4807     		se_li %r7,0
 2864              	.LVL200:
 2865 006e D07F     		se_stw %r7,0(%r31)
 2866              		.loc 1 2200 0
 2867 0070 C3F1     		se_lwz %r31,12(%r1)
 2868              	.LVL201:
 2869 0072 20F1     		se_addi %r1,16
 2870              	.LCFI22:
 2871              		.cfi_restore 31
 2872              		.cfi_def_cfa_offset 0
 2873 0074 0004     		se_blr
 2874              		.cfi_endproc
 2875              	.LFE13:
 2876              		.size	can_lld_stop, .-can_lld_stop
 2877              		.section	.text.can_lld_transmit,"axv",@progbits
 2878              		.align 1
 2879              		.p2align 4,,15
 2880              		.globl can_lld_transmit
 2881              		.type	can_lld_transmit, @function
 2882              	can_lld_transmit:
 2883              	.LFB14:
 2884              		.loc 1 2213 0
 2885              		.cfi_startproc
 2886              	.LVL202:
 2887 0000 182106E8 		e_stwu %r1,-24(%r1)
 2888              	.LCFI23:
 2889              		.cfi_def_cfa_offset 24
 2890 0004 0080     		se_mflr %r0
 2891 0006 1BA1090C 		e_stmw %r29,12(%r1)
 2892 000a D701     		se_stw %r0,28(%r1)
 2893              		.cfi_offset 65, 4
 2894              		.cfi_offset 29, -12
 2895              		.cfi_offset 30, -8
 2896              		.cfi_offset 31, -4
 2897              		.loc 1 2213 0
 2898 000c 013D     		se_mr %r29,%r3
 2899 000e 015E     		se_mr %r30,%r5
 2900              		.loc 1 2221 0
 2901 0010 8835     		se_lbz %r3,8(%r5)
 2902              	.LVL203:
 2903              		.loc 1 2213 0
 2904 0012 014F     		se_mr %r31,%r4
 2905              		.loc 1 2221 0
 2906 0014 2273     		se_cmpli %r3,8
 2907 0016 7A01001E 		e_ble %cr0,.L216
GAS LISTING C:\Users\Vipuls\AppData\Local\Temp\ccvj9uHc.s 			page 52


 2908              		.loc 1 2221 0 is_stmt 0 discriminator 1
 2909 001a C05D     		se_lwz %r5,0(%r29)
 2910              	.LVL204:
 2911              		.loc 1 2222 0 is_stmt 1 discriminator 1
 2912 001c 4836     		se_li %r6,3
 2913              		.loc 1 2221 0 discriminator 1
 2914 001e 8855     		se_lbz %r5,8(%r5)
 2915 0020 2A05     		se_cmpi %r5,0
 2916 0022 7A020012 		e_bne %cr0,.L216
 2917              	.LVL205:
 2918              	.L217:
 2919              		.loc 1 2295 0
 2920 0026 C701     		se_lwz %r0,28(%r1)
 2921 0028 0090     		se_mtlr %r0
 2922              		.cfi_remember_state
 2923              		.cfi_restore 65
 2924 002a 1BA1080C 		e_lmw %r29,12(%r1)
 2925              	.LVL206:
 2926 002e 0163     		se_mr %r3,%r6
 2927 0030 2171     		se_addi %r1,24
 2928              	.LCFI24:
 2929              		.cfi_restore 31
 2930              		.cfi_restore 30
 2931              		.cfi_restore 29
 2932              		.cfi_def_cfa_offset 0
 2933 0032 0004     		se_blr
 2934              	.LVL207:
 2935              	.L216:
 2936              	.LCFI25:
 2937              		.cfi_restore_state
 2938              		.loc 1 2226 0
 2939 0034 78000001 		e_bl can_lld_getDLC
 2940              	.LVL208:
 2941              		.loc 1 2222 0
 2942 0038 4836     		se_li %r6,3
 2943              		.loc 1 2226 0
 2944 003a 2A03     		se_cmpi %r3,0
 2945 003c 7A12FFEA 		e_beq %cr0,.L217
 2946              		.loc 1 2231 0
 2947 0040 701FA8FB 		e_cmpl16i %r31,251
 2948 0044 7A12005A 		e_beq %cr0,.L241
 2949              		.loc 1 2245 0
 2950 0048 701FA8FC 		e_cmpl16i %r31,252
 2951 004c 7A1200B4 		e_beq %cr0,.L242
 2952              		.loc 1 2260 0
 2953 0050 C05D     		se_lwz %r5,0(%r29)
 2954              		.loc 1 2233 0
 2955 0052 4826     		se_li %r6,2
 2956              		.loc 1 2260 0
 2957 0054 30E500B1 		e_lbz %r7,177(%r5)
 2958 0058 2047     		se_addi %r7,5
 2959 005a 00C7     		se_extzb %r7
 2960 005c 2207     		se_cmpli %r7,1
 2961 005e 7A01FFC8 		e_ble %cr0,.L217
 2962              		.loc 1 2264 0
 2963 0062 701FA8FF 		e_cmpl16i %r31,255
 2964 0066 7A120064 		e_beq %cr0,.L243
GAS LISTING C:\Users\Vipuls\AppData\Local\Temp\ccvj9uHc.s 			page 53


 2965              		.loc 1 2274 0
 2966 006a C17D     		se_lwz %r7,4(%r29)
 2967              		.loc 1 2282 0
 2968 006c 4816     		se_li %r6,1
 2969              		.loc 1 2274 0
 2970 006e 50E700CC 		e_lwz %r7,204(%r7)
 2971 0072 40F7     		se_srw %r7,%r31
 2972 0074 67F7     		se_btsti %r7,31
 2973 0076 7A02FFB0 		e_bne %cr0,.L217
 2974              		.loc 1 2275 0
 2975 007a 00CF     		se_extzb %r31
 2976              	.LVL209:
 2977              		.loc 1 2281 0
 2978 007c 701FA8FF 		e_cmpl16i %r31,255
 2979 0080 7A12FFA6 		e_beq %cr0,.L217
 2980              	.LVL210:
 2981              	.L225:
 2982              		.loc 1 2287 0
 2983 0084 01E5     		se_mr %r5,%r30
 2984 0086 01D3     		se_mr %r3,%r29
 2985 0088 01F4     		se_mr %r4,%r31
 2986 008a 78000001 		e_bl can_lld_writeTxBuffer
 2987              	.LVL211:
 2988              		.loc 1 2290 0
 2989 008e C15D     		se_lwz %r5,4(%r29)
 2990 0090 4817     		se_li %r7,1
 2991              		.loc 1 2294 0
 2992 0092 4806     		se_li %r6,0
 2993              		.loc 1 2290 0
 2994 0094 42F7     		se_slw %r7, %r31
 2995 0096 54E500D0 		e_stw %r7,208(%r5)
 2996              		.loc 1 2294 0
 2997 009a 79FFFF8C 		e_b .L217
 2998              	.LVL212:
 2999              	.L241:
 3000              		.loc 1 2232 0
 3001 009e C07D     		se_lwz %r7,0(%r29)
 3002              		.loc 1 2233 0
 3003 00a0 4826     		se_li %r6,2
 3004              		.loc 1 2232 0
 3005 00a2 30E700B1 		e_lbz %r7,177(%r7)
 3006 00a6 2047     		se_addi %r7,5
 3007 00a8 70E0C8FD 		e_and2i. %r7,253
 3008 00ac 7A02FF7A 		e_bne %cr0,.L217
 3009              	.L240:
 3010              		.loc 1 2253 0
 3011 00b0 C15D     		se_lwz %r5,4(%r29)
 3012              		.loc 1 2282 0
 3013 00b2 4816     		se_li %r6,1
 3014              		.loc 1 2253 0
 3015 00b4 50E500C4 		e_lwz %r7,196(%r5)
 3016 00b8 66A7     		se_btsti %r7,10
 3017 00ba 7A02FF6C 		e_bne %cr0,.L217
 3018              		.loc 1 2254 0
 3019 00be 53E500C4 		e_lwz %r31,196(%r5)
 3020              	.LVL213:
 3021 00c2 77FF86FF 		e_rlwinm %r31,%r31,16,27,31
GAS LISTING C:\Users\Vipuls\AppData\Local\Temp\ccvj9uHc.s 			page 54


 3022              	.LVL214:
 3023 00c6 79FFFFBE 		e_b .L225
 3024              	.LVL215:
 3025              	.L243:
 3026              		.loc 1 2265 0 discriminator 1
 3027 00ca 30C500B2 		e_lbz %r6,178(%r5)
 3028 00ce 2A06     		se_cmpi %r6,0
 3029 00d0 7A12002A 		e_beq %cr0,.L233
 3030              		.loc 1 2266 0
 3031 00d4 C15D     		se_lwz %r5,4(%r29)
 3032 00d6 50E500CC 		e_lwz %r7,204(%r5)
 3033 00da 67F7     		se_btsti %r7,31
 3034 00dc 4807     		se_li %r7,0
 3035 00de 7A12003A 		e_beq %cr0,.L222
 3036 00e2 00B6     		se_mtctr %r6
 3037 00e4 78000010 		e_b .L223
 3038              	.LVL216:
 3039              	.L224:
 3040 00e8 50C500CC 		e_lwz %r6,204(%r5)
 3041 00ec 4076     		se_srw %r6,%r7
 3042 00ee 67F6     		se_btsti %r6,31
 3043 00f0 7A120028 		e_beq %cr0,.L222
 3044              	.LVL217:
 3045              	.L223:
 3046              		.loc 1 2265 0 discriminator 2
 3047 00f4 2007     		se_addi %r7,1
 3048              	.LVL218:
 3049 00f6 7A20FFF2 		e_bdnz .L224
 3050              	.LVL219:
 3051              	.L233:
 3052              		.loc 1 2282 0
 3053 00fa 4816     		se_li %r6,1
 3054 00fc 79FFFF2A 		e_b .L217
 3055              	.L242:
 3056              		.loc 1 2246 0
 3057 0100 C07D     		se_lwz %r7,0(%r29)
 3058              		.loc 1 2233 0
 3059 0102 4826     		se_li %r6,2
 3060              		.loc 1 2246 0
 3061 0104 30E700B1 		e_lbz %r7,177(%r7)
 3062 0108 18E7C0FD 		e_andi %r7,%r7,253
 3063 010c 700798FC 		e_cmp16i %r7,252
 3064 0110 7A02FF16 		e_bne %cr0,.L217
 3065 0114 79FFFF9C 		e_b .L240
 3066              	.L222:
 3067              		.loc 1 2267 0
 3068 0118 74FF063F 		e_rlwinm %r31,%r7,0,0xff
 3069              	.LVL220:
 3070              		.loc 1 2268 0
 3071 011c 79FFFF68 		e_b .L225
 3072              		.cfi_endproc
 3073              	.LFE14:
 3074              		.size	can_lld_transmit, .-can_lld_transmit
 3075              		.section	.text.can_lld_receive,"axv",@progbits
 3076              		.align 1
 3077              		.p2align 4,,15
 3078              		.globl can_lld_receive
GAS LISTING C:\Users\Vipuls\AppData\Local\Temp\ccvj9uHc.s 			page 55


 3079              		.type	can_lld_receive, @function
 3080              	can_lld_receive:
 3081              	.LFB15:
 3082              		.loc 1 2308 0
 3083              		.cfi_startproc
 3084              	.LVL221:
 3085 0000 182106F0 		e_stwu %r1,-16(%r1)
 3086              	.LCFI26:
 3087              		.cfi_def_cfa_offset 16
 3088 0004 0080     		se_mflr %r0
 3089 0006 1BC10908 		e_stmw %r30,8(%r1)
 3090 000a D501     		se_stw %r0,20(%r1)
 3091              		.cfi_offset 65, 4
 3092              		.cfi_offset 30, -8
 3093              		.cfi_offset 31, -4
 3094              		.loc 1 2308 0
 3095 000c 0147     		se_mr %r7,%r4
 3096 000e 013E     		se_mr %r30,%r3
 3097 0010 0156     		se_mr %r6,%r5
 3098              		.loc 1 2315 0
 3099 0012 7004A8FD 		e_cmpl16i %r4,253
 3100 0016 7A120026 		e_beq %cr0,.L262
 3101              		.loc 1 2330 0
 3102 001a 7004A8FE 		e_cmpl16i %r4,254
 3103 001e 7A12005E 		e_beq %cr0,.L263
 3104              		.loc 1 2346 0
 3105 0022 C143     		se_lwz %r4,4(%r3)
 3106              	.LVL222:
 3107 0024 50640050 		e_lwz %r3,80(%r4)
 3108              	.LVL223:
 3109 0028 66C3     		se_btsti %r3,12
 3110 002a 7A020094 		e_bne %cr0,.L264
 3111              	.LVL224:
 3112              	.L249:
 3113              		.loc 1 2325 0
 3114 002e 4813     		se_li %r3,1
 3115              	.LVL225:
 3116              	.L261:
 3117              		.loc 1 2397 0
 3118 0030 C501     		se_lwz %r0,20(%r1)
 3119 0032 0090     		se_mtlr %r0
 3120              		.cfi_remember_state
 3121              		.cfi_restore 65
 3122 0034 1BC10808 		e_lmw %r30,8(%r1)
 3123              	.LVL226:
 3124 0038 20F1     		se_addi %r1,16
 3125              	.LCFI27:
 3126              		.cfi_restore 31
 3127              		.cfi_restore 30
 3128              		.cfi_def_cfa_offset 0
 3129 003a 0004     		se_blr
 3130              	.LVL227:
 3131              	.L262:
 3132              	.LCFI28:
 3133              		.cfi_restore_state
 3134              		.loc 1 2316 0
 3135 003c C173     		se_lwz %r7,4(%r3)
GAS LISTING C:\Users\Vipuls\AppData\Local\Temp\ccvj9uHc.s 			page 56


 3136 003e 53E70050 		e_lwz %r31,80(%r7)
 3137 0042 2E1F     		se_andi %r31,1
 3138 0044 220F     		se_cmpli %r31,1
 3139 0046 7A02FFE8 		e_bne %cr0,.L249
 3140              		.loc 1 2317 0
 3141 004a 50A700A4 		e_lwz %r5,164(%r7)
 3142              	.LVL228:
 3143              		.loc 1 2319 0
 3144 004e 74A5C6BF 		e_rlwinm %r5,%r5,24,26,31
 3145              	.LVL229:
 3146 0052 78000001 		e_bl can_lld_readBuffer
 3147              	.LVL230:
 3148              		.loc 1 2321 0
 3149 0056 C17E     		se_lwz %r7,4(%r30)
 3150              		.loc 1 2396 0
 3151 0058 4803     		se_li %r3,0
 3152              		.loc 1 2321 0
 3153 005a 50A700A4 		e_lwz %r5,164(%r7)
 3154 005e 50C700A8 		e_lwz %r6,168(%r7)
 3155 0062 74A6C6BE 		e_rlwimi %r6,%r5,24,26,31
 3156 0066 54C700A8 		e_stw %r6,168(%r7)
 3157              		.loc 1 2323 0
 3158 006a C17E     		se_lwz %r7,4(%r30)
 3159 006c 50C70050 		e_lwz %r6,80(%r7)
 3160 0070 77E607FE 		e_rlwimi %r6,%r31,0,31,31
 3161 0074 54C70050 		e_stw %r6,80(%r7)
 3162 0078 79FFFFB8 		e_b .L261
 3163              	.LVL231:
 3164              	.L263:
 3165              		.loc 1 2331 0
 3166 007c C173     		se_lwz %r7,4(%r3)
 3167 007e 53E70050 		e_lwz %r31,80(%r7)
 3168 0082 77FFE7FF 		e_rlwinm %r31,%r31,28,31,31
 3169 0086 220F     		se_cmpli %r31,1
 3170 0088 7A02FFA6 		e_bne %cr0,.L249
 3171              		.loc 1 2332 0
 3172 008c 50A700B4 		e_lwz %r5,180(%r7)
 3173              	.LVL232:
 3174              		.loc 1 2334 0
 3175 0090 74A5C6BF 		e_rlwinm %r5,%r5,24,26,31
 3176              	.LVL233:
 3177 0094 78000001 		e_bl can_lld_readBuffer
 3178              	.LVL234:
 3179              		.loc 1 2336 0
 3180 0098 C17E     		se_lwz %r7,4(%r30)
 3181              		.loc 1 2396 0
 3182 009a 4803     		se_li %r3,0
 3183              		.loc 1 2336 0
 3184 009c 50A700B4 		e_lwz %r5,180(%r7)
 3185 00a0 50C700B8 		e_lwz %r6,184(%r7)
 3186 00a4 74A6C6BE 		e_rlwimi %r6,%r5,24,26,31
 3187 00a8 54C700B8 		e_stw %r6,184(%r7)
 3188              		.loc 1 2338 0
 3189 00ac C17E     		se_lwz %r7,4(%r30)
 3190 00ae 50C70050 		e_lwz %r6,80(%r7)
 3191 00b2 77E626F6 		e_rlwimi %r6,%r31,4,27,27
 3192 00b6 54C70050 		e_stw %r6,80(%r7)
GAS LISTING C:\Users\Vipuls\AppData\Local\Temp\ccvj9uHc.s 			page 57


 3193 00ba 79FFFF76 		e_b .L261
 3194              	.LVL235:
 3195              	.L264:
 3196              		.loc 1 2347 0
 3197 00be 7007A8FF 		e_cmpl16i %r7,255
 3198 00c2 7A12009C 		e_beq %cr0,.L265
 3199              		.loc 1 2364 0
 3200 00c6 23E7     		se_cmpli %r7,31
 3201 00c8 7A11005A 		e_bgt %cr0,.L257
 3202              		.loc 1 2365 0
 3203 00cc 50A40098 		e_lwz %r5,152(%r4)
 3204              	.LVL236:
 3205 00d0 4075     		se_srw %r5,%r7
 3206 00d2 67F5     		se_btsti %r5,31
 3207 00d4 7A12005E 		e_beq %cr0,.L251
 3208              	.LVL237:
 3209              	.L258:
 3210              		.loc 1 2366 0
 3211 00d8 74FF063F 		e_rlwinm %r31,%r7,0,0xff
 3212              	.LVL238:
 3213              		.loc 1 2375 0
 3214 00dc 4815     		se_li %r5,1
 3215 00de 50E40050 		e_lwz %r7,80(%r4)
 3216              	.LVL239:
 3217              		.loc 1 2379 0
 3218 00e2 701FA8FF 		e_cmpl16i %r31,255
 3219              		.loc 1 2375 0
 3220 00e6 74A79B18 		e_rlwimi %r7,%r5,19,12,12
 3221 00ea 54E40050 		e_stw %r7,80(%r4)
 3222              		.loc 1 2379 0
 3223 00ee 7A12FF40 		e_beq %cr0,.L249
 3224              	.LVL240:
 3225              	.L254:
 3226              		.loc 1 2385 0
 3227 00f2 01E3     		se_mr %r3,%r30
 3228 00f4 708000FC 		e_li %r4,252
 3229 00f8 01F5     		se_mr %r5,%r31
 3230 00fa 78000001 		e_bl can_lld_readBuffer
 3231              	.LVL241:
 3232              		.loc 1 2388 0
 3233 00fe 23EF     		se_cmpli %r31,31
 3234 0100 7A010046 		e_ble %cr0,.L266
 3235              		.loc 1 2391 0
 3236 0104 C15E     		se_lwz %r5,4(%r30)
 3237 0106 18FF84E0 		e_addi %r7,%r31,-32
 3238 010a 4816     		se_li %r6,1
 3239 010c 7CC73830 		slw %r7,%r6,%r7
 3240 0110 54E5009C 		e_stw %r7,156(%r5)
 3241              		.loc 1 2397 0
 3242 0114 C501     		se_lwz %r0,20(%r1)
 3243 0116 0090     		se_mtlr %r0
 3244              		.cfi_remember_state
 3245              		.cfi_restore 65
 3246 0118 1BC10808 		e_lmw %r30,8(%r1)
 3247              	.LVL242:
 3248              		.loc 1 2396 0
 3249 011c 4803     		se_li %r3,0
GAS LISTING C:\Users\Vipuls\AppData\Local\Temp\ccvj9uHc.s 			page 58


 3250              		.loc 1 2397 0
 3251 011e 20F1     		se_addi %r1,16
 3252              	.LCFI29:
 3253              		.cfi_restore 30
 3254              		.cfi_restore 31
 3255              		.cfi_def_cfa_offset 0
 3256 0120 0004     		se_blr
 3257              	.LVL243:
 3258              	.L257:
 3259              	.LCFI30:
 3260              		.cfi_restore_state
 3261              		.loc 1 2369 0
 3262 0122 50A4009C 		e_lwz %r5,156(%r4)
 3263              	.LVL244:
 3264 0126 186784E0 		e_addi %r3,%r7,-32
 3265 012a 4035     		se_srw %r5,%r3
 3266 012c 67F5     		se_btsti %r5,31
 3267 012e 7A02FFAA 		e_bne %cr0,.L258
 3268              	.LVL245:
 3269              	.L251:
 3270              		.loc 1 2375 0
 3271 0132 50E40050 		e_lwz %r7,80(%r4)
 3272 0136 4816     		se_li %r6,1
 3273              	.LVL246:
 3274              		.loc 1 2380 0
 3275 0138 4813     		se_li %r3,1
 3276              		.loc 1 2375 0
 3277 013a 74C79B18 		e_rlwimi %r7,%r6,19,12,12
 3278 013e 54E40050 		e_stw %r7,80(%r4)
 3279 0142 79FFFEEE 		e_b .L261
 3280              	.LVL247:
 3281              	.L266:
 3282              		.loc 1 2389 0
 3283 0146 C16E     		se_lwz %r6,4(%r30)
 3284 0148 4817     		se_li %r7,1
 3285 014a 42F7     		se_slw %r7, %r31
 3286 014c 54E60098 		e_stw %r7,152(%r6)
 3287              		.loc 1 2397 0
 3288 0150 C501     		se_lwz %r0,20(%r1)
 3289 0152 0090     		se_mtlr %r0
 3290              		.cfi_remember_state
 3291              		.cfi_restore 65
 3292 0154 1BC10808 		e_lmw %r30,8(%r1)
 3293              	.LVL248:
 3294              		.loc 1 2396 0
 3295 0158 4803     		se_li %r3,0
 3296              		.loc 1 2397 0
 3297 015a 20F1     		se_addi %r1,16
 3298              	.LCFI31:
 3299              		.cfi_restore 30
 3300              		.cfi_restore 31
 3301              		.cfi_def_cfa_offset 0
 3302 015c 0004     		se_blr
 3303              	.LVL249:
 3304              	.L265:
 3305              	.LCFI32:
 3306              		.cfi_restore_state
GAS LISTING C:\Users\Vipuls\AppData\Local\Temp\ccvj9uHc.s 			page 59


 3307              		.loc 1 2348 0 discriminator 1
 3308 015e C07E     		se_lwz %r7,0(%r30)
 3309              	.LVL250:
 3310 0160 30A700AE 		e_lbz %r5,174(%r7)
 3311              	.LVL251:
 3312 0164 2A05     		se_cmpi %r5,0
 3313 0166 7A12FFCC 		e_beq %cr0,.L251
 3314              		.loc 1 2348 0 is_stmt 0
 3315 016a 4807     		se_li %r7,0
 3316 016c 00B5     		se_mtctr %r5
 3317 016e 78000016 		e_b .L256
 3318              	.LVL252:
 3319              	.L268:
 3320              		.loc 1 2350 0 is_stmt 1
 3321 0172 50640098 		e_lwz %r3,152(%r4)
 3322 0176 4073     		se_srw %r3,%r7
 3323 0178 67F3     		se_btsti %r3,31
 3324 017a 7A020024 		e_bne %cr0,.L267
 3325              	.L253:
 3326              		.loc 1 2348 0 discriminator 2
 3327 017e 2007     		se_addi %r7,1
 3328              	.LVL253:
 3329 0180 7A30FFB2 		e_bdz .L251
 3330              	.LVL254:
 3331              	.L256:
 3332              		.loc 1 2349 0
 3333 0184 23E7     		se_cmpli %r7,31
 3334 0186 7A01FFEC 		e_ble %cr0,.L268
 3335              		.loc 1 2355 0
 3336 018a 5064009C 		e_lwz %r3,156(%r4)
 3337 018e 18A784E0 		e_addi %r5,%r7,-32
 3338 0192 4053     		se_srw %r3,%r5
 3339 0194 67F3     		se_btsti %r3,31
 3340 0196 7A12FFE8 		e_beq %cr0,.L253
 3341 019a 79FFFF3E 		e_b .L258
 3342              	.L267:
 3343              		.loc 1 2375 0
 3344 019e 50A40050 		e_lwz %r5,80(%r4)
 3345              		.loc 1 2351 0
 3346 01a2 74FF063F 		e_rlwinm %r31,%r7,0,0xff
 3347              	.LVL255:
 3348              		.loc 1 2375 0
 3349 01a6 4817     		se_li %r7,1
 3350              	.LVL256:
 3351 01a8 74E59B18 		e_rlwimi %r5,%r7,19,12,12
 3352 01ac 54A40050 		e_stw %r5,80(%r4)
 3353 01b0 79FFFF42 		e_b .L254
 3354              		.cfi_endproc
 3355              	.LFE15:
 3356              		.size	can_lld_receive, .-can_lld_receive
 3357              		.globl CAND7
 3358              		.section	.bss.CAND7,"aw",@nobits
 3359              		.align 2
 3360              		.set	.LANCHOR0,. + 0
 3361              		.type	CAND7, @object
 3362              		.size	CAND7, 16
 3363              	CAND7:
GAS LISTING C:\Users\Vipuls\AppData\Local\Temp\ccvj9uHc.s 			page 60


 3364 0000 00000000 		.zero	16
 3364      00000000 
 3364      00000000 
 3364      00000000 
 3365              		.section	".text","axv"
 3366              	.Letext0:
 3367              		.file 2 "c:\\autodevkitstudio-2.4.0\\eclipse\\plugins\\com.st.tools.spc5.tools.gnu.gcc.ppcvle.win3
 3368              		.file 3 "c:\\autodevkitstudio-2.4.0\\eclipse\\plugins\\com.st.tools.spc5.tools.gnu.gcc.ppcvle.win3
 3369              		.file 4 "./components/spc58ecxx_platform_component_rla/lib/include/typedefs.h"
 3370              		.file 5 "./components/spc58ecxx_platform_component_rla/lib/include/spc58xcxx.h"
 3371              		.file 6 "./components/spc58ecxx_low_level_drivers_component_rla/lib/include/can_lld.h"
 3372              		.file 7 "./components/spc58ecxx_clock_component_rla/lib/include/clock.h"