GAS LISTING C:\Users\Vipuls\AppData\Local\Temp\cc6371l9.s 			page 1


   1              		.file	"main.c"
   2              		.section	".text","axv"
   3              	.Ltext0:
   4              		.cfi_sections	.debug_frame
   5              		.section	.text.getTemperatureStats,"axv",@progbits
   6              		.align 1
   7              		.p2align 4,,15
   8              		.globl getTemperatureStats
   9              		.type	getTemperatureStats, @function
  10              	getTemperatureStats:
  11              	.LFB3:
  12              		.file 1 "main.c"
  13              		.loc 1 31 0
  14              		.cfi_startproc
  15              	.LVL0:
  16              		.loc 1 32 0
  17 0000 A003     		se_lhz %r0,0(%r3)
  18              		.loc 1 31 0
  19 0002 182106F0 		e_stwu %r1,-16(%r1)
  20              	.LCFI0:
  21              		.cfi_def_cfa_offset 16
  22              		.loc 1 32 0
  23 0006 B004     		se_sth %r0,0(%r4)
  24              		.loc 1 31 0
  25 0008 D3F1     		se_stw %r31,12(%r1)
  26              		.cfi_offset 31, -4
  27              	.LBB2:
  28              		.loc 1 36 0
  29 000a 2A17     		se_cmpi %r7,1
  30              	.LBE2:
  31              		.loc 1 33 0
  32 000c A0F3     		se_lhz %r31,0(%r3)
  33 000e B0F5     		se_sth %r31,0(%r5)
  34              	.LVL1:
  35              	.LBB3:
  36              		.loc 1 36 0
  37 0010 7A010026 		e_ble %cr0,.L2
  38 0014 2407     		se_subi %r7, 1
  39              	.LVL2:
  40 0016 00B7     		se_mtctr %r7
  41              	.LVL3:
  42              	.L6:
  43              		.loc 1 37 0
  44 0018 18030102 		e_lhzu %r0,2(%r3)
  45 001c 0DF0     		se_cmpl %r0,%r31
  46 001e 7A010008 		e_ble %cr0,.L3
  47              		.loc 1 38 0
  48 0022 B005     		se_sth %r0,0(%r5)
  49 0024 A003     		se_lhz %r0,0(%r3)
  50              	.L3:
  51              		.loc 1 40 0
  52 0026 A0F4     		se_lhz %r31,0(%r4)
  53 0028 0D0F     		se_cmpl %r31,%r0
  54 002a 7A010006 		e_ble %cr0,.L4
  55              		.loc 1 41 0
  56 002e B004     		se_sth %r0,0(%r4)
  57              	.L4:
GAS LISTING C:\Users\Vipuls\AppData\Local\Temp\cc6371l9.s 			page 2


  58 0030 A0F5     		se_lhz %r31,0(%r5)
  59              		.loc 1 36 0 discriminator 2
  60 0032 7A20FFE6 		e_bdnz .L6
  61              	.LVL4:
  62              	.L2:
  63              	.LBE3:
  64              		.loc 1 45 0
  65 0036 A074     		se_lhz %r7,0(%r4)
  66 0038 067F     		se_sub %r31, %r7
  67 003a B0F6     		se_sth %r31,0(%r6)
  68              		.loc 1 46 0
  69 003c C3F1     		se_lwz %r31,12(%r1)
  70 003e 20F1     		se_addi %r1,16
  71              	.LCFI1:
  72              		.cfi_restore 31
  73              		.cfi_def_cfa_offset 0
  74 0040 0004     		se_blr
  75              		.cfi_endproc
  76              	.LFE3:
  77              		.size	getTemperatureStats, .-getTemperatureStats
  78              		.globl __fixunssfsi
  79              		.globl __floatunsisf
  80              		.globl __divsf3
  81              		.globl __extendsfdf2
  82              		.globl __adddf3
  83              		.globl __divdf3
  84              		.globl __subdf3
  85              		.globl __muldf3
  86              		.globl __fixunsdfsi
  87              		.section	.text.send_temp_data,"axv",@progbits
  88              		.align 1
  89              		.p2align 4,,15
  90              		.globl send_temp_data
  91              		.type	send_temp_data, @function
  92              	send_temp_data:
  93              	.LFB4:
  94              		.loc 1 48 0
  95              		.cfi_startproc
  96              	.LVL5:
  97 0000 18210690 		e_stwu %r1,-112(%r1)
  98              	.LCFI2:
  99              		.cfi_def_cfa_offset 112
 100 0004 0080     		se_mflr %r0
 101              		.loc 1 53 0
 102 0006 70E00616 		e_li %r7,1558
 103              		.loc 1 48 0
 104 000a 54010074 		e_stw %r0,116(%r1)
 105              		.loc 1 53 0
 106 000e D871     		se_stw %r7,32(%r1)
 107              		.loc 1 48 0
 108 0010 1AE1094C 		e_stmw %r23,76(%r1)
 109              		.cfi_offset 65, 4
 110              		.cfi_offset 23, -36
 111              		.cfi_offset 24, -32
 112              		.cfi_offset 25, -28
 113              		.cfi_offset 26, -24
 114              		.cfi_offset 27, -20
GAS LISTING C:\Users\Vipuls\AppData\Local\Temp\cc6371l9.s 			page 3


 115              		.cfi_offset 28, -16
 116              		.cfi_offset 29, -12
 117              		.cfi_offset 30, -8
 118              		.cfi_offset 31, -4
 119              		.loc 1 48 0
 120 0014 013F     		se_mr %r31,%r3
 121              		.loc 1 52 0
 122 0016 72E00000 		e_li %r23,0
 123              		.loc 1 54 0
 124 001a 4888     		se_li %r24,8
 125              		.loc 1 52 0
 126 001c 36E1001E 		e_stb %r23,30(%r1)
 127              		.loc 1 54 0
 128 0020 37010024 		e_stb %r24,36(%r1)
 129              	.LVL6:
 130              		.loc 1 57 0
 131 0024 5063000C 		e_lwz %r3,12(%r3)
 132              	.LVL7:
 133 0028 78000001 		e_bl __fixunssfsi
 134              	.LVL8:
 135 002c 013B     		se_mr %r27,%r3
 136              	.LVL9:
 137              		.loc 1 58 0
 138 002e 507F0018 		e_lwz %r3,24(%r31)
 139              	.LVL10:
 140 0032 78000001 		e_bl __fixunssfsi
 141              	.LVL11:
 142 0036 013D     		se_mr %r29,%r3
 143              	.LVL12:
 144              		.loc 1 59 0
 145 0038 507F0024 		e_lwz %r3,36(%r31)
 146              	.LVL13:
 147 003c 78000001 		e_bl __fixunssfsi
 148              	.LVL14:
 149 0040 013C     		se_mr %r28,%r3
 150              	.LVL15:
 151              		.loc 1 60 0
 152 0042 507F0030 		e_lwz %r3,48(%r31)
 153              	.LVL16:
 154 0046 78000001 		e_bl __fixunssfsi
 155              	.LVL17:
 156 004a 013E     		se_mr %r30,%r3
 157              	.LVL18:
 158              		.loc 1 56 0
 159 004c 507F0000 		e_lwz %r3,0(%r31)
 160              	.LVL19:
 161              		.loc 1 74 0
 162 0050 2CCF     		se_bmaski %r31,12
 163              	.LVL20:
 164              		.loc 1 56 0
 165 0052 78000001 		e_bl __fixunssfsi
 166              	.LVL21:
 167              		.loc 1 67 0
 168 0056 78000001 		e_bl __floatunsisf
 169              	.LVL22:
 170 005a 7088E61C 		e_lis %r4,0x461c
 171 005e 6514     		se_bseti %r4,17
GAS LISTING C:\Users\Vipuls\AppData\Local\Temp\cc6371l9.s 			page 4


 172 0060 78000001 		e_bl __divsf3
 173              	.LVL23:
 174 0064 78000001 		e_bl __extendsfdf2
 175              	.LVL24:
 176 0068 78000001 		e_bl log
 177              	.LVL25:
 178 006c 70D8E000 		e_lis %r6,0xc000
 179 0070 70A8E02A 		e_lis %r5,0x402a
 180 0074 70B7C18C 		e_or2i %r5,47500
 181 0078 78000001 		e_bl __adddf3
 182              	.LVL26:
 183 007c 0146     		se_mr %r6,%r4
 184 007e 0135     		se_mr %r5,%r3
 185 0080 4804     		se_li %r4,0
 186 0082 7068E0AF 		e_lis %r3,0x40af
 187 0086 6523     		se_bseti %r3,18
 188 0088 78000001 		e_bl __divdf3
 189              	.LVL27:
 190 008c 70A8E071 		e_lis %r5,0x4071
 191 0090 70CCE666 		e_lis %r6,0x6666
 192 0094 70A2C266 		e_or2i %r5,4710
 193 0098 70CCC666 		e_or2i %r6,26214
 194 009c 78000001 		e_bl __subdf3
 195              	.LVL28:
 196 00a0 70A8E024 		e_lis %r5,0x4024
 197 00a4 4806     		se_li %r6,0
 198 00a6 78000001 		e_bl __muldf3
 199              	.LVL29:
 200 00aa 78000001 		e_bl __fixunsdfsi
 201              	.LVL30:
 202 00ae 747A043F 		e_rlwinm %r26,%r3,0,0xffff
 203              	.LVL31:
 204              		.loc 1 68 0
 205 00b2 01B3     		se_mr %r3,%r27
 206              	.LVL32:
 207 00b4 78000001 		e_bl __floatunsisf
 208              	.LVL33:
 209 00b8 7088E61C 		e_lis %r4,0x461c
 210 00bc 6514     		se_bseti %r4,17
 211 00be 78000001 		e_bl __divsf3
 212              	.LVL34:
 213 00c2 78000001 		e_bl __extendsfdf2
 214              	.LVL35:
 215 00c6 78000001 		e_bl log
 216              	.LVL36:
 217 00ca 70D8E000 		e_lis %r6,0xc000
 218 00ce 70A8E02A 		e_lis %r5,0x402a
 219 00d2 70B7C18C 		e_or2i %r5,47500
 220 00d6 78000001 		e_bl __adddf3
 221              	.LVL37:
 222 00da 0146     		se_mr %r6,%r4
 223 00dc 0135     		se_mr %r5,%r3
 224 00de 4804     		se_li %r4,0
 225 00e0 7068E0AF 		e_lis %r3,0x40af
 226 00e4 6523     		se_bseti %r3,18
 227 00e6 78000001 		e_bl __divdf3
 228              	.LVL38:
GAS LISTING C:\Users\Vipuls\AppData\Local\Temp\cc6371l9.s 			page 5


 229 00ea 70A8E071 		e_lis %r5,0x4071
 230 00ee 70CCE666 		e_lis %r6,0x6666
 231 00f2 70A2C266 		e_or2i %r5,4710
 232 00f6 70CCC666 		e_or2i %r6,26214
 233 00fa 78000001 		e_bl __subdf3
 234              	.LVL39:
 235 00fe 70A8E024 		e_lis %r5,0x4024
 236 0102 4806     		se_li %r6,0
 237 0104 78000001 		e_bl __muldf3
 238              	.LVL40:
 239 0108 78000001 		e_bl __fixunsdfsi
 240              	.LVL41:
 241 010c 747B043F 		e_rlwinm %r27,%r3,0,0xffff
 242              	.LVL42:
 243              		.loc 1 69 0
 244 0110 01D3     		se_mr %r3,%r29
 245              	.LVL43:
 246 0112 78000001 		e_bl __floatunsisf
 247              	.LVL44:
 248 0116 7088E61C 		e_lis %r4,0x461c
 249 011a 6514     		se_bseti %r4,17
 250 011c 78000001 		e_bl __divsf3
 251              	.LVL45:
 252 0120 78000001 		e_bl __extendsfdf2
 253              	.LVL46:
 254 0124 78000001 		e_bl log
 255              	.LVL47:
 256 0128 70D8E000 		e_lis %r6,0xc000
 257 012c 70A8E02A 		e_lis %r5,0x402a
 258 0130 70B7C18C 		e_or2i %r5,47500
 259 0134 78000001 		e_bl __adddf3
 260              	.LVL48:
 261 0138 0146     		se_mr %r6,%r4
 262 013a 0135     		se_mr %r5,%r3
 263 013c 4804     		se_li %r4,0
 264 013e 7068E0AF 		e_lis %r3,0x40af
 265 0142 6523     		se_bseti %r3,18
 266 0144 78000001 		e_bl __divdf3
 267              	.LVL49:
 268 0148 70A8E071 		e_lis %r5,0x4071
 269 014c 70CCE666 		e_lis %r6,0x6666
 270 0150 70A2C266 		e_or2i %r5,4710
 271 0154 70CCC666 		e_or2i %r6,26214
 272 0158 78000001 		e_bl __subdf3
 273              	.LVL50:
 274 015c 70A8E024 		e_lis %r5,0x4024
 275 0160 4806     		se_li %r6,0
 276 0162 78000001 		e_bl __muldf3
 277              	.LVL51:
 278 0166 78000001 		e_bl __fixunsdfsi
 279              	.LVL52:
 280 016a 747D043F 		e_rlwinm %r29,%r3,0,0xffff
 281              	.LVL53:
 282              		.loc 1 70 0
 283 016e 01C3     		se_mr %r3,%r28
 284              	.LVL54:
 285 0170 78000001 		e_bl __floatunsisf
GAS LISTING C:\Users\Vipuls\AppData\Local\Temp\cc6371l9.s 			page 6


 286              	.LVL55:
 287 0174 7088E61C 		e_lis %r4,0x461c
 288 0178 6514     		se_bseti %r4,17
 289 017a 78000001 		e_bl __divsf3
 290              	.LVL56:
 291 017e 78000001 		e_bl __extendsfdf2
 292              	.LVL57:
 293 0182 78000001 		e_bl log
 294              	.LVL58:
 295 0186 70D8E000 		e_lis %r6,0xc000
 296 018a 70A8E02A 		e_lis %r5,0x402a
 297 018e 70B7C18C 		e_or2i %r5,47500
 298 0192 78000001 		e_bl __adddf3
 299              	.LVL59:
 300 0196 0146     		se_mr %r6,%r4
 301 0198 0135     		se_mr %r5,%r3
 302 019a 4804     		se_li %r4,0
 303 019c 7068E0AF 		e_lis %r3,0x40af
 304 01a0 6523     		se_bseti %r3,18
 305 01a2 78000001 		e_bl __divdf3
 306              	.LVL60:
 307 01a6 70A8E071 		e_lis %r5,0x4071
 308 01aa 70CCE666 		e_lis %r6,0x6666
 309 01ae 70A2C266 		e_or2i %r5,4710
 310 01b2 70CCC666 		e_or2i %r6,26214
 311 01b6 78000001 		e_bl __subdf3
 312              	.LVL61:
 313 01ba 70A8E024 		e_lis %r5,0x4024
 314 01be 4806     		se_li %r6,0
 315 01c0 78000001 		e_bl __muldf3
 316              	.LVL62:
 317 01c4 78000001 		e_bl __fixunsdfsi
 318              	.LVL63:
 319 01c8 747C043F 		e_rlwinm %r28,%r3,0,0xffff
 320              	.LVL64:
 321              		.loc 1 71 0
 322 01cc 01E3     		se_mr %r3,%r30
 323              	.LVL65:
 324              		.loc 1 76 0
 325 01ce 7FBEC070 		e_slwi %r30,%r29,24
 326              	.LVL66:
 327              		.loc 1 71 0
 328 01d2 78000001 		e_bl __floatunsisf
 329              	.LVL67:
 330 01d6 7088E61C 		e_lis %r4,0x461c
 331 01da 6514     		se_bseti %r4,17
 332 01dc 78000001 		e_bl __divsf3
 333              	.LVL68:
 334 01e0 78000001 		e_bl __extendsfdf2
 335              	.LVL69:
 336 01e4 78000001 		e_bl log
 337              	.LVL70:
 338 01e8 70D8E000 		e_lis %r6,0xc000
 339 01ec 70A8E02A 		e_lis %r5,0x402a
 340 01f0 70B7C18C 		e_or2i %r5,47500
 341 01f4 78000001 		e_bl __adddf3
 342              	.LVL71:
GAS LISTING C:\Users\Vipuls\AppData\Local\Temp\cc6371l9.s 			page 7


 343 01f8 0146     		se_mr %r6,%r4
 344 01fa 0135     		se_mr %r5,%r3
 345 01fc 4804     		se_li %r4,0
 346 01fe 7068E0AF 		e_lis %r3,0x40af
 347 0202 6523     		se_bseti %r3,18
 348 0204 78000001 		e_bl __divdf3
 349              	.LVL72:
 350 0208 70A8E071 		e_lis %r5,0x4071
 351 020c 70CCE666 		e_lis %r6,0x6666
 352 0210 70A2C266 		e_or2i %r5,4710
 353 0214 70CCC666 		e_or2i %r6,26214
 354 0218 78000001 		e_bl __subdf3
 355              	.LVL73:
 356 021c 70A8E024 		e_lis %r5,0x4024
 357 0220 4806     		se_li %r6,0
 358 0222 78000001 		e_bl __muldf3
 359              	.LVL74:
 360 0226 78000001 		e_bl __fixunsdfsi
 361              	.LVL75:
 362              		.loc 1 82 0
 363 022a 18A1801C 		e_addi %r5,%r1,28
 364              		.loc 1 71 0
 365 022e 7479043F 		e_rlwinm %r25,%r3,0,0xffff
 366              	.LVL76:
 367              		.loc 1 74 0
 368 0232 7F40F838 		and %r0,%r26,%r31
 369              		.loc 1 75 0
 370 0236 7F6BF838 		and %r11,%r27,%r31
 371              		.loc 1 78 0
 372 023a 7FA7F838 		and %r7,%r29,%r31
 373              		.loc 1 75 0
 374 023e 7D6B6070 		e_slwi %r11,%r11,12
 375              		.loc 1 80 0
 376 0242 7F26F838 		and %r6,%r25,%r31
 377              		.loc 1 82 0
 378 0246 2C84     		se_bmaski %r4,8
 379              		.loc 1 80 0
 380 0248 6D06     		se_slwi %r6, 16
 381              		.loc 1 79 0
 382 024a 77832437 		e_rlwinm %r3,%r28,4,16,27
 383              	.LVL77:
 384 024e 44E0     		se_or %r0,%r30
 385              		.loc 1 78 0
 386 0250 6A87     		se_srawi %r7, 8
 387              		.loc 1 75 0
 388 0252 7C005B78 		or %r0,%r0,%r11
 389              		.loc 1 78 0
 390 0256 4437     		se_or %r7,%r3
 391              		.loc 1 74 0
 392 0258 DA01     		se_stw %r0,40(%r1)
 393              		.loc 1 79 0
 394 025a 4467     		se_or %r7,%r6
 395              		.loc 1 82 0
 396 025c 73C0E000 		e_lis %r30,CAND7@ha
 397              		.loc 1 78 0
 398 0260 DB71     		se_stw %r7,44(%r1)
 399              		.loc 1 82 0
GAS LISTING C:\Users\Vipuls\AppData\Local\Temp\cc6371l9.s 			page 8


 400 0262 1FDE0000 		e_la %r30,CAND7@l(%r30)
 401 0266 01E3     		se_mr %r3,%r30
 402 0268 78000001 		e_bl can_lld_transmit
 403              	.LVL78:
 404              		.loc 1 83 0
 405 026c 4B23     		se_li %r3,50
 406 026e 78000001 		e_bl osalThreadDelayMilliseconds
 407              	.LVL79:
 408              		.loc 1 89 0
 409 0272 36E1000A 		e_stb %r23,10(%r1)
 410              		.loc 1 91 0
 411 0276 37010010 		e_stb %r24,16(%r1)
 412              		.loc 1 93 0
 413 027a 5F410030 		e_sth %r26,48(%r1)
 414 027e 5F610032 		e_sth %r27,50(%r1)
 415 0282 5FA10034 		e_sth %r29,52(%r1)
 416 0286 5F810036 		e_sth %r28,54(%r1)
 417 028a 5F210038 		e_sth %r25,56(%r1)
 418              		.loc 1 97 0
 419 028e 18618030 		e_addi %r3,%r1,48
 420 0292 1881803C 		e_addi %r4,%r1,60
 421 0296 18A1803E 		e_addi %r5,%r1,62
 422 029a 18C1803A 		e_addi %r6,%r1,58
 423              		.loc 1 90 0
 424 029e 70E00615 		e_li %r7,1557
 425 02a2 D371     		se_stw %r7,12(%r1)
 426              		.loc 1 97 0
 427 02a4 4857     		se_li %r7,5
 428 02a6 78000001 		e_bl getTemperatureStats
 429              	.LVL80:
 430              		.loc 1 101 0
 431 02aa 58A1003A 		e_lhz %r5,58(%r1)
 432              		.loc 1 99 0
 433 02ae 58C1003E 		e_lhz %r6,62(%r1)
 434              		.loc 1 101 0
 435 02b2 7CA4C070 		e_slwi %r4,%r5,24
 436              		.loc 1 100 0
 437 02b6 58E1003C 		e_lhz %r7,60(%r1)
 438              		.loc 1 99 0
 439 02ba 46F6     		se_and %r6,%r31
 440              		.loc 1 100 0
 441 02bc 46F7     		se_and %r7,%r31
 442 02be 4446     		se_or %r6,%r4
 443              		.loc 1 103 0
 444 02c0 465F     		se_and %r31,%r5
 445              		.loc 1 105 0
 446 02c2 01E3     		se_mr %r3,%r30
 447 02c4 18A18008 		e_addi %r5,%r1,8
 448              		.loc 1 103 0
 449 02c8 6A8F     		se_srawi %r31, 8
 450              		.loc 1 105 0
 451 02ca 2C84     		se_bmaski %r4,8
 452              		.loc 1 103 0
 453 02cc D6F1     		se_stw %r31,24(%r1)
 454              		.loc 1 100 0
 455 02ce 6CC7     		se_slwi %r7, 12
 456 02d0 4467     		se_or %r7,%r6
GAS LISTING C:\Users\Vipuls\AppData\Local\Temp\cc6371l9.s 			page 9


 457              		.loc 1 99 0
 458 02d2 D571     		se_stw %r7,20(%r1)
 459              		.loc 1 105 0
 460 02d4 78000001 		e_bl can_lld_transmit
 461              	.LVL81:
 462              		.loc 1 106 0
 463 02d8 4B23     		se_li %r3,50
 464 02da 78000001 		e_bl osalThreadDelayMilliseconds
 465              	.LVL82:
 466              		.loc 1 108 0
 467 02de 50010074 		e_lwz %r0,116(%r1)
 468 02e2 0090     		se_mtlr %r0
 469              		.cfi_restore 65
 470 02e4 1AE1084C 		e_lmw %r23,76(%r1)
 471              	.LVL83:
 472 02e8 18218070 		e_addi %r1,%r1,112
 473              	.LCFI3:
 474              		.cfi_restore 31
 475              		.cfi_restore 30
 476              		.cfi_restore 29
 477              		.cfi_restore 28
 478              		.cfi_restore 27
 479              		.cfi_restore 26
 480              		.cfi_restore 25
 481              		.cfi_restore 24
 482              		.cfi_restore 23
 483              		.cfi_def_cfa_offset 0
 484 02ec 0004     		se_blr
 485              		.cfi_endproc
 486              	.LFE4:
 487              		.size	send_temp_data, .-send_temp_data
 488              		.globl __mulsf3
 489              		.section	.text.send_cell_voltages_CAN,"axv",@progbits
 490              		.align 1
 491              		.p2align 4,,15
 492              		.globl send_cell_voltages_CAN
 493              		.type	send_cell_voltages_CAN, @function
 494              	send_cell_voltages_CAN:
 495              	.LFB5:
 496              		.loc 1 110 0
 497              		.cfi_startproc
 498              	.LVL84:
 499 0000 18210690 		e_stwu %r1,-112(%r1)
 500              	.LCFI4:
 501              		.cfi_def_cfa_offset 112
 502 0004 0080     		se_mflr %r0
 503              		.loc 1 118 0
 504 0006 4887     		se_li %r7,8
 505              		.loc 1 110 0
 506 0008 54010074 		e_stw %r0,116(%r1)
 507              		.loc 1 118 0
 508 000c 34E10024 		e_stb %r7,36(%r1)
 509              		.loc 1 125 0
 510 0010 34E10010 		e_stb %r7,16(%r1)
 511              	.LVL85:
 512              		.loc 1 117 0
 513 0014 70A00602 		e_li %r5,1538
GAS LISTING C:\Users\Vipuls\AppData\Local\Temp\cc6371l9.s 			page 10


 514              		.loc 1 110 0
 515 0018 1A61093C 		e_stmw %r19,60(%r1)
 516              	.LVL86:
 517              		.cfi_offset 65, 4
 518              		.cfi_offset 19, -52
 519              		.cfi_offset 20, -48
 520              		.cfi_offset 21, -44
 521              		.cfi_offset 22, -40
 522              		.cfi_offset 23, -36
 523              		.cfi_offset 24, -32
 524              		.cfi_offset 25, -28
 525              		.cfi_offset 26, -24
 526              		.cfi_offset 27, -20
 527              		.cfi_offset 28, -16
 528              		.cfi_offset 29, -12
 529              		.cfi_offset 30, -8
 530              		.cfi_offset 31, -4
 531              		.loc 1 117 0
 532 001c D851     		se_stw %r5,32(%r1)
 533              		.loc 1 110 0
 534 001e 013F     		se_mr %r31,%r3
 535              		.loc 1 116 0
 536 0020 4806     		se_li %r6,0
 537              		.loc 1 132 0
 538 0022 7088E2C8 		e_lis %r4,0x42c8
 539              		.loc 1 116 0
 540 0026 34C1001E 		e_stb %r6,30(%r1)
 541              		.loc 1 123 0
 542 002a 9A61     		se_stb %r6,10(%r1)
 543              		.loc 1 132 0
 544 002c 50630044 		e_lwz %r3,68(%r3)
 545              	.LVL87:
 546              		.loc 1 124 0
 547 0030 70C00603 		e_li %r6,1539
 548 0034 D361     		se_stw %r6,12(%r1)
 549              		.loc 1 132 0
 550 0036 78000001 		e_bl __mulsf3
 551              	.LVL88:
 552 003a 78000001 		e_bl __fixunssfsi
 553              	.LVL89:
 554              		.loc 1 133 0
 555 003e 7088E2C8 		e_lis %r4,0x42c8
 556              		.loc 1 132 0
 557 0042 747A043F 		e_rlwinm %r26,%r3,0,0xffff
 558              	.LVL90:
 559              		.loc 1 133 0
 560 0046 507F0048 		e_lwz %r3,72(%r31)
 561              	.LVL91:
 562              		.loc 1 152 0
 563 004a 7F55D870 		e_slwi %r21,%r26,27
 564              		.loc 1 133 0
 565 004e 78000001 		e_bl __mulsf3
 566              	.LVL92:
 567              		.loc 1 155 0
 568 0052 775ADEFF 		e_rlwinm %r26,%r26,27,27,31
 569              	.LVL93:
 570              		.loc 1 133 0
GAS LISTING C:\Users\Vipuls\AppData\Local\Temp\cc6371l9.s 			page 11


 571 0056 78000001 		e_bl __fixunssfsi
 572              	.LVL94:
 573              		.loc 1 134 0
 574 005a 7088E2C8 		e_lis %r4,0x42c8
 575              		.loc 1 133 0
 576 005e 7476043F 		e_rlwinm %r22,%r3,0,0xffff
 577              	.LVL95:
 578              		.loc 1 134 0
 579 0062 507F004C 		e_lwz %r3,76(%r31)
 580              	.LVL96:
 581              		.loc 1 156 0
 582 0066 76D624F7 		e_rlwinm %r22,%r22,4,19,27
 583              	.LVL97:
 584              		.loc 1 134 0
 585 006a 78000001 		e_bl __mulsf3
 586              	.LVL98:
 587              		.loc 1 155 0
 588 006e 7EDAD378 		or %r26,%r22,%r26
 589              		.loc 1 134 0
 590 0072 78000001 		e_bl __fixunssfsi
 591              	.LVL99:
 592              		.loc 1 135 0
 593 0076 7088E2C8 		e_lis %r4,0x42c8
 594              		.loc 1 134 0
 595 007a 7478043F 		e_rlwinm %r24,%r3,0,0xffff
 596              	.LVL100:
 597              		.loc 1 135 0
 598 007e 507F0050 		e_lwz %r3,80(%r31)
 599              	.LVL101:
 600              		.loc 1 157 0
 601 0082 77186AA5 		e_rlwinm %r24,%r24,13,10,18
 602              	.LVL102:
 603              		.loc 1 135 0
 604 0086 78000001 		e_bl __mulsf3
 605              	.LVL103:
 606              		.loc 1 156 0
 607 008a 448A     		se_or %r26,%r24
 608              		.loc 1 135 0
 609 008c 78000001 		e_bl __fixunssfsi
 610              	.LVL104:
 611              		.loc 1 139 0
 612 0090 7088E2C8 		e_lis %r4,0x42c8
 613              		.loc 1 135 0
 614 0094 7477043F 		e_rlwinm %r23,%r3,0,0xffff
 615              	.LVL105:
 616              		.loc 1 139 0
 617 0098 507F0054 		e_lwz %r3,84(%r31)
 618              	.LVL106:
 619 009c 78000001 		e_bl __mulsf3
 620              	.LVL107:
 621 00a0 78000001 		e_bl __fixunssfsi
 622              	.LVL108:
 623              		.loc 1 140 0
 624 00a4 7088E2C8 		e_lis %r4,0x42c8
 625              		.loc 1 139 0
 626 00a8 7473043F 		e_rlwinm %r19,%r3,0,0xffff
 627              	.LVL109:
GAS LISTING C:\Users\Vipuls\AppData\Local\Temp\cc6371l9.s 			page 12


 628              		.loc 1 140 0
 629 00ac 507F0058 		e_lwz %r3,88(%r31)
 630              	.LVL110:
 631 00b0 78000001 		e_bl __mulsf3
 632              	.LVL111:
 633 00b4 78000001 		e_bl __fixunssfsi
 634              	.LVL112:
 635              		.loc 1 141 0
 636 00b8 7088E2C8 		e_lis %r4,0x42c8
 637              		.loc 1 140 0
 638 00bc 747C043F 		e_rlwinm %r28,%r3,0,0xffff
 639              	.LVL113:
 640              		.loc 1 141 0
 641 00c0 507F005C 		e_lwz %r3,92(%r31)
 642              	.LVL114:
 643 00c4 78000001 		e_bl __mulsf3
 644              	.LVL115:
 645 00c8 78000001 		e_bl __fixunssfsi
 646              	.LVL116:
 647              		.loc 1 142 0
 648 00cc 7088E2C8 		e_lis %r4,0x42c8
 649              		.loc 1 141 0
 650 00d0 747D043F 		e_rlwinm %r29,%r3,0,0xffff
 651              	.LVL117:
 652              		.loc 1 142 0
 653 00d4 507F0060 		e_lwz %r3,96(%r31)
 654              	.LVL118:
 655 00d8 78000001 		e_bl __mulsf3
 656              	.LVL119:
 657 00dc 78000001 		e_bl __fixunssfsi
 658              	.LVL120:
 659              		.loc 1 143 0
 660 00e0 7088E2C8 		e_lis %r4,0x42c8
 661              		.loc 1 142 0
 662 00e4 747B043F 		e_rlwinm %r27,%r3,0,0xffff
 663              	.LVL121:
 664              		.loc 1 143 0
 665 00e8 507F0064 		e_lwz %r3,100(%r31)
 666              	.LVL122:
 667 00ec 78000001 		e_bl __mulsf3
 668              	.LVL123:
 669 00f0 78000001 		e_bl __fixunssfsi
 670              	.LVL124:
 671              		.loc 1 144 0
 672 00f4 7088E2C8 		e_lis %r4,0x42c8
 673              		.loc 1 143 0
 674 00f8 7479043F 		e_rlwinm %r25,%r3,0,0xffff
 675              	.LVL125:
 676              		.loc 1 144 0
 677 00fc 507F0068 		e_lwz %r3,104(%r31)
 678              	.LVL126:
 679 0100 78000001 		e_bl __mulsf3
 680              	.LVL127:
 681 0104 78000001 		e_bl __fixunssfsi
 682              	.LVL128:
 683              		.loc 1 145 0
 684 0108 7088E2C8 		e_lis %r4,0x42c8
GAS LISTING C:\Users\Vipuls\AppData\Local\Temp\cc6371l9.s 			page 13


 685              		.loc 1 144 0
 686 010c 747E043F 		e_rlwinm %r30,%r3,0,0xffff
 687              	.LVL129:
 688              		.loc 1 145 0
 689 0110 507F006C 		e_lwz %r3,108(%r31)
 690              	.LVL130:
 691 0114 78000001 		e_bl __mulsf3
 692              	.LVL131:
 693 0118 78000001 		e_bl __fixunssfsi
 694              	.LVL132:
 695              		.loc 1 129 0
 696 011c 7088E2C8 		e_lis %r4,0x42c8
 697              		.loc 1 145 0
 698 0120 7474043F 		e_rlwinm %r20,%r3,0,0xffff
 699              	.LVL133:
 700              		.loc 1 129 0
 701 0124 507F0038 		e_lwz %r3,56(%r31)
 702              	.LVL134:
 703 0128 78000001 		e_bl __mulsf3
 704              	.LVL135:
 705 012c 78000001 		e_bl __fixunssfsi
 706              	.LVL136:
 707              		.loc 1 130 0
 708 0130 7088E2C8 		e_lis %r4,0x42c8
 709              		.loc 1 149 0
 710 0134 746505FF 		e_rlwinm %r5,%r3,0,23,31
 711              		.loc 1 130 0
 712 0138 507F003C 		e_lwz %r3,60(%r31)
 713 013c 7EB52B78 		or %r21,%r21,%r5
 714 0140 78000001 		e_bl __mulsf3
 715              	.LVL137:
 716 0144 78000001 		e_bl __fixunssfsi
 717              	.LVL138:
 718              		.loc 1 131 0
 719 0148 7088E2C8 		e_lis %r4,0x42c8
 720              		.loc 1 150 0
 721 014c 74654BAD 		e_rlwinm %r5,%r3,9,14,22
 722              		.loc 1 131 0
 723 0150 507F0040 		e_lwz %r3,64(%r31)
 724 0154 7EBF2B78 		or %r31,%r21,%r5
 725              	.LVL139:
 726 0158 78000001 		e_bl __mulsf3
 727              	.LVL140:
 728 015c 78000001 		e_bl __fixunssfsi
 729              	.LVL141:
 730              		.loc 1 163 0
 731 0160 7F60D870 		e_slwi %r0,%r27,27
 732              		.loc 1 158 0
 733 0164 2C97     		se_bmaski %r7,9
 734              		.loc 1 171 0
 735 0166 18A1801C 		e_addi %r5,%r1,28
 736 016a 2C84     		se_bmaski %r4,8
 737              		.loc 1 160 0
 738 016c 7E663838 		and %r6,%r19,%r7
 739              		.loc 1 161 0
 740 0170 467C     		se_and %r28,%r7
 741              	.LVL142:
GAS LISTING C:\Users\Vipuls\AppData\Local\Temp\cc6371l9.s 			page 14


 742 0172 4406     		se_or %r6,%r0
 743              		.loc 1 162 0
 744 0174 467D     		se_and %r29,%r7
 745              	.LVL143:
 746              		.loc 1 167 0
 747 0176 4679     		se_and %r25,%r7
 748              	.LVL144:
 749              		.loc 1 168 0
 750 0178 467E     		se_and %r30,%r7
 751              	.LVL145:
 752              		.loc 1 167 0
 753 017a 6C49     		se_slwi %r25, 4
 754              		.loc 1 169 0
 755 017c 7E873838 		and %r7,%r20,%r7
 756              		.loc 1 151 0
 757 0180 7463915B 		e_rlwinm %r3,%r3,18,5,13
 758              		.loc 1 161 0
 759 0184 6C9C     		se_slwi %r28, 9
 760              		.loc 1 151 0
 761 0186 44F3     		se_or %r3,%r31
 762 0188 446C     		se_or %r28,%r6
 763              		.loc 1 149 0
 764 018a DA31     		se_stw %r3,40(%r1)
 765              		.loc 1 162 0
 766 018c 6D2D     		se_slwi %r29, 18
 767              		.loc 1 158 0
 768 018e 76E3B053 		e_rlwinm %r3,%r23,22,1,9
 769              		.loc 1 162 0
 770 0192 44CD     		se_or %r29,%r28
 771              		.loc 1 157 0
 772 0194 443A     		se_or %r26,%r3
 773              		.loc 1 160 0
 774 0196 D5D1     		se_stw %r29,20(%r1)
 775              		.loc 1 155 0
 776 0198 DBA1     		se_stw %r26,44(%r1)
 777              		.loc 1 168 0
 778 019a 6CDE     		se_slwi %r30, 13
 779              		.loc 1 169 0
 780 019c 6D67     		se_slwi %r7, 22
 781              		.loc 1 166 0
 782 019e 777BDEFF 		e_rlwinm %r27,%r27,27,27,31
 783              	.LVL146:
 784              		.loc 1 171 0
 785 01a2 73E0E000 		e_lis %r31,CAND7@ha
 786              		.loc 1 166 0
 787 01a6 449B     		se_or %r27,%r25
 788              		.loc 1 171 0
 789 01a8 1FFF0000 		e_la %r31,CAND7@l(%r31)
 790              		.loc 1 167 0
 791 01ac 44BE     		se_or %r30,%r27
 792              		.loc 1 171 0
 793 01ae 01F3     		se_mr %r3,%r31
 794              		.loc 1 168 0
 795 01b0 44E7     		se_or %r7,%r30
 796              		.loc 1 166 0
 797 01b2 D671     		se_stw %r7,24(%r1)
 798              		.loc 1 171 0
GAS LISTING C:\Users\Vipuls\AppData\Local\Temp\cc6371l9.s 			page 15


 799 01b4 78000001 		e_bl can_lld_transmit
 800              	.LVL147:
 801              		.loc 1 172 0
 802 01b8 4B23     		se_li %r3,50
 803 01ba 78000001 		e_bl osalThreadDelayMilliseconds
 804              	.LVL148:
 805              		.loc 1 173 0
 806 01be 18A18008 		e_addi %r5,%r1,8
 807 01c2 01F3     		se_mr %r3,%r31
 808 01c4 2C84     		se_bmaski %r4,8
 809 01c6 78000001 		e_bl can_lld_transmit
 810              	.LVL149:
 811              		.loc 1 174 0
 812 01ca 4B23     		se_li %r3,50
 813 01cc 78000001 		e_bl osalThreadDelayMilliseconds
 814              	.LVL150:
 815              		.loc 1 175 0
 816 01d0 50010074 		e_lwz %r0,116(%r1)
 817 01d4 0090     		se_mtlr %r0
 818              		.cfi_restore 65
 819 01d6 1A61083C 		e_lmw %r19,60(%r1)
 820              	.LVL151:
 821 01da 18218070 		e_addi %r1,%r1,112
 822              	.LCFI5:
 823              		.cfi_restore 31
 824              		.cfi_restore 30
 825              		.cfi_restore 29
 826              		.cfi_restore 28
 827              		.cfi_restore 27
 828              		.cfi_restore 26
 829              		.cfi_restore 25
 830              		.cfi_restore 24
 831              		.cfi_restore 23
 832              		.cfi_restore 22
 833              		.cfi_restore 21
 834              		.cfi_restore 20
 835              		.cfi_restore 19
 836              		.cfi_def_cfa_offset 0
 837 01de 0004     		se_blr
 838              		.cfi_endproc
 839              	.LFE5:
 840              		.size	send_cell_voltages_CAN, .-send_cell_voltages_CAN
 841              		.globl __fixsfsi
 842              		.section	.text.main_core0,"axv",@progbits
 843              		.align 1
 844              		.p2align 4,,15
 845              		.globl main_core0
 846              		.type	main_core0, @function
 847              	main_core0:
 848              	.LFB6:
 849              		.loc 1 178 0
 850              		.cfi_startproc
 851              	.LVL152:
 852 0000 701F7D20 		e_li %r0,-736
 853 0004 7C21016E 		stwux %r1,%r1,%r0
 854              	.LCFI6:
 855              		.cfi_def_cfa_offset 736
GAS LISTING C:\Users\Vipuls\AppData\Local\Temp\cc6371l9.s 			page 16


 856 0008 0080     		se_mflr %r0
 857 000a 562102A4 		e_stw %r17,676(%r1)
 858 000e 540102E4 		e_stw %r0,740(%r1)
 859 0012 564102A8 		e_stw %r18,680(%r1)
 860 0016 566102AC 		e_stw %r19,684(%r1)
 861 001a 568102B0 		e_stw %r20,688(%r1)
 862 001e 56A102B4 		e_stw %r21,692(%r1)
 863 0022 56C102B8 		e_stw %r22,696(%r1)
 864 0026 56E102BC 		e_stw %r23,700(%r1)
 865 002a 570102C0 		e_stw %r24,704(%r1)
 866 002e 572102C4 		e_stw %r25,708(%r1)
 867 0032 574102C8 		e_stw %r26,712(%r1)
 868 0036 576102CC 		e_stw %r27,716(%r1)
 869 003a 578102D0 		e_stw %r28,720(%r1)
 870 003e 57A102D4 		e_stw %r29,724(%r1)
 871 0042 57C102D8 		e_stw %r30,728(%r1)
 872 0046 57E102DC 		e_stw %r31,732(%r1)
 873              		.cfi_offset 65, 4
 874              		.cfi_offset 17, -60
 875              		.cfi_offset 18, -56
 876              		.cfi_offset 19, -52
 877              		.cfi_offset 20, -48
 878              		.cfi_offset 21, -44
 879              		.cfi_offset 22, -40
 880              		.cfi_offset 23, -36
 881              		.cfi_offset 24, -32
 882              		.cfi_offset 25, -28
 883              		.cfi_offset 26, -24
 884              		.cfi_offset 27, -20
 885              		.cfi_offset 28, -16
 886              		.cfi_offset 29, -12
 887              		.cfi_offset 30, -8
 888              		.cfi_offset 31, -4
 889              		.loc 1 183 0
 890              	 # 183 "main.c" 1
 891 004a 7C008146 		wrteei  1
 892              	 # 0 "" 2
 893              		.loc 1 184 0
 894 004e 73A0E000 		e_lis %r29,SD5@ha
 895 0052 7080E000 		e_lis %r4,serial_config_BMS_serial@ha
 896 0056 1FBD0000 		e_la %r29,SD5@l(%r29)
 897 005a 1C840000 		e_la %r4,serial_config_BMS_serial@l(%r4)
 898 005e 01D3     		se_mr %r3,%r29
 899              		.loc 1 191 0
 900 0060 1AE18008 		e_addi %r23,%r1,8
 901              		.loc 1 184 0
 902 0064 78000001 		e_bl sd_lld_start
 903              	.LVL153:
 904              		.loc 1 191 0
 905 0068 72C0E000 		e_lis %r22,.LANCHOR0@ha
 906              		.loc 1 185 0
 907 006c 7060E000 		e_lis %r3,CAND7@ha
 908 0070 7080E000 		e_lis %r4,can_config_mcanconf@ha
 909 0074 1C630000 		e_la %r3,CAND7@l(%r3)
 910 0078 1C840000 		e_la %r4,can_config_mcanconf@l(%r4)
 911              		.loc 1 198 0
 912 007c 7280E000 		e_lis %r20,.LC0@ha
GAS LISTING C:\Users\Vipuls\AppData\Local\Temp\cc6371l9.s 			page 17


 913              		.loc 1 202 0
 914 0080 7340E000 		e_lis %r26,.LC1@ha
 915              		.loc 1 205 0
 916 0084 7300E000 		e_lis %r24,.LC2@ha
 917              		.loc 1 209 0
 918 0088 7360E000 		e_lis %r27,.LC3@ha
 919              		.loc 1 216 0
 920 008c 7380E000 		e_lis %r28,.LC4@ha
 921              		.loc 1 222 0
 922 0090 72A0E000 		e_lis %r21,.LC5@ha
 923 0094 1B37B41A 		e_subfic %r25, %r23, -230
 924              		.loc 1 185 0
 925 0098 78000001 		e_bl can_lld_start
 926              	.LVL154:
 927              		.loc 1 191 0
 928 009c 1ED60000 		e_la %r22,.LANCHOR0@l(%r22)
 929              		.loc 1 198 0
 930 00a0 1E940000 		e_la %r20,.LC0@l(%r20)
 931              		.loc 1 202 0
 932 00a4 1F5A0000 		e_la %r26,.LC1@l(%r26)
 933              		.loc 1 205 0
 934 00a8 1F180000 		e_la %r24,.LC2@l(%r24)
 935              		.loc 1 209 0
 936 00ac 1F7B0000 		e_la %r27,.LC3@l(%r27)
 937              		.loc 1 216 0
 938 00b0 1F9C0000 		e_la %r28,.LC4@l(%r28)
 939              		.loc 1 222 0
 940 00b4 1EB50000 		e_la %r21,.LC5@l(%r21)
 941              	.LVL155:
 942              	.L17:
 943              		.loc 1 190 0
 944 00b8 73E2E062 		e_lis %r31,0x1062
 945 00bc 73E9C5D3 		e_or2i %r31,19923
 946              	.L13:
 947 00c0 78000001 		e_bl osalThreadGetMilliseconds
 948              	.LVL156:
 949 00c4 7CE3F816 		mulhwu %r7,%r3,%r31
 950 00c8 6857     		se_srwi %r7,5
 951 00ca 7007A1F4 		e_mull2i %r7,500
 952 00ce 0C73     		se_cmp %r3,%r7
 953 00d0 7A02FFF0 		e_bne %cr0,.L13
 954              		.loc 1 198 0
 955 00d4 1FE10144 		e_add16i %r31,%r1,324
 956              		.loc 1 191 0
 957 00d8 30960000 		e_lbz %r4,0(%r22)
 958 00dc 1C610160 		e_add16i %r3,%r1,352
 959 00e0 1A778074 		e_addi %r19,%r23,116
 960 00e4 78000001 		e_bl AEK_POW_BMS63EN_GetModule
 961              	.LVL157:
 962 00e8 1A2180B4 		e_addi %r17,%r1,180
 963 00ec 1C810160 		e_add16i %r4,%r1,352
 964 00f0 70A0013C 		e_li %r5,316
 965 00f4 03F3     		se_mfar %r3,%r23
 966              		.loc 1 199 0
 967 00f6 481E     		se_li %r30,1
 968              		.loc 1 191 0
 969 00f8 78000001 		e_bl memcpy
GAS LISTING C:\Users\Vipuls\AppData\Local\Temp\cc6371l9.s 			page 18


 970              	.LVL158:
 971              		.loc 1 202 0
 972 00fc 7248E2C8 		e_lis %r18,0x42c8
 973              		.loc 1 194 0
 974 0100 03F3     		se_mfar %r3,%r23
 975 0102 78000001 		e_bl send_cell_voltages_CAN
 976              	.LVL159:
 977              		.loc 1 195 0
 978 0106 03F3     		se_mfar %r3,%r23
 979 0108 78000001 		e_bl send_temp_data
 980              	.LVL160:
 981              		.loc 1 198 0
 982 010c 30B60000 		e_lbz %r5,0(%r22)
 983 0110 03C4     		se_mfar %r4,%r20
 984 0112 2005     		se_addi %r5,1
 985 0114 01F3     		se_mr %r3,%r31
 986 0116 78000001 		e_bl sprintf
 987              	.LVL161:
 988              		.loc 1 199 0
 989 011a 01D3     		se_mr %r3,%r29
 990 011c 01F4     		se_mr %r4,%r31
 991 011e 48B5     		se_li %r5,11
 992 0120 78000001 		e_bl sd_lld_write
 993              	.LVL162:
 994              	.L14:
 995              		.loc 1 202 0 discriminator 3
 996 0124 03A4     		se_mfar %r4,%r18
 997 0126 18730204 		e_lwzu %r3,4(%r19)
 998 012a 78000001 		e_bl __mulsf3
 999              	.LVL163:
 1000 012e 78000001 		e_bl __fixsfsi
 1001              	.LVL164:
 1002 0132 01E5     		se_mr %r5,%r30
 1003 0134 0136     		se_mr %r6,%r3
 1004 0136 01A4     		se_mr %r4,%r26
 1005 0138 01F3     		se_mr %r3,%r31
 1006 013a 200E     		se_addi %r30,1
 1007              	.LVL165:
 1008 013c 78000001 		e_bl sprintf
 1009              	.LVL166:
 1010              		.loc 1 203 0 discriminator 3
 1011 0140 01D3     		se_mr %r3,%r29
 1012 0142 01F4     		se_mr %r4,%r31
 1013 0144 48B5     		se_li %r5,11
 1014 0146 78000001 		e_bl sd_lld_write
 1015              	.LVL167:
 1016              		.loc 1 201 0 discriminator 3
 1017 014a 7C138840 		cmpl %cr0,%r19,%r17
 1018 014e 7A02FFD6 		e_bne %cr0,.L14
 1019              		.loc 1 205 0
 1020 0152 C058     		se_lwz %r5,0(%r24)
 1021 0154 C168     		se_lwz %r6,4(%r24)
 1022 0156 C278     		se_lwz %r7,8(%r24)
 1023 0158 D05F     		se_stw %r5,0(%r31)
 1024 015a D16F     		se_stw %r6,4(%r31)
 1025 015c D27F     		se_stw %r7,8(%r31)
 1026              		.loc 1 206 0
GAS LISTING C:\Users\Vipuls\AppData\Local\Temp\cc6371l9.s 			page 19


 1027 015e 01D3     		se_mr %r3,%r29
 1028 0160 01F4     		se_mr %r4,%r31
 1029 0162 48B5     		se_li %r5,11
 1030 0164 1BC180EF 		e_addi %r30,%r1,239
 1031 0168 78000001 		e_bl sd_lld_write
 1032              	.LVL168:
 1033 016c 1A6180FD 		e_addi %r19,%r1,253
 1034              	.LVL169:
 1035              	.L15:
 1036 0170 7CB9F214 		add %r5,%r25,%r30
 1037              		.loc 1 209 0 discriminator 3
 1038 0174 01B4     		se_mr %r4,%r27
 1039 0176 18DE0001 		e_lbzu %r6,1(%r30)
 1040              	.LVL170:
 1041 017a 01F3     		se_mr %r3,%r31
 1042 017c 78000001 		e_bl sprintf
 1043              	.LVL171:
 1044              		.loc 1 210 0 discriminator 3
 1045 0180 01D3     		se_mr %r3,%r29
 1046 0182 01F4     		se_mr %r4,%r31
 1047 0184 48B5     		se_li %r5,11
 1048 0186 78000001 		e_bl sd_lld_write
 1049              	.LVL172:
 1050              		.loc 1 208 0 discriminator 3
 1051 018a 7C1E9840 		cmpl %cr0,%r30,%r19
 1052 018e 7A02FFE2 		e_bne %cr0,.L15
 1053              		.loc 1 212 0
 1054 0192 C058     		se_lwz %r5,0(%r24)
 1055 0194 C168     		se_lwz %r6,4(%r24)
 1056 0196 C278     		se_lwz %r7,8(%r24)
 1057 0198 D05F     		se_stw %r5,0(%r31)
 1058 019a D16F     		se_stw %r6,4(%r31)
 1059 019c D27F     		se_stw %r7,8(%r31)
 1060              		.loc 1 213 0
 1061 019e 01D3     		se_mr %r3,%r29
 1062 01a0 01F4     		se_mr %r4,%r31
 1063 01a2 48B5     		se_li %r5,11
 1064 01a4 1A778034 		e_addi %r19,%r23,52
 1065 01a8 78000001 		e_bl sd_lld_write
 1066              	.LVL173:
 1067 01ac 1A57806C 		e_addi %r18,%r23,108
 1068 01b0 481E     		se_li %r30,1
 1069              	.LVL174:
 1070              	.L16:
 1071              		.loc 1 216 0 discriminator 3
 1072 01b2 18730204 		e_lwzu %r3,4(%r19)
 1073 01b6 78000001 		e_bl __extendsfdf2
 1074              	.LVL175:
 1075 01ba 01E5     		se_mr %r5,%r30
 1076 01bc 0240     		se_mtar %r8,%r4
 1077 01be 0137     		se_mr %r7,%r3
 1078 01c0 01C4     		se_mr %r4,%r28
 1079 01c2 01F3     		se_mr %r3,%r31
 1080 01c4 200E     		se_addi %r30,1
 1081              	.LVL176:
 1082 01c6 78000001 		e_bl sprintf
 1083              	.LVL177:
GAS LISTING C:\Users\Vipuls\AppData\Local\Temp\cc6371l9.s 			page 20


 1084              		.loc 1 217 0 discriminator 3
 1085 01ca 01D3     		se_mr %r3,%r29
 1086 01cc 01F4     		se_mr %r4,%r31
 1087 01ce 48B5     		se_li %r5,11
 1088 01d0 78000001 		e_bl sd_lld_write
 1089              	.LVL178:
 1090              		.loc 1 215 0 discriminator 3
 1091 01d4 7C139040 		cmpl %cr0,%r19,%r18
 1092 01d8 7A02FFDA 		e_bne %cr0,.L16
 1093              		.loc 1 219 0
 1094 01dc C168     		se_lwz %r6,4(%r24)
 1095 01de C278     		se_lwz %r7,8(%r24)
 1096 01e0 C058     		se_lwz %r5,0(%r24)
 1097 01e2 D16F     		se_stw %r6,4(%r31)
 1098 01e4 D27F     		se_stw %r7,8(%r31)
 1099 01e6 D05F     		se_stw %r5,0(%r31)
 1100              		.loc 1 220 0
 1101 01e8 01F4     		se_mr %r4,%r31
 1102 01ea 48B5     		se_li %r5,11
 1103 01ec 01D3     		se_mr %r3,%r29
 1104 01ee 78000001 		e_bl sd_lld_write
 1105              	.LVL179:
 1106              		.loc 1 222 0
 1107 01f2 50610008 		e_lwz %r3,8(%r1)
 1108 01f6 78000001 		e_bl __extendsfdf2
 1109              	.LVL180:
 1110 01fa 0146     		se_mr %r6,%r4
 1111 01fc 0135     		se_mr %r5,%r3
 1112 01fe 03D4     		se_mfar %r4,%r21
 1113 0200 01F3     		se_mr %r3,%r31
 1114 0202 78000001 		e_bl sprintf
 1115              	.LVL181:
 1116              		.loc 1 223 0
 1117 0206 01D3     		se_mr %r3,%r29
 1118 0208 01F4     		se_mr %r4,%r31
 1119 020a 48B5     		se_li %r5,11
 1120 020c 78000001 		e_bl sd_lld_write
 1121              	.LVL182:
 1122 0210 79FFFEA8 		e_b .L17
 1123              		.cfi_endproc
 1124              	.LFE6:
 1125              		.size	main_core0, .-main_core0
 1126              		.section	.text.sbrk,"axv",@progbits
 1127              		.align 1
 1128              		.p2align 4,,15
 1129              		.globl sbrk
 1130              		.type	sbrk, @function
 1131              	sbrk:
 1132              	.LFB7:
 1133              		.loc 1 231 0
 1134              		.cfi_startproc
 1135              	.LVL183:
 1136              		.loc 1 237 0
 1137 0000 70C0E000 		e_lis %r6,.LANCHOR2@ha
 1138 0004 70A0E000 		e_lis %r5,.LANCHOR1@ha
 1139 0008 50E50000 		e_lwz %r7,.LANCHOR1@l(%r5)
 1140 000c 0437     		se_add %r7,%r3
GAS LISTING C:\Users\Vipuls\AppData\Local\Temp\cc6371l9.s 			page 21


 1141              		.loc 1 240 0
 1142 000e 2C03     		se_bmaski %r3,0
 1143              	.LVL184:
 1144              		.loc 1 237 0
 1145 0010 54E60000 		e_stw %r7,.LANCHOR2@l(%r6)
 1146              		.loc 1 238 0
 1147 0014 70C0E000 		e_lis %r6,__heap_end__@ha
 1148 0018 1CC60000 		e_la %r6,__heap_end__@l(%r6)
 1149 001c 0D67     		se_cmpl %r7,%r6
 1150 001e 7A11000A 		e_bgt %cr0,.L23
 1151              		.loc 1 242 0
 1152 0022 54E50000 		e_stw %r7,.LANCHOR1@l(%r5)
 1153 0026 0173     		se_mr %r3,%r7
 1154              	.L23:
 1155              		.loc 1 243 0
 1156 0028 0004     		se_blr
 1157              		.cfi_endproc
 1158              	.LFE7:
 1159              		.size	sbrk, .-sbrk
 1160              		.section	.text.int28_irq_cb,"axv",@progbits
 1161              		.align 1
 1162              		.p2align 4,,15
 1163              		.globl int28_irq_cb
 1164              		.type	int28_irq_cb, @function
 1165              	int28_irq_cb:
 1166              	.LFB8:
 1167              		.loc 1 247 0
 1168              		.cfi_startproc
 1169              	.LVL185:
 1170              		.loc 1 249 0
 1171 0000 70C0E000 		e_lis %r6,.LANCHOR0@ha
 1172 0004 30E60000 		e_lbz %r7,.LANCHOR0@l(%r6)
 1173 0008 2007     		se_addi %r7,1
 1174 000a 00C7     		se_extzb %r7
 1175 000c 34E60000 		e_stb %r7,.LANCHOR0@l(%r6)
 1176              		.loc 1 250 0
 1177 0010 30E60000 		e_lbz %r7,.LANCHOR0@l(%r6)
 1178 0014 2207     		se_cmpli %r7,1
 1179 0016 7A120006 		e_beq %cr0,.L27
 1180 001a 0004     		se_blr
 1181              	.L27:
 1182              		.loc 1 250 0 is_stmt 0 discriminator 1
 1183 001c 4807     		se_li %r7,0
 1184 001e 34E60000 		e_stb %r7,.LANCHOR0@l(%r6)
 1185 0022 0004     		se_blr
 1186              		.cfi_endproc
 1187              	.LFE8:
 1188              		.size	int28_irq_cb, .-int28_irq_cb
 1189              		.globl __eabi
 1190              		.section	.text.startup.main,"axv",@progbits
 1191              		.align 1
 1192              		.p2align 4,,15
 1193              		.globl main
 1194              		.type	main, @function
 1195              	main:
 1196              	.LFB9:
 1197              		.loc 1 255 0 is_stmt 1
GAS LISTING C:\Users\Vipuls\AppData\Local\Temp\cc6371l9.s 			page 22


 1198              		.cfi_startproc
 1199 0000 182106F8 		e_stwu %r1,-8(%r1)
 1200              	.LCFI7:
 1201              		.cfi_def_cfa_offset 8
 1202 0004 0080     		se_mflr %r0
 1203 0006 D301     		se_stw %r0,12(%r1)
 1204              		.cfi_offset 65, 4
 1205              		.loc 1 255 0
 1206 0008 78000001 		e_bl __eabi
 1207              	.LVL186:
 1208              		.loc 1 257 0
 1209 000c 78000001 		e_bl componentsInit
 1210              	.LVL187:
 1211              		.loc 1 258 0
 1212              	 # 258 "main.c" 1
 1213 0010 7C008146 		wrteei  1
 1214              	 # 0 "" 2
 1215              		.loc 1 259 0
 1216 0014 7060E000 		e_lis %r3,WKPUD1@ha
 1217 0018 7080E000 		e_lis %r4,wkpu_config_wkpu_cfg@ha
 1218 001c 1C630000 		e_la %r3,WKPUD1@l(%r3)
 1219 0020 1C840000 		e_la %r4,wkpu_config_wkpu_cfg@l(%r4)
 1220 0024 78000001 		e_bl wkpu_lld_start
 1221              	.LVL188:
 1222              		.loc 1 261 0
 1223 0028 78000001 		e_bl AEK_POW_BMS63EN_init
 1224              	.LVL189:
 1225              		.loc 1 262 0
 1226 002c 78000001 		e_bl runCore0
 1227              	.LVL190:
 1228              		.loc 1 263 0
 1229 0030 78000001 		e_bl AEK_POW_BMS63EN_Start_Mgn_exec
 1230              	.LVL191:
 1231              	.L29:
 1232              		.loc 1 267 0 discriminator 1
 1233 0034 78000000 		e_b .L29
 1234              		.cfi_endproc
 1235              	.LFE9:
 1236              		.size	main, .-main
 1237              		.globl i_device_disp
 1238              		.section	.data.p.22810,"aw",@progbits
 1239              		.align 2
 1240              		.set	.LANCHOR1,. + 0
 1241              		.type	p.22810, @object
 1242              		.size	p.22810, 4
 1243              	p.22810:
 1244 0000 00000000 		.long	__heap_base__
 1245              		.section	.bss.newp.22811,"aw",@nobits
 1246              		.align 2
 1247              		.set	.LANCHOR2,. + 0
 1248              		.type	newp.22811, @object
 1249              		.size	newp.22811, 4
 1250              	newp.22811:
 1251 0000 00000000 		.zero	4
 1252              		.section	.rodata.str1.4,"aMS",@progbits,1
 1253              		.align 2
 1254              	.LC0:
GAS LISTING C:\Users\Vipuls\AppData\Local\Temp\cc6371l9.s 			page 23


 1255 0000 4445563A 		.string	"DEV:%d     \n"
 1255      25642020 
 1255      2020200A 
 1255      00
 1256 000d 000000   		.zero	3
 1257              	.LC1:
 1258 0010 53252E32 		.string	"S%.2d:%.3d    "
 1258      643A252E 
 1258      33642020 
 1258      202000
 1259 001f 00       		.zero	1
 1260              	.LC2:
 1261 0020 20202020 		.string	"          \n"
 1261      20202020 
 1261      20200A00 
 1262              	.LC3:
 1263 002c 42252E32 		.string	"B%.2d:%.3d    "
 1263      643A252E 
 1263      33642020 
 1263      202000
 1264 003b 00       		.zero	1
 1265              	.LC4:
 1266 003c 56252E32 		.string	"V%.2d:%.3f  "
 1266      643A252E 
 1266      33662020 
 1266      00
 1267 0049 000000   		.zero	3
 1268              	.LC5:
 1269 004c 543A252E 		.string	"T:%.4f    \n"
 1269      34662020 
 1269      20200A00 
 1270              		.section	.bss.i_device_disp,"aw",@nobits
 1271              		.set	.LANCHOR0,. + 0
 1272              		.type	i_device_disp, @object
 1273              		.size	i_device_disp, 1
 1274              	i_device_disp:
 1275 0000 00       		.zero	1
 1276              		.section	".text","axv"
 1277              	.Letext0:
 1278              		.file 2 "c:\\autodevkitstudio-2.4.0\\eclipse\\plugins\\com.st.tools.spc5.tools.gnu.gcc.ppcvle.win3
 1279              		.file 3 "c:\\autodevkitstudio-2.4.0\\eclipse\\plugins\\com.st.tools.spc5.tools.gnu.gcc.ppcvle.win3
 1280              		.file 4 "c:\\autodevkitstudio-2.4.0\\eclipse\\plugins\\com.st.tools.spc5.tools.gnu.gcc.ppcvle.win3
 1281              		.file 5 "./components/spc58ecxx_platform_component_rla/lib/include/typedefs.h"
 1282              		.file 6 "./components/spc58ecxx_platform_component_rla/lib/include/spc58xcxx.h"
 1283              		.file 7 "./components/spc58ecxx_low_level_drivers_component_rla/lib/include/spc5_linflex.h"
 1284              		.file 8 "./components/spc58ecxx_low_level_drivers_component_rla/lib/include/serial_lld.h"
 1285              		.file 9 "./components/spc58ecxx_low_level_drivers_component_rla/lib/include/can_lld.h"
 1286              		.file 10 "./components/spc58ecxx_low_level_drivers_component_rla/lib/include/spc5_wkpu.h"
 1287              		.file 11 "./components/spc58ecxx_low_level_drivers_component_rla/lib/include/wkpu_lld.h"
 1288              		.file 12 "./components/aek_pow_bms63en_component_rla/lib/include/AEK_POW_BMS63EN_lld.h"
 1289              		.file 13 "./components/aek_pow_bms63en_component_rla/lib/include/AEK_POW_BMS63EN_id.h"
 1290              		.file 14 "./source/AEK_POW_BMS63EN_Appl.h"
 1291              		.file 15 "./components/spc58ecxx_low_level_drivers_component_rla/cfg/wkpu_lld_cfg.h"
 1292              		.file 16 "./components/spc58ecxx_low_level_drivers_component_rla/cfg/serial_lld_cfg.h"
 1293              		.file 17 "./components/spc58ecxx_low_level_drivers_component_rla/cfg/can_lld_cfg.h"
 1294              		.file 18 "./components/spc58ecxx_osal_component_rla/lib/include/osal.h"
 1295              		.file 19 "c:\\autodevkitstudio-2.4.0\\eclipse\\plugins\\com.st.tools.spc5.tools.gnu.gcc.ppcvle.win
GAS LISTING C:\Users\Vipuls\AppData\Local\Temp\cc6371l9.s 			page 24


 1296              		.file 20 "./components/components.h"
 1297              		.file 21 "./components/spc58ecxx_platform_component_rla/lib/include/core0.h"
 1298              		.file 22 "c:\\autodevkitstudio-2.4.0\\eclipse\\plugins\\com.st.tools.spc5.tools.gnu.gcc.ppcvle.win