GAS LISTING C:\Users\Vipuls\AppData\Local\Temp\ccGkOgjf.s 			page 1


   1              		.file	"osal.c"
   2              		.section	".text","axv"
   3              	.Ltext0:
   4              		.cfi_sections	.debug_frame
   5              		.section	.text.osalSysTimeDelayTicks,"axv",@progbits
   6              		.align 1
   7              		.p2align 4,,15
   8              		.type	osalSysTimeDelayTicks, @function
   9              	osalSysTimeDelayTicks:
  10              	.LFB12:
  11              		.file 1 "./components/spc58ecxx_osal_component_rla/lib/src/osal.c"
  12              		.loc 1 229 0
  13              		.cfi_startproc
  14              	.LVL0:
  15              		.loc 1 233 0
  16 0000 70C0E000 		e_lis %r6,.LANCHOR0@ha
  17 0004 50E60000 		e_lwz %r7,.LANCHOR0@l(%r6)
  18              	.LVL1:
  19              		.loc 1 234 0
  20 0008 1CC60000 		e_la %r6,.LANCHOR0@l(%r6)
  21 000c 0473     		se_add %r3,%r7
  22              	.LVL2:
  23              	.L2:
  24              		.loc 1 234 0 is_stmt 0 discriminator 1
  25 000e C076     		se_lwz %r7,0(%r6)
  26 0010 0D37     		se_cmpl %r7,%r3
  27 0012 7A10FFFC 		e_blt %cr0,.L2
  28              		.loc 1 237 0 is_stmt 1
  29 0016 0004     		se_blr
  30              		.cfi_endproc
  31              	.LFE12:
  32              		.size	osalSysTimeDelayTicks, .-osalSysTimeDelayTicks
  33              		.section	.text.osalSysTimeGetTicks,"axv",@progbits
  34              		.align 1
  35              		.p2align 4,,15
  36              		.type	osalSysTimeGetTicks, @function
  37              	osalSysTimeGetTicks:
  38              	.LFB13:
  39              		.loc 1 246 0
  40              		.cfi_startproc
  41              		.loc 1 248 0
  42 0000 70E0E000 		e_lis %r7,.LANCHOR0@ha
  43 0004 50670000 		e_lwz %r3,.LANCHOR0@l(%r7)
  44              		.loc 1 249 0
  45 0008 0004     		se_blr
  46              		.cfi_endproc
  47              	.LFE13:
  48              		.size	osalSysTimeGetTicks, .-osalSysTimeGetTicks
  49              		.section	.text.osalIsrEnable,"axv",@progbits
  50              		.align 1
  51              		.p2align 4,,15
  52              		.type	osalIsrEnable, @function
  53              	osalIsrEnable:
  54              	.LFB15:
  55              		.loc 1 276 0
  56              		.cfi_startproc
  57              		.loc 1 278 0
GAS LISTING C:\Users\Vipuls\AppData\Local\Temp\ccGkOgjf.s 			page 2


  58 0000 70A0E000 		e_lis %r5,.LANCHOR1@ha
  59              		.loc 1 279 0
  60 0004 70C0E000 		e_lis %r6,.LANCHOR2@ha
  61              		.loc 1 278 0
  62 0008 50E50000 		e_lwz %r7,.LANCHOR1@l(%r5)
  63              		.loc 1 279 0
  64 000c 50C60000 		e_lwz %r6,.LANCHOR2@l(%r6)
  65              		.loc 1 278 0
  66 0010 18E784FF 		e_addi %r7,%r7,-1
  67              		.loc 1 279 0
  68 0014 2A06     		se_cmpi %r6,0
  69              		.loc 1 278 0
  70 0016 54E50000 		e_stw %r7,.LANCHOR1@l(%r5)
  71              		.loc 1 279 0
  72 001a 7A12000E 		e_beq %cr0,.L6
  73              		.loc 1 279 0 is_stmt 0 discriminator 1
  74 001e 2A07     		se_cmpi %r7,0
  75 0020 7A020008 		e_bne %cr0,.L6
  76              		.loc 1 280 0 is_stmt 1
  77              	 # 280 "./components/spc58ecxx_osal_component_rla/lib/src/osal.c" 1
  78 0024 7C008146 		wrteei  1
  79              	 # 0 "" 2
  80              	.L6:
  81 0028 0004     		se_blr
  82              		.cfi_endproc
  83              	.LFE15:
  84              		.size	osalIsrEnable, .-osalIsrEnable
  85              		.section	.text.osalIsrDisable,"axv",@progbits
  86              		.align 1
  87              		.p2align 4,,15
  88              		.type	osalIsrDisable, @function
  89              	osalIsrDisable:
  90              	.LFB14:
  91              		.loc 1 260 0
  92              		.cfi_startproc
  93              		.loc 1 262 0
  94 0000 70C0E000 		e_lis %r6,.LANCHOR1@ha
  95 0004 50E60000 		e_lwz %r7,.LANCHOR1@l(%r6)
  96 0008 2007     		se_addi %r7,1
  97 000a 54E60000 		e_stw %r7,.LANCHOR1@l(%r6)
  98              		.loc 1 263 0
  99 000e 2207     		se_cmpli %r7,1
 100 0010 7A120006 		e_beq %cr0,.L12
 101              	.L8:
 102 0014 0004     		se_blr
 103              	.L12:
 104              	.LVL3:
 105              	.LBB66:
 106              	.LBB67:
 107              	.LBB68:
 108              	.LBB69:
 109              	.LBB70:
 110              		.file 2 "./components/spc58ecxx_irq_component_rla/lib/include/irq.h"
 111              		.loc 2 87 0
 112              	 # 87 "./components/spc58ecxx_irq_component_rla/lib/include/irq.h" 1
 113 0016 7CE000A6 		mfmsr %r7
 114              	 # 0 "" 2
GAS LISTING C:\Users\Vipuls\AppData\Local\Temp\ccGkOgjf.s 			page 3


 115              	.LVL4:
 116              	.LBE70:
 117              	.LBE69:
 118              	.LBE68:
 119              	.LBE67:
 120              		.loc 1 264 0
 121 001a 70C0E000 		e_lis %r6,.LANCHOR2@ha
 122              	.LBB72:
 123              	.LBB71:
 124              		.loc 2 104 0
 125 001e 74E78FFF 		e_rlwinm %r7,%r7,17,31,31
 126              	.LVL5:
 127              	.LBE71:
 128              	.LBE72:
 129              		.loc 1 264 0
 130 0022 54E60000 		e_stw %r7,.LANCHOR2@l(%r6)
 131              		.loc 1 265 0
 132 0026 2A07     		se_cmpi %r7,0
 133 0028 7A12FFEC 		e_beq %cr0,.L8
 134              		.loc 1 266 0
 135              	 # 266 "./components/spc58ecxx_osal_component_rla/lib/src/osal.c" 1
 136 002c 7C000146 		wrteei  0
 137              	 # 0 "" 2
 138 0030 0004     		se_blr
 139              	.LBE66:
 140              		.cfi_endproc
 141              	.LFE14:
 142              		.size	osalIsrDisable, .-osalIsrDisable
 143              		.section	.text.osalSysTimeSetup,"axv",@progbits
 144              		.align 1
 145              		.p2align 4,,15
 146              		.globl osalSysTimeSetup
 147              		.type	osalSysTimeSetup, @function
 148              	osalSysTimeSetup:
 149              	.LFB3:
 150              		.loc 1 102 0
 151              		.cfi_startproc
 152              	.LVL6:
 153 0000 182106F8 		e_stwu %r1,-8(%r1)
 154              	.LCFI0:
 155              		.cfi_def_cfa_offset 8
 156 0004 0080     		se_mflr %r0
 157              		.loc 1 104 0
 158 0006 70E0E000 		e_lis %r7,.LANCHOR3@ha
 159              		.loc 1 102 0
 160 000a D301     		se_stw %r0,12(%r1)
 161              		.cfi_offset 65, 4
 162              		.loc 1 104 0
 163 000c 54670000 		e_stw %r3,.LANCHOR3@l(%r7)
 164              		.loc 1 106 0
 165 0010 78000001 		e_bl sysTimeSetup
 166              	.LVL7:
 167              		.loc 1 109 0
 168 0014 C301     		se_lwz %r0,12(%r1)
 169 0016 0090     		se_mtlr %r0
 170              		.cfi_restore 65
 171              		.loc 1 108 0
GAS LISTING C:\Users\Vipuls\AppData\Local\Temp\ccGkOgjf.s 			page 4


 172 0018 7060E000 		e_lis %r3,.LANCHOR0@ha
 173              		.loc 1 109 0
 174 001c 1C630000 		e_la %r3,.LANCHOR0@l(%r3)
 175 0020 2071     		se_addi %r1,8
 176              	.LCFI1:
 177              		.cfi_def_cfa_offset 0
 178 0022 0004     		se_blr
 179              		.cfi_endproc
 180              	.LFE3:
 181              		.size	osalSysTimeSetup, .-osalSysTimeSetup
 182              		.section	.text.osalSysTimeReset,"axv",@progbits
 183              		.align 1
 184              		.p2align 4,,15
 185              		.globl osalSysTimeReset
 186              		.type	osalSysTimeReset, @function
 187              	osalSysTimeReset:
 188              	.LFB4:
 189              		.loc 1 117 0
 190              		.cfi_startproc
 191              		.loc 1 120 0
 192              		.loc 1 119 0
 193 0000 78000000 		e_b sysTimeReset
 194              	.LVL8:
 195              		.cfi_endproc
 196              	.LFE4:
 197              		.size	osalSysTimeReset, .-osalSysTimeReset
 198              		.section	.text.vector226,"axv",@progbits
 199              		.align 1
 200              		.p2align 4,,15
 201              		.globl vector226
 202              		.type	vector226, @function
 203              	vector226:
 204              	.LFB16:
 205              		.loc 1 296 0
 206              		.cfi_startproc
 207 0000 182106E8 		e_stwu %r1,-24(%r1)
 208              	.LCFI2:
 209              		.cfi_def_cfa_offset 24
 210 0004 0080     		se_mflr %r0
 211              	.LBB73:
 212              	.LBB74:
 213              	.LBB75:
 214              	.LBB76:
 215              		.file 3 "./components/spc58ecxx_osal_component_rla/cfg/osal_cfg.h"
 216              		.loc 3 100 0
 217 0006 2C07     		se_bmaski %r7,0
 218              	.LBE76:
 219              	.LBE75:
 220              	.LBE74:
 221              	.LBE73:
 222              		.loc 1 296 0
 223 0008 D701     		se_stw %r0,28(%r1)
 224              		.cfi_offset 65, 4
 225              	.LBB80:
 226              	.LBB79:
 227              	.LBB78:
 228              	.LBB77:
GAS LISTING C:\Users\Vipuls\AppData\Local\Temp\ccGkOgjf.s 			page 5


 229              		.loc 3 100 0
 230 000a 9971     		se_stb %r7,9(%r1)
 231              		.loc 3 101 0
 232              	 # 101 "./components/spc58ecxx_osal_component_rla/cfg/osal_cfg.h" 1
 233 000c 7CDE42A6 		mfspr %r6, 286
 234              	 # 0 "" 2
 235              		.loc 3 102 0
 236 0010 4827     		se_li %r7,2
 237              		.loc 3 101 0
 238 0012 9961     		se_stb %r6,9(%r1)
 239              		.loc 3 102 0
 240 0014 8961     		se_lbz %r6,9(%r1)
 241 0016 2216     		se_cmpli %r6,2
 242 0018 7A110006 		e_bgt %cr0,.L16
 243 001c 8971     		se_lbz %r7,9(%r1)
 244              	.L16:
 245              	.LBE77:
 246              	.LBE78:
 247              		.loc 1 420 0
 248 001e 6C47     		se_slwi %r7, 4
 249 0020 70C0E000 		e_lis %r6,.LANCHOR4@ha
 250 0024 1CC60000 		e_la %r6,.LANCHOR4@l(%r6)
 251 0028 7CE63A14 		add %r7,%r6,%r7
 252 002c C277     		se_lwz %r7,8(%r7)
 253 002e 00B7     		se_mtctr %r7
 254 0030 0007     		se_bctrl
 255              	.LVL9:
 256              	.LBE79:
 257              	.LBE80:
 258              		.loc 1 302 0
 259 0032 70C0E000 		e_lis %r6,.LANCHOR0@ha
 260 0036 50E60000 		e_lwz %r7,.LANCHOR0@l(%r6)
 261 003a 2007     		se_addi %r7,1
 262 003c 54E60000 		e_stw %r7,.LANCHOR0@l(%r6)
 263              	.LBB81:
 264              	.LBB82:
 265              	.LBB83:
 266              	.LBB84:
 267              		.loc 3 100 0
 268 0040 2C07     		se_bmaski %r7,0
 269 0042 9871     		se_stb %r7,8(%r1)
 270              		.loc 3 101 0
 271              	 # 101 "./components/spc58ecxx_osal_component_rla/cfg/osal_cfg.h" 1
 272 0044 7CDE42A6 		mfspr %r6, 286
 273              	 # 0 "" 2
 274              		.loc 3 102 0
 275 0048 4827     		se_li %r7,2
 276              		.loc 3 101 0
 277 004a 9861     		se_stb %r6,8(%r1)
 278              		.loc 3 102 0
 279 004c 8861     		se_lbz %r6,8(%r1)
 280 004e 2216     		se_cmpli %r6,2
 281 0050 7A110006 		e_bgt %cr0,.L17
 282 0054 8871     		se_lbz %r7,8(%r1)
 283              	.L17:
 284              	.LBE84:
 285              	.LBE83:
GAS LISTING C:\Users\Vipuls\AppData\Local\Temp\ccGkOgjf.s 			page 6


 286              		.loc 1 432 0
 287 0056 6C47     		se_slwi %r7, 4
 288 0058 70C0E000 		e_lis %r6,.LANCHOR4@ha
 289 005c 1CC60000 		e_la %r6,.LANCHOR4@l(%r6)
 290 0060 7CE63A14 		add %r7,%r6,%r7
 291 0064 C377     		se_lwz %r7,12(%r7)
 292 0066 00B7     		se_mtctr %r7
 293 0068 0007     		se_bctrl
 294              	.LVL10:
 295              	.LBE82:
 296              	.LBE81:
 297              	.LBB85:
 298              	.LBB86:
 299              		.loc 1 119 0
 300 006a 78000001 		e_bl sysTimeReset
 301              	.LVL11:
 302              	.LBE86:
 303              	.LBE85:
 304              		.loc 1 309 0
 305 006e C701     		se_lwz %r0,28(%r1)
 306 0070 0090     		se_mtlr %r0
 307              		.cfi_restore 65
 308 0072 2171     		se_addi %r1,24
 309              	.LCFI3:
 310              		.cfi_def_cfa_offset 0
 311 0074 0004     		se_blr
 312              		.cfi_endproc
 313              	.LFE16:
 314              		.size	vector226, .-vector226
 315              		.section	.text.osalThreadDelaySeconds,"axv",@progbits
 316              		.align 1
 317              		.p2align 4,,15
 318              		.globl osalThreadDelaySeconds
 319              		.type	osalThreadDelaySeconds, @function
 320              	osalThreadDelaySeconds:
 321              	.LFB17:
 322              		.loc 1 328 0
 323              		.cfi_startproc
 324              	.LVL12:
 325 0000 182106E8 		e_stwu %r1,-24(%r1)
 326              	.LCFI4:
 327              		.cfi_def_cfa_offset 24
 328 0004 0080     		se_mflr %r0
 329              	.LBB87:
 330              	.LBB88:
 331              		.loc 3 100 0
 332 0006 2C07     		se_bmaski %r7,0
 333              	.LBE88:
 334              	.LBE87:
 335              		.loc 1 328 0
 336 0008 D701     		se_stw %r0,28(%r1)
 337              		.cfi_offset 65, 4
 338              	.LBB90:
 339              	.LBB89:
 340              		.loc 3 100 0
 341 000a 9871     		se_stb %r7,8(%r1)
 342              		.loc 3 101 0
GAS LISTING C:\Users\Vipuls\AppData\Local\Temp\ccGkOgjf.s 			page 7


 343              	 # 101 "./components/spc58ecxx_osal_component_rla/cfg/osal_cfg.h" 1
 344 000c 7CDE42A6 		mfspr %r6, 286
 345              	 # 0 "" 2
 346              		.loc 3 102 0
 347 0010 4827     		se_li %r7,2
 348              		.loc 3 101 0
 349 0012 9861     		se_stb %r6,8(%r1)
 350              		.loc 3 102 0
 351 0014 8861     		se_lbz %r6,8(%r1)
 352 0016 2216     		se_cmpli %r6,2
 353 0018 7A110006 		e_bgt %cr0,.L21
 354 001c 8871     		se_lbz %r7,8(%r1)
 355              	.L21:
 356              	.LVL13:
 357              	.LBE89:
 358              	.LBE90:
 359              	.LBB91:
 360              	.LBB92:
 361              		.loc 1 133 0
 362 001e 70C0E000 		e_lis %r6,.LANCHOR3@ha
 363              	.LBE92:
 364              	.LBE91:
 365              		.loc 1 329 0
 366 0022 6C47     		se_slwi %r7, 4
 367              	.LBB94:
 368              	.LBB93:
 369              		.loc 1 133 0
 370 0024 50C60000 		e_lwz %r6,.LANCHOR3@l(%r6)
 371              	.LBE93:
 372              	.LBE94:
 373              		.loc 1 329 0
 374 0028 0563     		se_mullw %r3,%r6
 375              	.LVL14:
 376 002a 70C0E000 		e_lis %r6,.LANCHOR4@ha
 377 002e 1CC60000 		e_la %r6,.LANCHOR4@l(%r6)
 378 0032 7CE6382E 		lwzx %r7,%r6,%r7
 379 0036 00B7     		se_mtctr %r7
 380 0038 0007     		se_bctrl
 381              	.LVL15:
 382              		.loc 1 330 0
 383 003a C701     		se_lwz %r0,28(%r1)
 384 003c 0090     		se_mtlr %r0
 385              		.cfi_restore 65
 386 003e 2171     		se_addi %r1,24
 387              	.LCFI5:
 388              		.cfi_def_cfa_offset 0
 389 0040 0004     		se_blr
 390              		.cfi_endproc
 391              	.LFE17:
 392              		.size	osalThreadDelaySeconds, .-osalThreadDelaySeconds
 393              		.section	.text.osalThreadDelayMilliseconds,"axv",@progbits
 394              		.align 1
 395              		.p2align 4,,15
 396              		.globl osalThreadDelayMilliseconds
 397              		.type	osalThreadDelayMilliseconds, @function
 398              	osalThreadDelayMilliseconds:
 399              	.LFB18:
GAS LISTING C:\Users\Vipuls\AppData\Local\Temp\ccGkOgjf.s 			page 8


 400              		.loc 1 342 0
 401              		.cfi_startproc
 402              	.LVL16:
 403 0000 182106E8 		e_stwu %r1,-24(%r1)
 404              	.LCFI6:
 405              		.cfi_def_cfa_offset 24
 406 0004 0080     		se_mflr %r0
 407              	.LBB95:
 408              	.LBB96:
 409              		.loc 3 100 0
 410 0006 2C07     		se_bmaski %r7,0
 411              	.LBE96:
 412              	.LBE95:
 413              		.loc 1 342 0
 414 0008 D701     		se_stw %r0,28(%r1)
 415              		.cfi_offset 65, 4
 416              	.LBB98:
 417              	.LBB97:
 418              		.loc 3 100 0
 419 000a 9871     		se_stb %r7,8(%r1)
 420              		.loc 3 101 0
 421              	 # 101 "./components/spc58ecxx_osal_component_rla/cfg/osal_cfg.h" 1
 422 000c 7CBE42A6 		mfspr %r5, 286
 423              	 # 0 "" 2
 424              		.loc 3 102 0
 425 0010 4826     		se_li %r6,2
 426              		.loc 3 101 0
 427 0012 9851     		se_stb %r5,8(%r1)
 428              		.loc 3 102 0
 429 0014 8851     		se_lbz %r5,8(%r1)
 430 0016 2215     		se_cmpli %r5,2
 431 0018 7A110006 		e_bgt %cr0,.L24
 432 001c 8861     		se_lbz %r6,8(%r1)
 433              	.L24:
 434              	.LBE97:
 435              	.LBE98:
 436              		.loc 1 343 0
 437 001e 6C46     		se_slwi %r6, 4
 438 0020 70A0E000 		e_lis %r5,.LANCHOR4@ha
 439              	.LBB99:
 440              	.LBB100:
 441              		.loc 1 147 0
 442 0024 4807     		se_li %r7,0
 443              	.LBE100:
 444              	.LBE99:
 445              		.loc 1 343 0
 446 0026 1CA50000 		e_la %r5,.LANCHOR4@l(%r5)
 447              	.LBB103:
 448              	.LBB101:
 449              		.loc 1 147 0
 450 002a 2A03     		se_cmpi %r3,0
 451              	.LBE101:
 452              	.LBE103:
 453              		.loc 1 343 0
 454 002c 7CA5302E 		lwzx %r5,%r5,%r6
 455              	.LVL17:
 456              	.LBB104:
GAS LISTING C:\Users\Vipuls\AppData\Local\Temp\ccGkOgjf.s 			page 9


 457              	.LBB102:
 458              		.loc 1 147 0
 459 0030 7A120022 		e_beq %cr0,.L25
 460              		.loc 1 148 0
 461 0034 70E0E000 		e_lis %r7,.LANCHOR3@ha
 462 0038 70C2E062 		e_lis %r6,0x1062
 463 003c 50E70000 		e_lwz %r7,.LANCHOR3@l(%r7)
 464 0040 70C9C5D3 		e_or2i %r6,19923
 465 0044 0537     		se_mullw %r7,%r3
 466 0046 18E784FF 		e_addi %r7,%r7,-1
 467 004a 7CE73016 		mulhwu %r7,%r7,%r6
 468 004e 6867     		se_srwi %r7,6
 469              		.loc 1 147 0
 470 0050 2007     		se_addi %r7,1
 471              	.L25:
 472              	.LBE102:
 473              	.LBE104:
 474              		.loc 1 343 0
 475 0052 0173     		se_mr %r3,%r7
 476              	.LVL18:
 477 0054 00B5     		se_mtctr %r5
 478 0056 0007     		se_bctrl
 479              	.LVL19:
 480              		.loc 1 344 0
 481 0058 C701     		se_lwz %r0,28(%r1)
 482 005a 0090     		se_mtlr %r0
 483              		.cfi_restore 65
 484 005c 2171     		se_addi %r1,24
 485              	.LCFI7:
 486              		.cfi_def_cfa_offset 0
 487 005e 0004     		se_blr
 488              		.cfi_endproc
 489              	.LFE18:
 490              		.size	osalThreadDelayMilliseconds, .-osalThreadDelayMilliseconds
 491              		.section	.text.osalThreadDelayMicroseconds,"axv",@progbits
 492              		.align 1
 493              		.p2align 4,,15
 494              		.globl osalThreadDelayMicroseconds
 495              		.type	osalThreadDelayMicroseconds, @function
 496              	osalThreadDelayMicroseconds:
 497              	.LFB19:
 498              		.loc 1 356 0
 499              		.cfi_startproc
 500              	.LVL20:
 501 0000 182106E8 		e_stwu %r1,-24(%r1)
 502              	.LCFI8:
 503              		.cfi_def_cfa_offset 24
 504 0004 0080     		se_mflr %r0
 505              	.LBB105:
 506              	.LBB106:
 507              		.loc 3 100 0
 508 0006 2C07     		se_bmaski %r7,0
 509              	.LBE106:
 510              	.LBE105:
 511              		.loc 1 356 0
 512 0008 D701     		se_stw %r0,28(%r1)
 513              		.cfi_offset 65, 4
GAS LISTING C:\Users\Vipuls\AppData\Local\Temp\ccGkOgjf.s 			page 10


 514              	.LBB108:
 515              	.LBB107:
 516              		.loc 3 100 0
 517 000a 9871     		se_stb %r7,8(%r1)
 518              		.loc 3 101 0
 519              	 # 101 "./components/spc58ecxx_osal_component_rla/cfg/osal_cfg.h" 1
 520 000c 7CBE42A6 		mfspr %r5, 286
 521              	 # 0 "" 2
 522              		.loc 3 102 0
 523 0010 4826     		se_li %r6,2
 524              		.loc 3 101 0
 525 0012 9851     		se_stb %r5,8(%r1)
 526              		.loc 3 102 0
 527 0014 8851     		se_lbz %r5,8(%r1)
 528 0016 2215     		se_cmpli %r5,2
 529 0018 7A110006 		e_bgt %cr0,.L29
 530 001c 8861     		se_lbz %r6,8(%r1)
 531              	.L29:
 532              	.LBE107:
 533              	.LBE108:
 534              		.loc 1 357 0
 535 001e 6C46     		se_slwi %r6, 4
 536 0020 70A0E000 		e_lis %r5,.LANCHOR4@ha
 537              	.LBB109:
 538              	.LBB110:
 539              		.loc 1 162 0
 540 0024 4807     		se_li %r7,0
 541              	.LBE110:
 542              	.LBE109:
 543              		.loc 1 357 0
 544 0026 1CA50000 		e_la %r5,.LANCHOR4@l(%r5)
 545              	.LBB113:
 546              	.LBB111:
 547              		.loc 1 162 0
 548 002a 2A03     		se_cmpi %r3,0
 549              	.LBE111:
 550              	.LBE113:
 551              		.loc 1 357 0
 552 002c 7CA5302E 		lwzx %r5,%r5,%r6
 553              	.LVL21:
 554              	.LBB114:
 555              	.LBB112:
 556              		.loc 1 162 0
 557 0030 7A120022 		e_beq %cr0,.L30
 558              		.loc 1 163 0
 559 0034 70E0E000 		e_lis %r7,.LANCHOR3@ha
 560 0038 70C8E31B 		e_lis %r6,0x431b
 561 003c 50E70000 		e_lwz %r7,.LANCHOR3@l(%r7)
 562 0040 70DBC683 		e_or2i %r6,56963
 563 0044 0537     		se_mullw %r7,%r3
 564 0046 18E784FF 		e_addi %r7,%r7,-1
 565 004a 7CE73016 		mulhwu %r7,%r7,%r6
 566 004e 6927     		se_srwi %r7,18
 567              		.loc 1 162 0
 568 0050 2007     		se_addi %r7,1
 569              	.L30:
 570              	.LBE112:
GAS LISTING C:\Users\Vipuls\AppData\Local\Temp\ccGkOgjf.s 			page 11


 571              	.LBE114:
 572              		.loc 1 357 0
 573 0052 0173     		se_mr %r3,%r7
 574              	.LVL22:
 575 0054 00B5     		se_mtctr %r5
 576 0056 0007     		se_bctrl
 577              	.LVL23:
 578              		.loc 1 358 0
 579 0058 C701     		se_lwz %r0,28(%r1)
 580 005a 0090     		se_mtlr %r0
 581              		.cfi_restore 65
 582 005c 2171     		se_addi %r1,24
 583              	.LCFI9:
 584              		.cfi_def_cfa_offset 0
 585 005e 0004     		se_blr
 586              		.cfi_endproc
 587              	.LFE19:
 588              		.size	osalThreadDelayMicroseconds, .-osalThreadDelayMicroseconds
 589              		.section	.text.osalThreadGetSeconds,"axv",@progbits
 590              		.align 1
 591              		.p2align 4,,15
 592              		.globl osalThreadGetSeconds
 593              		.type	osalThreadGetSeconds, @function
 594              	osalThreadGetSeconds:
 595              	.LFB20:
 596              		.loc 1 367 0
 597              		.cfi_startproc
 598 0000 182106E8 		e_stwu %r1,-24(%r1)
 599              	.LCFI10:
 600              		.cfi_def_cfa_offset 24
 601 0004 0080     		se_mflr %r0
 602              	.LBB115:
 603              	.LBB116:
 604              		.loc 3 100 0
 605 0006 2C07     		se_bmaski %r7,0
 606              	.LBE116:
 607              	.LBE115:
 608              		.loc 1 367 0
 609 0008 D701     		se_stw %r0,28(%r1)
 610              		.cfi_offset 65, 4
 611              	.LBB118:
 612              	.LBB117:
 613              		.loc 3 100 0
 614 000a 9871     		se_stb %r7,8(%r1)
 615              		.loc 3 101 0
 616              	 # 101 "./components/spc58ecxx_osal_component_rla/cfg/osal_cfg.h" 1
 617 000c 7CDE42A6 		mfspr %r6, 286
 618              	 # 0 "" 2
 619              		.loc 3 102 0
 620 0010 4827     		se_li %r7,2
 621              		.loc 3 101 0
 622 0012 9861     		se_stb %r6,8(%r1)
 623              		.loc 3 102 0
 624 0014 8861     		se_lbz %r6,8(%r1)
 625 0016 2216     		se_cmpli %r6,2
 626 0018 7A110006 		e_bgt %cr0,.L34
 627 001c 8871     		se_lbz %r7,8(%r1)
GAS LISTING C:\Users\Vipuls\AppData\Local\Temp\ccGkOgjf.s 			page 12


 628              	.L34:
 629              	.LBE117:
 630              	.LBE118:
 631              		.loc 1 368 0
 632 001e 6C47     		se_slwi %r7, 4
 633 0020 70C0E000 		e_lis %r6,.LANCHOR4@ha
 634 0024 1CC60000 		e_la %r6,.LANCHOR4@l(%r6)
 635 0028 7CE63A14 		add %r7,%r6,%r7
 636 002c C177     		se_lwz %r7,4(%r7)
 637 002e 00B7     		se_mtctr %r7
 638 0030 0007     		se_bctrl
 639              	.LVL24:
 640              		.loc 1 369 0
 641 0032 C701     		se_lwz %r0,28(%r1)
 642 0034 0090     		se_mtlr %r0
 643              		.cfi_restore 65
 644              	.LBB119:
 645              	.LBB120:
 646              		.loc 1 177 0
 647 0036 70E0E000 		e_lis %r7,.LANCHOR3@ha
 648              	.LBE120:
 649              	.LBE119:
 650              		.loc 1 369 0
 651              	.LBB122:
 652              	.LBB121:
 653              		.loc 1 177 0
 654 003a 50E70000 		e_lwz %r7,.LANCHOR3@l(%r7)
 655              	.LBE121:
 656              	.LBE122:
 657              		.loc 1 369 0
 658 003e 2171     		se_addi %r1,24
 659              	.LCFI11:
 660              		.cfi_def_cfa_offset 0
 661 0040 7C633B96 		divwu %r3,%r3,%r7
 662              	.LVL25:
 663 0044 0004     		se_blr
 664              		.cfi_endproc
 665              	.LFE20:
 666              		.size	osalThreadGetSeconds, .-osalThreadGetSeconds
 667              		.section	.text.osalThreadGetMilliseconds,"axv",@progbits
 668              		.align 1
 669              		.p2align 4,,15
 670              		.globl osalThreadGetMilliseconds
 671              		.type	osalThreadGetMilliseconds, @function
 672              	osalThreadGetMilliseconds:
 673              	.LFB21:
 674              		.loc 1 378 0
 675              		.cfi_startproc
 676 0000 182106E8 		e_stwu %r1,-24(%r1)
 677              	.LCFI12:
 678              		.cfi_def_cfa_offset 24
 679 0004 0080     		se_mflr %r0
 680              	.LBB123:
 681              	.LBB124:
 682              		.loc 3 100 0
 683 0006 2C07     		se_bmaski %r7,0
 684              	.LBE124:
GAS LISTING C:\Users\Vipuls\AppData\Local\Temp\ccGkOgjf.s 			page 13


 685              	.LBE123:
 686              		.loc 1 378 0
 687 0008 D701     		se_stw %r0,28(%r1)
 688              		.cfi_offset 65, 4
 689              	.LBB126:
 690              	.LBB125:
 691              		.loc 3 100 0
 692 000a 9871     		se_stb %r7,8(%r1)
 693              		.loc 3 101 0
 694              	 # 101 "./components/spc58ecxx_osal_component_rla/cfg/osal_cfg.h" 1
 695 000c 7CDE42A6 		mfspr %r6, 286
 696              	 # 0 "" 2
 697              		.loc 3 102 0
 698 0010 4827     		se_li %r7,2
 699              		.loc 3 101 0
 700 0012 9861     		se_stb %r6,8(%r1)
 701              		.loc 3 102 0
 702 0014 8861     		se_lbz %r6,8(%r1)
 703 0016 2216     		se_cmpli %r6,2
 704 0018 7A110006 		e_bgt %cr0,.L37
 705 001c 8871     		se_lbz %r7,8(%r1)
 706              	.L37:
 707              	.LBE125:
 708              	.LBE126:
 709              		.loc 1 379 0
 710 001e 6C47     		se_slwi %r7, 4
 711 0020 70C0E000 		e_lis %r6,.LANCHOR4@ha
 712 0024 1CC60000 		e_la %r6,.LANCHOR4@l(%r6)
 713 0028 7CE63A14 		add %r7,%r6,%r7
 714 002c C177     		se_lwz %r7,4(%r7)
 715 002e 00B7     		se_mtctr %r7
 716 0030 0007     		se_bctrl
 717              	.LVL26:
 718              		.loc 1 380 0
 719 0032 C701     		se_lwz %r0,28(%r1)
 720 0034 0090     		se_mtlr %r0
 721              		.cfi_restore 65
 722              	.LBB127:
 723              	.LBB128:
 724              		.loc 1 191 0
 725 0036 7003A3E8 		e_mull2i %r3,1000
 726              	.LVL27:
 727 003a 70E0E000 		e_lis %r7,.LANCHOR3@ha
 728              	.LBE128:
 729              	.LBE127:
 730              		.loc 1 380 0
 731              	.LBB130:
 732              	.LBB129:
 733              		.loc 1 191 0
 734 003e 50E70000 		e_lwz %r7,.LANCHOR3@l(%r7)
 735              	.LBE129:
 736              	.LBE130:
 737              		.loc 1 380 0
 738 0042 2171     		se_addi %r1,24
 739              	.LCFI13:
 740              		.cfi_def_cfa_offset 0
 741 0044 7C633B96 		divwu %r3,%r3,%r7
GAS LISTING C:\Users\Vipuls\AppData\Local\Temp\ccGkOgjf.s 			page 14


 742 0048 0004     		se_blr
 743              		.cfi_endproc
 744              	.LFE21:
 745              		.size	osalThreadGetMilliseconds, .-osalThreadGetMilliseconds
 746              		.section	.text.osalThreadGetMicroseconds,"axv",@progbits
 747              		.align 1
 748              		.p2align 4,,15
 749              		.globl osalThreadGetMicroseconds
 750              		.type	osalThreadGetMicroseconds, @function
 751              	osalThreadGetMicroseconds:
 752              	.LFB22:
 753              		.loc 1 389 0
 754              		.cfi_startproc
 755 0000 182106E8 		e_stwu %r1,-24(%r1)
 756              	.LCFI14:
 757              		.cfi_def_cfa_offset 24
 758 0004 0080     		se_mflr %r0
 759              	.LBB131:
 760              	.LBB132:
 761              		.loc 3 100 0
 762 0006 2C07     		se_bmaski %r7,0
 763              	.LBE132:
 764              	.LBE131:
 765              		.loc 1 389 0
 766 0008 D701     		se_stw %r0,28(%r1)
 767              		.cfi_offset 65, 4
 768              	.LBB134:
 769              	.LBB133:
 770              		.loc 3 100 0
 771 000a 9871     		se_stb %r7,8(%r1)
 772              		.loc 3 101 0
 773              	 # 101 "./components/spc58ecxx_osal_component_rla/cfg/osal_cfg.h" 1
 774 000c 7CDE42A6 		mfspr %r6, 286
 775              	 # 0 "" 2
 776              		.loc 3 102 0
 777 0010 4827     		se_li %r7,2
 778              		.loc 3 101 0
 779 0012 9861     		se_stb %r6,8(%r1)
 780              		.loc 3 102 0
 781 0014 8861     		se_lbz %r6,8(%r1)
 782 0016 2216     		se_cmpli %r6,2
 783 0018 7A110006 		e_bgt %cr0,.L40
 784 001c 8871     		se_lbz %r7,8(%r1)
 785              	.L40:
 786              	.LBE133:
 787              	.LBE134:
 788              		.loc 1 390 0
 789 001e 6C47     		se_slwi %r7, 4
 790 0020 70C0E000 		e_lis %r6,.LANCHOR4@ha
 791 0024 1CC60000 		e_la %r6,.LANCHOR4@l(%r6)
 792 0028 7CE63A14 		add %r7,%r6,%r7
 793 002c C177     		se_lwz %r7,4(%r7)
 794 002e 00B7     		se_mtctr %r7
 795 0030 0007     		se_bctrl
 796              	.LVL28:
 797              		.loc 1 391 0
 798 0032 C701     		se_lwz %r0,28(%r1)
GAS LISTING C:\Users\Vipuls\AppData\Local\Temp\ccGkOgjf.s 			page 15


 799 0034 0090     		se_mtlr %r0
 800              		.cfi_restore 65
 801              	.LBB135:
 802              	.LBB136:
 803              		.loc 1 205 0
 804 0036 70E0E000 		e_lis %r7,.LANCHOR3@ha
 805              	.LBE136:
 806              	.LBE135:
 807              		.loc 1 391 0
 808              	.LBB139:
 809              	.LBB137:
 810              		.loc 1 205 0
 811 003a 50C70000 		e_lwz %r6,.LANCHOR3@l(%r7)
 812              	.LBE137:
 813              	.LBE139:
 814              		.loc 1 391 0
 815 003e 2171     		se_addi %r1,24
 816              	.LCFI15:
 817              		.cfi_def_cfa_offset 0
 818              	.LBB140:
 819              	.LBB138:
 820              		.loc 1 205 0
 821 0040 70E0E00F 		e_lis %r7,0xf
 822 0044 70E8C240 		e_or2i %r7,16960
 823 0048 0573     		se_mullw %r3,%r7
 824              	.LVL29:
 825              	.LBE138:
 826              	.LBE140:
 827              		.loc 1 391 0
 828 004a 7C633396 		divwu %r3,%r3,%r6
 829 004e 0004     		se_blr
 830              		.cfi_endproc
 831              	.LFE22:
 832              		.size	osalThreadGetMicroseconds, .-osalThreadGetMicroseconds
 833              		.section	.text.osalEnterCritical,"axv",@progbits
 834              		.align 1
 835              		.p2align 4,,15
 836              		.globl osalEnterCritical
 837              		.type	osalEnterCritical, @function
 838              	osalEnterCritical:
 839              	.LFB23:
 840              		.loc 1 399 0
 841              		.cfi_startproc
 842 0000 182106E8 		e_stwu %r1,-24(%r1)
 843              	.LCFI16:
 844              		.cfi_def_cfa_offset 24
 845 0004 0080     		se_mflr %r0
 846              	.LBB141:
 847              	.LBB142:
 848              		.loc 3 100 0
 849 0006 2C07     		se_bmaski %r7,0
 850              	.LBE142:
 851              	.LBE141:
 852              		.loc 1 399 0
 853 0008 D701     		se_stw %r0,28(%r1)
 854              		.cfi_offset 65, 4
 855              	.LBB144:
GAS LISTING C:\Users\Vipuls\AppData\Local\Temp\ccGkOgjf.s 			page 16


 856              	.LBB143:
 857              		.loc 3 100 0
 858 000a 9871     		se_stb %r7,8(%r1)
 859              		.loc 3 101 0
 860              	 # 101 "./components/spc58ecxx_osal_component_rla/cfg/osal_cfg.h" 1
 861 000c 7CDE42A6 		mfspr %r6, 286
 862              	 # 0 "" 2
 863              		.loc 3 102 0
 864 0010 4827     		se_li %r7,2
 865              		.loc 3 101 0
 866 0012 9861     		se_stb %r6,8(%r1)
 867              		.loc 3 102 0
 868 0014 8861     		se_lbz %r6,8(%r1)
 869 0016 2216     		se_cmpli %r6,2
 870 0018 7A110006 		e_bgt %cr0,.L43
 871 001c 8871     		se_lbz %r7,8(%r1)
 872              	.L43:
 873              	.LBE143:
 874              	.LBE144:
 875              		.loc 1 400 0
 876 001e 6C47     		se_slwi %r7, 4
 877 0020 70C0E000 		e_lis %r6,.LANCHOR4@ha
 878 0024 1CC60000 		e_la %r6,.LANCHOR4@l(%r6)
 879 0028 7CE63A14 		add %r7,%r6,%r7
 880 002c C277     		se_lwz %r7,8(%r7)
 881 002e 00B7     		se_mtctr %r7
 882 0030 0007     		se_bctrl
 883              	.LVL30:
 884              		.loc 1 401 0
 885 0032 C701     		se_lwz %r0,28(%r1)
 886 0034 0090     		se_mtlr %r0
 887              		.cfi_restore 65
 888 0036 2171     		se_addi %r1,24
 889              	.LCFI17:
 890              		.cfi_def_cfa_offset 0
 891 0038 0004     		se_blr
 892              		.cfi_endproc
 893              	.LFE23:
 894              		.size	osalEnterCritical, .-osalEnterCritical
 895              		.section	.text.osalExitCritical,"axv",@progbits
 896              		.align 1
 897              		.p2align 4,,15
 898              		.globl osalExitCritical
 899              		.type	osalExitCritical, @function
 900              	osalExitCritical:
 901              	.LFB24:
 902              		.loc 1 408 0
 903              		.cfi_startproc
 904 0000 182106E8 		e_stwu %r1,-24(%r1)
 905              	.LCFI18:
 906              		.cfi_def_cfa_offset 24
 907 0004 0080     		se_mflr %r0
 908              	.LBB145:
 909              	.LBB146:
 910              		.loc 3 100 0
 911 0006 2C07     		se_bmaski %r7,0
 912              	.LBE146:
GAS LISTING C:\Users\Vipuls\AppData\Local\Temp\ccGkOgjf.s 			page 17


 913              	.LBE145:
 914              		.loc 1 408 0
 915 0008 D701     		se_stw %r0,28(%r1)
 916              		.cfi_offset 65, 4
 917              	.LBB148:
 918              	.LBB147:
 919              		.loc 3 100 0
 920 000a 9871     		se_stb %r7,8(%r1)
 921              		.loc 3 101 0
 922              	 # 101 "./components/spc58ecxx_osal_component_rla/cfg/osal_cfg.h" 1
 923 000c 7CDE42A6 		mfspr %r6, 286
 924              	 # 0 "" 2
 925              		.loc 3 102 0
 926 0010 4827     		se_li %r7,2
 927              		.loc 3 101 0
 928 0012 9861     		se_stb %r6,8(%r1)
 929              		.loc 3 102 0
 930 0014 8861     		se_lbz %r6,8(%r1)
 931 0016 2216     		se_cmpli %r6,2
 932 0018 7A110006 		e_bgt %cr0,.L46
 933 001c 8871     		se_lbz %r7,8(%r1)
 934              	.L46:
 935              	.LBE147:
 936              	.LBE148:
 937              		.loc 1 409 0
 938 001e 6C47     		se_slwi %r7, 4
 939 0020 70C0E000 		e_lis %r6,.LANCHOR4@ha
 940 0024 1CC60000 		e_la %r6,.LANCHOR4@l(%r6)
 941 0028 7CE63A14 		add %r7,%r6,%r7
 942 002c C377     		se_lwz %r7,12(%r7)
 943 002e 00B7     		se_mtctr %r7
 944 0030 0007     		se_bctrl
 945              	.LVL31:
 946              		.loc 1 410 0
 947 0032 C701     		se_lwz %r0,28(%r1)
 948 0034 0090     		se_mtlr %r0
 949              		.cfi_restore 65
 950 0036 2171     		se_addi %r1,24
 951              	.LCFI19:
 952              		.cfi_def_cfa_offset 0
 953 0038 0004     		se_blr
 954              		.cfi_endproc
 955              	.LFE24:
 956              		.size	osalExitCritical, .-osalExitCritical
 957              		.section	.text.osalEnterCriticalFromISR,"axv",@progbits
 958              		.align 1
 959              		.p2align 4,,15
 960              		.globl osalEnterCriticalFromISR
 961              		.type	osalEnterCriticalFromISR, @function
 962              	osalEnterCriticalFromISR:
 963              	.LFB25:
 964              		.loc 1 417 0
 965              		.cfi_startproc
 966 0000 182106E8 		e_stwu %r1,-24(%r1)
 967              	.LCFI20:
 968              		.cfi_def_cfa_offset 24
 969 0004 0080     		se_mflr %r0
GAS LISTING C:\Users\Vipuls\AppData\Local\Temp\ccGkOgjf.s 			page 18


 970              	.LBB149:
 971              	.LBB150:
 972              		.loc 3 100 0
 973 0006 2C07     		se_bmaski %r7,0
 974              	.LBE150:
 975              	.LBE149:
 976              		.loc 1 417 0
 977 0008 D701     		se_stw %r0,28(%r1)
 978              		.cfi_offset 65, 4
 979              	.LBB152:
 980              	.LBB151:
 981              		.loc 3 100 0
 982 000a 9871     		se_stb %r7,8(%r1)
 983              		.loc 3 101 0
 984              	 # 101 "./components/spc58ecxx_osal_component_rla/cfg/osal_cfg.h" 1
 985 000c 7CDE42A6 		mfspr %r6, 286
 986              	 # 0 "" 2
 987              		.loc 3 102 0
 988 0010 4827     		se_li %r7,2
 989              		.loc 3 101 0
 990 0012 9861     		se_stb %r6,8(%r1)
 991              		.loc 3 102 0
 992 0014 8861     		se_lbz %r6,8(%r1)
 993 0016 2216     		se_cmpli %r6,2
 994 0018 7A110006 		e_bgt %cr0,.L49
 995 001c 8871     		se_lbz %r7,8(%r1)
 996              	.L49:
 997              	.LBE151:
 998              	.LBE152:
 999              		.loc 1 420 0
 1000 001e 6C47     		se_slwi %r7, 4
 1001 0020 70C0E000 		e_lis %r6,.LANCHOR4@ha
 1002 0024 1CC60000 		e_la %r6,.LANCHOR4@l(%r6)
 1003 0028 7CE63A14 		add %r7,%r6,%r7
 1004 002c C277     		se_lwz %r7,8(%r7)
 1005 002e 00B7     		se_mtctr %r7
 1006 0030 0007     		se_bctrl
 1007              	.LVL32:
 1008              		.loc 1 422 0
 1009 0032 C701     		se_lwz %r0,28(%r1)
 1010 0034 0090     		se_mtlr %r0
 1011              		.cfi_restore 65
 1012 0036 2171     		se_addi %r1,24
 1013              	.LCFI21:
 1014              		.cfi_def_cfa_offset 0
 1015 0038 0004     		se_blr
 1016              		.cfi_endproc
 1017              	.LFE25:
 1018              		.size	osalEnterCriticalFromISR, .-osalEnterCriticalFromISR
 1019              		.section	.text.osalExitCriticalFromISR,"axv",@progbits
 1020              		.align 1
 1021              		.p2align 4,,15
 1022              		.globl osalExitCriticalFromISR
 1023              		.type	osalExitCriticalFromISR, @function
 1024              	osalExitCriticalFromISR:
 1025              	.LFB26:
 1026              		.loc 1 429 0
GAS LISTING C:\Users\Vipuls\AppData\Local\Temp\ccGkOgjf.s 			page 19


 1027              		.cfi_startproc
 1028 0000 182106E8 		e_stwu %r1,-24(%r1)
 1029              	.LCFI22:
 1030              		.cfi_def_cfa_offset 24
 1031 0004 0080     		se_mflr %r0
 1032              	.LBB153:
 1033              	.LBB154:
 1034              		.loc 3 100 0
 1035 0006 2C07     		se_bmaski %r7,0
 1036              	.LBE154:
 1037              	.LBE153:
 1038              		.loc 1 429 0
 1039 0008 D701     		se_stw %r0,28(%r1)
 1040              		.cfi_offset 65, 4
 1041              	.LBB156:
 1042              	.LBB155:
 1043              		.loc 3 100 0
 1044 000a 9871     		se_stb %r7,8(%r1)
 1045              		.loc 3 101 0
 1046              	 # 101 "./components/spc58ecxx_osal_component_rla/cfg/osal_cfg.h" 1
 1047 000c 7CDE42A6 		mfspr %r6, 286
 1048              	 # 0 "" 2
 1049              		.loc 3 102 0
 1050 0010 4827     		se_li %r7,2
 1051              		.loc 3 101 0
 1052 0012 9861     		se_stb %r6,8(%r1)
 1053              		.loc 3 102 0
 1054 0014 8861     		se_lbz %r6,8(%r1)
 1055 0016 2216     		se_cmpli %r6,2
 1056 0018 7A110006 		e_bgt %cr0,.L52
 1057 001c 8871     		se_lbz %r7,8(%r1)
 1058              	.L52:
 1059              	.LBE155:
 1060              	.LBE156:
 1061              		.loc 1 432 0
 1062 001e 6C47     		se_slwi %r7, 4
 1063 0020 70C0E000 		e_lis %r6,.LANCHOR4@ha
 1064 0024 1CC60000 		e_la %r6,.LANCHOR4@l(%r6)
 1065 0028 7CE63A14 		add %r7,%r6,%r7
 1066 002c C377     		se_lwz %r7,12(%r7)
 1067 002e 00B7     		se_mtctr %r7
 1068 0030 0007     		se_bctrl
 1069              	.LVL33:
 1070              		.loc 1 434 0
 1071 0032 C701     		se_lwz %r0,28(%r1)
 1072 0034 0090     		se_mtlr %r0
 1073              		.cfi_restore 65
 1074 0036 2171     		se_addi %r1,24
 1075              	.LCFI23:
 1076              		.cfi_def_cfa_offset 0
 1077 0038 0004     		se_blr
 1078              		.cfi_endproc
 1079              	.LFE26:
 1080              		.size	osalExitCriticalFromISR, .-osalExitCriticalFromISR
 1081              		.section	.text.osalInit,"axv",@progbits
 1082              		.align 1
 1083              		.p2align 4,,15
GAS LISTING C:\Users\Vipuls\AppData\Local\Temp\ccGkOgjf.s 			page 20


 1084              		.globl osalInit
 1085              		.type	osalInit, @function
 1086              	osalInit:
 1087              	.LFB27:
 1088              		.loc 1 442 0
 1089              		.cfi_startproc
 1090 0000 182106F0 		e_stwu %r1,-16(%r1)
 1091              	.LCFI24:
 1092              		.cfi_def_cfa_offset 16
 1093 0004 0080     		se_mflr %r0
 1094 0006 1BC10908 		e_stmw %r30,8(%r1)
 1095 000a D501     		se_stw %r0,20(%r1)
 1096              		.cfi_offset 65, 4
 1097              		.cfi_offset 30, -8
 1098              		.cfi_offset 31, -4
 1099              		.loc 1 452 0
 1100 000c 73C0E000 		e_lis %r30,.LANCHOR4@ha
 1101 0010 4804     		se_li %r4,0
 1102 0012 1FFE0000 		e_la %r31,.LANCHOR4@l(%r30)
 1103 0016 4B05     		se_li %r5,48
 1104 0018 01F3     		se_mr %r3,%r31
 1105 001a 78000001 		e_bl memset
 1106              	.LVL34:
 1107              		.loc 1 582 0
 1108 001e C501     		se_lwz %r0,20(%r1)
 1109              	.LBB157:
 1110              	.LBB158:
 1111              	.LBB159:
 1112              	.LBB160:
 1113              		.loc 1 104 0
 1114 0020 706003E8 		e_li %r3,1000
 1115              	.LBE160:
 1116              	.LBE159:
 1117              	.LBE158:
 1118              	.LBE157:
 1119              		.loc 1 553 0
 1120 0024 7080E000 		e_lis %r4,osalSysTimeDelayTicks@ha
 1121              		.loc 1 554 0
 1122 0028 70A0E000 		e_lis %r5,osalSysTimeGetTicks@ha
 1123              		.loc 1 553 0
 1124 002c 1C840000 		e_la %r4,osalSysTimeDelayTicks@l(%r4)
 1125              		.loc 1 554 0
 1126 0030 1CA50000 		e_la %r5,osalSysTimeGetTicks@l(%r5)
 1127              		.loc 1 571 0
 1128 0034 D84F     		se_stw %r4,32(%r31)
 1129              		.loc 1 554 0
 1130 0036 D15F     		se_stw %r5,4(%r31)
 1131              		.loc 1 572 0
 1132 0038 D95F     		se_stw %r5,36(%r31)
 1133              		.loc 1 556 0
 1134 003a 70C0E000 		e_lis %r6,osalIsrDisable@ha
 1135              		.loc 1 557 0
 1136 003e 70E0E000 		e_lis %r7,osalIsrEnable@ha
 1137              		.loc 1 556 0
 1138 0042 1CC60000 		e_la %r6,osalIsrDisable@l(%r6)
 1139              		.loc 1 557 0
 1140 0046 1CE70000 		e_la %r7,osalIsrEnable@l(%r7)
GAS LISTING C:\Users\Vipuls\AppData\Local\Temp\ccGkOgjf.s 			page 21


 1141              		.loc 1 556 0
 1142 004a D26F     		se_stw %r6,8(%r31)
 1143              		.loc 1 557 0
 1144 004c D37F     		se_stw %r7,12(%r31)
 1145              		.loc 1 574 0
 1146 004e DA6F     		se_stw %r6,40(%r31)
 1147              		.loc 1 575 0
 1148 0050 DB7F     		se_stw %r7,44(%r31)
 1149              		.loc 1 553 0
 1150 0052 549E0000 		e_stw %r4,.LANCHOR4@l(%r30)
 1151              	.LBB170:
 1152              	.LBB165:
 1153              		.loc 1 217 0
 1154 0056 70E0E000 		e_lis %r7,.LANCHOR0@ha
 1155              	.LBE165:
 1156              	.LBE170:
 1157              		.loc 1 582 0
 1158 005a 1BC10808 		e_lmw %r30,8(%r1)
 1159              	.LBB171:
 1160              	.LBB166:
 1161              		.loc 1 217 0
 1162 005e 4806     		se_li %r6,0
 1163              	.LBE166:
 1164              	.LBE171:
 1165              		.loc 1 582 0
 1166              	.LBB172:
 1167              	.LBB167:
 1168              		.loc 1 217 0
 1169 0060 54C70000 		e_stw %r6,.LANCHOR0@l(%r7)
 1170              	.LVL35:
 1171              	.LBE167:
 1172              	.LBE172:
 1173              		.loc 1 582 0
 1174 0064 0090     		se_mtlr %r0
 1175              		.cfi_restore 65
 1176              	.LBB173:
 1177              	.LBB168:
 1178              	.LBB163:
 1179              	.LBB161:
 1180              		.loc 1 104 0
 1181 0066 70E0E000 		e_lis %r7,.LANCHOR3@ha
 1182              	.LBE161:
 1183              	.LBE163:
 1184              	.LBE168:
 1185              	.LBE173:
 1186              		.loc 1 582 0
 1187 006a 20F1     		se_addi %r1,16
 1188              	.LCFI25:
 1189              		.cfi_restore 31
 1190              		.cfi_restore 30
 1191              		.cfi_def_cfa_offset 0
 1192              	.LBB174:
 1193              	.LBB169:
 1194              	.LBB164:
 1195              	.LBB162:
 1196              		.loc 1 104 0
 1197 006c 54670000 		e_stw %r3,.LANCHOR3@l(%r7)
GAS LISTING C:\Users\Vipuls\AppData\Local\Temp\ccGkOgjf.s 			page 22


 1198              		.loc 1 106 0
 1199 0070 78000000 		e_b sysTimeSetup
 1200              	.LVL36:
 1201              	.LBE162:
 1202              	.LBE164:
 1203              	.LBE169:
 1204              	.LBE174:
 1205              		.cfi_endproc
 1206              	.LFE27:
 1207              		.size	osalInit, .-osalInit
 1208              		.section	.bss.osalIsExtIntEnable,"aw",@nobits
 1209              		.align 2
 1210              		.set	.LANCHOR2,. + 0
 1211              		.type	osalIsExtIntEnable, @object
 1212              		.size	osalIsExtIntEnable, 4
 1213              	osalIsExtIntEnable:
 1214 0000 00000000 		.zero	4
 1215              		.section	.bss.osalsystime,"aw",@nobits
 1216              		.align 2
 1217              		.set	.LANCHOR0,. + 0
 1218              		.type	osalsystime, @object
 1219              		.size	osalsystime, 4
 1220              	osalsystime:
 1221 0000 00000000 		.zero	4
 1222              		.section	.bss.osal_ticks_per_sec,"aw",@nobits
 1223              		.align 2
 1224              		.set	.LANCHOR3,. + 0
 1225              		.type	osal_ticks_per_sec, @object
 1226              		.size	osal_ticks_per_sec, 4
 1227              	osal_ticks_per_sec:
 1228 0000 00000000 		.zero	4
 1229              		.section	.bss.osalTimeOps,"aw",@nobits
 1230              		.align 2
 1231              		.set	.LANCHOR4,. + 0
 1232              		.type	osalTimeOps, @object
 1233              		.size	osalTimeOps, 48
 1234              	osalTimeOps:
 1235 0000 00000000 		.zero	48
 1235      00000000 
 1235      00000000 
 1235      00000000 
 1235      00000000 
 1236              		.section	.bss.osalIsrCnt,"aw",@nobits
 1237              		.align 2
 1238              		.set	.LANCHOR1,. + 0
 1239              		.type	osalIsrCnt, @object
 1240              		.size	osalIsrCnt, 4
 1241              	osalIsrCnt:
 1242 0000 00000000 		.zero	4
 1243              		.section	".text","axv"
 1244              	.Letext0:
 1245              		.file 4 "c:\\autodevkitstudio-2.4.0\\eclipse\\plugins\\com.st.tools.spc5.tools.gnu.gcc.ppcvle.win3
 1246              		.file 5 "c:\\autodevkitstudio-2.4.0\\eclipse\\plugins\\com.st.tools.spc5.tools.gnu.gcc.ppcvle.win3
 1247              		.file 6 "./components/spc58ecxx_osal_component_rla/lib/include/osal.h"
 1248              		.file 7 "./components/spc58ecxx_osal_component_rla/lib/include/systimer.h"