GAS LISTING C:\Users\Vipuls\AppData\Local\Temp\ccX5Xzof.s 			page 1


   1              		.file	"pit_lld.c"
   2              		.section	".text","axv"
   3              	.Ltext0:
   4              		.cfi_sections	.debug_frame
   5              		.section	.text.vector229,"axv",@progbits
   6              		.align 1
   7              		.p2align 4,,15
   8              		.globl vector229
   9              		.type	vector229, @function
  10              	vector229:
  11              	.LFB3:
  12              		.file 1 "./components/spc58ecxx_low_level_drivers_component_rla/lib/src/pit_lld.c"
  13              		.loc 1 123 0
  14              		.cfi_startproc
  15 0000 182106F8 		e_stwu %r1,-8(%r1)
  16              	.LCFI0:
  17              		.cfi_def_cfa_offset 8
  18 0004 0080     		se_mflr %r0
  19              		.loc 1 128 0
  20 0006 70E0E000 		e_lis %r7,.LANCHOR0@ha
  21              		.loc 1 123 0
  22 000a D301     		se_stw %r0,12(%r1)
  23              		.cfi_offset 65, 4
  24              		.loc 1 128 0
  25 000c 50E70000 		e_lwz %r7,.LANCHOR0@l(%r7)
  26 0010 CB77     		se_lwz %r7,44(%r7)
  27 0012 2A07     		se_cmpi %r7,0
  28 0014 7A120008 		e_beq %cr0,.L2
  29              		.loc 1 129 0
  30 0018 00B7     		se_mtctr %r7
  31 001a 0007     		se_bctrl
  32              	.LVL0:
  33              	.L2:
  34              		.loc 1 132 0
  35 001c 70E0E000 		e_lis %r7,.LANCHOR0+4@ha
  36 0020 4816     		se_li %r6,1
  37 0022 50E70000 		e_lwz %r7,.LANCHOR0+4@l(%r7)
  38 0026 54C7013C 		e_stw %r6,316(%r7)
  39              		.loc 1 135 0
  40 002a C301     		se_lwz %r0,12(%r1)
  41 002c 0090     		se_mtlr %r0
  42              		.cfi_restore 65
  43 002e 2071     		se_addi %r1,8
  44              	.LCFI1:
  45              		.cfi_def_cfa_offset 0
  46 0030 0004     		se_blr
  47              		.cfi_endproc
  48              	.LFE3:
  49              		.size	vector229, .-vector229
  50              		.section	.text.pit_lld_init,"axv",@progbits
  51              		.align 1
  52              		.p2align 4,,15
  53              		.globl pit_lld_init
  54              		.type	pit_lld_init, @function
  55              	pit_lld_init:
  56              	.LFB4:
  57              		.loc 1 402 0
GAS LISTING C:\Users\Vipuls\AppData\Local\Temp\ccX5Xzof.s 			page 2


  58              		.cfi_startproc
  59              		.loc 1 405 0
  60 0000 70E0E000 		e_lis %r7,.LANCHOR0+4@ha
  61 0004 70DEE7F8 		e_lis %r6,0xf7f8
  62 0008 6516     		se_bseti %r6,17
  63 000a 54C70000 		e_stw %r6,.LANCHOR0+4@l(%r7)
  64              		.loc 1 416 0
  65 000e 70C40008 		e_li %r6,8200
  66 0012 70FEE404 		e_lis %r7,0xf404
  67 0016 70E8C22A 		e_or2i %r7,16938
  68 001a B067     		se_sth %r6,0(%r7)
  69 001c 0004     		se_blr
  70              		.cfi_endproc
  71              	.LFE4:
  72              		.size	pit_lld_init, .-pit_lld_init
  73              		.section	.text.pit_lld_start,"axv",@progbits
  74              		.align 1
  75              		.p2align 4,,15
  76              		.globl pit_lld_start
  77              		.type	pit_lld_start, @function
  78              	pit_lld_start:
  79              	.LFB5:
  80              		.loc 1 468 0
  81              		.cfi_startproc
  82              	.LVL1:
  83              		.loc 1 470 0
  84 0000 D043     		se_stw %r4,0(%r3)
  85 0002 0004     		se_blr
  86              		.cfi_endproc
  87              	.LFE5:
  88              		.size	pit_lld_start, .-pit_lld_start
  89              		.section	.text.pit_lld_channel_start,"axv",@progbits
  90              		.align 1
  91              		.p2align 4,,15
  92              		.globl pit_lld_channel_start
  93              		.type	pit_lld_channel_start, @function
  94              	pit_lld_channel_start:
  95              	.LFB6:
  96              		.loc 1 498 0
  97              		.cfi_startproc
  98              	.LVL2:
  99 0000 182106E8 		e_stwu %r1,-24(%r1)
 100              	.LCFI2:
 101              		.cfi_def_cfa_offset 24
 102              		.loc 1 502 0
 103 0004 7C872070 		e_slwi %r7,%r4,4
 104              		.loc 1 498 0
 105 0008 1BA1090C 		e_stmw %r29,12(%r1)
 106 000c 0080     		se_mflr %r0
 107              		.cfi_offset 29, -12
 108              		.cfi_offset 30, -8
 109              		.cfi_offset 31, -4
 110              		.cfi_register 65, 0
 111              		.loc 1 502 0
 112 000e 7C9F1070 		e_slwi %r31,%r4,2
 113              		.loc 1 498 0
 114 0012 D701     		se_stw %r0,28(%r1)
GAS LISTING C:\Users\Vipuls\AppData\Local\Temp\ccX5Xzof.s 			page 3


 115              		.cfi_offset 65, 4
 116              		.loc 1 502 0
 117 0014 077F     		se_subf %r31, %r7
 118 0016 C063     		se_lwz %r6,0(%r3)
 119 0018 7CE6F8AE 		lbzx %r7,%r6,%r31
 120 001c 04F6     		se_add %r6,%r31
 121 001e 2A17     		se_cmpi %r7,1
 122 0020 7A120010 		e_beq %cr0,.L11
 123              	.LVL3:
 124              	.L6:
 125              		.loc 1 527 0
 126 0024 C701     		se_lwz %r0,28(%r1)
 127 0026 0090     		se_mtlr %r0
 128              		.cfi_remember_state
 129              		.cfi_restore 65
 130 0028 1BA1080C 		e_lmw %r29,12(%r1)
 131 002c 2171     		se_addi %r1,24
 132              	.LCFI3:
 133              		.cfi_restore 31
 134              		.cfi_restore 30
 135              		.cfi_restore 29
 136              		.cfi_def_cfa_offset 0
 137 002e 0004     		se_blr
 138              	.LVL4:
 139              	.L11:
 140              	.LCFI4:
 141              		.cfi_restore_state
 142              		.loc 1 504 0
 143 0030 C153     		se_lwz %r5,4(%r3)
 144 0032 18E48010 		e_addi %r7,%r4,16
 145 0036 6C47     		se_slwi %r7, 4
 146 0038 7CE53A14 		add %r7,%r5,%r7
 147 003c C277     		se_lwz %r7,8(%r7)
 148 003e 67D7     		se_btsti %r7,29
 149 0040 7A02FFE4 		e_bne %cr0,.L6
 150 0044 013E     		se_mr %r30,%r3
 151              		.loc 1 506 0
 152 0046 70E0E000 		e_lis %r7,.LANCHOR0@ha
 153 004a 014D     		se_mr %r29,%r4
 154 004c 1CE70000 		e_la %r7,.LANCHOR0@l(%r7)
 155              		.loc 1 500 0
 156 0050 4803     		se_li %r3,0
 157              	.LVL5:
 158              		.loc 1 506 0
 159 0052 0C7E     		se_cmp %r30,%r7
 160 0054 7A12003C 		e_beq %cr0,.L12
 161              	.LVL6:
 162              	.L8:
 163              		.loc 1 520 0
 164 0058 C276     		se_lwz %r7,8(%r6)
 165 005a 7FA42070 		e_slwi %r4,%r29,4
 166              		.loc 1 517 0
 167 005e 4810     		se_li %r0,1
 168 0060 7C852214 		add %r4,%r5,%r4
 169              		.loc 1 520 0
 170 0064 2A07     		se_cmpi %r7,0
 171              		.loc 1 515 0
GAS LISTING C:\Users\Vipuls\AppData\Local\Temp\ccX5Xzof.s 			page 4


 172 0066 54640100 		e_stw %r3,256(%r4)
 173              		.loc 1 516 0
 174 006a 54640104 		e_stw %r3,260(%r4)
 175              		.loc 1 517 0
 176 006e 5404010C 		e_stw %r0,268(%r4)
 177              		.loc 1 520 0
 178 0072 7A120016 		e_beq %cr0,.L9
 179              		.loc 1 527 0
 180 0076 C701     		se_lwz %r0,28(%r1)
 181 0078 0090     		se_mtlr %r0
 182              		.cfi_remember_state
 183              		.cfi_restore 65
 184 007a 1BA1080C 		e_lmw %r29,12(%r1)
 185              	.LVL7:
 186              		.loc 1 521 0
 187 007e 4837     		se_li %r7,3
 188 0080 54E40108 		e_stw %r7,264(%r4)
 189              		.loc 1 527 0
 190 0084 2171     		se_addi %r1,24
 191              	.LCFI5:
 192              		.cfi_restore 29
 193              		.cfi_restore 30
 194              		.cfi_restore 31
 195              		.cfi_def_cfa_offset 0
 196 0086 0004     		se_blr
 197              	.LVL8:
 198              	.L9:
 199              	.LCFI6:
 200              		.cfi_restore_state
 201              		.loc 1 523 0
 202 0088 54040108 		e_stw %r0,264(%r4)
 203 008c 79FFFF98 		e_b .L6
 204              	.LVL9:
 205              	.L12:
 206              		.loc 1 507 0
 207 0090 78000001 		e_bl SPCGetPeripheralClock
 208              	.LVL10:
 209 0094 C06E     		se_lwz %r6,0(%r30)
 210 0096 C15E     		se_lwz %r5,4(%r30)
 211 0098 04F6     		se_add %r6,%r31
 212 009a C176     		se_lwz %r7,4(%r6)
 213 009c 7C633B96 		divwu %r3,%r3,%r7
 214 00a0 2403     		se_subi %r3, 1
 215              	.LVL11:
 216 00a2 79FFFFB6 		e_b .L8
 217              		.cfi_endproc
 218              	.LFE6:
 219              		.size	pit_lld_channel_start, .-pit_lld_channel_start
 220              		.section	.text.pit_lld_channel_set_freq,"axv",@progbits
 221              		.align 1
 222              		.p2align 4,,15
 223              		.globl pit_lld_channel_set_freq
 224              		.type	pit_lld_channel_set_freq, @function
 225              	pit_lld_channel_set_freq:
 226              	.LFB7:
 227              		.loc 1 538 0
 228              		.cfi_startproc
GAS LISTING C:\Users\Vipuls\AppData\Local\Temp\ccX5Xzof.s 			page 5


 229              	.LVL12:
 230 0000 182106E8 		e_stwu %r1,-24(%r1)
 231              	.LCFI7:
 232              		.cfi_def_cfa_offset 24
 233              		.loc 1 542 0
 234 0004 7C872070 		e_slwi %r7,%r4,4
 235              		.loc 1 538 0
 236 0008 1BA1090C 		e_stmw %r29,12(%r1)
 237 000c 0080     		se_mflr %r0
 238              		.cfi_offset 29, -12
 239              		.cfi_offset 30, -8
 240              		.cfi_offset 31, -4
 241              		.cfi_register 65, 0
 242              		.loc 1 542 0
 243 000e 7C9F1070 		e_slwi %r31,%r4,2
 244              		.loc 1 538 0
 245 0012 D701     		se_stw %r0,28(%r1)
 246              		.cfi_offset 65, 4
 247              		.loc 1 542 0
 248 0014 077F     		se_subf %r31, %r7
 249 0016 C063     		se_lwz %r6,0(%r3)
 250 0018 7CE6F8AE 		lbzx %r7,%r6,%r31
 251 001c 04F6     		se_add %r6,%r31
 252 001e 2A17     		se_cmpi %r7,1
 253 0020 7A120010 		e_beq %cr0,.L18
 254              	.LVL13:
 255              	.L13:
 256              		.loc 1 567 0
 257 0024 C701     		se_lwz %r0,28(%r1)
 258 0026 0090     		se_mtlr %r0
 259              		.cfi_remember_state
 260              		.cfi_restore 65
 261 0028 1BA1080C 		e_lmw %r29,12(%r1)
 262 002c 2171     		se_addi %r1,24
 263              	.LCFI8:
 264              		.cfi_restore 31
 265              		.cfi_restore 30
 266              		.cfi_restore 29
 267              		.cfi_def_cfa_offset 0
 268 002e 0004     		se_blr
 269              	.LVL14:
 270              	.L18:
 271              	.LCFI9:
 272              		.cfi_restore_state
 273              		.loc 1 544 0
 274 0030 C173     		se_lwz %r7,4(%r3)
 275 0032 013E     		se_mr %r30,%r3
 276 0034 4800     		se_li %r0,0
 277 0036 18648010 		e_addi %r3,%r4,16
 278              	.LVL15:
 279 003a 014D     		se_mr %r29,%r4
 280 003c 6C43     		se_slwi %r3, 4
 281 003e 7C671A14 		add %r3,%r7,%r3
 282 0042 D203     		se_stw %r0,8(%r3)
 283              		.loc 1 546 0
 284 0044 D156     		se_stw %r5,4(%r6)
 285              		.loc 1 540 0
GAS LISTING C:\Users\Vipuls\AppData\Local\Temp\ccX5Xzof.s 			page 6


 286 0046 4803     		se_li %r3,0
 287              		.loc 1 548 0
 288 0048 70A0E000 		e_lis %r5,.LANCHOR0@ha
 289              	.LVL16:
 290 004c 1CA50000 		e_la %r5,.LANCHOR0@l(%r5)
 291 0050 0C5E     		se_cmp %r30,%r5
 292 0052 7A12003C 		e_beq %cr0,.L19
 293              	.LVL17:
 294              	.L15:
 295 0056 7FA42070 		e_slwi %r4,%r29,4
 296              		.loc 1 559 0
 297 005a 4815     		se_li %r5,1
 298 005c 7C872214 		add %r4,%r7,%r4
 299              		.loc 1 561 0
 300 0060 C276     		se_lwz %r7,8(%r6)
 301              		.loc 1 557 0
 302 0062 54640100 		e_stw %r3,256(%r4)
 303              		.loc 1 561 0
 304 0066 2A07     		se_cmpi %r7,0
 305              		.loc 1 558 0
 306 0068 54640104 		e_stw %r3,260(%r4)
 307              		.loc 1 559 0
 308 006c 54A4010C 		e_stw %r5,268(%r4)
 309              		.loc 1 561 0
 310 0070 7A120016 		e_beq %cr0,.L16
 311              		.loc 1 567 0
 312 0074 C701     		se_lwz %r0,28(%r1)
 313 0076 0090     		se_mtlr %r0
 314              		.cfi_remember_state
 315              		.cfi_restore 65
 316 0078 1BA1080C 		e_lmw %r29,12(%r1)
 317              	.LVL18:
 318              		.loc 1 562 0
 319 007c 4837     		se_li %r7,3
 320 007e 54E40108 		e_stw %r7,264(%r4)
 321              		.loc 1 567 0
 322 0082 2171     		se_addi %r1,24
 323              	.LCFI10:
 324              		.cfi_restore 29
 325              		.cfi_restore 30
 326              		.cfi_restore 31
 327              		.cfi_def_cfa_offset 0
 328 0084 0004     		se_blr
 329              	.LVL19:
 330              	.L16:
 331              	.LCFI11:
 332              		.cfi_restore_state
 333              		.loc 1 564 0
 334 0086 54A40108 		e_stw %r5,264(%r4)
 335 008a 79FFFF9A 		e_b .L13
 336              	.LVL20:
 337              	.L19:
 338              		.loc 1 549 0
 339 008e 78000001 		e_bl SPCGetPeripheralClock
 340              	.LVL21:
 341 0092 C06E     		se_lwz %r6,0(%r30)
 342 0094 C17E     		se_lwz %r7,4(%r30)
GAS LISTING C:\Users\Vipuls\AppData\Local\Temp\ccX5Xzof.s 			page 7


 343 0096 04F6     		se_add %r6,%r31
 344 0098 C156     		se_lwz %r5,4(%r6)
 345 009a 7C632B96 		divwu %r3,%r3,%r5
 346 009e 2403     		se_subi %r3, 1
 347              	.LVL22:
 348 00a0 79FFFFB6 		e_b .L15
 349              		.cfi_endproc
 350              	.LFE7:
 351              		.size	pit_lld_channel_set_freq, .-pit_lld_channel_set_freq
 352              		.section	.text.pit_lld_channel_stop,"axv",@progbits
 353              		.align 1
 354              		.p2align 4,,15
 355              		.globl pit_lld_channel_stop
 356              		.type	pit_lld_channel_stop, @function
 357              	pit_lld_channel_stop:
 358              	.LFB8:
 359              		.loc 1 577 0
 360              		.cfi_startproc
 361              	.LVL23:
 362              		.loc 1 579 0
 363 0000 7C871070 		e_slwi %r7,%r4,2
 364 0004 C063     		se_lwz %r6,0(%r3)
 365 0006 6C44     		se_slwi %r4, 4
 366              	.LVL24:
 367 0008 0747     		se_subf %r7, %r4
 368 000a 7CE638AE 		lbzx %r7,%r6,%r7
 369 000e 2A17     		se_cmpi %r7,1
 370 0010 7A120006 		e_beq %cr0,.L22
 371              	.L20:
 372 0014 0004     		se_blr
 373              	.L22:
 374 0016 C173     		se_lwz %r7,4(%r3)
 375 0018 7C872214 		add %r4,%r7,%r4
 376              		.loc 1 581 0
 377 001c 50E40108 		e_lwz %r7,264(%r4)
 378 0020 18E6C804 		e_andi. %r6,%r7,4
 379 0024 7A02FFF0 		e_bne %cr0,.L20
 380              		.loc 1 582 0
 381 0028 54C40108 		e_stw %r6,264(%r4)
 382 002c 0004     		se_blr
 383              		.cfi_endproc
 384              	.LFE8:
 385              		.size	pit_lld_channel_stop, .-pit_lld_channel_stop
 386              		.section	.text.pit_lld_channel_get,"axv",@progbits
 387              		.align 1
 388              		.p2align 4,,15
 389              		.globl pit_lld_channel_get
 390              		.type	pit_lld_channel_get, @function
 391              	pit_lld_channel_get:
 392              	.LFB9:
 393              		.loc 1 597 0
 394              		.cfi_startproc
 395              	.LVL25:
 396 0000 182106E8 		e_stwu %r1,-24(%r1)
 397              	.LCFI12:
 398              		.cfi_def_cfa_offset 24
 399 0004 0080     		se_mflr %r0
GAS LISTING C:\Users\Vipuls\AppData\Local\Temp\ccX5Xzof.s 			page 8


 400 0006 1BC10910 		e_stmw %r30,16(%r1)
 401 000a D701     		se_stw %r0,28(%r1)
 402              		.cfi_offset 65, 4
 403              		.cfi_offset 30, -8
 404              		.cfi_offset 31, -4
 405              		.loc 1 599 0
 406 000c 18E48010 		e_addi %r7,%r4,16
 407 0010 C163     		se_lwz %r6,4(%r3)
 408 0012 6C47     		se_slwi %r7, 4
 409              		.loc 1 597 0
 410 0014 013F     		se_mr %r31,%r3
 411              		.loc 1 599 0
 412 0016 7CE63A14 		add %r7,%r6,%r7
 413              		.loc 1 600 0
 414 001a 4810     		se_li %r0,1
 415              		.loc 1 599 0
 416 001c C2E7     		se_lwz %r30,8(%r7)
 417              	.LVL26:
 418              		.loc 1 604 0
 419 001e 70E0E000 		e_lis %r7,.LANCHOR0@ha
 420 0022 1CE70000 		e_la %r7,.LANCHOR0@l(%r7)
 421 0026 0C73     		se_cmp %r3,%r7
 422 0028 7A120050 		e_beq %cr0,.L30
 423              	.LVL27:
 424              	.L24:
 425              		.loc 1 614 0
 426 002c C05F     		se_lwz %r5,0(%r31)
 427 002e 7C862070 		e_slwi %r6,%r4,4
 428 0032 7C871070 		e_slwi %r7,%r4,2
 429              		.loc 1 601 0
 430 0036 4803     		se_li %r3,0
 431              		.loc 1 614 0
 432 0038 0767     		se_subf %r7, %r6
 433 003a 7CC538AE 		lbzx %r6,%r5,%r7
 434 003e 7CE53A14 		add %r7,%r5,%r7
 435 0042 2A16     		se_cmpi %r6,1
 436 0044 7A120010 		e_beq %cr0,.L31
 437              	.LVL28:
 438              	.L25:
 439              		.loc 1 620 0
 440 0048 C701     		se_lwz %r0,28(%r1)
 441              	.LVL29:
 442 004a 0090     		se_mtlr %r0
 443              		.cfi_remember_state
 444              		.cfi_restore 65
 445 004c 1BC10810 		e_lmw %r30,16(%r1)
 446              	.LVL30:
 447 0050 2171     		se_addi %r1,24
 448              	.LCFI13:
 449              		.cfi_restore 31
 450              		.cfi_restore 30
 451              		.cfi_def_cfa_offset 0
 452 0052 0004     		se_blr
 453              	.LVL31:
 454              	.L31:
 455              	.LCFI14:
 456              		.cfi_restore_state
GAS LISTING C:\Users\Vipuls\AppData\Local\Temp\ccX5Xzof.s 			page 9


 457              		.loc 1 614 0 discriminator 1
 458 0054 C277     		se_lwz %r7,8(%r7)
 459 0056 2A07     		se_cmpi %r7,0
 460 0058 7A02FFF0 		e_bne %cr0,.L25
 461              		.loc 1 616 0
 462 005c 2E5E     		se_andi %r30,5
 463              	.LVL32:
 464 005e 220E     		se_cmpli %r30,1
 465 0060 7A02FFE8 		e_bne %cr0,.L25
 466              		.loc 1 617 0
 467 0064 C17F     		se_lwz %r7,4(%r31)
 468 0066 20F4     		se_addi %r4,16
 469 0068 6C44     		se_slwi %r4, 4
 470 006a 7C872214 		add %r4,%r7,%r4
 471 006e C134     		se_lwz %r3,4(%r4)
 472 0070 7C630396 		divwu %r3,%r3,%r0
 473              	.LVL33:
 474 0074 79FFFFD4 		e_b .L25
 475              	.LVL34:
 476              	.L30:
 477              		.loc 1 605 0
 478 0078 D241     		se_stw %r4,8(%r1)
 479 007a 4803     		se_li %r3,0
 480              	.LVL35:
 481 007c 78000001 		e_bl SPCGetPeripheralClock
 482              	.LVL36:
 483 0080 70E8E31B 		e_lis %r7,0x431b
 484 0084 C241     		se_lwz %r4,8(%r1)
 485 0086 70FBC683 		e_or2i %r7,56963
 486 008a 7C033816 		mulhwu %r0,%r3,%r7
 487 008e 6920     		se_srwi %r0,18
 488              	.LVL37:
 489 0090 79FFFF9C 		e_b .L24
 490              		.cfi_endproc
 491              	.LFE9:
 492              		.size	pit_lld_channel_get, .-pit_lld_channel_get
 493              		.section	.text.pit_lld_lifetime_start,"axv",@progbits
 494              		.align 1
 495              		.p2align 4,,15
 496              		.globl pit_lld_lifetime_start
 497              		.type	pit_lld_lifetime_start, @function
 498              	pit_lld_lifetime_start:
 499              	.LFB10:
 500              		.loc 1 629 0
 501              		.cfi_startproc
 502              	.LVL38:
 503              		.loc 1 631 0
 504 0000 C173     		se_lwz %r7,4(%r3)
 505 0002 50C70108 		e_lwz %r6,264(%r7)
 506              	.LVL39:
 507              		.loc 1 632 0
 508 0006 50A70118 		e_lwz %r5,280(%r7)
 509              	.LVL40:
 510 000a 4456     		se_or %r6,%r5
 511              	.LVL41:
 512              		.loc 1 635 0
 513 000c 18C5C801 		e_andi. %r5,%r6,1
GAS LISTING C:\Users\Vipuls\AppData\Local\Temp\ccX5Xzof.s 			page 10


 514              	.LVL42:
 515 0010 7A02003E 		e_bne %cr0,.L32
 516              		.loc 1 636 0
 517 0014 2C04     		se_bmaski %r4,0
 518 0016 54870110 		e_stw %r4,272(%r7)
 519              		.loc 1 637 0
 520 001a 54A70118 		e_stw %r5,280(%r7)
 521              		.loc 1 638 0
 522 001e 50C70118 		e_lwz %r6,280(%r7)
 523 0022 65D6     		se_bseti %r6,29
 524 0024 54C70118 		e_stw %r6,280(%r7)
 525              		.loc 1 639 0
 526 0028 50C70118 		e_lwz %r6,280(%r7)
 527 002c 65F6     		se_bseti %r6,31
 528 002e 54C70118 		e_stw %r6,280(%r7)
 529              		.loc 1 641 0
 530 0032 54870100 		e_stw %r4,256(%r7)
 531              		.loc 1 642 0
 532 0036 54A70108 		e_stw %r5,264(%r7)
 533              		.loc 1 643 0
 534 003a 50C70108 		e_lwz %r6,264(%r7)
 535 003e 65D6     		se_bseti %r6,29
 536 0040 54C70108 		e_stw %r6,264(%r7)
 537              		.loc 1 644 0
 538 0044 50C70108 		e_lwz %r6,264(%r7)
 539 0048 65F6     		se_bseti %r6,31
 540 004a 54C70108 		e_stw %r6,264(%r7)
 541              	.L32:
 542 004e 0004     		se_blr
 543              		.cfi_endproc
 544              	.LFE10:
 545              		.size	pit_lld_lifetime_start, .-pit_lld_lifetime_start
 546              		.section	.text.pit_lld_lifetime_stop,"axv",@progbits
 547              		.align 1
 548              		.p2align 4,,15
 549              		.globl pit_lld_lifetime_stop
 550              		.type	pit_lld_lifetime_stop, @function
 551              	pit_lld_lifetime_stop:
 552              	.LFB11:
 553              		.loc 1 655 0
 554              		.cfi_startproc
 555              	.LVL43:
 556              		.loc 1 657 0
 557 0000 C163     		se_lwz %r6,4(%r3)
 558 0002 50E60108 		e_lwz %r7,264(%r6)
 559              	.LVL44:
 560              		.loc 1 658 0
 561 0006 50A60118 		e_lwz %r5,280(%r6)
 562              	.LVL45:
 563              		.loc 1 661 0
 564 000a 67D7     		se_btsti %r7,29
 565 000c 7A120014 		e_beq %cr0,.L34
 566              		.loc 1 661 0 is_stmt 0 discriminator 1
 567 0010 67D5     		se_btsti %r5,29
 568 0012 7A12000E 		e_beq %cr0,.L34
 569              		.loc 1 662 0 is_stmt 1
 570 0016 4807     		se_li %r7,0
GAS LISTING C:\Users\Vipuls\AppData\Local\Temp\ccX5Xzof.s 			page 11


 571              	.LVL46:
 572 0018 54E60108 		e_stw %r7,264(%r6)
 573              		.loc 1 663 0
 574 001c 54E60118 		e_stw %r7,280(%r6)
 575              	.L34:
 576 0020 0004     		se_blr
 577              		.cfi_endproc
 578              	.LFE11:
 579              		.size	pit_lld_lifetime_stop, .-pit_lld_lifetime_stop
 580              		.globl __udivdi3
 581              		.section	.text.pit_lld_lifetime_get,"axv",@progbits
 582              		.align 1
 583              		.p2align 4,,15
 584              		.globl pit_lld_lifetime_get
 585              		.type	pit_lld_lifetime_get, @function
 586              	pit_lld_lifetime_get:
 587              	.LFB12:
 588              		.loc 1 676 0
 589              		.cfi_startproc
 590              	.LVL47:
 591 0000 182106F0 		e_stwu %r1,-16(%r1)
 592              	.LCFI15:
 593              		.cfi_def_cfa_offset 16
 594 0004 0136     		se_mr %r6,%r3
 595 0006 0080     		se_mflr %r0
 596 0008 D3F1     		se_stw %r31,12(%r1)
 597 000a D501     		se_stw %r0,20(%r1)
 598              		.cfi_offset 65, 4
 599              		.cfi_offset 31, -4
 600              		.loc 1 679 0
 601 000c 4803     		se_li %r3,0
 602              	.LVL48:
 603              		.loc 1 681 0
 604 000e C176     		se_lwz %r7,4(%r6)
 605              		.loc 1 679 0
 606 0010 4804     		se_li %r4,0
 607              		.loc 1 681 0
 608 0012 50E70118 		e_lwz %r7,280(%r7)
 609 0016 67D7     		se_btsti %r7,29
 610 0018 7A12002C 		e_beq %cr0,.L37
 611 001c 016F     		se_mr %r31,%r6
 612              		.loc 1 682 0
 613 001e 4813     		se_li %r3,1
 614 0020 78000001 		e_bl SPCGetPeripheralClock
 615              	.LVL49:
 616              		.loc 1 683 0
 617 0024 C17F     		se_lwz %r7,4(%r31)
 618 0026 50A700E0 		e_lwz %r5,224(%r7)
 619              	.LVL50:
 620              		.loc 1 685 0
 621 002a 508700E4 		e_lwz %r4,228(%r7)
 622              	.LVL51:
 623              		.loc 1 682 0
 624 002e 70E8E31B 		e_lis %r7,0x431b
 625 0032 70FBC683 		e_or2i %r7,56963
 626 0036 7CC33816 		mulhwu %r6,%r3,%r7
 627              		.loc 1 686 0
GAS LISTING C:\Users\Vipuls\AppData\Local\Temp\ccX5Xzof.s 			page 12


 628 003a 0153     		se_mr %r3,%r5
 629              	.LVL52:
 630 003c 6926     		se_srwi %r6,18
 631 003e 4805     		se_li %r5,0
 632              	.LVL53:
 633 0040 78000001 		e_bl __udivdi3
 634              	.LVL54:
 635              	.L37:
 636              		.loc 1 689 0
 637 0044 C501     		se_lwz %r0,20(%r1)
 638 0046 0090     		se_mtlr %r0
 639              		.cfi_restore 65
 640 0048 C3F1     		se_lwz %r31,12(%r1)
 641 004a 20F1     		se_addi %r1,16
 642              	.LCFI16:
 643              		.cfi_restore 31
 644              		.cfi_def_cfa_offset 0
 645 004c 0004     		se_blr
 646              		.cfi_endproc
 647              	.LFE12:
 648              		.size	pit_lld_lifetime_get, .-pit_lld_lifetime_get
 649              		.section	.text.pit_lld_stop,"axv",@progbits
 650              		.align 1
 651              		.p2align 4,,15
 652              		.globl pit_lld_stop
 653              		.type	pit_lld_stop, @function
 654              	pit_lld_stop:
 655              	.LFB13:
 656              		.loc 1 698 0
 657              		.cfi_startproc
 658              	.LVL55:
 659              		.loc 1 700 0
 660 0000 4807     		se_li %r7,0
 661 0002 D073     		se_stw %r7,0(%r3)
 662 0004 0004     		se_blr
 663              		.cfi_endproc
 664              	.LFE13:
 665              		.size	pit_lld_stop, .-pit_lld_stop
 666              		.globl PITD1
 667              		.section	.bss.PITD1,"aw",@nobits
 668              		.align 2
 669              		.set	.LANCHOR0,. + 0
 670              		.type	PITD1, @object
 671              		.size	PITD1, 8
 672              	PITD1:
 673 0000 00000000 		.zero	8
 673      00000000 
 674              		.section	".text","axv"
 675              	.Letext0:
 676              		.file 2 "c:\\autodevkitstudio-2.4.0\\eclipse\\plugins\\com.st.tools.spc5.tools.gnu.gcc.ppcvle.win3
 677              		.file 3 "c:\\autodevkitstudio-2.4.0\\eclipse\\plugins\\com.st.tools.spc5.tools.gnu.gcc.ppcvle.win3
 678              		.file 4 "./components/spc58ecxx_platform_component_rla/lib/include/typedefs.h"
 679              		.file 5 "./components/spc58ecxx_clock_component_rla/lib/include/clock.h"
 680              		.file 6 "./components/spc58ecxx_low_level_drivers_component_rla/lib/include/spc5_pit.h"
 681              		.file 7 "./components/spc58ecxx_low_level_drivers_component_rla/lib/include/pit_lld.h"