GAS LISTING C:\Users\Vipuls\AppData\Local\Temp\ccvVtvud.s 			page 1


   1              		.file	"spc5_edma.c"
   2              		.section	".text","axv"
   3              	.Ltext0:
   4              		.cfi_sections	.debug_frame
   5              		.section	.text.vector52,"axv",@progbits
   6              		.align 1
   7              		.p2align 4,,15
   8              		.globl vector52
   9              		.type	vector52, @function
  10              	vector52:
  11              	.LFB3:
  12              		.file 1 "./components/spc58ecxx_low_level_drivers_component_rla/lib/src/spc5_edma.c"
  13              		.loc 1 72 0
  14              		.cfi_startproc
  15              	.LVL0:
  16 0000 182106E8 		e_stwu %r1,-24(%r1)
  17              	.LCFI0:
  18              		.cfi_def_cfa_offset 24
  19 0004 0080     		se_mflr %r0
  20 0006 1BA1090C 		e_stmw %r29,12(%r1)
  21 000a D701     		se_stw %r0,28(%r1)
  22              		.cfi_offset 65, 4
  23              		.cfi_offset 29, -12
  24              		.cfi_offset 30, -8
  25              		.cfi_offset 31, -4
  26              		.loc 1 95 0
  27 000c 73DEE40A 		e_lis %r30,0xf40a
  28 0010 651E     		se_bseti %r30,17
  29 0012 CB7E     		se_lwz %r7,44(%r30)
  30              	.LVL1:
  31              		.loc 1 96 0
  32 0014 CA6E     		se_lwz %r6,40(%r30)
  33              	.LVL2:
  34              		.loc 1 97 0
  35 0016 7CC53B79 		or. %r5,%r6,%r7
  36 001a 7A120074 		e_beq %cr0,.L1
  37 001e 73A0E000 		e_lis %r29,.LANCHOR0@ha
  38 0022 480F     		se_li %r31,0
  39 0024 1FBD0000 		e_la %r29,.LANCHOR0@l(%r29)
  40 0028 7800004A 		e_b .L8
  41              	.LVL3:
  42              	.L3:
  43 002c 18FF84E0 		e_addi %r7,%r31,-32
  44              	.LVL4:
  45              		.loc 1 132 0
  46 0030 4076     		se_srw %r6,%r7
  47 0032 67F6     		se_btsti %r6,31
  48 0034 7A120026 		e_beq %cr0,.L5
  49              	.L14:
  50              		.loc 1 134 0
  51 0038 77E7063F 		e_rlwinm %r7,%r31,0,0xff
  52 003c 34FE001D 		e_stb %r7,29(%r30)
  53              		.loc 1 139 0
  54 0040 C07D     		se_lwz %r7,0(%r29)
  55              		.loc 1 135 0
  56 0042 C15E     		se_lwz %r5,4(%r30)
  57              	.LVL5:
GAS LISTING C:\Users\Vipuls\AppData\Local\Temp\ccvVtvud.s 			page 2


  58              		.loc 1 139 0
  59 0044 2A07     		se_cmpi %r7,0
  60 0046 7A120014 		e_beq %cr0,.L5
  61              		.loc 1 140 0 discriminator 1
  62 004a C367     		se_lwz %r6,12(%r7)
  63              		.loc 1 139 0 discriminator 1
  64 004c 2A06     		se_cmpi %r6,0
  65 004e 7A12000C 		e_beq %cr0,.L5
  66              		.loc 1 141 0
  67 0052 01F3     		se_mr %r3,%r31
  68 0054 C447     		se_lwz %r4,16(%r7)
  69 0056 00B6     		se_mtctr %r6
  70 0058 0007     		se_bctrl
  71              	.LVL6:
  72              	.L5:
  73              		.loc 1 173 0
  74 005a CB7E     		se_lwz %r7,44(%r30)
  75              		.loc 1 166 0
  76 005c 200F     		se_addi %r31,1
  77              	.LVL7:
  78              		.loc 1 174 0
  79 005e CA6E     		se_lwz %r6,40(%r30)
  80              		.loc 1 97 0
  81 0060 7CC53B79 		or. %r5,%r6,%r7
  82 0064 7A12002A 		e_beq %cr0,.L1
  83              	.L17:
  84 0068 203D     		se_addi %r29,4
  85              		.loc 1 97 0 is_stmt 0 discriminator 1
  86 006a 701FA840 		e_cmpl16i %r31,64
  87 006e 7A120020 		e_beq %cr0,.L1
  88              	.LVL8:
  89              	.L8:
  90              		.loc 1 113 0 is_stmt 1
  91 0072 23EF     		se_cmpli %r31,31
  92 0074 7A11FFB8 		e_bgt %cr0,.L3
  93              		.loc 1 114 0
  94 0078 40F7     		se_srw %r7,%r31
  95              	.LVL9:
  96 007a 67F7     		se_btsti %r7,31
  97 007c 7A02FFBC 		e_bne %cr0,.L14
  98              		.loc 1 173 0
  99 0080 CB7E     		se_lwz %r7,44(%r30)
 100              		.loc 1 166 0
 101 0082 200F     		se_addi %r31,1
 102              	.LVL10:
 103              		.loc 1 174 0
 104 0084 CA6E     		se_lwz %r6,40(%r30)
 105              		.loc 1 97 0
 106 0086 7CC53B79 		or. %r5,%r6,%r7
 107 008a 7A02FFDE 		e_bne %cr0,.L17
 108              	.LVL11:
 109              	.L1:
 110              		.loc 1 188 0
 111 008e C701     		se_lwz %r0,28(%r1)
 112 0090 0090     		se_mtlr %r0
 113              		.cfi_restore 65
 114 0092 1BA1080C 		e_lmw %r29,12(%r1)
GAS LISTING C:\Users\Vipuls\AppData\Local\Temp\ccvVtvud.s 			page 3


 115 0096 2171     		se_addi %r1,24
 116              	.LCFI1:
 117              		.cfi_restore 31
 118              		.cfi_restore 30
 119              		.cfi_restore 29
 120              		.cfi_def_cfa_offset 0
 121 0098 0004     		se_blr
 122              		.cfi_endproc
 123              	.LFE3:
 124              		.size	vector52, .-vector52
 125              		.section	.text.vector53,"axv",@progbits
 126              		.align 1
 127              		.p2align 4,,15
 128              		.globl vector53
 129              		.type	vector53, @function
 130              	vector53:
 131              	.LFB4:
 132              		.loc 1 198 0
 133              		.cfi_startproc
 134 0000 182106F0 		e_stwu %r1,-16(%r1)
 135              	.LCFI2:
 136              		.cfi_def_cfa_offset 16
 137 0004 0080     		se_mflr %r0
 138 0006 D3F1     		se_stw %r31,12(%r1)
 139 0008 D501     		se_stw %r0,20(%r1)
 140              		.cfi_offset 65, 4
 141              		.cfi_offset 31, -4
 142              		.loc 1 202 0
 143 000a 73E0E000 		e_lis %r31,.LANCHOR0@ha
 144 000e 50FF0000 		e_lwz %r7,.LANCHOR0@l(%r31)
 145 0012 2A07     		se_cmpi %r7,0
 146 0014 7A120022 		e_beq %cr0,.L20
 147              		.loc 1 205 0
 148 0018 4805     		se_li %r5,0
 149 001a 70DEE40A 		e_lis %r6,0xf40a
 150              		.loc 1 206 0
 151 001e 4803     		se_li %r3,0
 152              		.loc 1 205 0
 153 0020 6516     		se_bseti %r6,17
 154 0022 34A6001C 		e_stb %r5,28(%r6)
 155              		.loc 1 209 0
 156 0026 C501     		se_lwz %r0,20(%r1)
 157              		.loc 1 206 0
 158 0028 C267     		se_lwz %r6,8(%r7)
 159              		.loc 1 209 0
 160 002a C3F1     		se_lwz %r31,12(%r1)
 161              		.loc 1 206 0
 162 002c C447     		se_lwz %r4,16(%r7)
 163 002e 00B6     		se_mtctr %r6
 164              		.loc 1 209 0
 165 0030 0090     		se_mtlr %r0
 166              		.cfi_remember_state
 167              		.cfi_restore 65
 168 0032 20F1     		se_addi %r1,16
 169              	.LCFI3:
 170              		.cfi_restore 31
 171              		.cfi_def_cfa_offset 0
GAS LISTING C:\Users\Vipuls\AppData\Local\Temp\ccvVtvud.s 			page 4


 172              		.loc 1 206 0
 173 0034 0006     		se_bctr
 174              	.LVL12:
 175              	.L20:
 176              	.LCFI4:
 177              		.cfi_restore_state
 178              		.loc 1 203 0
 179 0036 78000001 		e_bl irqSysHalt
 180              	.LVL13:
 181 003a 50FF0000 		e_lwz %r7,.LANCHOR0@l(%r31)
 182              		.loc 1 205 0
 183 003e 4805     		se_li %r5,0
 184 0040 70DEE40A 		e_lis %r6,0xf40a
 185              		.loc 1 206 0
 186 0044 4803     		se_li %r3,0
 187              		.loc 1 205 0
 188 0046 6516     		se_bseti %r6,17
 189 0048 34A6001C 		e_stb %r5,28(%r6)
 190              		.loc 1 209 0
 191 004c C501     		se_lwz %r0,20(%r1)
 192              		.loc 1 206 0
 193 004e C267     		se_lwz %r6,8(%r7)
 194              		.loc 1 209 0
 195 0050 C3F1     		se_lwz %r31,12(%r1)
 196              		.loc 1 206 0
 197 0052 C447     		se_lwz %r4,16(%r7)
 198 0054 00B6     		se_mtctr %r6
 199              		.loc 1 209 0
 200 0056 0090     		se_mtlr %r0
 201              		.cfi_restore 65
 202 0058 20F1     		se_addi %r1,16
 203              	.LCFI5:
 204              		.cfi_restore 31
 205              		.cfi_def_cfa_offset 0
 206              		.loc 1 206 0
 207 005a 0006     		se_bctr
 208              	.LVL14:
 209              		.cfi_endproc
 210              	.LFE4:
 211              		.size	vector53, .-vector53
 212              		.section	.text.vector54,"axv",@progbits
 213              		.align 1
 214              		.p2align 4,,15
 215              		.globl vector54
 216              		.type	vector54, @function
 217              	vector54:
 218              	.LFB5:
 219              		.loc 1 219 0
 220              		.cfi_startproc
 221 0000 182106F0 		e_stwu %r1,-16(%r1)
 222              	.LCFI6:
 223              		.cfi_def_cfa_offset 16
 224 0004 0080     		se_mflr %r0
 225 0006 D3F1     		se_stw %r31,12(%r1)
 226 0008 D501     		se_stw %r0,20(%r1)
 227              		.cfi_offset 65, 4
 228              		.cfi_offset 31, -4
GAS LISTING C:\Users\Vipuls\AppData\Local\Temp\ccvVtvud.s 			page 5


 229              		.loc 1 223 0
 230 000a 73E0E000 		e_lis %r31,.LANCHOR0@ha
 231 000e 1FFF0000 		e_la %r31,.LANCHOR0@l(%r31)
 232 0012 C17F     		se_lwz %r7,4(%r31)
 233 0014 2A07     		se_cmpi %r7,0
 234 0016 7A120022 		e_beq %cr0,.L23
 235              		.loc 1 226 0
 236 001a 4815     		se_li %r5,1
 237 001c 70DEE40A 		e_lis %r6,0xf40a
 238              		.loc 1 227 0
 239 0020 4813     		se_li %r3,1
 240              		.loc 1 226 0
 241 0022 6516     		se_bseti %r6,17
 242 0024 34A6001C 		e_stb %r5,28(%r6)
 243              		.loc 1 230 0
 244 0028 C501     		se_lwz %r0,20(%r1)
 245              		.loc 1 227 0
 246 002a C267     		se_lwz %r6,8(%r7)
 247              		.loc 1 230 0
 248 002c C3F1     		se_lwz %r31,12(%r1)
 249              		.loc 1 227 0
 250 002e C447     		se_lwz %r4,16(%r7)
 251 0030 00B6     		se_mtctr %r6
 252              		.loc 1 230 0
 253 0032 0090     		se_mtlr %r0
 254              		.cfi_remember_state
 255              		.cfi_restore 65
 256 0034 20F1     		se_addi %r1,16
 257              	.LCFI7:
 258              		.cfi_restore 31
 259              		.cfi_def_cfa_offset 0
 260              		.loc 1 227 0
 261 0036 0006     		se_bctr
 262              	.LVL15:
 263              	.L23:
 264              	.LCFI8:
 265              		.cfi_restore_state
 266              		.loc 1 224 0
 267 0038 78000001 		e_bl irqSysHalt
 268              	.LVL16:
 269 003c C17F     		se_lwz %r7,4(%r31)
 270              		.loc 1 226 0
 271 003e 4815     		se_li %r5,1
 272 0040 70DEE40A 		e_lis %r6,0xf40a
 273              		.loc 1 227 0
 274 0044 4813     		se_li %r3,1
 275              		.loc 1 226 0
 276 0046 6516     		se_bseti %r6,17
 277 0048 34A6001C 		e_stb %r5,28(%r6)
 278              		.loc 1 230 0
 279 004c C501     		se_lwz %r0,20(%r1)
 280              		.loc 1 227 0
 281 004e C267     		se_lwz %r6,8(%r7)
 282              		.loc 1 230 0
 283 0050 C3F1     		se_lwz %r31,12(%r1)
 284              		.loc 1 227 0
 285 0052 C447     		se_lwz %r4,16(%r7)
GAS LISTING C:\Users\Vipuls\AppData\Local\Temp\ccvVtvud.s 			page 6


 286 0054 00B6     		se_mtctr %r6
 287              		.loc 1 230 0
 288 0056 0090     		se_mtlr %r0
 289              		.cfi_restore 65
 290 0058 20F1     		se_addi %r1,16
 291              	.LCFI9:
 292              		.cfi_restore 31
 293              		.cfi_def_cfa_offset 0
 294              		.loc 1 227 0
 295 005a 0006     		se_bctr
 296              	.LVL17:
 297              		.cfi_endproc
 298              	.LFE5:
 299              		.size	vector54, .-vector54
 300              		.section	.text.vector55,"axv",@progbits
 301              		.align 1
 302              		.p2align 4,,15
 303              		.globl vector55
 304              		.type	vector55, @function
 305              	vector55:
 306              	.LFB6:
 307              		.loc 1 240 0
 308              		.cfi_startproc
 309 0000 182106F0 		e_stwu %r1,-16(%r1)
 310              	.LCFI10:
 311              		.cfi_def_cfa_offset 16
 312 0004 0080     		se_mflr %r0
 313 0006 D3F1     		se_stw %r31,12(%r1)
 314 0008 D501     		se_stw %r0,20(%r1)
 315              		.cfi_offset 65, 4
 316              		.cfi_offset 31, -4
 317              		.loc 1 244 0
 318 000a 73E0E000 		e_lis %r31,.LANCHOR0@ha
 319 000e 1FFF0000 		e_la %r31,.LANCHOR0@l(%r31)
 320 0012 C27F     		se_lwz %r7,8(%r31)
 321 0014 2A07     		se_cmpi %r7,0
 322 0016 7A120022 		e_beq %cr0,.L26
 323              		.loc 1 247 0
 324 001a 4825     		se_li %r5,2
 325 001c 70DEE40A 		e_lis %r6,0xf40a
 326              		.loc 1 248 0
 327 0020 4823     		se_li %r3,2
 328              		.loc 1 247 0
 329 0022 6516     		se_bseti %r6,17
 330 0024 34A6001C 		e_stb %r5,28(%r6)
 331              		.loc 1 251 0
 332 0028 C501     		se_lwz %r0,20(%r1)
 333              		.loc 1 248 0
 334 002a C267     		se_lwz %r6,8(%r7)
 335              		.loc 1 251 0
 336 002c C3F1     		se_lwz %r31,12(%r1)
 337              		.loc 1 248 0
 338 002e C447     		se_lwz %r4,16(%r7)
 339 0030 00B6     		se_mtctr %r6
 340              		.loc 1 251 0
 341 0032 0090     		se_mtlr %r0
 342              		.cfi_remember_state
GAS LISTING C:\Users\Vipuls\AppData\Local\Temp\ccvVtvud.s 			page 7


 343              		.cfi_restore 65
 344 0034 20F1     		se_addi %r1,16
 345              	.LCFI11:
 346              		.cfi_restore 31
 347              		.cfi_def_cfa_offset 0
 348              		.loc 1 248 0
 349 0036 0006     		se_bctr
 350              	.LVL18:
 351              	.L26:
 352              	.LCFI12:
 353              		.cfi_restore_state
 354              		.loc 1 245 0
 355 0038 78000001 		e_bl irqSysHalt
 356              	.LVL19:
 357 003c C27F     		se_lwz %r7,8(%r31)
 358              		.loc 1 247 0
 359 003e 4825     		se_li %r5,2
 360 0040 70DEE40A 		e_lis %r6,0xf40a
 361              		.loc 1 248 0
 362 0044 4823     		se_li %r3,2
 363              		.loc 1 247 0
 364 0046 6516     		se_bseti %r6,17
 365 0048 34A6001C 		e_stb %r5,28(%r6)
 366              		.loc 1 251 0
 367 004c C501     		se_lwz %r0,20(%r1)
 368              		.loc 1 248 0
 369 004e C267     		se_lwz %r6,8(%r7)
 370              		.loc 1 251 0
 371 0050 C3F1     		se_lwz %r31,12(%r1)
 372              		.loc 1 248 0
 373 0052 C447     		se_lwz %r4,16(%r7)
 374 0054 00B6     		se_mtctr %r6
 375              		.loc 1 251 0
 376 0056 0090     		se_mtlr %r0
 377              		.cfi_restore 65
 378 0058 20F1     		se_addi %r1,16
 379              	.LCFI13:
 380              		.cfi_restore 31
 381              		.cfi_def_cfa_offset 0
 382              		.loc 1 248 0
 383 005a 0006     		se_bctr
 384              	.LVL20:
 385              		.cfi_endproc
 386              	.LFE6:
 387              		.size	vector55, .-vector55
 388              		.section	.text.vector56,"axv",@progbits
 389              		.align 1
 390              		.p2align 4,,15
 391              		.globl vector56
 392              		.type	vector56, @function
 393              	vector56:
 394              	.LFB7:
 395              		.loc 1 261 0
 396              		.cfi_startproc
 397 0000 182106F0 		e_stwu %r1,-16(%r1)
 398              	.LCFI14:
 399              		.cfi_def_cfa_offset 16
GAS LISTING C:\Users\Vipuls\AppData\Local\Temp\ccvVtvud.s 			page 8


 400 0004 0080     		se_mflr %r0
 401 0006 D3F1     		se_stw %r31,12(%r1)
 402 0008 D501     		se_stw %r0,20(%r1)
 403              		.cfi_offset 65, 4
 404              		.cfi_offset 31, -4
 405              		.loc 1 265 0
 406 000a 73E0E000 		e_lis %r31,.LANCHOR0@ha
 407 000e 1FFF0000 		e_la %r31,.LANCHOR0@l(%r31)
 408 0012 C37F     		se_lwz %r7,12(%r31)
 409 0014 2A07     		se_cmpi %r7,0
 410 0016 7A120022 		e_beq %cr0,.L29
 411              		.loc 1 268 0
 412 001a 4835     		se_li %r5,3
 413 001c 70DEE40A 		e_lis %r6,0xf40a
 414              		.loc 1 269 0
 415 0020 4833     		se_li %r3,3
 416              		.loc 1 268 0
 417 0022 6516     		se_bseti %r6,17
 418 0024 34A6001C 		e_stb %r5,28(%r6)
 419              		.loc 1 272 0
 420 0028 C501     		se_lwz %r0,20(%r1)
 421              		.loc 1 269 0
 422 002a C267     		se_lwz %r6,8(%r7)
 423              		.loc 1 272 0
 424 002c C3F1     		se_lwz %r31,12(%r1)
 425              		.loc 1 269 0
 426 002e C447     		se_lwz %r4,16(%r7)
 427 0030 00B6     		se_mtctr %r6
 428              		.loc 1 272 0
 429 0032 0090     		se_mtlr %r0
 430              		.cfi_remember_state
 431              		.cfi_restore 65
 432 0034 20F1     		se_addi %r1,16
 433              	.LCFI15:
 434              		.cfi_restore 31
 435              		.cfi_def_cfa_offset 0
 436              		.loc 1 269 0
 437 0036 0006     		se_bctr
 438              	.LVL21:
 439              	.L29:
 440              	.LCFI16:
 441              		.cfi_restore_state
 442              		.loc 1 266 0
 443 0038 78000001 		e_bl irqSysHalt
 444              	.LVL22:
 445 003c C37F     		se_lwz %r7,12(%r31)
 446              		.loc 1 268 0
 447 003e 4835     		se_li %r5,3
 448 0040 70DEE40A 		e_lis %r6,0xf40a
 449              		.loc 1 269 0
 450 0044 4833     		se_li %r3,3
 451              		.loc 1 268 0
 452 0046 6516     		se_bseti %r6,17
 453 0048 34A6001C 		e_stb %r5,28(%r6)
 454              		.loc 1 272 0
 455 004c C501     		se_lwz %r0,20(%r1)
 456              		.loc 1 269 0
GAS LISTING C:\Users\Vipuls\AppData\Local\Temp\ccvVtvud.s 			page 9


 457 004e C267     		se_lwz %r6,8(%r7)
 458              		.loc 1 272 0
 459 0050 C3F1     		se_lwz %r31,12(%r1)
 460              		.loc 1 269 0
 461 0052 C447     		se_lwz %r4,16(%r7)
 462 0054 00B6     		se_mtctr %r6
 463              		.loc 1 272 0
 464 0056 0090     		se_mtlr %r0
 465              		.cfi_restore 65
 466 0058 20F1     		se_addi %r1,16
 467              	.LCFI17:
 468              		.cfi_restore 31
 469              		.cfi_def_cfa_offset 0
 470              		.loc 1 269 0
 471 005a 0006     		se_bctr
 472              	.LVL23:
 473              		.cfi_endproc
 474              	.LFE7:
 475              		.size	vector56, .-vector56
 476              		.section	.text.vector57,"axv",@progbits
 477              		.align 1
 478              		.p2align 4,,15
 479              		.globl vector57
 480              		.type	vector57, @function
 481              	vector57:
 482              	.LFB8:
 483              		.loc 1 282 0
 484              		.cfi_startproc
 485 0000 182106F0 		e_stwu %r1,-16(%r1)
 486              	.LCFI18:
 487              		.cfi_def_cfa_offset 16
 488 0004 0080     		se_mflr %r0
 489 0006 D3F1     		se_stw %r31,12(%r1)
 490 0008 D501     		se_stw %r0,20(%r1)
 491              		.cfi_offset 65, 4
 492              		.cfi_offset 31, -4
 493              		.loc 1 286 0
 494 000a 73E0E000 		e_lis %r31,.LANCHOR0@ha
 495 000e 1FFF0000 		e_la %r31,.LANCHOR0@l(%r31)
 496 0012 C47F     		se_lwz %r7,16(%r31)
 497 0014 2A07     		se_cmpi %r7,0
 498 0016 7A120022 		e_beq %cr0,.L32
 499              		.loc 1 289 0
 500 001a 4845     		se_li %r5,4
 501 001c 70DEE40A 		e_lis %r6,0xf40a
 502              		.loc 1 290 0
 503 0020 4843     		se_li %r3,4
 504              		.loc 1 289 0
 505 0022 6516     		se_bseti %r6,17
 506 0024 34A6001C 		e_stb %r5,28(%r6)
 507              		.loc 1 293 0
 508 0028 C501     		se_lwz %r0,20(%r1)
 509              		.loc 1 290 0
 510 002a C267     		se_lwz %r6,8(%r7)
 511              		.loc 1 293 0
 512 002c C3F1     		se_lwz %r31,12(%r1)
 513              		.loc 1 290 0
GAS LISTING C:\Users\Vipuls\AppData\Local\Temp\ccvVtvud.s 			page 10


 514 002e C447     		se_lwz %r4,16(%r7)
 515 0030 00B6     		se_mtctr %r6
 516              		.loc 1 293 0
 517 0032 0090     		se_mtlr %r0
 518              		.cfi_remember_state
 519              		.cfi_restore 65
 520 0034 20F1     		se_addi %r1,16
 521              	.LCFI19:
 522              		.cfi_restore 31
 523              		.cfi_def_cfa_offset 0
 524              		.loc 1 290 0
 525 0036 0006     		se_bctr
 526              	.LVL24:
 527              	.L32:
 528              	.LCFI20:
 529              		.cfi_restore_state
 530              		.loc 1 287 0
 531 0038 78000001 		e_bl irqSysHalt
 532              	.LVL25:
 533 003c C47F     		se_lwz %r7,16(%r31)
 534              		.loc 1 289 0
 535 003e 4845     		se_li %r5,4
 536 0040 70DEE40A 		e_lis %r6,0xf40a
 537              		.loc 1 290 0
 538 0044 4843     		se_li %r3,4
 539              		.loc 1 289 0
 540 0046 6516     		se_bseti %r6,17
 541 0048 34A6001C 		e_stb %r5,28(%r6)
 542              		.loc 1 293 0
 543 004c C501     		se_lwz %r0,20(%r1)
 544              		.loc 1 290 0
 545 004e C267     		se_lwz %r6,8(%r7)
 546              		.loc 1 293 0
 547 0050 C3F1     		se_lwz %r31,12(%r1)
 548              		.loc 1 290 0
 549 0052 C447     		se_lwz %r4,16(%r7)
 550 0054 00B6     		se_mtctr %r6
 551              		.loc 1 293 0
 552 0056 0090     		se_mtlr %r0
 553              		.cfi_restore 65
 554 0058 20F1     		se_addi %r1,16
 555              	.LCFI21:
 556              		.cfi_restore 31
 557              		.cfi_def_cfa_offset 0
 558              		.loc 1 290 0
 559 005a 0006     		se_bctr
 560              	.LVL26:
 561              		.cfi_endproc
 562              	.LFE8:
 563              		.size	vector57, .-vector57
 564              		.section	.text.vector58,"axv",@progbits
 565              		.align 1
 566              		.p2align 4,,15
 567              		.globl vector58
 568              		.type	vector58, @function
 569              	vector58:
 570              	.LFB9:
GAS LISTING C:\Users\Vipuls\AppData\Local\Temp\ccvVtvud.s 			page 11


 571              		.loc 1 303 0
 572              		.cfi_startproc
 573 0000 182106F0 		e_stwu %r1,-16(%r1)
 574              	.LCFI22:
 575              		.cfi_def_cfa_offset 16
 576 0004 0080     		se_mflr %r0
 577 0006 D3F1     		se_stw %r31,12(%r1)
 578 0008 D501     		se_stw %r0,20(%r1)
 579              		.cfi_offset 65, 4
 580              		.cfi_offset 31, -4
 581              		.loc 1 307 0
 582 000a 73E0E000 		e_lis %r31,.LANCHOR0@ha
 583 000e 1FFF0000 		e_la %r31,.LANCHOR0@l(%r31)
 584 0012 C57F     		se_lwz %r7,20(%r31)
 585 0014 2A07     		se_cmpi %r7,0
 586 0016 7A120022 		e_beq %cr0,.L35
 587              		.loc 1 310 0
 588 001a 4855     		se_li %r5,5
 589 001c 70DEE40A 		e_lis %r6,0xf40a
 590              		.loc 1 311 0
 591 0020 4853     		se_li %r3,5
 592              		.loc 1 310 0
 593 0022 6516     		se_bseti %r6,17
 594 0024 34A6001C 		e_stb %r5,28(%r6)
 595              		.loc 1 314 0
 596 0028 C501     		se_lwz %r0,20(%r1)
 597              		.loc 1 311 0
 598 002a C267     		se_lwz %r6,8(%r7)
 599              		.loc 1 314 0
 600 002c C3F1     		se_lwz %r31,12(%r1)
 601              		.loc 1 311 0
 602 002e C447     		se_lwz %r4,16(%r7)
 603 0030 00B6     		se_mtctr %r6
 604              		.loc 1 314 0
 605 0032 0090     		se_mtlr %r0
 606              		.cfi_remember_state
 607              		.cfi_restore 65
 608 0034 20F1     		se_addi %r1,16
 609              	.LCFI23:
 610              		.cfi_restore 31
 611              		.cfi_def_cfa_offset 0
 612              		.loc 1 311 0
 613 0036 0006     		se_bctr
 614              	.LVL27:
 615              	.L35:
 616              	.LCFI24:
 617              		.cfi_restore_state
 618              		.loc 1 308 0
 619 0038 78000001 		e_bl irqSysHalt
 620              	.LVL28:
 621 003c C57F     		se_lwz %r7,20(%r31)
 622              		.loc 1 310 0
 623 003e 4855     		se_li %r5,5
 624 0040 70DEE40A 		e_lis %r6,0xf40a
 625              		.loc 1 311 0
 626 0044 4853     		se_li %r3,5
 627              		.loc 1 310 0
GAS LISTING C:\Users\Vipuls\AppData\Local\Temp\ccvVtvud.s 			page 12


 628 0046 6516     		se_bseti %r6,17
 629 0048 34A6001C 		e_stb %r5,28(%r6)
 630              		.loc 1 314 0
 631 004c C501     		se_lwz %r0,20(%r1)
 632              		.loc 1 311 0
 633 004e C267     		se_lwz %r6,8(%r7)
 634              		.loc 1 314 0
 635 0050 C3F1     		se_lwz %r31,12(%r1)
 636              		.loc 1 311 0
 637 0052 C447     		se_lwz %r4,16(%r7)
 638 0054 00B6     		se_mtctr %r6
 639              		.loc 1 314 0
 640 0056 0090     		se_mtlr %r0
 641              		.cfi_restore 65
 642 0058 20F1     		se_addi %r1,16
 643              	.LCFI25:
 644              		.cfi_restore 31
 645              		.cfi_def_cfa_offset 0
 646              		.loc 1 311 0
 647 005a 0006     		se_bctr
 648              	.LVL29:
 649              		.cfi_endproc
 650              	.LFE9:
 651              		.size	vector58, .-vector58
 652              		.section	.text.vector59,"axv",@progbits
 653              		.align 1
 654              		.p2align 4,,15
 655              		.globl vector59
 656              		.type	vector59, @function
 657              	vector59:
 658              	.LFB10:
 659              		.loc 1 324 0
 660              		.cfi_startproc
 661 0000 182106F0 		e_stwu %r1,-16(%r1)
 662              	.LCFI26:
 663              		.cfi_def_cfa_offset 16
 664 0004 0080     		se_mflr %r0
 665 0006 D3F1     		se_stw %r31,12(%r1)
 666 0008 D501     		se_stw %r0,20(%r1)
 667              		.cfi_offset 65, 4
 668              		.cfi_offset 31, -4
 669              		.loc 1 328 0
 670 000a 73E0E000 		e_lis %r31,.LANCHOR0@ha
 671 000e 1FFF0000 		e_la %r31,.LANCHOR0@l(%r31)
 672 0012 C67F     		se_lwz %r7,24(%r31)
 673 0014 2A07     		se_cmpi %r7,0
 674 0016 7A120022 		e_beq %cr0,.L38
 675              		.loc 1 331 0
 676 001a 4865     		se_li %r5,6
 677 001c 70DEE40A 		e_lis %r6,0xf40a
 678              		.loc 1 332 0
 679 0020 4863     		se_li %r3,6
 680              		.loc 1 331 0
 681 0022 6516     		se_bseti %r6,17
 682 0024 34A6001C 		e_stb %r5,28(%r6)
 683              		.loc 1 335 0
 684 0028 C501     		se_lwz %r0,20(%r1)
GAS LISTING C:\Users\Vipuls\AppData\Local\Temp\ccvVtvud.s 			page 13


 685              		.loc 1 332 0
 686 002a C267     		se_lwz %r6,8(%r7)
 687              		.loc 1 335 0
 688 002c C3F1     		se_lwz %r31,12(%r1)
 689              		.loc 1 332 0
 690 002e C447     		se_lwz %r4,16(%r7)
 691 0030 00B6     		se_mtctr %r6
 692              		.loc 1 335 0
 693 0032 0090     		se_mtlr %r0
 694              		.cfi_remember_state
 695              		.cfi_restore 65
 696 0034 20F1     		se_addi %r1,16
 697              	.LCFI27:
 698              		.cfi_restore 31
 699              		.cfi_def_cfa_offset 0
 700              		.loc 1 332 0
 701 0036 0006     		se_bctr
 702              	.LVL30:
 703              	.L38:
 704              	.LCFI28:
 705              		.cfi_restore_state
 706              		.loc 1 329 0
 707 0038 78000001 		e_bl irqSysHalt
 708              	.LVL31:
 709 003c C67F     		se_lwz %r7,24(%r31)
 710              		.loc 1 331 0
 711 003e 4865     		se_li %r5,6
 712 0040 70DEE40A 		e_lis %r6,0xf40a
 713              		.loc 1 332 0
 714 0044 4863     		se_li %r3,6
 715              		.loc 1 331 0
 716 0046 6516     		se_bseti %r6,17
 717 0048 34A6001C 		e_stb %r5,28(%r6)
 718              		.loc 1 335 0
 719 004c C501     		se_lwz %r0,20(%r1)
 720              		.loc 1 332 0
 721 004e C267     		se_lwz %r6,8(%r7)
 722              		.loc 1 335 0
 723 0050 C3F1     		se_lwz %r31,12(%r1)
 724              		.loc 1 332 0
 725 0052 C447     		se_lwz %r4,16(%r7)
 726 0054 00B6     		se_mtctr %r6
 727              		.loc 1 335 0
 728 0056 0090     		se_mtlr %r0
 729              		.cfi_restore 65
 730 0058 20F1     		se_addi %r1,16
 731              	.LCFI29:
 732              		.cfi_restore 31
 733              		.cfi_def_cfa_offset 0
 734              		.loc 1 332 0
 735 005a 0006     		se_bctr
 736              	.LVL32:
 737              		.cfi_endproc
 738              	.LFE10:
 739              		.size	vector59, .-vector59
 740              		.section	.text.vector60,"axv",@progbits
 741              		.align 1
GAS LISTING C:\Users\Vipuls\AppData\Local\Temp\ccvVtvud.s 			page 14


 742              		.p2align 4,,15
 743              		.globl vector60
 744              		.type	vector60, @function
 745              	vector60:
 746              	.LFB11:
 747              		.loc 1 345 0
 748              		.cfi_startproc
 749 0000 182106F0 		e_stwu %r1,-16(%r1)
 750              	.LCFI30:
 751              		.cfi_def_cfa_offset 16
 752 0004 0080     		se_mflr %r0
 753 0006 D3F1     		se_stw %r31,12(%r1)
 754 0008 D501     		se_stw %r0,20(%r1)
 755              		.cfi_offset 65, 4
 756              		.cfi_offset 31, -4
 757              		.loc 1 349 0
 758 000a 73E0E000 		e_lis %r31,.LANCHOR0@ha
 759 000e 1FFF0000 		e_la %r31,.LANCHOR0@l(%r31)
 760 0012 C77F     		se_lwz %r7,28(%r31)
 761 0014 2A07     		se_cmpi %r7,0
 762 0016 7A120022 		e_beq %cr0,.L41
 763              		.loc 1 352 0
 764 001a 4875     		se_li %r5,7
 765 001c 70DEE40A 		e_lis %r6,0xf40a
 766              		.loc 1 353 0
 767 0020 4873     		se_li %r3,7
 768              		.loc 1 352 0
 769 0022 6516     		se_bseti %r6,17
 770 0024 34A6001C 		e_stb %r5,28(%r6)
 771              		.loc 1 356 0
 772 0028 C501     		se_lwz %r0,20(%r1)
 773              		.loc 1 353 0
 774 002a C267     		se_lwz %r6,8(%r7)
 775              		.loc 1 356 0
 776 002c C3F1     		se_lwz %r31,12(%r1)
 777              		.loc 1 353 0
 778 002e C447     		se_lwz %r4,16(%r7)
 779 0030 00B6     		se_mtctr %r6
 780              		.loc 1 356 0
 781 0032 0090     		se_mtlr %r0
 782              		.cfi_remember_state
 783              		.cfi_restore 65
 784 0034 20F1     		se_addi %r1,16
 785              	.LCFI31:
 786              		.cfi_restore 31
 787              		.cfi_def_cfa_offset 0
 788              		.loc 1 353 0
 789 0036 0006     		se_bctr
 790              	.LVL33:
 791              	.L41:
 792              	.LCFI32:
 793              		.cfi_restore_state
 794              		.loc 1 350 0
 795 0038 78000001 		e_bl irqSysHalt
 796              	.LVL34:
 797 003c C77F     		se_lwz %r7,28(%r31)
 798              		.loc 1 352 0
GAS LISTING C:\Users\Vipuls\AppData\Local\Temp\ccvVtvud.s 			page 15


 799 003e 4875     		se_li %r5,7
 800 0040 70DEE40A 		e_lis %r6,0xf40a
 801              		.loc 1 353 0
 802 0044 4873     		se_li %r3,7
 803              		.loc 1 352 0
 804 0046 6516     		se_bseti %r6,17
 805 0048 34A6001C 		e_stb %r5,28(%r6)
 806              		.loc 1 356 0
 807 004c C501     		se_lwz %r0,20(%r1)
 808              		.loc 1 353 0
 809 004e C267     		se_lwz %r6,8(%r7)
 810              		.loc 1 356 0
 811 0050 C3F1     		se_lwz %r31,12(%r1)
 812              		.loc 1 353 0
 813 0052 C447     		se_lwz %r4,16(%r7)
 814 0054 00B6     		se_mtctr %r6
 815              		.loc 1 356 0
 816 0056 0090     		se_mtlr %r0
 817              		.cfi_restore 65
 818 0058 20F1     		se_addi %r1,16
 819              	.LCFI33:
 820              		.cfi_restore 31
 821              		.cfi_def_cfa_offset 0
 822              		.loc 1 353 0
 823 005a 0006     		se_bctr
 824              	.LVL35:
 825              		.cfi_endproc
 826              	.LFE11:
 827              		.size	vector60, .-vector60
 828              		.section	.text.vector61,"axv",@progbits
 829              		.align 1
 830              		.p2align 4,,15
 831              		.globl vector61
 832              		.type	vector61, @function
 833              	vector61:
 834              	.LFB12:
 835              		.loc 1 366 0
 836              		.cfi_startproc
 837 0000 182106F0 		e_stwu %r1,-16(%r1)
 838              	.LCFI34:
 839              		.cfi_def_cfa_offset 16
 840 0004 0080     		se_mflr %r0
 841 0006 D3F1     		se_stw %r31,12(%r1)
 842 0008 D501     		se_stw %r0,20(%r1)
 843              		.cfi_offset 65, 4
 844              		.cfi_offset 31, -4
 845              		.loc 1 370 0
 846 000a 73E0E000 		e_lis %r31,.LANCHOR0@ha
 847 000e 1FFF0000 		e_la %r31,.LANCHOR0@l(%r31)
 848 0012 C87F     		se_lwz %r7,32(%r31)
 849 0014 2A07     		se_cmpi %r7,0
 850 0016 7A120022 		e_beq %cr0,.L44
 851              		.loc 1 373 0
 852 001a 4885     		se_li %r5,8
 853 001c 70DEE40A 		e_lis %r6,0xf40a
 854              		.loc 1 374 0
 855 0020 4883     		se_li %r3,8
GAS LISTING C:\Users\Vipuls\AppData\Local\Temp\ccvVtvud.s 			page 16


 856              		.loc 1 373 0
 857 0022 6516     		se_bseti %r6,17
 858 0024 34A6001C 		e_stb %r5,28(%r6)
 859              		.loc 1 377 0
 860 0028 C501     		se_lwz %r0,20(%r1)
 861              		.loc 1 374 0
 862 002a C267     		se_lwz %r6,8(%r7)
 863              		.loc 1 377 0
 864 002c C3F1     		se_lwz %r31,12(%r1)
 865              		.loc 1 374 0
 866 002e C447     		se_lwz %r4,16(%r7)
 867 0030 00B6     		se_mtctr %r6
 868              		.loc 1 377 0
 869 0032 0090     		se_mtlr %r0
 870              		.cfi_remember_state
 871              		.cfi_restore 65
 872 0034 20F1     		se_addi %r1,16
 873              	.LCFI35:
 874              		.cfi_restore 31
 875              		.cfi_def_cfa_offset 0
 876              		.loc 1 374 0
 877 0036 0006     		se_bctr
 878              	.LVL36:
 879              	.L44:
 880              	.LCFI36:
 881              		.cfi_restore_state
 882              		.loc 1 371 0
 883 0038 78000001 		e_bl irqSysHalt
 884              	.LVL37:
 885 003c C87F     		se_lwz %r7,32(%r31)
 886              		.loc 1 373 0
 887 003e 4885     		se_li %r5,8
 888 0040 70DEE40A 		e_lis %r6,0xf40a
 889              		.loc 1 374 0
 890 0044 4883     		se_li %r3,8
 891              		.loc 1 373 0
 892 0046 6516     		se_bseti %r6,17
 893 0048 34A6001C 		e_stb %r5,28(%r6)
 894              		.loc 1 377 0
 895 004c C501     		se_lwz %r0,20(%r1)
 896              		.loc 1 374 0
 897 004e C267     		se_lwz %r6,8(%r7)
 898              		.loc 1 377 0
 899 0050 C3F1     		se_lwz %r31,12(%r1)
 900              		.loc 1 374 0
 901 0052 C447     		se_lwz %r4,16(%r7)
 902 0054 00B6     		se_mtctr %r6
 903              		.loc 1 377 0
 904 0056 0090     		se_mtlr %r0
 905              		.cfi_restore 65
 906 0058 20F1     		se_addi %r1,16
 907              	.LCFI37:
 908              		.cfi_restore 31
 909              		.cfi_def_cfa_offset 0
 910              		.loc 1 374 0
 911 005a 0006     		se_bctr
 912              	.LVL38:
GAS LISTING C:\Users\Vipuls\AppData\Local\Temp\ccvVtvud.s 			page 17


 913              		.cfi_endproc
 914              	.LFE12:
 915              		.size	vector61, .-vector61
 916              		.section	.text.vector62,"axv",@progbits
 917              		.align 1
 918              		.p2align 4,,15
 919              		.globl vector62
 920              		.type	vector62, @function
 921              	vector62:
 922              	.LFB13:
 923              		.loc 1 387 0
 924              		.cfi_startproc
 925 0000 182106F0 		e_stwu %r1,-16(%r1)
 926              	.LCFI38:
 927              		.cfi_def_cfa_offset 16
 928 0004 0080     		se_mflr %r0
 929 0006 D3F1     		se_stw %r31,12(%r1)
 930 0008 D501     		se_stw %r0,20(%r1)
 931              		.cfi_offset 65, 4
 932              		.cfi_offset 31, -4
 933              		.loc 1 391 0
 934 000a 73E0E000 		e_lis %r31,.LANCHOR0@ha
 935 000e 1FFF0000 		e_la %r31,.LANCHOR0@l(%r31)
 936 0012 C97F     		se_lwz %r7,36(%r31)
 937 0014 2A07     		se_cmpi %r7,0
 938 0016 7A120022 		e_beq %cr0,.L47
 939              		.loc 1 394 0
 940 001a 4895     		se_li %r5,9
 941 001c 70DEE40A 		e_lis %r6,0xf40a
 942              		.loc 1 395 0
 943 0020 4893     		se_li %r3,9
 944              		.loc 1 394 0
 945 0022 6516     		se_bseti %r6,17
 946 0024 34A6001C 		e_stb %r5,28(%r6)
 947              		.loc 1 398 0
 948 0028 C501     		se_lwz %r0,20(%r1)
 949              		.loc 1 395 0
 950 002a C267     		se_lwz %r6,8(%r7)
 951              		.loc 1 398 0
 952 002c C3F1     		se_lwz %r31,12(%r1)
 953              		.loc 1 395 0
 954 002e C447     		se_lwz %r4,16(%r7)
 955 0030 00B6     		se_mtctr %r6
 956              		.loc 1 398 0
 957 0032 0090     		se_mtlr %r0
 958              		.cfi_remember_state
 959              		.cfi_restore 65
 960 0034 20F1     		se_addi %r1,16
 961              	.LCFI39:
 962              		.cfi_restore 31
 963              		.cfi_def_cfa_offset 0
 964              		.loc 1 395 0
 965 0036 0006     		se_bctr
 966              	.LVL39:
 967              	.L47:
 968              	.LCFI40:
 969              		.cfi_restore_state
GAS LISTING C:\Users\Vipuls\AppData\Local\Temp\ccvVtvud.s 			page 18


 970              		.loc 1 392 0
 971 0038 78000001 		e_bl irqSysHalt
 972              	.LVL40:
 973 003c C97F     		se_lwz %r7,36(%r31)
 974              		.loc 1 394 0
 975 003e 4895     		se_li %r5,9
 976 0040 70DEE40A 		e_lis %r6,0xf40a
 977              		.loc 1 395 0
 978 0044 4893     		se_li %r3,9
 979              		.loc 1 394 0
 980 0046 6516     		se_bseti %r6,17
 981 0048 34A6001C 		e_stb %r5,28(%r6)
 982              		.loc 1 398 0
 983 004c C501     		se_lwz %r0,20(%r1)
 984              		.loc 1 395 0
 985 004e C267     		se_lwz %r6,8(%r7)
 986              		.loc 1 398 0
 987 0050 C3F1     		se_lwz %r31,12(%r1)
 988              		.loc 1 395 0
 989 0052 C447     		se_lwz %r4,16(%r7)
 990 0054 00B6     		se_mtctr %r6
 991              		.loc 1 398 0
 992 0056 0090     		se_mtlr %r0
 993              		.cfi_restore 65
 994 0058 20F1     		se_addi %r1,16
 995              	.LCFI41:
 996              		.cfi_restore 31
 997              		.cfi_def_cfa_offset 0
 998              		.loc 1 395 0
 999 005a 0006     		se_bctr
 1000              	.LVL41:
 1001              		.cfi_endproc
 1002              	.LFE13:
 1003              		.size	vector62, .-vector62
 1004              		.section	.text.vector63,"axv",@progbits
 1005              		.align 1
 1006              		.p2align 4,,15
 1007              		.globl vector63
 1008              		.type	vector63, @function
 1009              	vector63:
 1010              	.LFB14:
 1011              		.loc 1 408 0
 1012              		.cfi_startproc
 1013 0000 182106F0 		e_stwu %r1,-16(%r1)
 1014              	.LCFI42:
 1015              		.cfi_def_cfa_offset 16
 1016 0004 0080     		se_mflr %r0
 1017 0006 D3F1     		se_stw %r31,12(%r1)
 1018 0008 D501     		se_stw %r0,20(%r1)
 1019              		.cfi_offset 65, 4
 1020              		.cfi_offset 31, -4
 1021              		.loc 1 412 0
 1022 000a 73E0E000 		e_lis %r31,.LANCHOR0@ha
 1023 000e 1FFF0000 		e_la %r31,.LANCHOR0@l(%r31)
 1024 0012 CA7F     		se_lwz %r7,40(%r31)
 1025 0014 2A07     		se_cmpi %r7,0
 1026 0016 7A120022 		e_beq %cr0,.L50
GAS LISTING C:\Users\Vipuls\AppData\Local\Temp\ccvVtvud.s 			page 19


 1027              		.loc 1 415 0
 1028 001a 48A5     		se_li %r5,10
 1029 001c 70DEE40A 		e_lis %r6,0xf40a
 1030              		.loc 1 416 0
 1031 0020 48A3     		se_li %r3,10
 1032              		.loc 1 415 0
 1033 0022 6516     		se_bseti %r6,17
 1034 0024 34A6001C 		e_stb %r5,28(%r6)
 1035              		.loc 1 419 0
 1036 0028 C501     		se_lwz %r0,20(%r1)
 1037              		.loc 1 416 0
 1038 002a C267     		se_lwz %r6,8(%r7)
 1039              		.loc 1 419 0
 1040 002c C3F1     		se_lwz %r31,12(%r1)
 1041              		.loc 1 416 0
 1042 002e C447     		se_lwz %r4,16(%r7)
 1043 0030 00B6     		se_mtctr %r6
 1044              		.loc 1 419 0
 1045 0032 0090     		se_mtlr %r0
 1046              		.cfi_remember_state
 1047              		.cfi_restore 65
 1048 0034 20F1     		se_addi %r1,16
 1049              	.LCFI43:
 1050              		.cfi_restore 31
 1051              		.cfi_def_cfa_offset 0
 1052              		.loc 1 416 0
 1053 0036 0006     		se_bctr
 1054              	.LVL42:
 1055              	.L50:
 1056              	.LCFI44:
 1057              		.cfi_restore_state
 1058              		.loc 1 413 0
 1059 0038 78000001 		e_bl irqSysHalt
 1060              	.LVL43:
 1061 003c CA7F     		se_lwz %r7,40(%r31)
 1062              		.loc 1 415 0
 1063 003e 48A5     		se_li %r5,10
 1064 0040 70DEE40A 		e_lis %r6,0xf40a
 1065              		.loc 1 416 0
 1066 0044 48A3     		se_li %r3,10
 1067              		.loc 1 415 0
 1068 0046 6516     		se_bseti %r6,17
 1069 0048 34A6001C 		e_stb %r5,28(%r6)
 1070              		.loc 1 419 0
 1071 004c C501     		se_lwz %r0,20(%r1)
 1072              		.loc 1 416 0
 1073 004e C267     		se_lwz %r6,8(%r7)
 1074              		.loc 1 419 0
 1075 0050 C3F1     		se_lwz %r31,12(%r1)
 1076              		.loc 1 416 0
 1077 0052 C447     		se_lwz %r4,16(%r7)
 1078 0054 00B6     		se_mtctr %r6
 1079              		.loc 1 419 0
 1080 0056 0090     		se_mtlr %r0
 1081              		.cfi_restore 65
 1082 0058 20F1     		se_addi %r1,16
 1083              	.LCFI45:
GAS LISTING C:\Users\Vipuls\AppData\Local\Temp\ccvVtvud.s 			page 20


 1084              		.cfi_restore 31
 1085              		.cfi_def_cfa_offset 0
 1086              		.loc 1 416 0
 1087 005a 0006     		se_bctr
 1088              	.LVL44:
 1089              		.cfi_endproc
 1090              	.LFE14:
 1091              		.size	vector63, .-vector63
 1092              		.section	.text.vector64,"axv",@progbits
 1093              		.align 1
 1094              		.p2align 4,,15
 1095              		.globl vector64
 1096              		.type	vector64, @function
 1097              	vector64:
 1098              	.LFB15:
 1099              		.loc 1 429 0
 1100              		.cfi_startproc
 1101 0000 182106F0 		e_stwu %r1,-16(%r1)
 1102              	.LCFI46:
 1103              		.cfi_def_cfa_offset 16
 1104 0004 0080     		se_mflr %r0
 1105 0006 D3F1     		se_stw %r31,12(%r1)
 1106 0008 D501     		se_stw %r0,20(%r1)
 1107              		.cfi_offset 65, 4
 1108              		.cfi_offset 31, -4
 1109              		.loc 1 433 0
 1110 000a 73E0E000 		e_lis %r31,.LANCHOR0@ha
 1111 000e 1FFF0000 		e_la %r31,.LANCHOR0@l(%r31)
 1112 0012 CB7F     		se_lwz %r7,44(%r31)
 1113 0014 2A07     		se_cmpi %r7,0
 1114 0016 7A120022 		e_beq %cr0,.L53
 1115              		.loc 1 436 0
 1116 001a 48B5     		se_li %r5,11
 1117 001c 70DEE40A 		e_lis %r6,0xf40a
 1118              		.loc 1 437 0
 1119 0020 48B3     		se_li %r3,11
 1120              		.loc 1 436 0
 1121 0022 6516     		se_bseti %r6,17
 1122 0024 34A6001C 		e_stb %r5,28(%r6)
 1123              		.loc 1 440 0
 1124 0028 C501     		se_lwz %r0,20(%r1)
 1125              		.loc 1 437 0
 1126 002a C267     		se_lwz %r6,8(%r7)
 1127              		.loc 1 440 0
 1128 002c C3F1     		se_lwz %r31,12(%r1)
 1129              		.loc 1 437 0
 1130 002e C447     		se_lwz %r4,16(%r7)
 1131 0030 00B6     		se_mtctr %r6
 1132              		.loc 1 440 0
 1133 0032 0090     		se_mtlr %r0
 1134              		.cfi_remember_state
 1135              		.cfi_restore 65
 1136 0034 20F1     		se_addi %r1,16
 1137              	.LCFI47:
 1138              		.cfi_restore 31
 1139              		.cfi_def_cfa_offset 0
 1140              		.loc 1 437 0
GAS LISTING C:\Users\Vipuls\AppData\Local\Temp\ccvVtvud.s 			page 21


 1141 0036 0006     		se_bctr
 1142              	.LVL45:
 1143              	.L53:
 1144              	.LCFI48:
 1145              		.cfi_restore_state
 1146              		.loc 1 434 0
 1147 0038 78000001 		e_bl irqSysHalt
 1148              	.LVL46:
 1149 003c CB7F     		se_lwz %r7,44(%r31)
 1150              		.loc 1 436 0
 1151 003e 48B5     		se_li %r5,11
 1152 0040 70DEE40A 		e_lis %r6,0xf40a
 1153              		.loc 1 437 0
 1154 0044 48B3     		se_li %r3,11
 1155              		.loc 1 436 0
 1156 0046 6516     		se_bseti %r6,17
 1157 0048 34A6001C 		e_stb %r5,28(%r6)
 1158              		.loc 1 440 0
 1159 004c C501     		se_lwz %r0,20(%r1)
 1160              		.loc 1 437 0
 1161 004e C267     		se_lwz %r6,8(%r7)
 1162              		.loc 1 440 0
 1163 0050 C3F1     		se_lwz %r31,12(%r1)
 1164              		.loc 1 437 0
 1165 0052 C447     		se_lwz %r4,16(%r7)
 1166 0054 00B6     		se_mtctr %r6
 1167              		.loc 1 440 0
 1168 0056 0090     		se_mtlr %r0
 1169              		.cfi_restore 65
 1170 0058 20F1     		se_addi %r1,16
 1171              	.LCFI49:
 1172              		.cfi_restore 31
 1173              		.cfi_def_cfa_offset 0
 1174              		.loc 1 437 0
 1175 005a 0006     		se_bctr
 1176              	.LVL47:
 1177              		.cfi_endproc
 1178              	.LFE15:
 1179              		.size	vector64, .-vector64
 1180              		.section	.text.vector65,"axv",@progbits
 1181              		.align 1
 1182              		.p2align 4,,15
 1183              		.globl vector65
 1184              		.type	vector65, @function
 1185              	vector65:
 1186              	.LFB16:
 1187              		.loc 1 450 0
 1188              		.cfi_startproc
 1189 0000 182106F0 		e_stwu %r1,-16(%r1)
 1190              	.LCFI50:
 1191              		.cfi_def_cfa_offset 16
 1192 0004 0080     		se_mflr %r0
 1193 0006 D3F1     		se_stw %r31,12(%r1)
 1194 0008 D501     		se_stw %r0,20(%r1)
 1195              		.cfi_offset 65, 4
 1196              		.cfi_offset 31, -4
 1197              		.loc 1 454 0
GAS LISTING C:\Users\Vipuls\AppData\Local\Temp\ccvVtvud.s 			page 22


 1198 000a 73E0E000 		e_lis %r31,.LANCHOR0@ha
 1199 000e 1FFF0000 		e_la %r31,.LANCHOR0@l(%r31)
 1200 0012 CC7F     		se_lwz %r7,48(%r31)
 1201 0014 2A07     		se_cmpi %r7,0
 1202 0016 7A120022 		e_beq %cr0,.L56
 1203              		.loc 1 457 0
 1204 001a 48C5     		se_li %r5,12
 1205 001c 70DEE40A 		e_lis %r6,0xf40a
 1206              		.loc 1 458 0
 1207 0020 48C3     		se_li %r3,12
 1208              		.loc 1 457 0
 1209 0022 6516     		se_bseti %r6,17
 1210 0024 34A6001C 		e_stb %r5,28(%r6)
 1211              		.loc 1 461 0
 1212 0028 C501     		se_lwz %r0,20(%r1)
 1213              		.loc 1 458 0
 1214 002a C267     		se_lwz %r6,8(%r7)
 1215              		.loc 1 461 0
 1216 002c C3F1     		se_lwz %r31,12(%r1)
 1217              		.loc 1 458 0
 1218 002e C447     		se_lwz %r4,16(%r7)
 1219 0030 00B6     		se_mtctr %r6
 1220              		.loc 1 461 0
 1221 0032 0090     		se_mtlr %r0
 1222              		.cfi_remember_state
 1223              		.cfi_restore 65
 1224 0034 20F1     		se_addi %r1,16
 1225              	.LCFI51:
 1226              		.cfi_restore 31
 1227              		.cfi_def_cfa_offset 0
 1228              		.loc 1 458 0
 1229 0036 0006     		se_bctr
 1230              	.LVL48:
 1231              	.L56:
 1232              	.LCFI52:
 1233              		.cfi_restore_state
 1234              		.loc 1 455 0
 1235 0038 78000001 		e_bl irqSysHalt
 1236              	.LVL49:
 1237 003c CC7F     		se_lwz %r7,48(%r31)
 1238              		.loc 1 457 0
 1239 003e 48C5     		se_li %r5,12
 1240 0040 70DEE40A 		e_lis %r6,0xf40a
 1241              		.loc 1 458 0
 1242 0044 48C3     		se_li %r3,12
 1243              		.loc 1 457 0
 1244 0046 6516     		se_bseti %r6,17
 1245 0048 34A6001C 		e_stb %r5,28(%r6)
 1246              		.loc 1 461 0
 1247 004c C501     		se_lwz %r0,20(%r1)
 1248              		.loc 1 458 0
 1249 004e C267     		se_lwz %r6,8(%r7)
 1250              		.loc 1 461 0
 1251 0050 C3F1     		se_lwz %r31,12(%r1)
 1252              		.loc 1 458 0
 1253 0052 C447     		se_lwz %r4,16(%r7)
 1254 0054 00B6     		se_mtctr %r6
GAS LISTING C:\Users\Vipuls\AppData\Local\Temp\ccvVtvud.s 			page 23


 1255              		.loc 1 461 0
 1256 0056 0090     		se_mtlr %r0
 1257              		.cfi_restore 65
 1258 0058 20F1     		se_addi %r1,16
 1259              	.LCFI53:
 1260              		.cfi_restore 31
 1261              		.cfi_def_cfa_offset 0
 1262              		.loc 1 458 0
 1263 005a 0006     		se_bctr
 1264              	.LVL50:
 1265              		.cfi_endproc
 1266              	.LFE16:
 1267              		.size	vector65, .-vector65
 1268              		.section	.text.vector66,"axv",@progbits
 1269              		.align 1
 1270              		.p2align 4,,15
 1271              		.globl vector66
 1272              		.type	vector66, @function
 1273              	vector66:
 1274              	.LFB17:
 1275              		.loc 1 471 0
 1276              		.cfi_startproc
 1277 0000 182106F0 		e_stwu %r1,-16(%r1)
 1278              	.LCFI54:
 1279              		.cfi_def_cfa_offset 16
 1280 0004 0080     		se_mflr %r0
 1281 0006 D3F1     		se_stw %r31,12(%r1)
 1282 0008 D501     		se_stw %r0,20(%r1)
 1283              		.cfi_offset 65, 4
 1284              		.cfi_offset 31, -4
 1285              		.loc 1 475 0
 1286 000a 73E0E000 		e_lis %r31,.LANCHOR0@ha
 1287 000e 1FFF0000 		e_la %r31,.LANCHOR0@l(%r31)
 1288 0012 CD7F     		se_lwz %r7,52(%r31)
 1289 0014 2A07     		se_cmpi %r7,0
 1290 0016 7A120022 		e_beq %cr0,.L59
 1291              		.loc 1 478 0
 1292 001a 48D5     		se_li %r5,13
 1293 001c 70DEE40A 		e_lis %r6,0xf40a
 1294              		.loc 1 479 0
 1295 0020 48D3     		se_li %r3,13
 1296              		.loc 1 478 0
 1297 0022 6516     		se_bseti %r6,17
 1298 0024 34A6001C 		e_stb %r5,28(%r6)
 1299              		.loc 1 482 0
 1300 0028 C501     		se_lwz %r0,20(%r1)
 1301              		.loc 1 479 0
 1302 002a C267     		se_lwz %r6,8(%r7)
 1303              		.loc 1 482 0
 1304 002c C3F1     		se_lwz %r31,12(%r1)
 1305              		.loc 1 479 0
 1306 002e C447     		se_lwz %r4,16(%r7)
 1307 0030 00B6     		se_mtctr %r6
 1308              		.loc 1 482 0
 1309 0032 0090     		se_mtlr %r0
 1310              		.cfi_remember_state
 1311              		.cfi_restore 65
GAS LISTING C:\Users\Vipuls\AppData\Local\Temp\ccvVtvud.s 			page 24


 1312 0034 20F1     		se_addi %r1,16
 1313              	.LCFI55:
 1314              		.cfi_restore 31
 1315              		.cfi_def_cfa_offset 0
 1316              		.loc 1 479 0
 1317 0036 0006     		se_bctr
 1318              	.LVL51:
 1319              	.L59:
 1320              	.LCFI56:
 1321              		.cfi_restore_state
 1322              		.loc 1 476 0
 1323 0038 78000001 		e_bl irqSysHalt
 1324              	.LVL52:
 1325 003c CD7F     		se_lwz %r7,52(%r31)
 1326              		.loc 1 478 0
 1327 003e 48D5     		se_li %r5,13
 1328 0040 70DEE40A 		e_lis %r6,0xf40a
 1329              		.loc 1 479 0
 1330 0044 48D3     		se_li %r3,13
 1331              		.loc 1 478 0
 1332 0046 6516     		se_bseti %r6,17
 1333 0048 34A6001C 		e_stb %r5,28(%r6)
 1334              		.loc 1 482 0
 1335 004c C501     		se_lwz %r0,20(%r1)
 1336              		.loc 1 479 0
 1337 004e C267     		se_lwz %r6,8(%r7)
 1338              		.loc 1 482 0
 1339 0050 C3F1     		se_lwz %r31,12(%r1)
 1340              		.loc 1 479 0
 1341 0052 C447     		se_lwz %r4,16(%r7)
 1342 0054 00B6     		se_mtctr %r6
 1343              		.loc 1 482 0
 1344 0056 0090     		se_mtlr %r0
 1345              		.cfi_restore 65
 1346 0058 20F1     		se_addi %r1,16
 1347              	.LCFI57:
 1348              		.cfi_restore 31
 1349              		.cfi_def_cfa_offset 0
 1350              		.loc 1 479 0
 1351 005a 0006     		se_bctr
 1352              	.LVL53:
 1353              		.cfi_endproc
 1354              	.LFE17:
 1355              		.size	vector66, .-vector66
 1356              		.section	.text.vector67,"axv",@progbits
 1357              		.align 1
 1358              		.p2align 4,,15
 1359              		.globl vector67
 1360              		.type	vector67, @function
 1361              	vector67:
 1362              	.LFB18:
 1363              		.loc 1 492 0
 1364              		.cfi_startproc
 1365 0000 182106F0 		e_stwu %r1,-16(%r1)
 1366              	.LCFI58:
 1367              		.cfi_def_cfa_offset 16
 1368 0004 0080     		se_mflr %r0
GAS LISTING C:\Users\Vipuls\AppData\Local\Temp\ccvVtvud.s 			page 25


 1369 0006 D3F1     		se_stw %r31,12(%r1)
 1370 0008 D501     		se_stw %r0,20(%r1)
 1371              		.cfi_offset 65, 4
 1372              		.cfi_offset 31, -4
 1373              		.loc 1 496 0
 1374 000a 73E0E000 		e_lis %r31,.LANCHOR0@ha
 1375 000e 1FFF0000 		e_la %r31,.LANCHOR0@l(%r31)
 1376 0012 CE7F     		se_lwz %r7,56(%r31)
 1377 0014 2A07     		se_cmpi %r7,0
 1378 0016 7A120022 		e_beq %cr0,.L62
 1379              		.loc 1 499 0
 1380 001a 48E5     		se_li %r5,14
 1381 001c 70DEE40A 		e_lis %r6,0xf40a
 1382              		.loc 1 500 0
 1383 0020 48E3     		se_li %r3,14
 1384              		.loc 1 499 0
 1385 0022 6516     		se_bseti %r6,17
 1386 0024 34A6001C 		e_stb %r5,28(%r6)
 1387              		.loc 1 503 0
 1388 0028 C501     		se_lwz %r0,20(%r1)
 1389              		.loc 1 500 0
 1390 002a C267     		se_lwz %r6,8(%r7)
 1391              		.loc 1 503 0
 1392 002c C3F1     		se_lwz %r31,12(%r1)
 1393              		.loc 1 500 0
 1394 002e C447     		se_lwz %r4,16(%r7)
 1395 0030 00B6     		se_mtctr %r6
 1396              		.loc 1 503 0
 1397 0032 0090     		se_mtlr %r0
 1398              		.cfi_remember_state
 1399              		.cfi_restore 65
 1400 0034 20F1     		se_addi %r1,16
 1401              	.LCFI59:
 1402              		.cfi_restore 31
 1403              		.cfi_def_cfa_offset 0
 1404              		.loc 1 500 0
 1405 0036 0006     		se_bctr
 1406              	.LVL54:
 1407              	.L62:
 1408              	.LCFI60:
 1409              		.cfi_restore_state
 1410              		.loc 1 497 0
 1411 0038 78000001 		e_bl irqSysHalt
 1412              	.LVL55:
 1413 003c CE7F     		se_lwz %r7,56(%r31)
 1414              		.loc 1 499 0
 1415 003e 48E5     		se_li %r5,14
 1416 0040 70DEE40A 		e_lis %r6,0xf40a
 1417              		.loc 1 500 0
 1418 0044 48E3     		se_li %r3,14
 1419              		.loc 1 499 0
 1420 0046 6516     		se_bseti %r6,17
 1421 0048 34A6001C 		e_stb %r5,28(%r6)
 1422              		.loc 1 503 0
 1423 004c C501     		se_lwz %r0,20(%r1)
 1424              		.loc 1 500 0
 1425 004e C267     		se_lwz %r6,8(%r7)
GAS LISTING C:\Users\Vipuls\AppData\Local\Temp\ccvVtvud.s 			page 26


 1426              		.loc 1 503 0
 1427 0050 C3F1     		se_lwz %r31,12(%r1)
 1428              		.loc 1 500 0
 1429 0052 C447     		se_lwz %r4,16(%r7)
 1430 0054 00B6     		se_mtctr %r6
 1431              		.loc 1 503 0
 1432 0056 0090     		se_mtlr %r0
 1433              		.cfi_restore 65
 1434 0058 20F1     		se_addi %r1,16
 1435              	.LCFI61:
 1436              		.cfi_restore 31
 1437              		.cfi_def_cfa_offset 0
 1438              		.loc 1 500 0
 1439 005a 0006     		se_bctr
 1440              	.LVL56:
 1441              		.cfi_endproc
 1442              	.LFE18:
 1443              		.size	vector67, .-vector67
 1444              		.section	.text.vector68,"axv",@progbits
 1445              		.align 1
 1446              		.p2align 4,,15
 1447              		.globl vector68
 1448              		.type	vector68, @function
 1449              	vector68:
 1450              	.LFB19:
 1451              		.loc 1 513 0
 1452              		.cfi_startproc
 1453 0000 182106F0 		e_stwu %r1,-16(%r1)
 1454              	.LCFI62:
 1455              		.cfi_def_cfa_offset 16
 1456 0004 0080     		se_mflr %r0
 1457 0006 D3F1     		se_stw %r31,12(%r1)
 1458 0008 D501     		se_stw %r0,20(%r1)
 1459              		.cfi_offset 65, 4
 1460              		.cfi_offset 31, -4
 1461              		.loc 1 517 0
 1462 000a 73E0E000 		e_lis %r31,.LANCHOR0@ha
 1463 000e 1FFF0000 		e_la %r31,.LANCHOR0@l(%r31)
 1464 0012 CF7F     		se_lwz %r7,60(%r31)
 1465 0014 2A07     		se_cmpi %r7,0
 1466 0016 7A120022 		e_beq %cr0,.L65
 1467              		.loc 1 520 0
 1468 001a 48F5     		se_li %r5,15
 1469 001c 70DEE40A 		e_lis %r6,0xf40a
 1470              		.loc 1 521 0
 1471 0020 48F3     		se_li %r3,15
 1472              		.loc 1 520 0
 1473 0022 6516     		se_bseti %r6,17
 1474 0024 34A6001C 		e_stb %r5,28(%r6)
 1475              		.loc 1 524 0
 1476 0028 C501     		se_lwz %r0,20(%r1)
 1477              		.loc 1 521 0
 1478 002a C267     		se_lwz %r6,8(%r7)
 1479              		.loc 1 524 0
 1480 002c C3F1     		se_lwz %r31,12(%r1)
 1481              		.loc 1 521 0
 1482 002e C447     		se_lwz %r4,16(%r7)
GAS LISTING C:\Users\Vipuls\AppData\Local\Temp\ccvVtvud.s 			page 27


 1483 0030 00B6     		se_mtctr %r6
 1484              		.loc 1 524 0
 1485 0032 0090     		se_mtlr %r0
 1486              		.cfi_remember_state
 1487              		.cfi_restore 65
 1488 0034 20F1     		se_addi %r1,16
 1489              	.LCFI63:
 1490              		.cfi_restore 31
 1491              		.cfi_def_cfa_offset 0
 1492              		.loc 1 521 0
 1493 0036 0006     		se_bctr
 1494              	.LVL57:
 1495              	.L65:
 1496              	.LCFI64:
 1497              		.cfi_restore_state
 1498              		.loc 1 518 0
 1499 0038 78000001 		e_bl irqSysHalt
 1500              	.LVL58:
 1501 003c CF7F     		se_lwz %r7,60(%r31)
 1502              		.loc 1 520 0
 1503 003e 48F5     		se_li %r5,15
 1504 0040 70DEE40A 		e_lis %r6,0xf40a
 1505              		.loc 1 521 0
 1506 0044 48F3     		se_li %r3,15
 1507              		.loc 1 520 0
 1508 0046 6516     		se_bseti %r6,17
 1509 0048 34A6001C 		e_stb %r5,28(%r6)
 1510              		.loc 1 524 0
 1511 004c C501     		se_lwz %r0,20(%r1)
 1512              		.loc 1 521 0
 1513 004e C267     		se_lwz %r6,8(%r7)
 1514              		.loc 1 524 0
 1515 0050 C3F1     		se_lwz %r31,12(%r1)
 1516              		.loc 1 521 0
 1517 0052 C447     		se_lwz %r4,16(%r7)
 1518 0054 00B6     		se_mtctr %r6
 1519              		.loc 1 524 0
 1520 0056 0090     		se_mtlr %r0
 1521              		.cfi_restore 65
 1522 0058 20F1     		se_addi %r1,16
 1523              	.LCFI65:
 1524              		.cfi_restore 31
 1525              		.cfi_def_cfa_offset 0
 1526              		.loc 1 521 0
 1527 005a 0006     		se_bctr
 1528              	.LVL59:
 1529              		.cfi_endproc
 1530              	.LFE19:
 1531              		.size	vector68, .-vector68
 1532              		.section	.text.vector69,"axv",@progbits
 1533              		.align 1
 1534              		.p2align 4,,15
 1535              		.globl vector69
 1536              		.type	vector69, @function
 1537              	vector69:
 1538              	.LFB20:
 1539              		.loc 1 535 0
GAS LISTING C:\Users\Vipuls\AppData\Local\Temp\ccvVtvud.s 			page 28


 1540              		.cfi_startproc
 1541 0000 182106F0 		e_stwu %r1,-16(%r1)
 1542              	.LCFI66:
 1543              		.cfi_def_cfa_offset 16
 1544 0004 0080     		se_mflr %r0
 1545 0006 D3F1     		se_stw %r31,12(%r1)
 1546 0008 D501     		se_stw %r0,20(%r1)
 1547              		.cfi_offset 65, 4
 1548              		.cfi_offset 31, -4
 1549              		.loc 1 539 0
 1550 000a 73E0E000 		e_lis %r31,.LANCHOR0@ha
 1551 000e 1FFF0000 		e_la %r31,.LANCHOR0@l(%r31)
 1552 0012 50FF0040 		e_lwz %r7,64(%r31)
 1553 0016 2A07     		se_cmpi %r7,0
 1554 0018 7A120022 		e_beq %cr0,.L68
 1555              		.loc 1 542 0
 1556 001c 4905     		se_li %r5,16
 1557 001e 70DEE40A 		e_lis %r6,0xf40a
 1558              		.loc 1 543 0
 1559 0022 4903     		se_li %r3,16
 1560              		.loc 1 542 0
 1561 0024 6516     		se_bseti %r6,17
 1562 0026 34A6001C 		e_stb %r5,28(%r6)
 1563              		.loc 1 546 0
 1564 002a C501     		se_lwz %r0,20(%r1)
 1565              		.loc 1 543 0
 1566 002c C267     		se_lwz %r6,8(%r7)
 1567              		.loc 1 546 0
 1568 002e C3F1     		se_lwz %r31,12(%r1)
 1569              		.loc 1 543 0
 1570 0030 C447     		se_lwz %r4,16(%r7)
 1571 0032 00B6     		se_mtctr %r6
 1572              		.loc 1 546 0
 1573 0034 0090     		se_mtlr %r0
 1574              		.cfi_remember_state
 1575              		.cfi_restore 65
 1576 0036 20F1     		se_addi %r1,16
 1577              	.LCFI67:
 1578              		.cfi_restore 31
 1579              		.cfi_def_cfa_offset 0
 1580              		.loc 1 543 0
 1581 0038 0006     		se_bctr
 1582              	.LVL60:
 1583              	.L68:
 1584              	.LCFI68:
 1585              		.cfi_restore_state
 1586              		.loc 1 540 0
 1587 003a 78000001 		e_bl irqSysHalt
 1588              	.LVL61:
 1589 003e 50FF0040 		e_lwz %r7,64(%r31)
 1590              		.loc 1 542 0
 1591 0042 4905     		se_li %r5,16
 1592 0044 70DEE40A 		e_lis %r6,0xf40a
 1593              		.loc 1 543 0
 1594 0048 4903     		se_li %r3,16
 1595              		.loc 1 542 0
 1596 004a 6516     		se_bseti %r6,17
GAS LISTING C:\Users\Vipuls\AppData\Local\Temp\ccvVtvud.s 			page 29


 1597 004c 34A6001C 		e_stb %r5,28(%r6)
 1598              		.loc 1 546 0
 1599 0050 C501     		se_lwz %r0,20(%r1)
 1600              		.loc 1 543 0
 1601 0052 C267     		se_lwz %r6,8(%r7)
 1602              		.loc 1 546 0
 1603 0054 C3F1     		se_lwz %r31,12(%r1)
 1604              		.loc 1 543 0
 1605 0056 C447     		se_lwz %r4,16(%r7)
 1606 0058 00B6     		se_mtctr %r6
 1607              		.loc 1 546 0
 1608 005a 0090     		se_mtlr %r0
 1609              		.cfi_restore 65
 1610 005c 20F1     		se_addi %r1,16
 1611              	.LCFI69:
 1612              		.cfi_restore 31
 1613              		.cfi_def_cfa_offset 0
 1614              		.loc 1 543 0
 1615 005e 0006     		se_bctr
 1616              	.LVL62:
 1617              		.cfi_endproc
 1618              	.LFE20:
 1619              		.size	vector69, .-vector69
 1620              		.section	.text.vector70,"axv",@progbits
 1621              		.align 1
 1622              		.p2align 4,,15
 1623              		.globl vector70
 1624              		.type	vector70, @function
 1625              	vector70:
 1626              	.LFB21:
 1627              		.loc 1 556 0
 1628              		.cfi_startproc
 1629 0000 182106F0 		e_stwu %r1,-16(%r1)
 1630              	.LCFI70:
 1631              		.cfi_def_cfa_offset 16
 1632 0004 0080     		se_mflr %r0
 1633 0006 D3F1     		se_stw %r31,12(%r1)
 1634 0008 D501     		se_stw %r0,20(%r1)
 1635              		.cfi_offset 65, 4
 1636              		.cfi_offset 31, -4
 1637              		.loc 1 560 0
 1638 000a 73E0E000 		e_lis %r31,.LANCHOR0@ha
 1639 000e 1FFF0000 		e_la %r31,.LANCHOR0@l(%r31)
 1640 0012 50FF0044 		e_lwz %r7,68(%r31)
 1641 0016 2A07     		se_cmpi %r7,0
 1642 0018 7A120022 		e_beq %cr0,.L71
 1643              		.loc 1 563 0
 1644 001c 4915     		se_li %r5,17
 1645 001e 70DEE40A 		e_lis %r6,0xf40a
 1646              		.loc 1 564 0
 1647 0022 4913     		se_li %r3,17
 1648              		.loc 1 563 0
 1649 0024 6516     		se_bseti %r6,17
 1650 0026 34A6001C 		e_stb %r5,28(%r6)
 1651              		.loc 1 567 0
 1652 002a C501     		se_lwz %r0,20(%r1)
 1653              		.loc 1 564 0
GAS LISTING C:\Users\Vipuls\AppData\Local\Temp\ccvVtvud.s 			page 30


 1654 002c C267     		se_lwz %r6,8(%r7)
 1655              		.loc 1 567 0
 1656 002e C3F1     		se_lwz %r31,12(%r1)
 1657              		.loc 1 564 0
 1658 0030 C447     		se_lwz %r4,16(%r7)
 1659 0032 00B6     		se_mtctr %r6
 1660              		.loc 1 567 0
 1661 0034 0090     		se_mtlr %r0
 1662              		.cfi_remember_state
 1663              		.cfi_restore 65
 1664 0036 20F1     		se_addi %r1,16
 1665              	.LCFI71:
 1666              		.cfi_restore 31
 1667              		.cfi_def_cfa_offset 0
 1668              		.loc 1 564 0
 1669 0038 0006     		se_bctr
 1670              	.LVL63:
 1671              	.L71:
 1672              	.LCFI72:
 1673              		.cfi_restore_state
 1674              		.loc 1 561 0
 1675 003a 78000001 		e_bl irqSysHalt
 1676              	.LVL64:
 1677 003e 50FF0044 		e_lwz %r7,68(%r31)
 1678              		.loc 1 563 0
 1679 0042 4915     		se_li %r5,17
 1680 0044 70DEE40A 		e_lis %r6,0xf40a
 1681              		.loc 1 564 0
 1682 0048 4913     		se_li %r3,17
 1683              		.loc 1 563 0
 1684 004a 6516     		se_bseti %r6,17
 1685 004c 34A6001C 		e_stb %r5,28(%r6)
 1686              		.loc 1 567 0
 1687 0050 C501     		se_lwz %r0,20(%r1)
 1688              		.loc 1 564 0
 1689 0052 C267     		se_lwz %r6,8(%r7)
 1690              		.loc 1 567 0
 1691 0054 C3F1     		se_lwz %r31,12(%r1)
 1692              		.loc 1 564 0
 1693 0056 C447     		se_lwz %r4,16(%r7)
 1694 0058 00B6     		se_mtctr %r6
 1695              		.loc 1 567 0
 1696 005a 0090     		se_mtlr %r0
 1697              		.cfi_restore 65
 1698 005c 20F1     		se_addi %r1,16
 1699              	.LCFI73:
 1700              		.cfi_restore 31
 1701              		.cfi_def_cfa_offset 0
 1702              		.loc 1 564 0
 1703 005e 0006     		se_bctr
 1704              	.LVL65:
 1705              		.cfi_endproc
 1706              	.LFE21:
 1707              		.size	vector70, .-vector70
 1708              		.section	.text.vector71,"axv",@progbits
 1709              		.align 1
 1710              		.p2align 4,,15
GAS LISTING C:\Users\Vipuls\AppData\Local\Temp\ccvVtvud.s 			page 31


 1711              		.globl vector71
 1712              		.type	vector71, @function
 1713              	vector71:
 1714              	.LFB22:
 1715              		.loc 1 577 0
 1716              		.cfi_startproc
 1717 0000 182106F0 		e_stwu %r1,-16(%r1)
 1718              	.LCFI74:
 1719              		.cfi_def_cfa_offset 16
 1720 0004 0080     		se_mflr %r0
 1721 0006 D3F1     		se_stw %r31,12(%r1)
 1722 0008 D501     		se_stw %r0,20(%r1)
 1723              		.cfi_offset 65, 4
 1724              		.cfi_offset 31, -4
 1725              		.loc 1 581 0
 1726 000a 73E0E000 		e_lis %r31,.LANCHOR0@ha
 1727 000e 1FFF0000 		e_la %r31,.LANCHOR0@l(%r31)
 1728 0012 50FF0048 		e_lwz %r7,72(%r31)
 1729 0016 2A07     		se_cmpi %r7,0
 1730 0018 7A120022 		e_beq %cr0,.L74
 1731              		.loc 1 584 0
 1732 001c 4925     		se_li %r5,18
 1733 001e 70DEE40A 		e_lis %r6,0xf40a
 1734              		.loc 1 585 0
 1735 0022 4923     		se_li %r3,18
 1736              		.loc 1 584 0
 1737 0024 6516     		se_bseti %r6,17
 1738 0026 34A6001C 		e_stb %r5,28(%r6)
 1739              		.loc 1 588 0
 1740 002a C501     		se_lwz %r0,20(%r1)
 1741              		.loc 1 585 0
 1742 002c C267     		se_lwz %r6,8(%r7)
 1743              		.loc 1 588 0
 1744 002e C3F1     		se_lwz %r31,12(%r1)
 1745              		.loc 1 585 0
 1746 0030 C447     		se_lwz %r4,16(%r7)
 1747 0032 00B6     		se_mtctr %r6
 1748              		.loc 1 588 0
 1749 0034 0090     		se_mtlr %r0
 1750              		.cfi_remember_state
 1751              		.cfi_restore 65
 1752 0036 20F1     		se_addi %r1,16
 1753              	.LCFI75:
 1754              		.cfi_restore 31
 1755              		.cfi_def_cfa_offset 0
 1756              		.loc 1 585 0
 1757 0038 0006     		se_bctr
 1758              	.LVL66:
 1759              	.L74:
 1760              	.LCFI76:
 1761              		.cfi_restore_state
 1762              		.loc 1 582 0
 1763 003a 78000001 		e_bl irqSysHalt
 1764              	.LVL67:
 1765 003e 50FF0048 		e_lwz %r7,72(%r31)
 1766              		.loc 1 584 0
 1767 0042 4925     		se_li %r5,18
GAS LISTING C:\Users\Vipuls\AppData\Local\Temp\ccvVtvud.s 			page 32


 1768 0044 70DEE40A 		e_lis %r6,0xf40a
 1769              		.loc 1 585 0
 1770 0048 4923     		se_li %r3,18
 1771              		.loc 1 584 0
 1772 004a 6516     		se_bseti %r6,17
 1773 004c 34A6001C 		e_stb %r5,28(%r6)
 1774              		.loc 1 588 0
 1775 0050 C501     		se_lwz %r0,20(%r1)
 1776              		.loc 1 585 0
 1777 0052 C267     		se_lwz %r6,8(%r7)
 1778              		.loc 1 588 0
 1779 0054 C3F1     		se_lwz %r31,12(%r1)
 1780              		.loc 1 585 0
 1781 0056 C447     		se_lwz %r4,16(%r7)
 1782 0058 00B6     		se_mtctr %r6
 1783              		.loc 1 588 0
 1784 005a 0090     		se_mtlr %r0
 1785              		.cfi_restore 65
 1786 005c 20F1     		se_addi %r1,16
 1787              	.LCFI77:
 1788              		.cfi_restore 31
 1789              		.cfi_def_cfa_offset 0
 1790              		.loc 1 585 0
 1791 005e 0006     		se_bctr
 1792              	.LVL68:
 1793              		.cfi_endproc
 1794              	.LFE22:
 1795              		.size	vector71, .-vector71
 1796              		.section	.text.vector72,"axv",@progbits
 1797              		.align 1
 1798              		.p2align 4,,15
 1799              		.globl vector72
 1800              		.type	vector72, @function
 1801              	vector72:
 1802              	.LFB23:
 1803              		.loc 1 598 0
 1804              		.cfi_startproc
 1805 0000 182106F0 		e_stwu %r1,-16(%r1)
 1806              	.LCFI78:
 1807              		.cfi_def_cfa_offset 16
 1808 0004 0080     		se_mflr %r0
 1809 0006 D3F1     		se_stw %r31,12(%r1)
 1810 0008 D501     		se_stw %r0,20(%r1)
 1811              		.cfi_offset 65, 4
 1812              		.cfi_offset 31, -4
 1813              		.loc 1 602 0
 1814 000a 73E0E000 		e_lis %r31,.LANCHOR0@ha
 1815 000e 1FFF0000 		e_la %r31,.LANCHOR0@l(%r31)
 1816 0012 50FF004C 		e_lwz %r7,76(%r31)
 1817 0016 2A07     		se_cmpi %r7,0
 1818 0018 7A120022 		e_beq %cr0,.L77
 1819              		.loc 1 605 0
 1820 001c 4935     		se_li %r5,19
 1821 001e 70DEE40A 		e_lis %r6,0xf40a
 1822              		.loc 1 606 0
 1823 0022 4933     		se_li %r3,19
 1824              		.loc 1 605 0
GAS LISTING C:\Users\Vipuls\AppData\Local\Temp\ccvVtvud.s 			page 33


 1825 0024 6516     		se_bseti %r6,17
 1826 0026 34A6001C 		e_stb %r5,28(%r6)
 1827              		.loc 1 609 0
 1828 002a C501     		se_lwz %r0,20(%r1)
 1829              		.loc 1 606 0
 1830 002c C267     		se_lwz %r6,8(%r7)
 1831              		.loc 1 609 0
 1832 002e C3F1     		se_lwz %r31,12(%r1)
 1833              		.loc 1 606 0
 1834 0030 C447     		se_lwz %r4,16(%r7)
 1835 0032 00B6     		se_mtctr %r6
 1836              		.loc 1 609 0
 1837 0034 0090     		se_mtlr %r0
 1838              		.cfi_remember_state
 1839              		.cfi_restore 65
 1840 0036 20F1     		se_addi %r1,16
 1841              	.LCFI79:
 1842              		.cfi_restore 31
 1843              		.cfi_def_cfa_offset 0
 1844              		.loc 1 606 0
 1845 0038 0006     		se_bctr
 1846              	.LVL69:
 1847              	.L77:
 1848              	.LCFI80:
 1849              		.cfi_restore_state
 1850              		.loc 1 603 0
 1851 003a 78000001 		e_bl irqSysHalt
 1852              	.LVL70:
 1853 003e 50FF004C 		e_lwz %r7,76(%r31)
 1854              		.loc 1 605 0
 1855 0042 4935     		se_li %r5,19
 1856 0044 70DEE40A 		e_lis %r6,0xf40a
 1857              		.loc 1 606 0
 1858 0048 4933     		se_li %r3,19
 1859              		.loc 1 605 0
 1860 004a 6516     		se_bseti %r6,17
 1861 004c 34A6001C 		e_stb %r5,28(%r6)
 1862              		.loc 1 609 0
 1863 0050 C501     		se_lwz %r0,20(%r1)
 1864              		.loc 1 606 0
 1865 0052 C267     		se_lwz %r6,8(%r7)
 1866              		.loc 1 609 0
 1867 0054 C3F1     		se_lwz %r31,12(%r1)
 1868              		.loc 1 606 0
 1869 0056 C447     		se_lwz %r4,16(%r7)
 1870 0058 00B6     		se_mtctr %r6
 1871              		.loc 1 609 0
 1872 005a 0090     		se_mtlr %r0
 1873              		.cfi_restore 65
 1874 005c 20F1     		se_addi %r1,16
 1875              	.LCFI81:
 1876              		.cfi_restore 31
 1877              		.cfi_def_cfa_offset 0
 1878              		.loc 1 606 0
 1879 005e 0006     		se_bctr
 1880              	.LVL71:
 1881              		.cfi_endproc
GAS LISTING C:\Users\Vipuls\AppData\Local\Temp\ccvVtvud.s 			page 34


 1882              	.LFE23:
 1883              		.size	vector72, .-vector72
 1884              		.section	.text.vector73,"axv",@progbits
 1885              		.align 1
 1886              		.p2align 4,,15
 1887              		.globl vector73
 1888              		.type	vector73, @function
 1889              	vector73:
 1890              	.LFB24:
 1891              		.loc 1 619 0
 1892              		.cfi_startproc
 1893 0000 182106F0 		e_stwu %r1,-16(%r1)
 1894              	.LCFI82:
 1895              		.cfi_def_cfa_offset 16
 1896 0004 0080     		se_mflr %r0
 1897 0006 D3F1     		se_stw %r31,12(%r1)
 1898 0008 D501     		se_stw %r0,20(%r1)
 1899              		.cfi_offset 65, 4
 1900              		.cfi_offset 31, -4
 1901              		.loc 1 623 0
 1902 000a 73E0E000 		e_lis %r31,.LANCHOR0@ha
 1903 000e 1FFF0000 		e_la %r31,.LANCHOR0@l(%r31)
 1904 0012 50FF0050 		e_lwz %r7,80(%r31)
 1905 0016 2A07     		se_cmpi %r7,0
 1906 0018 7A120022 		e_beq %cr0,.L80
 1907              		.loc 1 626 0
 1908 001c 4945     		se_li %r5,20
 1909 001e 70DEE40A 		e_lis %r6,0xf40a
 1910              		.loc 1 627 0
 1911 0022 4943     		se_li %r3,20
 1912              		.loc 1 626 0
 1913 0024 6516     		se_bseti %r6,17
 1914 0026 34A6001C 		e_stb %r5,28(%r6)
 1915              		.loc 1 630 0
 1916 002a C501     		se_lwz %r0,20(%r1)
 1917              		.loc 1 627 0
 1918 002c C267     		se_lwz %r6,8(%r7)
 1919              		.loc 1 630 0
 1920 002e C3F1     		se_lwz %r31,12(%r1)
 1921              		.loc 1 627 0
 1922 0030 C447     		se_lwz %r4,16(%r7)
 1923 0032 00B6     		se_mtctr %r6
 1924              		.loc 1 630 0
 1925 0034 0090     		se_mtlr %r0
 1926              		.cfi_remember_state
 1927              		.cfi_restore 65
 1928 0036 20F1     		se_addi %r1,16
 1929              	.LCFI83:
 1930              		.cfi_restore 31
 1931              		.cfi_def_cfa_offset 0
 1932              		.loc 1 627 0
 1933 0038 0006     		se_bctr
 1934              	.LVL72:
 1935              	.L80:
 1936              	.LCFI84:
 1937              		.cfi_restore_state
 1938              		.loc 1 624 0
GAS LISTING C:\Users\Vipuls\AppData\Local\Temp\ccvVtvud.s 			page 35


 1939 003a 78000001 		e_bl irqSysHalt
 1940              	.LVL73:
 1941 003e 50FF0050 		e_lwz %r7,80(%r31)
 1942              		.loc 1 626 0
 1943 0042 4945     		se_li %r5,20
 1944 0044 70DEE40A 		e_lis %r6,0xf40a
 1945              		.loc 1 627 0
 1946 0048 4943     		se_li %r3,20
 1947              		.loc 1 626 0
 1948 004a 6516     		se_bseti %r6,17
 1949 004c 34A6001C 		e_stb %r5,28(%r6)
 1950              		.loc 1 630 0
 1951 0050 C501     		se_lwz %r0,20(%r1)
 1952              		.loc 1 627 0
 1953 0052 C267     		se_lwz %r6,8(%r7)
 1954              		.loc 1 630 0
 1955 0054 C3F1     		se_lwz %r31,12(%r1)
 1956              		.loc 1 627 0
 1957 0056 C447     		se_lwz %r4,16(%r7)
 1958 0058 00B6     		se_mtctr %r6
 1959              		.loc 1 630 0
 1960 005a 0090     		se_mtlr %r0
 1961              		.cfi_restore 65
 1962 005c 20F1     		se_addi %r1,16
 1963              	.LCFI85:
 1964              		.cfi_restore 31
 1965              		.cfi_def_cfa_offset 0
 1966              		.loc 1 627 0
 1967 005e 0006     		se_bctr
 1968              	.LVL74:
 1969              		.cfi_endproc
 1970              	.LFE24:
 1971              		.size	vector73, .-vector73
 1972              		.section	.text.vector74,"axv",@progbits
 1973              		.align 1
 1974              		.p2align 4,,15
 1975              		.globl vector74
 1976              		.type	vector74, @function
 1977              	vector74:
 1978              	.LFB25:
 1979              		.loc 1 640 0
 1980              		.cfi_startproc
 1981 0000 182106F0 		e_stwu %r1,-16(%r1)
 1982              	.LCFI86:
 1983              		.cfi_def_cfa_offset 16
 1984 0004 0080     		se_mflr %r0
 1985 0006 D3F1     		se_stw %r31,12(%r1)
 1986 0008 D501     		se_stw %r0,20(%r1)
 1987              		.cfi_offset 65, 4
 1988              		.cfi_offset 31, -4
 1989              		.loc 1 644 0
 1990 000a 73E0E000 		e_lis %r31,.LANCHOR0@ha
 1991 000e 1FFF0000 		e_la %r31,.LANCHOR0@l(%r31)
 1992 0012 50FF0054 		e_lwz %r7,84(%r31)
 1993 0016 2A07     		se_cmpi %r7,0
 1994 0018 7A120022 		e_beq %cr0,.L83
 1995              		.loc 1 647 0
GAS LISTING C:\Users\Vipuls\AppData\Local\Temp\ccvVtvud.s 			page 36


 1996 001c 4955     		se_li %r5,21
 1997 001e 70DEE40A 		e_lis %r6,0xf40a
 1998              		.loc 1 648 0
 1999 0022 4953     		se_li %r3,21
 2000              		.loc 1 647 0
 2001 0024 6516     		se_bseti %r6,17
 2002 0026 34A6001C 		e_stb %r5,28(%r6)
 2003              		.loc 1 651 0
 2004 002a C501     		se_lwz %r0,20(%r1)
 2005              		.loc 1 648 0
 2006 002c C267     		se_lwz %r6,8(%r7)
 2007              		.loc 1 651 0
 2008 002e C3F1     		se_lwz %r31,12(%r1)
 2009              		.loc 1 648 0
 2010 0030 C447     		se_lwz %r4,16(%r7)
 2011 0032 00B6     		se_mtctr %r6
 2012              		.loc 1 651 0
 2013 0034 0090     		se_mtlr %r0
 2014              		.cfi_remember_state
 2015              		.cfi_restore 65
 2016 0036 20F1     		se_addi %r1,16
 2017              	.LCFI87:
 2018              		.cfi_restore 31
 2019              		.cfi_def_cfa_offset 0
 2020              		.loc 1 648 0
 2021 0038 0006     		se_bctr
 2022              	.LVL75:
 2023              	.L83:
 2024              	.LCFI88:
 2025              		.cfi_restore_state
 2026              		.loc 1 645 0
 2027 003a 78000001 		e_bl irqSysHalt
 2028              	.LVL76:
 2029 003e 50FF0054 		e_lwz %r7,84(%r31)
 2030              		.loc 1 647 0
 2031 0042 4955     		se_li %r5,21
 2032 0044 70DEE40A 		e_lis %r6,0xf40a
 2033              		.loc 1 648 0
 2034 0048 4953     		se_li %r3,21
 2035              		.loc 1 647 0
 2036 004a 6516     		se_bseti %r6,17
 2037 004c 34A6001C 		e_stb %r5,28(%r6)
 2038              		.loc 1 651 0
 2039 0050 C501     		se_lwz %r0,20(%r1)
 2040              		.loc 1 648 0
 2041 0052 C267     		se_lwz %r6,8(%r7)
 2042              		.loc 1 651 0
 2043 0054 C3F1     		se_lwz %r31,12(%r1)
 2044              		.loc 1 648 0
 2045 0056 C447     		se_lwz %r4,16(%r7)
 2046 0058 00B6     		se_mtctr %r6
 2047              		.loc 1 651 0
 2048 005a 0090     		se_mtlr %r0
 2049              		.cfi_restore 65
 2050 005c 20F1     		se_addi %r1,16
 2051              	.LCFI89:
 2052              		.cfi_restore 31
GAS LISTING C:\Users\Vipuls\AppData\Local\Temp\ccvVtvud.s 			page 37


 2053              		.cfi_def_cfa_offset 0
 2054              		.loc 1 648 0
 2055 005e 0006     		se_bctr
 2056              	.LVL77:
 2057              		.cfi_endproc
 2058              	.LFE25:
 2059              		.size	vector74, .-vector74
 2060              		.section	.text.vector75,"axv",@progbits
 2061              		.align 1
 2062              		.p2align 4,,15
 2063              		.globl vector75
 2064              		.type	vector75, @function
 2065              	vector75:
 2066              	.LFB26:
 2067              		.loc 1 661 0
 2068              		.cfi_startproc
 2069 0000 182106F0 		e_stwu %r1,-16(%r1)
 2070              	.LCFI90:
 2071              		.cfi_def_cfa_offset 16
 2072 0004 0080     		se_mflr %r0
 2073 0006 D3F1     		se_stw %r31,12(%r1)
 2074 0008 D501     		se_stw %r0,20(%r1)
 2075              		.cfi_offset 65, 4
 2076              		.cfi_offset 31, -4
 2077              		.loc 1 665 0
 2078 000a 73E0E000 		e_lis %r31,.LANCHOR0@ha
 2079 000e 1FFF0000 		e_la %r31,.LANCHOR0@l(%r31)
 2080 0012 50FF0058 		e_lwz %r7,88(%r31)
 2081 0016 2A07     		se_cmpi %r7,0
 2082 0018 7A120022 		e_beq %cr0,.L86
 2083              		.loc 1 668 0
 2084 001c 4965     		se_li %r5,22
 2085 001e 70DEE40A 		e_lis %r6,0xf40a
 2086              		.loc 1 669 0
 2087 0022 4963     		se_li %r3,22
 2088              		.loc 1 668 0
 2089 0024 6516     		se_bseti %r6,17
 2090 0026 34A6001C 		e_stb %r5,28(%r6)
 2091              		.loc 1 672 0
 2092 002a C501     		se_lwz %r0,20(%r1)
 2093              		.loc 1 669 0
 2094 002c C267     		se_lwz %r6,8(%r7)
 2095              		.loc 1 672 0
 2096 002e C3F1     		se_lwz %r31,12(%r1)
 2097              		.loc 1 669 0
 2098 0030 C447     		se_lwz %r4,16(%r7)
 2099 0032 00B6     		se_mtctr %r6
 2100              		.loc 1 672 0
 2101 0034 0090     		se_mtlr %r0
 2102              		.cfi_remember_state
 2103              		.cfi_restore 65
 2104 0036 20F1     		se_addi %r1,16
 2105              	.LCFI91:
 2106              		.cfi_restore 31
 2107              		.cfi_def_cfa_offset 0
 2108              		.loc 1 669 0
 2109 0038 0006     		se_bctr
GAS LISTING C:\Users\Vipuls\AppData\Local\Temp\ccvVtvud.s 			page 38


 2110              	.LVL78:
 2111              	.L86:
 2112              	.LCFI92:
 2113              		.cfi_restore_state
 2114              		.loc 1 666 0
 2115 003a 78000001 		e_bl irqSysHalt
 2116              	.LVL79:
 2117 003e 50FF0058 		e_lwz %r7,88(%r31)
 2118              		.loc 1 668 0
 2119 0042 4965     		se_li %r5,22
 2120 0044 70DEE40A 		e_lis %r6,0xf40a
 2121              		.loc 1 669 0
 2122 0048 4963     		se_li %r3,22
 2123              		.loc 1 668 0
 2124 004a 6516     		se_bseti %r6,17
 2125 004c 34A6001C 		e_stb %r5,28(%r6)
 2126              		.loc 1 672 0
 2127 0050 C501     		se_lwz %r0,20(%r1)
 2128              		.loc 1 669 0
 2129 0052 C267     		se_lwz %r6,8(%r7)
 2130              		.loc 1 672 0
 2131 0054 C3F1     		se_lwz %r31,12(%r1)
 2132              		.loc 1 669 0
 2133 0056 C447     		se_lwz %r4,16(%r7)
 2134 0058 00B6     		se_mtctr %r6
 2135              		.loc 1 672 0
 2136 005a 0090     		se_mtlr %r0
 2137              		.cfi_restore 65
 2138 005c 20F1     		se_addi %r1,16
 2139              	.LCFI93:
 2140              		.cfi_restore 31
 2141              		.cfi_def_cfa_offset 0
 2142              		.loc 1 669 0
 2143 005e 0006     		se_bctr
 2144              	.LVL80:
 2145              		.cfi_endproc
 2146              	.LFE26:
 2147              		.size	vector75, .-vector75
 2148              		.section	.text.vector76,"axv",@progbits
 2149              		.align 1
 2150              		.p2align 4,,15
 2151              		.globl vector76
 2152              		.type	vector76, @function
 2153              	vector76:
 2154              	.LFB27:
 2155              		.loc 1 682 0
 2156              		.cfi_startproc
 2157 0000 182106F0 		e_stwu %r1,-16(%r1)
 2158              	.LCFI94:
 2159              		.cfi_def_cfa_offset 16
 2160 0004 0080     		se_mflr %r0
 2161 0006 D3F1     		se_stw %r31,12(%r1)
 2162 0008 D501     		se_stw %r0,20(%r1)
 2163              		.cfi_offset 65, 4
 2164              		.cfi_offset 31, -4
 2165              		.loc 1 686 0
 2166 000a 73E0E000 		e_lis %r31,.LANCHOR0@ha
GAS LISTING C:\Users\Vipuls\AppData\Local\Temp\ccvVtvud.s 			page 39


 2167 000e 1FFF0000 		e_la %r31,.LANCHOR0@l(%r31)
 2168 0012 50FF005C 		e_lwz %r7,92(%r31)
 2169 0016 2A07     		se_cmpi %r7,0
 2170 0018 7A120022 		e_beq %cr0,.L89
 2171              		.loc 1 689 0
 2172 001c 4975     		se_li %r5,23
 2173 001e 70DEE40A 		e_lis %r6,0xf40a
 2174              		.loc 1 690 0
 2175 0022 4973     		se_li %r3,23
 2176              		.loc 1 689 0
 2177 0024 6516     		se_bseti %r6,17
 2178 0026 34A6001C 		e_stb %r5,28(%r6)
 2179              		.loc 1 693 0
 2180 002a C501     		se_lwz %r0,20(%r1)
 2181              		.loc 1 690 0
 2182 002c C267     		se_lwz %r6,8(%r7)
 2183              		.loc 1 693 0
 2184 002e C3F1     		se_lwz %r31,12(%r1)
 2185              		.loc 1 690 0
 2186 0030 C447     		se_lwz %r4,16(%r7)
 2187 0032 00B6     		se_mtctr %r6
 2188              		.loc 1 693 0
 2189 0034 0090     		se_mtlr %r0
 2190              		.cfi_remember_state
 2191              		.cfi_restore 65
 2192 0036 20F1     		se_addi %r1,16
 2193              	.LCFI95:
 2194              		.cfi_restore 31
 2195              		.cfi_def_cfa_offset 0
 2196              		.loc 1 690 0
 2197 0038 0006     		se_bctr
 2198              	.LVL81:
 2199              	.L89:
 2200              	.LCFI96:
 2201              		.cfi_restore_state
 2202              		.loc 1 687 0
 2203 003a 78000001 		e_bl irqSysHalt
 2204              	.LVL82:
 2205 003e 50FF005C 		e_lwz %r7,92(%r31)
 2206              		.loc 1 689 0
 2207 0042 4975     		se_li %r5,23
 2208 0044 70DEE40A 		e_lis %r6,0xf40a
 2209              		.loc 1 690 0
 2210 0048 4973     		se_li %r3,23
 2211              		.loc 1 689 0
 2212 004a 6516     		se_bseti %r6,17
 2213 004c 34A6001C 		e_stb %r5,28(%r6)
 2214              		.loc 1 693 0
 2215 0050 C501     		se_lwz %r0,20(%r1)
 2216              		.loc 1 690 0
 2217 0052 C267     		se_lwz %r6,8(%r7)
 2218              		.loc 1 693 0
 2219 0054 C3F1     		se_lwz %r31,12(%r1)
 2220              		.loc 1 690 0
 2221 0056 C447     		se_lwz %r4,16(%r7)
 2222 0058 00B6     		se_mtctr %r6
 2223              		.loc 1 693 0
GAS LISTING C:\Users\Vipuls\AppData\Local\Temp\ccvVtvud.s 			page 40


 2224 005a 0090     		se_mtlr %r0
 2225              		.cfi_restore 65
 2226 005c 20F1     		se_addi %r1,16
 2227              	.LCFI97:
 2228              		.cfi_restore 31
 2229              		.cfi_def_cfa_offset 0
 2230              		.loc 1 690 0
 2231 005e 0006     		se_bctr
 2232              	.LVL83:
 2233              		.cfi_endproc
 2234              	.LFE27:
 2235              		.size	vector76, .-vector76
 2236              		.section	.text.vector77,"axv",@progbits
 2237              		.align 1
 2238              		.p2align 4,,15
 2239              		.globl vector77
 2240              		.type	vector77, @function
 2241              	vector77:
 2242              	.LFB28:
 2243              		.loc 1 703 0
 2244              		.cfi_startproc
 2245 0000 182106F0 		e_stwu %r1,-16(%r1)
 2246              	.LCFI98:
 2247              		.cfi_def_cfa_offset 16
 2248 0004 0080     		se_mflr %r0
 2249 0006 D3F1     		se_stw %r31,12(%r1)
 2250 0008 D501     		se_stw %r0,20(%r1)
 2251              		.cfi_offset 65, 4
 2252              		.cfi_offset 31, -4
 2253              		.loc 1 707 0
 2254 000a 73E0E000 		e_lis %r31,.LANCHOR0@ha
 2255 000e 1FFF0000 		e_la %r31,.LANCHOR0@l(%r31)
 2256 0012 50FF0060 		e_lwz %r7,96(%r31)
 2257 0016 2A07     		se_cmpi %r7,0
 2258 0018 7A120022 		e_beq %cr0,.L92
 2259              		.loc 1 710 0
 2260 001c 4985     		se_li %r5,24
 2261 001e 70DEE40A 		e_lis %r6,0xf40a
 2262              		.loc 1 711 0
 2263 0022 4983     		se_li %r3,24
 2264              		.loc 1 710 0
 2265 0024 6516     		se_bseti %r6,17
 2266 0026 34A6001C 		e_stb %r5,28(%r6)
 2267              		.loc 1 714 0
 2268 002a C501     		se_lwz %r0,20(%r1)
 2269              		.loc 1 711 0
 2270 002c C267     		se_lwz %r6,8(%r7)
 2271              		.loc 1 714 0
 2272 002e C3F1     		se_lwz %r31,12(%r1)
 2273              		.loc 1 711 0
 2274 0030 C447     		se_lwz %r4,16(%r7)
 2275 0032 00B6     		se_mtctr %r6
 2276              		.loc 1 714 0
 2277 0034 0090     		se_mtlr %r0
 2278              		.cfi_remember_state
 2279              		.cfi_restore 65
 2280 0036 20F1     		se_addi %r1,16
GAS LISTING C:\Users\Vipuls\AppData\Local\Temp\ccvVtvud.s 			page 41


 2281              	.LCFI99:
 2282              		.cfi_restore 31
 2283              		.cfi_def_cfa_offset 0
 2284              		.loc 1 711 0
 2285 0038 0006     		se_bctr
 2286              	.LVL84:
 2287              	.L92:
 2288              	.LCFI100:
 2289              		.cfi_restore_state
 2290              		.loc 1 708 0
 2291 003a 78000001 		e_bl irqSysHalt
 2292              	.LVL85:
 2293 003e 50FF0060 		e_lwz %r7,96(%r31)
 2294              		.loc 1 710 0
 2295 0042 4985     		se_li %r5,24
 2296 0044 70DEE40A 		e_lis %r6,0xf40a
 2297              		.loc 1 711 0
 2298 0048 4983     		se_li %r3,24
 2299              		.loc 1 710 0
 2300 004a 6516     		se_bseti %r6,17
 2301 004c 34A6001C 		e_stb %r5,28(%r6)
 2302              		.loc 1 714 0
 2303 0050 C501     		se_lwz %r0,20(%r1)
 2304              		.loc 1 711 0
 2305 0052 C267     		se_lwz %r6,8(%r7)
 2306              		.loc 1 714 0
 2307 0054 C3F1     		se_lwz %r31,12(%r1)
 2308              		.loc 1 711 0
 2309 0056 C447     		se_lwz %r4,16(%r7)
 2310 0058 00B6     		se_mtctr %r6
 2311              		.loc 1 714 0
 2312 005a 0090     		se_mtlr %r0
 2313              		.cfi_restore 65
 2314 005c 20F1     		se_addi %r1,16
 2315              	.LCFI101:
 2316              		.cfi_restore 31
 2317              		.cfi_def_cfa_offset 0
 2318              		.loc 1 711 0
 2319 005e 0006     		se_bctr
 2320              	.LVL86:
 2321              		.cfi_endproc
 2322              	.LFE28:
 2323              		.size	vector77, .-vector77
 2324              		.section	.text.vector78,"axv",@progbits
 2325              		.align 1
 2326              		.p2align 4,,15
 2327              		.globl vector78
 2328              		.type	vector78, @function
 2329              	vector78:
 2330              	.LFB29:
 2331              		.loc 1 724 0
 2332              		.cfi_startproc
 2333 0000 182106F0 		e_stwu %r1,-16(%r1)
 2334              	.LCFI102:
 2335              		.cfi_def_cfa_offset 16
 2336 0004 0080     		se_mflr %r0
 2337 0006 D3F1     		se_stw %r31,12(%r1)
GAS LISTING C:\Users\Vipuls\AppData\Local\Temp\ccvVtvud.s 			page 42


 2338 0008 D501     		se_stw %r0,20(%r1)
 2339              		.cfi_offset 65, 4
 2340              		.cfi_offset 31, -4
 2341              		.loc 1 728 0
 2342 000a 73E0E000 		e_lis %r31,.LANCHOR0@ha
 2343 000e 1FFF0000 		e_la %r31,.LANCHOR0@l(%r31)
 2344 0012 50FF0064 		e_lwz %r7,100(%r31)
 2345 0016 2A07     		se_cmpi %r7,0
 2346 0018 7A120022 		e_beq %cr0,.L95
 2347              		.loc 1 731 0
 2348 001c 4995     		se_li %r5,25
 2349 001e 70DEE40A 		e_lis %r6,0xf40a
 2350              		.loc 1 732 0
 2351 0022 4993     		se_li %r3,25
 2352              		.loc 1 731 0
 2353 0024 6516     		se_bseti %r6,17
 2354 0026 34A6001C 		e_stb %r5,28(%r6)
 2355              		.loc 1 735 0
 2356 002a C501     		se_lwz %r0,20(%r1)
 2357              		.loc 1 732 0
 2358 002c C267     		se_lwz %r6,8(%r7)
 2359              		.loc 1 735 0
 2360 002e C3F1     		se_lwz %r31,12(%r1)
 2361              		.loc 1 732 0
 2362 0030 C447     		se_lwz %r4,16(%r7)
 2363 0032 00B6     		se_mtctr %r6
 2364              		.loc 1 735 0
 2365 0034 0090     		se_mtlr %r0
 2366              		.cfi_remember_state
 2367              		.cfi_restore 65
 2368 0036 20F1     		se_addi %r1,16
 2369              	.LCFI103:
 2370              		.cfi_restore 31
 2371              		.cfi_def_cfa_offset 0
 2372              		.loc 1 732 0
 2373 0038 0006     		se_bctr
 2374              	.LVL87:
 2375              	.L95:
 2376              	.LCFI104:
 2377              		.cfi_restore_state
 2378              		.loc 1 729 0
 2379 003a 78000001 		e_bl irqSysHalt
 2380              	.LVL88:
 2381 003e 50FF0064 		e_lwz %r7,100(%r31)
 2382              		.loc 1 731 0
 2383 0042 4995     		se_li %r5,25
 2384 0044 70DEE40A 		e_lis %r6,0xf40a
 2385              		.loc 1 732 0
 2386 0048 4993     		se_li %r3,25
 2387              		.loc 1 731 0
 2388 004a 6516     		se_bseti %r6,17
 2389 004c 34A6001C 		e_stb %r5,28(%r6)
 2390              		.loc 1 735 0
 2391 0050 C501     		se_lwz %r0,20(%r1)
 2392              		.loc 1 732 0
 2393 0052 C267     		se_lwz %r6,8(%r7)
 2394              		.loc 1 735 0
GAS LISTING C:\Users\Vipuls\AppData\Local\Temp\ccvVtvud.s 			page 43


 2395 0054 C3F1     		se_lwz %r31,12(%r1)
 2396              		.loc 1 732 0
 2397 0056 C447     		se_lwz %r4,16(%r7)
 2398 0058 00B6     		se_mtctr %r6
 2399              		.loc 1 735 0
 2400 005a 0090     		se_mtlr %r0
 2401              		.cfi_restore 65
 2402 005c 20F1     		se_addi %r1,16
 2403              	.LCFI105:
 2404              		.cfi_restore 31
 2405              		.cfi_def_cfa_offset 0
 2406              		.loc 1 732 0
 2407 005e 0006     		se_bctr
 2408              	.LVL89:
 2409              		.cfi_endproc
 2410              	.LFE29:
 2411              		.size	vector78, .-vector78
 2412              		.section	.text.vector79,"axv",@progbits
 2413              		.align 1
 2414              		.p2align 4,,15
 2415              		.globl vector79
 2416              		.type	vector79, @function
 2417              	vector79:
 2418              	.LFB30:
 2419              		.loc 1 745 0
 2420              		.cfi_startproc
 2421 0000 182106F0 		e_stwu %r1,-16(%r1)
 2422              	.LCFI106:
 2423              		.cfi_def_cfa_offset 16
 2424 0004 0080     		se_mflr %r0
 2425 0006 D3F1     		se_stw %r31,12(%r1)
 2426 0008 D501     		se_stw %r0,20(%r1)
 2427              		.cfi_offset 65, 4
 2428              		.cfi_offset 31, -4
 2429              		.loc 1 749 0
 2430 000a 73E0E000 		e_lis %r31,.LANCHOR0@ha
 2431 000e 1FFF0000 		e_la %r31,.LANCHOR0@l(%r31)
 2432 0012 50FF0068 		e_lwz %r7,104(%r31)
 2433 0016 2A07     		se_cmpi %r7,0
 2434 0018 7A120022 		e_beq %cr0,.L98
 2435              		.loc 1 752 0
 2436 001c 49A5     		se_li %r5,26
 2437 001e 70DEE40A 		e_lis %r6,0xf40a
 2438              		.loc 1 753 0
 2439 0022 49A3     		se_li %r3,26
 2440              		.loc 1 752 0
 2441 0024 6516     		se_bseti %r6,17
 2442 0026 34A6001C 		e_stb %r5,28(%r6)
 2443              		.loc 1 756 0
 2444 002a C501     		se_lwz %r0,20(%r1)
 2445              		.loc 1 753 0
 2446 002c C267     		se_lwz %r6,8(%r7)
 2447              		.loc 1 756 0
 2448 002e C3F1     		se_lwz %r31,12(%r1)
 2449              		.loc 1 753 0
 2450 0030 C447     		se_lwz %r4,16(%r7)
 2451 0032 00B6     		se_mtctr %r6
GAS LISTING C:\Users\Vipuls\AppData\Local\Temp\ccvVtvud.s 			page 44


 2452              		.loc 1 756 0
 2453 0034 0090     		se_mtlr %r0
 2454              		.cfi_remember_state
 2455              		.cfi_restore 65
 2456 0036 20F1     		se_addi %r1,16
 2457              	.LCFI107:
 2458              		.cfi_restore 31
 2459              		.cfi_def_cfa_offset 0
 2460              		.loc 1 753 0
 2461 0038 0006     		se_bctr
 2462              	.LVL90:
 2463              	.L98:
 2464              	.LCFI108:
 2465              		.cfi_restore_state
 2466              		.loc 1 750 0
 2467 003a 78000001 		e_bl irqSysHalt
 2468              	.LVL91:
 2469 003e 50FF0068 		e_lwz %r7,104(%r31)
 2470              		.loc 1 752 0
 2471 0042 49A5     		se_li %r5,26
 2472 0044 70DEE40A 		e_lis %r6,0xf40a
 2473              		.loc 1 753 0
 2474 0048 49A3     		se_li %r3,26
 2475              		.loc 1 752 0
 2476 004a 6516     		se_bseti %r6,17
 2477 004c 34A6001C 		e_stb %r5,28(%r6)
 2478              		.loc 1 756 0
 2479 0050 C501     		se_lwz %r0,20(%r1)
 2480              		.loc 1 753 0
 2481 0052 C267     		se_lwz %r6,8(%r7)
 2482              		.loc 1 756 0
 2483 0054 C3F1     		se_lwz %r31,12(%r1)
 2484              		.loc 1 753 0
 2485 0056 C447     		se_lwz %r4,16(%r7)
 2486 0058 00B6     		se_mtctr %r6
 2487              		.loc 1 756 0
 2488 005a 0090     		se_mtlr %r0
 2489              		.cfi_restore 65
 2490 005c 20F1     		se_addi %r1,16
 2491              	.LCFI109:
 2492              		.cfi_restore 31
 2493              		.cfi_def_cfa_offset 0
 2494              		.loc 1 753 0
 2495 005e 0006     		se_bctr
 2496              	.LVL92:
 2497              		.cfi_endproc
 2498              	.LFE30:
 2499              		.size	vector79, .-vector79
 2500              		.section	.text.vector80,"axv",@progbits
 2501              		.align 1
 2502              		.p2align 4,,15
 2503              		.globl vector80
 2504              		.type	vector80, @function
 2505              	vector80:
 2506              	.LFB31:
 2507              		.loc 1 766 0
 2508              		.cfi_startproc
GAS LISTING C:\Users\Vipuls\AppData\Local\Temp\ccvVtvud.s 			page 45


 2509 0000 182106F0 		e_stwu %r1,-16(%r1)
 2510              	.LCFI110:
 2511              		.cfi_def_cfa_offset 16
 2512 0004 0080     		se_mflr %r0
 2513 0006 D3F1     		se_stw %r31,12(%r1)
 2514 0008 D501     		se_stw %r0,20(%r1)
 2515              		.cfi_offset 65, 4
 2516              		.cfi_offset 31, -4
 2517              		.loc 1 770 0
 2518 000a 73E0E000 		e_lis %r31,.LANCHOR0@ha
 2519 000e 1FFF0000 		e_la %r31,.LANCHOR0@l(%r31)
 2520 0012 50FF006C 		e_lwz %r7,108(%r31)
 2521 0016 2A07     		se_cmpi %r7,0
 2522 0018 7A120022 		e_beq %cr0,.L101
 2523              		.loc 1 773 0
 2524 001c 49B5     		se_li %r5,27
 2525 001e 70DEE40A 		e_lis %r6,0xf40a
 2526              		.loc 1 774 0
 2527 0022 49B3     		se_li %r3,27
 2528              		.loc 1 773 0
 2529 0024 6516     		se_bseti %r6,17
 2530 0026 34A6001C 		e_stb %r5,28(%r6)
 2531              		.loc 1 777 0
 2532 002a C501     		se_lwz %r0,20(%r1)
 2533              		.loc 1 774 0
 2534 002c C267     		se_lwz %r6,8(%r7)
 2535              		.loc 1 777 0
 2536 002e C3F1     		se_lwz %r31,12(%r1)
 2537              		.loc 1 774 0
 2538 0030 C447     		se_lwz %r4,16(%r7)
 2539 0032 00B6     		se_mtctr %r6
 2540              		.loc 1 777 0
 2541 0034 0090     		se_mtlr %r0
 2542              		.cfi_remember_state
 2543              		.cfi_restore 65
 2544 0036 20F1     		se_addi %r1,16
 2545              	.LCFI111:
 2546              		.cfi_restore 31
 2547              		.cfi_def_cfa_offset 0
 2548              		.loc 1 774 0
 2549 0038 0006     		se_bctr
 2550              	.LVL93:
 2551              	.L101:
 2552              	.LCFI112:
 2553              		.cfi_restore_state
 2554              		.loc 1 771 0
 2555 003a 78000001 		e_bl irqSysHalt
 2556              	.LVL94:
 2557 003e 50FF006C 		e_lwz %r7,108(%r31)
 2558              		.loc 1 773 0
 2559 0042 49B5     		se_li %r5,27
 2560 0044 70DEE40A 		e_lis %r6,0xf40a
 2561              		.loc 1 774 0
 2562 0048 49B3     		se_li %r3,27
 2563              		.loc 1 773 0
 2564 004a 6516     		se_bseti %r6,17
 2565 004c 34A6001C 		e_stb %r5,28(%r6)
GAS LISTING C:\Users\Vipuls\AppData\Local\Temp\ccvVtvud.s 			page 46


 2566              		.loc 1 777 0
 2567 0050 C501     		se_lwz %r0,20(%r1)
 2568              		.loc 1 774 0
 2569 0052 C267     		se_lwz %r6,8(%r7)
 2570              		.loc 1 777 0
 2571 0054 C3F1     		se_lwz %r31,12(%r1)
 2572              		.loc 1 774 0
 2573 0056 C447     		se_lwz %r4,16(%r7)
 2574 0058 00B6     		se_mtctr %r6
 2575              		.loc 1 777 0
 2576 005a 0090     		se_mtlr %r0
 2577              		.cfi_restore 65
 2578 005c 20F1     		se_addi %r1,16
 2579              	.LCFI113:
 2580              		.cfi_restore 31
 2581              		.cfi_def_cfa_offset 0
 2582              		.loc 1 774 0
 2583 005e 0006     		se_bctr
 2584              	.LVL95:
 2585              		.cfi_endproc
 2586              	.LFE31:
 2587              		.size	vector80, .-vector80
 2588              		.section	.text.vector81,"axv",@progbits
 2589              		.align 1
 2590              		.p2align 4,,15
 2591              		.globl vector81
 2592              		.type	vector81, @function
 2593              	vector81:
 2594              	.LFB32:
 2595              		.loc 1 787 0
 2596              		.cfi_startproc
 2597 0000 182106F0 		e_stwu %r1,-16(%r1)
 2598              	.LCFI114:
 2599              		.cfi_def_cfa_offset 16
 2600 0004 0080     		se_mflr %r0
 2601 0006 D3F1     		se_stw %r31,12(%r1)
 2602 0008 D501     		se_stw %r0,20(%r1)
 2603              		.cfi_offset 65, 4
 2604              		.cfi_offset 31, -4
 2605              		.loc 1 791 0
 2606 000a 73E0E000 		e_lis %r31,.LANCHOR0@ha
 2607 000e 1FFF0000 		e_la %r31,.LANCHOR0@l(%r31)
 2608 0012 50FF0070 		e_lwz %r7,112(%r31)
 2609 0016 2A07     		se_cmpi %r7,0
 2610 0018 7A120022 		e_beq %cr0,.L104
 2611              		.loc 1 794 0
 2612 001c 49C5     		se_li %r5,28
 2613 001e 70DEE40A 		e_lis %r6,0xf40a
 2614              		.loc 1 795 0
 2615 0022 49C3     		se_li %r3,28
 2616              		.loc 1 794 0
 2617 0024 6516     		se_bseti %r6,17
 2618 0026 34A6001C 		e_stb %r5,28(%r6)
 2619              		.loc 1 798 0
 2620 002a C501     		se_lwz %r0,20(%r1)
 2621              		.loc 1 795 0
 2622 002c C267     		se_lwz %r6,8(%r7)
GAS LISTING C:\Users\Vipuls\AppData\Local\Temp\ccvVtvud.s 			page 47


 2623              		.loc 1 798 0
 2624 002e C3F1     		se_lwz %r31,12(%r1)
 2625              		.loc 1 795 0
 2626 0030 C447     		se_lwz %r4,16(%r7)
 2627 0032 00B6     		se_mtctr %r6
 2628              		.loc 1 798 0
 2629 0034 0090     		se_mtlr %r0
 2630              		.cfi_remember_state
 2631              		.cfi_restore 65
 2632 0036 20F1     		se_addi %r1,16
 2633              	.LCFI115:
 2634              		.cfi_restore 31
 2635              		.cfi_def_cfa_offset 0
 2636              		.loc 1 795 0
 2637 0038 0006     		se_bctr
 2638              	.LVL96:
 2639              	.L104:
 2640              	.LCFI116:
 2641              		.cfi_restore_state
 2642              		.loc 1 792 0
 2643 003a 78000001 		e_bl irqSysHalt
 2644              	.LVL97:
 2645 003e 50FF0070 		e_lwz %r7,112(%r31)
 2646              		.loc 1 794 0
 2647 0042 49C5     		se_li %r5,28
 2648 0044 70DEE40A 		e_lis %r6,0xf40a
 2649              		.loc 1 795 0
 2650 0048 49C3     		se_li %r3,28
 2651              		.loc 1 794 0
 2652 004a 6516     		se_bseti %r6,17
 2653 004c 34A6001C 		e_stb %r5,28(%r6)
 2654              		.loc 1 798 0
 2655 0050 C501     		se_lwz %r0,20(%r1)
 2656              		.loc 1 795 0
 2657 0052 C267     		se_lwz %r6,8(%r7)
 2658              		.loc 1 798 0
 2659 0054 C3F1     		se_lwz %r31,12(%r1)
 2660              		.loc 1 795 0
 2661 0056 C447     		se_lwz %r4,16(%r7)
 2662 0058 00B6     		se_mtctr %r6
 2663              		.loc 1 798 0
 2664 005a 0090     		se_mtlr %r0
 2665              		.cfi_restore 65
 2666 005c 20F1     		se_addi %r1,16
 2667              	.LCFI117:
 2668              		.cfi_restore 31
 2669              		.cfi_def_cfa_offset 0
 2670              		.loc 1 795 0
 2671 005e 0006     		se_bctr
 2672              	.LVL98:
 2673              		.cfi_endproc
 2674              	.LFE32:
 2675              		.size	vector81, .-vector81
 2676              		.section	.text.vector82,"axv",@progbits
 2677              		.align 1
 2678              		.p2align 4,,15
 2679              		.globl vector82
GAS LISTING C:\Users\Vipuls\AppData\Local\Temp\ccvVtvud.s 			page 48


 2680              		.type	vector82, @function
 2681              	vector82:
 2682              	.LFB33:
 2683              		.loc 1 808 0
 2684              		.cfi_startproc
 2685 0000 182106F0 		e_stwu %r1,-16(%r1)
 2686              	.LCFI118:
 2687              		.cfi_def_cfa_offset 16
 2688 0004 0080     		se_mflr %r0
 2689 0006 D3F1     		se_stw %r31,12(%r1)
 2690 0008 D501     		se_stw %r0,20(%r1)
 2691              		.cfi_offset 65, 4
 2692              		.cfi_offset 31, -4
 2693              		.loc 1 812 0
 2694 000a 73E0E000 		e_lis %r31,.LANCHOR0@ha
 2695 000e 1FFF0000 		e_la %r31,.LANCHOR0@l(%r31)
 2696 0012 50FF0074 		e_lwz %r7,116(%r31)
 2697 0016 2A07     		se_cmpi %r7,0
 2698 0018 7A120022 		e_beq %cr0,.L107
 2699              		.loc 1 815 0
 2700 001c 49D5     		se_li %r5,29
 2701 001e 70DEE40A 		e_lis %r6,0xf40a
 2702              		.loc 1 816 0
 2703 0022 49D3     		se_li %r3,29
 2704              		.loc 1 815 0
 2705 0024 6516     		se_bseti %r6,17
 2706 0026 34A6001C 		e_stb %r5,28(%r6)
 2707              		.loc 1 819 0
 2708 002a C501     		se_lwz %r0,20(%r1)
 2709              		.loc 1 816 0
 2710 002c C267     		se_lwz %r6,8(%r7)
 2711              		.loc 1 819 0
 2712 002e C3F1     		se_lwz %r31,12(%r1)
 2713              		.loc 1 816 0
 2714 0030 C447     		se_lwz %r4,16(%r7)
 2715 0032 00B6     		se_mtctr %r6
 2716              		.loc 1 819 0
 2717 0034 0090     		se_mtlr %r0
 2718              		.cfi_remember_state
 2719              		.cfi_restore 65
 2720 0036 20F1     		se_addi %r1,16
 2721              	.LCFI119:
 2722              		.cfi_restore 31
 2723              		.cfi_def_cfa_offset 0
 2724              		.loc 1 816 0
 2725 0038 0006     		se_bctr
 2726              	.LVL99:
 2727              	.L107:
 2728              	.LCFI120:
 2729              		.cfi_restore_state
 2730              		.loc 1 813 0
 2731 003a 78000001 		e_bl irqSysHalt
 2732              	.LVL100:
 2733 003e 50FF0074 		e_lwz %r7,116(%r31)
 2734              		.loc 1 815 0
 2735 0042 49D5     		se_li %r5,29
 2736 0044 70DEE40A 		e_lis %r6,0xf40a
GAS LISTING C:\Users\Vipuls\AppData\Local\Temp\ccvVtvud.s 			page 49


 2737              		.loc 1 816 0
 2738 0048 49D3     		se_li %r3,29
 2739              		.loc 1 815 0
 2740 004a 6516     		se_bseti %r6,17
 2741 004c 34A6001C 		e_stb %r5,28(%r6)
 2742              		.loc 1 819 0
 2743 0050 C501     		se_lwz %r0,20(%r1)
 2744              		.loc 1 816 0
 2745 0052 C267     		se_lwz %r6,8(%r7)
 2746              		.loc 1 819 0
 2747 0054 C3F1     		se_lwz %r31,12(%r1)
 2748              		.loc 1 816 0
 2749 0056 C447     		se_lwz %r4,16(%r7)
 2750 0058 00B6     		se_mtctr %r6
 2751              		.loc 1 819 0
 2752 005a 0090     		se_mtlr %r0
 2753              		.cfi_restore 65
 2754 005c 20F1     		se_addi %r1,16
 2755              	.LCFI121:
 2756              		.cfi_restore 31
 2757              		.cfi_def_cfa_offset 0
 2758              		.loc 1 816 0
 2759 005e 0006     		se_bctr
 2760              	.LVL101:
 2761              		.cfi_endproc
 2762              	.LFE33:
 2763              		.size	vector82, .-vector82
 2764              		.section	.text.vector83,"axv",@progbits
 2765              		.align 1
 2766              		.p2align 4,,15
 2767              		.globl vector83
 2768              		.type	vector83, @function
 2769              	vector83:
 2770              	.LFB34:
 2771              		.loc 1 829 0
 2772              		.cfi_startproc
 2773 0000 182106F0 		e_stwu %r1,-16(%r1)
 2774              	.LCFI122:
 2775              		.cfi_def_cfa_offset 16
 2776 0004 0080     		se_mflr %r0
 2777 0006 D3F1     		se_stw %r31,12(%r1)
 2778 0008 D501     		se_stw %r0,20(%r1)
 2779              		.cfi_offset 65, 4
 2780              		.cfi_offset 31, -4
 2781              		.loc 1 833 0
 2782 000a 73E0E000 		e_lis %r31,.LANCHOR0@ha
 2783 000e 1FFF0000 		e_la %r31,.LANCHOR0@l(%r31)
 2784 0012 50FF0078 		e_lwz %r7,120(%r31)
 2785 0016 2A07     		se_cmpi %r7,0
 2786 0018 7A120022 		e_beq %cr0,.L110
 2787              		.loc 1 836 0
 2788 001c 49E5     		se_li %r5,30
 2789 001e 70DEE40A 		e_lis %r6,0xf40a
 2790              		.loc 1 837 0
 2791 0022 49E3     		se_li %r3,30
 2792              		.loc 1 836 0
 2793 0024 6516     		se_bseti %r6,17
GAS LISTING C:\Users\Vipuls\AppData\Local\Temp\ccvVtvud.s 			page 50


 2794 0026 34A6001C 		e_stb %r5,28(%r6)
 2795              		.loc 1 840 0
 2796 002a C501     		se_lwz %r0,20(%r1)
 2797              		.loc 1 837 0
 2798 002c C267     		se_lwz %r6,8(%r7)
 2799              		.loc 1 840 0
 2800 002e C3F1     		se_lwz %r31,12(%r1)
 2801              		.loc 1 837 0
 2802 0030 C447     		se_lwz %r4,16(%r7)
 2803 0032 00B6     		se_mtctr %r6
 2804              		.loc 1 840 0
 2805 0034 0090     		se_mtlr %r0
 2806              		.cfi_remember_state
 2807              		.cfi_restore 65
 2808 0036 20F1     		se_addi %r1,16
 2809              	.LCFI123:
 2810              		.cfi_restore 31
 2811              		.cfi_def_cfa_offset 0
 2812              		.loc 1 837 0
 2813 0038 0006     		se_bctr
 2814              	.LVL102:
 2815              	.L110:
 2816              	.LCFI124:
 2817              		.cfi_restore_state
 2818              		.loc 1 834 0
 2819 003a 78000001 		e_bl irqSysHalt
 2820              	.LVL103:
 2821 003e 50FF0078 		e_lwz %r7,120(%r31)
 2822              		.loc 1 836 0
 2823 0042 49E5     		se_li %r5,30
 2824 0044 70DEE40A 		e_lis %r6,0xf40a
 2825              		.loc 1 837 0
 2826 0048 49E3     		se_li %r3,30
 2827              		.loc 1 836 0
 2828 004a 6516     		se_bseti %r6,17
 2829 004c 34A6001C 		e_stb %r5,28(%r6)
 2830              		.loc 1 840 0
 2831 0050 C501     		se_lwz %r0,20(%r1)
 2832              		.loc 1 837 0
 2833 0052 C267     		se_lwz %r6,8(%r7)
 2834              		.loc 1 840 0
 2835 0054 C3F1     		se_lwz %r31,12(%r1)
 2836              		.loc 1 837 0
 2837 0056 C447     		se_lwz %r4,16(%r7)
 2838 0058 00B6     		se_mtctr %r6
 2839              		.loc 1 840 0
 2840 005a 0090     		se_mtlr %r0
 2841              		.cfi_restore 65
 2842 005c 20F1     		se_addi %r1,16
 2843              	.LCFI125:
 2844              		.cfi_restore 31
 2845              		.cfi_def_cfa_offset 0
 2846              		.loc 1 837 0
 2847 005e 0006     		se_bctr
 2848              	.LVL104:
 2849              		.cfi_endproc
 2850              	.LFE34:
GAS LISTING C:\Users\Vipuls\AppData\Local\Temp\ccvVtvud.s 			page 51


 2851              		.size	vector83, .-vector83
 2852              		.section	.text.vector84,"axv",@progbits
 2853              		.align 1
 2854              		.p2align 4,,15
 2855              		.globl vector84
 2856              		.type	vector84, @function
 2857              	vector84:
 2858              	.LFB35:
 2859              		.loc 1 850 0
 2860              		.cfi_startproc
 2861 0000 182106F0 		e_stwu %r1,-16(%r1)
 2862              	.LCFI126:
 2863              		.cfi_def_cfa_offset 16
 2864 0004 0080     		se_mflr %r0
 2865 0006 D3F1     		se_stw %r31,12(%r1)
 2866 0008 D501     		se_stw %r0,20(%r1)
 2867              		.cfi_offset 65, 4
 2868              		.cfi_offset 31, -4
 2869              		.loc 1 854 0
 2870 000a 73E0E000 		e_lis %r31,.LANCHOR0@ha
 2871 000e 1FFF0000 		e_la %r31,.LANCHOR0@l(%r31)
 2872 0012 50FF007C 		e_lwz %r7,124(%r31)
 2873 0016 2A07     		se_cmpi %r7,0
 2874 0018 7A120022 		e_beq %cr0,.L113
 2875              		.loc 1 857 0
 2876 001c 49F5     		se_li %r5,31
 2877 001e 70DEE40A 		e_lis %r6,0xf40a
 2878              		.loc 1 858 0
 2879 0022 49F3     		se_li %r3,31
 2880              		.loc 1 857 0
 2881 0024 6516     		se_bseti %r6,17
 2882 0026 34A6001C 		e_stb %r5,28(%r6)
 2883              		.loc 1 861 0
 2884 002a C501     		se_lwz %r0,20(%r1)
 2885              		.loc 1 858 0
 2886 002c C267     		se_lwz %r6,8(%r7)
 2887              		.loc 1 861 0
 2888 002e C3F1     		se_lwz %r31,12(%r1)
 2889              		.loc 1 858 0
 2890 0030 C447     		se_lwz %r4,16(%r7)
 2891 0032 00B6     		se_mtctr %r6
 2892              		.loc 1 861 0
 2893 0034 0090     		se_mtlr %r0
 2894              		.cfi_remember_state
 2895              		.cfi_restore 65
 2896 0036 20F1     		se_addi %r1,16
 2897              	.LCFI127:
 2898              		.cfi_restore 31
 2899              		.cfi_def_cfa_offset 0
 2900              		.loc 1 858 0
 2901 0038 0006     		se_bctr
 2902              	.LVL105:
 2903              	.L113:
 2904              	.LCFI128:
 2905              		.cfi_restore_state
 2906              		.loc 1 855 0
 2907 003a 78000001 		e_bl irqSysHalt
GAS LISTING C:\Users\Vipuls\AppData\Local\Temp\ccvVtvud.s 			page 52


 2908              	.LVL106:
 2909 003e 50FF007C 		e_lwz %r7,124(%r31)
 2910              		.loc 1 857 0
 2911 0042 49F5     		se_li %r5,31
 2912 0044 70DEE40A 		e_lis %r6,0xf40a
 2913              		.loc 1 858 0
 2914 0048 49F3     		se_li %r3,31
 2915              		.loc 1 857 0
 2916 004a 6516     		se_bseti %r6,17
 2917 004c 34A6001C 		e_stb %r5,28(%r6)
 2918              		.loc 1 861 0
 2919 0050 C501     		se_lwz %r0,20(%r1)
 2920              		.loc 1 858 0
 2921 0052 C267     		se_lwz %r6,8(%r7)
 2922              		.loc 1 861 0
 2923 0054 C3F1     		se_lwz %r31,12(%r1)
 2924              		.loc 1 858 0
 2925 0056 C447     		se_lwz %r4,16(%r7)
 2926 0058 00B6     		se_mtctr %r6
 2927              		.loc 1 861 0
 2928 005a 0090     		se_mtlr %r0
 2929              		.cfi_restore 65
 2930 005c 20F1     		se_addi %r1,16
 2931              	.LCFI129:
 2932              		.cfi_restore 31
 2933              		.cfi_def_cfa_offset 0
 2934              		.loc 1 858 0
 2935 005e 0006     		se_bctr
 2936              	.LVL107:
 2937              		.cfi_endproc
 2938              	.LFE35:
 2939              		.size	vector84, .-vector84
 2940              		.section	.text.vector85,"axv",@progbits
 2941              		.align 1
 2942              		.p2align 4,,15
 2943              		.globl vector85
 2944              		.type	vector85, @function
 2945              	vector85:
 2946              	.LFB36:
 2947              		.loc 1 872 0
 2948              		.cfi_startproc
 2949 0000 182106F0 		e_stwu %r1,-16(%r1)
 2950              	.LCFI130:
 2951              		.cfi_def_cfa_offset 16
 2952 0004 0080     		se_mflr %r0
 2953 0006 D3F1     		se_stw %r31,12(%r1)
 2954 0008 D501     		se_stw %r0,20(%r1)
 2955              		.cfi_offset 65, 4
 2956              		.cfi_offset 31, -4
 2957              		.loc 1 876 0
 2958 000a 73E0E000 		e_lis %r31,.LANCHOR0@ha
 2959 000e 1FFF0000 		e_la %r31,.LANCHOR0@l(%r31)
 2960 0012 50FF0080 		e_lwz %r7,128(%r31)
 2961 0016 2A07     		se_cmpi %r7,0
 2962 0018 7A120022 		e_beq %cr0,.L116
 2963              		.loc 1 879 0
 2964 001c 4A05     		se_li %r5,32
GAS LISTING C:\Users\Vipuls\AppData\Local\Temp\ccvVtvud.s 			page 53


 2965 001e 70DEE40A 		e_lis %r6,0xf40a
 2966              		.loc 1 880 0
 2967 0022 4A03     		se_li %r3,32
 2968              		.loc 1 879 0
 2969 0024 6516     		se_bseti %r6,17
 2970 0026 34A6001C 		e_stb %r5,28(%r6)
 2971              		.loc 1 883 0
 2972 002a C501     		se_lwz %r0,20(%r1)
 2973              		.loc 1 880 0
 2974 002c C267     		se_lwz %r6,8(%r7)
 2975              		.loc 1 883 0
 2976 002e C3F1     		se_lwz %r31,12(%r1)
 2977              		.loc 1 880 0
 2978 0030 C447     		se_lwz %r4,16(%r7)
 2979 0032 00B6     		se_mtctr %r6
 2980              		.loc 1 883 0
 2981 0034 0090     		se_mtlr %r0
 2982              		.cfi_remember_state
 2983              		.cfi_restore 65
 2984 0036 20F1     		se_addi %r1,16
 2985              	.LCFI131:
 2986              		.cfi_restore 31
 2987              		.cfi_def_cfa_offset 0
 2988              		.loc 1 880 0
 2989 0038 0006     		se_bctr
 2990              	.LVL108:
 2991              	.L116:
 2992              	.LCFI132:
 2993              		.cfi_restore_state
 2994              		.loc 1 877 0
 2995 003a 78000001 		e_bl irqSysHalt
 2996              	.LVL109:
 2997 003e 50FF0080 		e_lwz %r7,128(%r31)
 2998              		.loc 1 879 0
 2999 0042 4A05     		se_li %r5,32
 3000 0044 70DEE40A 		e_lis %r6,0xf40a
 3001              		.loc 1 880 0
 3002 0048 4A03     		se_li %r3,32
 3003              		.loc 1 879 0
 3004 004a 6516     		se_bseti %r6,17
 3005 004c 34A6001C 		e_stb %r5,28(%r6)
 3006              		.loc 1 883 0
 3007 0050 C501     		se_lwz %r0,20(%r1)
 3008              		.loc 1 880 0
 3009 0052 C267     		se_lwz %r6,8(%r7)
 3010              		.loc 1 883 0
 3011 0054 C3F1     		se_lwz %r31,12(%r1)
 3012              		.loc 1 880 0
 3013 0056 C447     		se_lwz %r4,16(%r7)
 3014 0058 00B6     		se_mtctr %r6
 3015              		.loc 1 883 0
 3016 005a 0090     		se_mtlr %r0
 3017              		.cfi_restore 65
 3018 005c 20F1     		se_addi %r1,16
 3019              	.LCFI133:
 3020              		.cfi_restore 31
 3021              		.cfi_def_cfa_offset 0
GAS LISTING C:\Users\Vipuls\AppData\Local\Temp\ccvVtvud.s 			page 54


 3022              		.loc 1 880 0
 3023 005e 0006     		se_bctr
 3024              	.LVL110:
 3025              		.cfi_endproc
 3026              	.LFE36:
 3027              		.size	vector85, .-vector85
 3028              		.section	.text.vector86,"axv",@progbits
 3029              		.align 1
 3030              		.p2align 4,,15
 3031              		.globl vector86
 3032              		.type	vector86, @function
 3033              	vector86:
 3034              	.LFB37:
 3035              		.loc 1 893 0
 3036              		.cfi_startproc
 3037 0000 182106F0 		e_stwu %r1,-16(%r1)
 3038              	.LCFI134:
 3039              		.cfi_def_cfa_offset 16
 3040 0004 0080     		se_mflr %r0
 3041 0006 D3F1     		se_stw %r31,12(%r1)
 3042 0008 D501     		se_stw %r0,20(%r1)
 3043              		.cfi_offset 65, 4
 3044              		.cfi_offset 31, -4
 3045              		.loc 1 897 0
 3046 000a 73E0E000 		e_lis %r31,.LANCHOR0@ha
 3047 000e 1FFF0000 		e_la %r31,.LANCHOR0@l(%r31)
 3048 0012 50FF0084 		e_lwz %r7,132(%r31)
 3049 0016 2A07     		se_cmpi %r7,0
 3050 0018 7A120022 		e_beq %cr0,.L119
 3051              		.loc 1 900 0
 3052 001c 4A15     		se_li %r5,33
 3053 001e 70DEE40A 		e_lis %r6,0xf40a
 3054              		.loc 1 901 0
 3055 0022 4A13     		se_li %r3,33
 3056              		.loc 1 900 0
 3057 0024 6516     		se_bseti %r6,17
 3058 0026 34A6001C 		e_stb %r5,28(%r6)
 3059              		.loc 1 904 0
 3060 002a C501     		se_lwz %r0,20(%r1)
 3061              		.loc 1 901 0
 3062 002c C267     		se_lwz %r6,8(%r7)
 3063              		.loc 1 904 0
 3064 002e C3F1     		se_lwz %r31,12(%r1)
 3065              		.loc 1 901 0
 3066 0030 C447     		se_lwz %r4,16(%r7)
 3067 0032 00B6     		se_mtctr %r6
 3068              		.loc 1 904 0
 3069 0034 0090     		se_mtlr %r0
 3070              		.cfi_remember_state
 3071              		.cfi_restore 65
 3072 0036 20F1     		se_addi %r1,16
 3073              	.LCFI135:
 3074              		.cfi_restore 31
 3075              		.cfi_def_cfa_offset 0
 3076              		.loc 1 901 0
 3077 0038 0006     		se_bctr
 3078              	.LVL111:
GAS LISTING C:\Users\Vipuls\AppData\Local\Temp\ccvVtvud.s 			page 55


 3079              	.L119:
 3080              	.LCFI136:
 3081              		.cfi_restore_state
 3082              		.loc 1 898 0
 3083 003a 78000001 		e_bl irqSysHalt
 3084              	.LVL112:
 3085 003e 50FF0084 		e_lwz %r7,132(%r31)
 3086              		.loc 1 900 0
 3087 0042 4A15     		se_li %r5,33
 3088 0044 70DEE40A 		e_lis %r6,0xf40a
 3089              		.loc 1 901 0
 3090 0048 4A13     		se_li %r3,33
 3091              		.loc 1 900 0
 3092 004a 6516     		se_bseti %r6,17
 3093 004c 34A6001C 		e_stb %r5,28(%r6)
 3094              		.loc 1 904 0
 3095 0050 C501     		se_lwz %r0,20(%r1)
 3096              		.loc 1 901 0
 3097 0052 C267     		se_lwz %r6,8(%r7)
 3098              		.loc 1 904 0
 3099 0054 C3F1     		se_lwz %r31,12(%r1)
 3100              		.loc 1 901 0
 3101 0056 C447     		se_lwz %r4,16(%r7)
 3102 0058 00B6     		se_mtctr %r6
 3103              		.loc 1 904 0
 3104 005a 0090     		se_mtlr %r0
 3105              		.cfi_restore 65
 3106 005c 20F1     		se_addi %r1,16
 3107              	.LCFI137:
 3108              		.cfi_restore 31
 3109              		.cfi_def_cfa_offset 0
 3110              		.loc 1 901 0
 3111 005e 0006     		se_bctr
 3112              	.LVL113:
 3113              		.cfi_endproc
 3114              	.LFE37:
 3115              		.size	vector86, .-vector86
 3116              		.section	.text.vector87,"axv",@progbits
 3117              		.align 1
 3118              		.p2align 4,,15
 3119              		.globl vector87
 3120              		.type	vector87, @function
 3121              	vector87:
 3122              	.LFB38:
 3123              		.loc 1 914 0
 3124              		.cfi_startproc
 3125 0000 182106F0 		e_stwu %r1,-16(%r1)
 3126              	.LCFI138:
 3127              		.cfi_def_cfa_offset 16
 3128 0004 0080     		se_mflr %r0
 3129 0006 D3F1     		se_stw %r31,12(%r1)
 3130 0008 D501     		se_stw %r0,20(%r1)
 3131              		.cfi_offset 65, 4
 3132              		.cfi_offset 31, -4
 3133              		.loc 1 918 0
 3134 000a 73E0E000 		e_lis %r31,.LANCHOR0@ha
 3135 000e 1FFF0000 		e_la %r31,.LANCHOR0@l(%r31)
GAS LISTING C:\Users\Vipuls\AppData\Local\Temp\ccvVtvud.s 			page 56


 3136 0012 50FF0088 		e_lwz %r7,136(%r31)
 3137 0016 2A07     		se_cmpi %r7,0
 3138 0018 7A120022 		e_beq %cr0,.L122
 3139              		.loc 1 921 0
 3140 001c 4A25     		se_li %r5,34
 3141 001e 70DEE40A 		e_lis %r6,0xf40a
 3142              		.loc 1 922 0
 3143 0022 4A23     		se_li %r3,34
 3144              		.loc 1 921 0
 3145 0024 6516     		se_bseti %r6,17
 3146 0026 34A6001C 		e_stb %r5,28(%r6)
 3147              		.loc 1 925 0
 3148 002a C501     		se_lwz %r0,20(%r1)
 3149              		.loc 1 922 0
 3150 002c C267     		se_lwz %r6,8(%r7)
 3151              		.loc 1 925 0
 3152 002e C3F1     		se_lwz %r31,12(%r1)
 3153              		.loc 1 922 0
 3154 0030 C447     		se_lwz %r4,16(%r7)
 3155 0032 00B6     		se_mtctr %r6
 3156              		.loc 1 925 0
 3157 0034 0090     		se_mtlr %r0
 3158              		.cfi_remember_state
 3159              		.cfi_restore 65
 3160 0036 20F1     		se_addi %r1,16
 3161              	.LCFI139:
 3162              		.cfi_restore 31
 3163              		.cfi_def_cfa_offset 0
 3164              		.loc 1 922 0
 3165 0038 0006     		se_bctr
 3166              	.LVL114:
 3167              	.L122:
 3168              	.LCFI140:
 3169              		.cfi_restore_state
 3170              		.loc 1 919 0
 3171 003a 78000001 		e_bl irqSysHalt
 3172              	.LVL115:
 3173 003e 50FF0088 		e_lwz %r7,136(%r31)
 3174              		.loc 1 921 0
 3175 0042 4A25     		se_li %r5,34
 3176 0044 70DEE40A 		e_lis %r6,0xf40a
 3177              		.loc 1 922 0
 3178 0048 4A23     		se_li %r3,34
 3179              		.loc 1 921 0
 3180 004a 6516     		se_bseti %r6,17
 3181 004c 34A6001C 		e_stb %r5,28(%r6)
 3182              		.loc 1 925 0
 3183 0050 C501     		se_lwz %r0,20(%r1)
 3184              		.loc 1 922 0
 3185 0052 C267     		se_lwz %r6,8(%r7)
 3186              		.loc 1 925 0
 3187 0054 C3F1     		se_lwz %r31,12(%r1)
 3188              		.loc 1 922 0
 3189 0056 C447     		se_lwz %r4,16(%r7)
 3190 0058 00B6     		se_mtctr %r6
 3191              		.loc 1 925 0
 3192 005a 0090     		se_mtlr %r0
GAS LISTING C:\Users\Vipuls\AppData\Local\Temp\ccvVtvud.s 			page 57


 3193              		.cfi_restore 65
 3194 005c 20F1     		se_addi %r1,16
 3195              	.LCFI141:
 3196              		.cfi_restore 31
 3197              		.cfi_def_cfa_offset 0
 3198              		.loc 1 922 0
 3199 005e 0006     		se_bctr
 3200              	.LVL116:
 3201              		.cfi_endproc
 3202              	.LFE38:
 3203              		.size	vector87, .-vector87
 3204              		.section	.text.vector88,"axv",@progbits
 3205              		.align 1
 3206              		.p2align 4,,15
 3207              		.globl vector88
 3208              		.type	vector88, @function
 3209              	vector88:
 3210              	.LFB39:
 3211              		.loc 1 935 0
 3212              		.cfi_startproc
 3213 0000 182106F0 		e_stwu %r1,-16(%r1)
 3214              	.LCFI142:
 3215              		.cfi_def_cfa_offset 16
 3216 0004 0080     		se_mflr %r0
 3217 0006 D3F1     		se_stw %r31,12(%r1)
 3218 0008 D501     		se_stw %r0,20(%r1)
 3219              		.cfi_offset 65, 4
 3220              		.cfi_offset 31, -4
 3221              		.loc 1 939 0
 3222 000a 73E0E000 		e_lis %r31,.LANCHOR0@ha
 3223 000e 1FFF0000 		e_la %r31,.LANCHOR0@l(%r31)
 3224 0012 50FF008C 		e_lwz %r7,140(%r31)
 3225 0016 2A07     		se_cmpi %r7,0
 3226 0018 7A120022 		e_beq %cr0,.L125
 3227              		.loc 1 942 0
 3228 001c 4A35     		se_li %r5,35
 3229 001e 70DEE40A 		e_lis %r6,0xf40a
 3230              		.loc 1 943 0
 3231 0022 4A33     		se_li %r3,35
 3232              		.loc 1 942 0
 3233 0024 6516     		se_bseti %r6,17
 3234 0026 34A6001C 		e_stb %r5,28(%r6)
 3235              		.loc 1 946 0
 3236 002a C501     		se_lwz %r0,20(%r1)
 3237              		.loc 1 943 0
 3238 002c C267     		se_lwz %r6,8(%r7)
 3239              		.loc 1 946 0
 3240 002e C3F1     		se_lwz %r31,12(%r1)
 3241              		.loc 1 943 0
 3242 0030 C447     		se_lwz %r4,16(%r7)
 3243 0032 00B6     		se_mtctr %r6
 3244              		.loc 1 946 0
 3245 0034 0090     		se_mtlr %r0
 3246              		.cfi_remember_state
 3247              		.cfi_restore 65
 3248 0036 20F1     		se_addi %r1,16
 3249              	.LCFI143:
GAS LISTING C:\Users\Vipuls\AppData\Local\Temp\ccvVtvud.s 			page 58


 3250              		.cfi_restore 31
 3251              		.cfi_def_cfa_offset 0
 3252              		.loc 1 943 0
 3253 0038 0006     		se_bctr
 3254              	.LVL117:
 3255              	.L125:
 3256              	.LCFI144:
 3257              		.cfi_restore_state
 3258              		.loc 1 940 0
 3259 003a 78000001 		e_bl irqSysHalt
 3260              	.LVL118:
 3261 003e 50FF008C 		e_lwz %r7,140(%r31)
 3262              		.loc 1 942 0
 3263 0042 4A35     		se_li %r5,35
 3264 0044 70DEE40A 		e_lis %r6,0xf40a
 3265              		.loc 1 943 0
 3266 0048 4A33     		se_li %r3,35
 3267              		.loc 1 942 0
 3268 004a 6516     		se_bseti %r6,17
 3269 004c 34A6001C 		e_stb %r5,28(%r6)
 3270              		.loc 1 946 0
 3271 0050 C501     		se_lwz %r0,20(%r1)
 3272              		.loc 1 943 0
 3273 0052 C267     		se_lwz %r6,8(%r7)
 3274              		.loc 1 946 0
 3275 0054 C3F1     		se_lwz %r31,12(%r1)
 3276              		.loc 1 943 0
 3277 0056 C447     		se_lwz %r4,16(%r7)
 3278 0058 00B6     		se_mtctr %r6
 3279              		.loc 1 946 0
 3280 005a 0090     		se_mtlr %r0
 3281              		.cfi_restore 65
 3282 005c 20F1     		se_addi %r1,16
 3283              	.LCFI145:
 3284              		.cfi_restore 31
 3285              		.cfi_def_cfa_offset 0
 3286              		.loc 1 943 0
 3287 005e 0006     		se_bctr
 3288              	.LVL119:
 3289              		.cfi_endproc
 3290              	.LFE39:
 3291              		.size	vector88, .-vector88
 3292              		.section	.text.vector89,"axv",@progbits
 3293              		.align 1
 3294              		.p2align 4,,15
 3295              		.globl vector89
 3296              		.type	vector89, @function
 3297              	vector89:
 3298              	.LFB40:
 3299              		.loc 1 956 0
 3300              		.cfi_startproc
 3301 0000 182106F0 		e_stwu %r1,-16(%r1)
 3302              	.LCFI146:
 3303              		.cfi_def_cfa_offset 16
 3304 0004 0080     		se_mflr %r0
 3305 0006 D3F1     		se_stw %r31,12(%r1)
 3306 0008 D501     		se_stw %r0,20(%r1)
GAS LISTING C:\Users\Vipuls\AppData\Local\Temp\ccvVtvud.s 			page 59


 3307              		.cfi_offset 65, 4
 3308              		.cfi_offset 31, -4
 3309              		.loc 1 960 0
 3310 000a 73E0E000 		e_lis %r31,.LANCHOR0@ha
 3311 000e 1FFF0000 		e_la %r31,.LANCHOR0@l(%r31)
 3312 0012 50FF0090 		e_lwz %r7,144(%r31)
 3313 0016 2A07     		se_cmpi %r7,0
 3314 0018 7A120022 		e_beq %cr0,.L128
 3315              		.loc 1 963 0
 3316 001c 4A45     		se_li %r5,36
 3317 001e 70DEE40A 		e_lis %r6,0xf40a
 3318              		.loc 1 964 0
 3319 0022 4A43     		se_li %r3,36
 3320              		.loc 1 963 0
 3321 0024 6516     		se_bseti %r6,17
 3322 0026 34A6001C 		e_stb %r5,28(%r6)
 3323              		.loc 1 967 0
 3324 002a C501     		se_lwz %r0,20(%r1)
 3325              		.loc 1 964 0
 3326 002c C267     		se_lwz %r6,8(%r7)
 3327              		.loc 1 967 0
 3328 002e C3F1     		se_lwz %r31,12(%r1)
 3329              		.loc 1 964 0
 3330 0030 C447     		se_lwz %r4,16(%r7)
 3331 0032 00B6     		se_mtctr %r6
 3332              		.loc 1 967 0
 3333 0034 0090     		se_mtlr %r0
 3334              		.cfi_remember_state
 3335              		.cfi_restore 65
 3336 0036 20F1     		se_addi %r1,16
 3337              	.LCFI147:
 3338              		.cfi_restore 31
 3339              		.cfi_def_cfa_offset 0
 3340              		.loc 1 964 0
 3341 0038 0006     		se_bctr
 3342              	.LVL120:
 3343              	.L128:
 3344              	.LCFI148:
 3345              		.cfi_restore_state
 3346              		.loc 1 961 0
 3347 003a 78000001 		e_bl irqSysHalt
 3348              	.LVL121:
 3349 003e 50FF0090 		e_lwz %r7,144(%r31)
 3350              		.loc 1 963 0
 3351 0042 4A45     		se_li %r5,36
 3352 0044 70DEE40A 		e_lis %r6,0xf40a
 3353              		.loc 1 964 0
 3354 0048 4A43     		se_li %r3,36
 3355              		.loc 1 963 0
 3356 004a 6516     		se_bseti %r6,17
 3357 004c 34A6001C 		e_stb %r5,28(%r6)
 3358              		.loc 1 967 0
 3359 0050 C501     		se_lwz %r0,20(%r1)
 3360              		.loc 1 964 0
 3361 0052 C267     		se_lwz %r6,8(%r7)
 3362              		.loc 1 967 0
 3363 0054 C3F1     		se_lwz %r31,12(%r1)
GAS LISTING C:\Users\Vipuls\AppData\Local\Temp\ccvVtvud.s 			page 60


 3364              		.loc 1 964 0
 3365 0056 C447     		se_lwz %r4,16(%r7)
 3366 0058 00B6     		se_mtctr %r6
 3367              		.loc 1 967 0
 3368 005a 0090     		se_mtlr %r0
 3369              		.cfi_restore 65
 3370 005c 20F1     		se_addi %r1,16
 3371              	.LCFI149:
 3372              		.cfi_restore 31
 3373              		.cfi_def_cfa_offset 0
 3374              		.loc 1 964 0
 3375 005e 0006     		se_bctr
 3376              	.LVL122:
 3377              		.cfi_endproc
 3378              	.LFE40:
 3379              		.size	vector89, .-vector89
 3380              		.section	.text.vector90,"axv",@progbits
 3381              		.align 1
 3382              		.p2align 4,,15
 3383              		.globl vector90
 3384              		.type	vector90, @function
 3385              	vector90:
 3386              	.LFB41:
 3387              		.loc 1 977 0
 3388              		.cfi_startproc
 3389 0000 182106F0 		e_stwu %r1,-16(%r1)
 3390              	.LCFI150:
 3391              		.cfi_def_cfa_offset 16
 3392 0004 0080     		se_mflr %r0
 3393 0006 D3F1     		se_stw %r31,12(%r1)
 3394 0008 D501     		se_stw %r0,20(%r1)
 3395              		.cfi_offset 65, 4
 3396              		.cfi_offset 31, -4
 3397              		.loc 1 981 0
 3398 000a 73E0E000 		e_lis %r31,.LANCHOR0@ha
 3399 000e 1FFF0000 		e_la %r31,.LANCHOR0@l(%r31)
 3400 0012 50FF0094 		e_lwz %r7,148(%r31)
 3401 0016 2A07     		se_cmpi %r7,0
 3402 0018 7A120022 		e_beq %cr0,.L131
 3403              		.loc 1 984 0
 3404 001c 4A55     		se_li %r5,37
 3405 001e 70DEE40A 		e_lis %r6,0xf40a
 3406              		.loc 1 985 0
 3407 0022 4A53     		se_li %r3,37
 3408              		.loc 1 984 0
 3409 0024 6516     		se_bseti %r6,17
 3410 0026 34A6001C 		e_stb %r5,28(%r6)
 3411              		.loc 1 988 0
 3412 002a C501     		se_lwz %r0,20(%r1)
 3413              		.loc 1 985 0
 3414 002c C267     		se_lwz %r6,8(%r7)
 3415              		.loc 1 988 0
 3416 002e C3F1     		se_lwz %r31,12(%r1)
 3417              		.loc 1 985 0
 3418 0030 C447     		se_lwz %r4,16(%r7)
 3419 0032 00B6     		se_mtctr %r6
 3420              		.loc 1 988 0
GAS LISTING C:\Users\Vipuls\AppData\Local\Temp\ccvVtvud.s 			page 61


 3421 0034 0090     		se_mtlr %r0
 3422              		.cfi_remember_state
 3423              		.cfi_restore 65
 3424 0036 20F1     		se_addi %r1,16
 3425              	.LCFI151:
 3426              		.cfi_restore 31
 3427              		.cfi_def_cfa_offset 0
 3428              		.loc 1 985 0
 3429 0038 0006     		se_bctr
 3430              	.LVL123:
 3431              	.L131:
 3432              	.LCFI152:
 3433              		.cfi_restore_state
 3434              		.loc 1 982 0
 3435 003a 78000001 		e_bl irqSysHalt
 3436              	.LVL124:
 3437 003e 50FF0094 		e_lwz %r7,148(%r31)
 3438              		.loc 1 984 0
 3439 0042 4A55     		se_li %r5,37
 3440 0044 70DEE40A 		e_lis %r6,0xf40a
 3441              		.loc 1 985 0
 3442 0048 4A53     		se_li %r3,37
 3443              		.loc 1 984 0
 3444 004a 6516     		se_bseti %r6,17
 3445 004c 34A6001C 		e_stb %r5,28(%r6)
 3446              		.loc 1 988 0
 3447 0050 C501     		se_lwz %r0,20(%r1)
 3448              		.loc 1 985 0
 3449 0052 C267     		se_lwz %r6,8(%r7)
 3450              		.loc 1 988 0
 3451 0054 C3F1     		se_lwz %r31,12(%r1)
 3452              		.loc 1 985 0
 3453 0056 C447     		se_lwz %r4,16(%r7)
 3454 0058 00B6     		se_mtctr %r6
 3455              		.loc 1 988 0
 3456 005a 0090     		se_mtlr %r0
 3457              		.cfi_restore 65
 3458 005c 20F1     		se_addi %r1,16
 3459              	.LCFI153:
 3460              		.cfi_restore 31
 3461              		.cfi_def_cfa_offset 0
 3462              		.loc 1 985 0
 3463 005e 0006     		se_bctr
 3464              	.LVL125:
 3465              		.cfi_endproc
 3466              	.LFE41:
 3467              		.size	vector90, .-vector90
 3468              		.section	.text.vector91,"axv",@progbits
 3469              		.align 1
 3470              		.p2align 4,,15
 3471              		.globl vector91
 3472              		.type	vector91, @function
 3473              	vector91:
 3474              	.LFB42:
 3475              		.loc 1 998 0
 3476              		.cfi_startproc
 3477 0000 182106F0 		e_stwu %r1,-16(%r1)
GAS LISTING C:\Users\Vipuls\AppData\Local\Temp\ccvVtvud.s 			page 62


 3478              	.LCFI154:
 3479              		.cfi_def_cfa_offset 16
 3480 0004 0080     		se_mflr %r0
 3481 0006 D3F1     		se_stw %r31,12(%r1)
 3482 0008 D501     		se_stw %r0,20(%r1)
 3483              		.cfi_offset 65, 4
 3484              		.cfi_offset 31, -4
 3485              		.loc 1 1002 0
 3486 000a 73E0E000 		e_lis %r31,.LANCHOR0@ha
 3487 000e 1FFF0000 		e_la %r31,.LANCHOR0@l(%r31)
 3488 0012 50FF0098 		e_lwz %r7,152(%r31)
 3489 0016 2A07     		se_cmpi %r7,0
 3490 0018 7A120022 		e_beq %cr0,.L134
 3491              		.loc 1 1005 0
 3492 001c 4A65     		se_li %r5,38
 3493 001e 70DEE40A 		e_lis %r6,0xf40a
 3494              		.loc 1 1006 0
 3495 0022 4A63     		se_li %r3,38
 3496              		.loc 1 1005 0
 3497 0024 6516     		se_bseti %r6,17
 3498 0026 34A6001C 		e_stb %r5,28(%r6)
 3499              		.loc 1 1009 0
 3500 002a C501     		se_lwz %r0,20(%r1)
 3501              		.loc 1 1006 0
 3502 002c C267     		se_lwz %r6,8(%r7)
 3503              		.loc 1 1009 0
 3504 002e C3F1     		se_lwz %r31,12(%r1)
 3505              		.loc 1 1006 0
 3506 0030 C447     		se_lwz %r4,16(%r7)
 3507 0032 00B6     		se_mtctr %r6
 3508              		.loc 1 1009 0
 3509 0034 0090     		se_mtlr %r0
 3510              		.cfi_remember_state
 3511              		.cfi_restore 65
 3512 0036 20F1     		se_addi %r1,16
 3513              	.LCFI155:
 3514              		.cfi_restore 31
 3515              		.cfi_def_cfa_offset 0
 3516              		.loc 1 1006 0
 3517 0038 0006     		se_bctr
 3518              	.LVL126:
 3519              	.L134:
 3520              	.LCFI156:
 3521              		.cfi_restore_state
 3522              		.loc 1 1003 0
 3523 003a 78000001 		e_bl irqSysHalt
 3524              	.LVL127:
 3525 003e 50FF0098 		e_lwz %r7,152(%r31)
 3526              		.loc 1 1005 0
 3527 0042 4A65     		se_li %r5,38
 3528 0044 70DEE40A 		e_lis %r6,0xf40a
 3529              		.loc 1 1006 0
 3530 0048 4A63     		se_li %r3,38
 3531              		.loc 1 1005 0
 3532 004a 6516     		se_bseti %r6,17
 3533 004c 34A6001C 		e_stb %r5,28(%r6)
 3534              		.loc 1 1009 0
GAS LISTING C:\Users\Vipuls\AppData\Local\Temp\ccvVtvud.s 			page 63


 3535 0050 C501     		se_lwz %r0,20(%r1)
 3536              		.loc 1 1006 0
 3537 0052 C267     		se_lwz %r6,8(%r7)
 3538              		.loc 1 1009 0
 3539 0054 C3F1     		se_lwz %r31,12(%r1)
 3540              		.loc 1 1006 0
 3541 0056 C447     		se_lwz %r4,16(%r7)
 3542 0058 00B6     		se_mtctr %r6
 3543              		.loc 1 1009 0
 3544 005a 0090     		se_mtlr %r0
 3545              		.cfi_restore 65
 3546 005c 20F1     		se_addi %r1,16
 3547              	.LCFI157:
 3548              		.cfi_restore 31
 3549              		.cfi_def_cfa_offset 0
 3550              		.loc 1 1006 0
 3551 005e 0006     		se_bctr
 3552              	.LVL128:
 3553              		.cfi_endproc
 3554              	.LFE42:
 3555              		.size	vector91, .-vector91
 3556              		.section	.text.vector92,"axv",@progbits
 3557              		.align 1
 3558              		.p2align 4,,15
 3559              		.globl vector92
 3560              		.type	vector92, @function
 3561              	vector92:
 3562              	.LFB43:
 3563              		.loc 1 1019 0
 3564              		.cfi_startproc
 3565 0000 182106F0 		e_stwu %r1,-16(%r1)
 3566              	.LCFI158:
 3567              		.cfi_def_cfa_offset 16
 3568 0004 0080     		se_mflr %r0
 3569 0006 D3F1     		se_stw %r31,12(%r1)
 3570 0008 D501     		se_stw %r0,20(%r1)
 3571              		.cfi_offset 65, 4
 3572              		.cfi_offset 31, -4
 3573              		.loc 1 1023 0
 3574 000a 73E0E000 		e_lis %r31,.LANCHOR0@ha
 3575 000e 1FFF0000 		e_la %r31,.LANCHOR0@l(%r31)
 3576 0012 50FF009C 		e_lwz %r7,156(%r31)
 3577 0016 2A07     		se_cmpi %r7,0
 3578 0018 7A120022 		e_beq %cr0,.L137
 3579              		.loc 1 1026 0
 3580 001c 4A75     		se_li %r5,39
 3581 001e 70DEE40A 		e_lis %r6,0xf40a
 3582              		.loc 1 1027 0
 3583 0022 4A73     		se_li %r3,39
 3584              		.loc 1 1026 0
 3585 0024 6516     		se_bseti %r6,17
 3586 0026 34A6001C 		e_stb %r5,28(%r6)
 3587              		.loc 1 1030 0
 3588 002a C501     		se_lwz %r0,20(%r1)
 3589              		.loc 1 1027 0
 3590 002c C267     		se_lwz %r6,8(%r7)
 3591              		.loc 1 1030 0
GAS LISTING C:\Users\Vipuls\AppData\Local\Temp\ccvVtvud.s 			page 64


 3592 002e C3F1     		se_lwz %r31,12(%r1)
 3593              		.loc 1 1027 0
 3594 0030 C447     		se_lwz %r4,16(%r7)
 3595 0032 00B6     		se_mtctr %r6
 3596              		.loc 1 1030 0
 3597 0034 0090     		se_mtlr %r0
 3598              		.cfi_remember_state
 3599              		.cfi_restore 65
 3600 0036 20F1     		se_addi %r1,16
 3601              	.LCFI159:
 3602              		.cfi_restore 31
 3603              		.cfi_def_cfa_offset 0
 3604              		.loc 1 1027 0
 3605 0038 0006     		se_bctr
 3606              	.LVL129:
 3607              	.L137:
 3608              	.LCFI160:
 3609              		.cfi_restore_state
 3610              		.loc 1 1024 0
 3611 003a 78000001 		e_bl irqSysHalt
 3612              	.LVL130:
 3613 003e 50FF009C 		e_lwz %r7,156(%r31)
 3614              		.loc 1 1026 0
 3615 0042 4A75     		se_li %r5,39
 3616 0044 70DEE40A 		e_lis %r6,0xf40a
 3617              		.loc 1 1027 0
 3618 0048 4A73     		se_li %r3,39
 3619              		.loc 1 1026 0
 3620 004a 6516     		se_bseti %r6,17
 3621 004c 34A6001C 		e_stb %r5,28(%r6)
 3622              		.loc 1 1030 0
 3623 0050 C501     		se_lwz %r0,20(%r1)
 3624              		.loc 1 1027 0
 3625 0052 C267     		se_lwz %r6,8(%r7)
 3626              		.loc 1 1030 0
 3627 0054 C3F1     		se_lwz %r31,12(%r1)
 3628              		.loc 1 1027 0
 3629 0056 C447     		se_lwz %r4,16(%r7)
 3630 0058 00B6     		se_mtctr %r6
 3631              		.loc 1 1030 0
 3632 005a 0090     		se_mtlr %r0
 3633              		.cfi_restore 65
 3634 005c 20F1     		se_addi %r1,16
 3635              	.LCFI161:
 3636              		.cfi_restore 31
 3637              		.cfi_def_cfa_offset 0
 3638              		.loc 1 1027 0
 3639 005e 0006     		se_bctr
 3640              	.LVL131:
 3641              		.cfi_endproc
 3642              	.LFE43:
 3643              		.size	vector92, .-vector92
 3644              		.section	.text.vector93,"axv",@progbits
 3645              		.align 1
 3646              		.p2align 4,,15
 3647              		.globl vector93
 3648              		.type	vector93, @function
GAS LISTING C:\Users\Vipuls\AppData\Local\Temp\ccvVtvud.s 			page 65


 3649              	vector93:
 3650              	.LFB44:
 3651              		.loc 1 1040 0
 3652              		.cfi_startproc
 3653 0000 182106F0 		e_stwu %r1,-16(%r1)
 3654              	.LCFI162:
 3655              		.cfi_def_cfa_offset 16
 3656 0004 0080     		se_mflr %r0
 3657 0006 D3F1     		se_stw %r31,12(%r1)
 3658 0008 D501     		se_stw %r0,20(%r1)
 3659              		.cfi_offset 65, 4
 3660              		.cfi_offset 31, -4
 3661              		.loc 1 1044 0
 3662 000a 73E0E000 		e_lis %r31,.LANCHOR0@ha
 3663 000e 1FFF0000 		e_la %r31,.LANCHOR0@l(%r31)
 3664 0012 50FF00A0 		e_lwz %r7,160(%r31)
 3665 0016 2A07     		se_cmpi %r7,0
 3666 0018 7A120022 		e_beq %cr0,.L140
 3667              		.loc 1 1047 0
 3668 001c 4A85     		se_li %r5,40
 3669 001e 70DEE40A 		e_lis %r6,0xf40a
 3670              		.loc 1 1048 0
 3671 0022 4A83     		se_li %r3,40
 3672              		.loc 1 1047 0
 3673 0024 6516     		se_bseti %r6,17
 3674 0026 34A6001C 		e_stb %r5,28(%r6)
 3675              		.loc 1 1051 0
 3676 002a C501     		se_lwz %r0,20(%r1)
 3677              		.loc 1 1048 0
 3678 002c C267     		se_lwz %r6,8(%r7)
 3679              		.loc 1 1051 0
 3680 002e C3F1     		se_lwz %r31,12(%r1)
 3681              		.loc 1 1048 0
 3682 0030 C447     		se_lwz %r4,16(%r7)
 3683 0032 00B6     		se_mtctr %r6
 3684              		.loc 1 1051 0
 3685 0034 0090     		se_mtlr %r0
 3686              		.cfi_remember_state
 3687              		.cfi_restore 65
 3688 0036 20F1     		se_addi %r1,16
 3689              	.LCFI163:
 3690              		.cfi_restore 31
 3691              		.cfi_def_cfa_offset 0
 3692              		.loc 1 1048 0
 3693 0038 0006     		se_bctr
 3694              	.LVL132:
 3695              	.L140:
 3696              	.LCFI164:
 3697              		.cfi_restore_state
 3698              		.loc 1 1045 0
 3699 003a 78000001 		e_bl irqSysHalt
 3700              	.LVL133:
 3701 003e 50FF00A0 		e_lwz %r7,160(%r31)
 3702              		.loc 1 1047 0
 3703 0042 4A85     		se_li %r5,40
 3704 0044 70DEE40A 		e_lis %r6,0xf40a
 3705              		.loc 1 1048 0
GAS LISTING C:\Users\Vipuls\AppData\Local\Temp\ccvVtvud.s 			page 66


 3706 0048 4A83     		se_li %r3,40
 3707              		.loc 1 1047 0
 3708 004a 6516     		se_bseti %r6,17
 3709 004c 34A6001C 		e_stb %r5,28(%r6)
 3710              		.loc 1 1051 0
 3711 0050 C501     		se_lwz %r0,20(%r1)
 3712              		.loc 1 1048 0
 3713 0052 C267     		se_lwz %r6,8(%r7)
 3714              		.loc 1 1051 0
 3715 0054 C3F1     		se_lwz %r31,12(%r1)
 3716              		.loc 1 1048 0
 3717 0056 C447     		se_lwz %r4,16(%r7)
 3718 0058 00B6     		se_mtctr %r6
 3719              		.loc 1 1051 0
 3720 005a 0090     		se_mtlr %r0
 3721              		.cfi_restore 65
 3722 005c 20F1     		se_addi %r1,16
 3723              	.LCFI165:
 3724              		.cfi_restore 31
 3725              		.cfi_def_cfa_offset 0
 3726              		.loc 1 1048 0
 3727 005e 0006     		se_bctr
 3728              	.LVL134:
 3729              		.cfi_endproc
 3730              	.LFE44:
 3731              		.size	vector93, .-vector93
 3732              		.section	.text.vector94,"axv",@progbits
 3733              		.align 1
 3734              		.p2align 4,,15
 3735              		.globl vector94
 3736              		.type	vector94, @function
 3737              	vector94:
 3738              	.LFB45:
 3739              		.loc 1 1061 0
 3740              		.cfi_startproc
 3741 0000 182106F0 		e_stwu %r1,-16(%r1)
 3742              	.LCFI166:
 3743              		.cfi_def_cfa_offset 16
 3744 0004 0080     		se_mflr %r0
 3745 0006 D3F1     		se_stw %r31,12(%r1)
 3746 0008 D501     		se_stw %r0,20(%r1)
 3747              		.cfi_offset 65, 4
 3748              		.cfi_offset 31, -4
 3749              		.loc 1 1065 0
 3750 000a 73E0E000 		e_lis %r31,.LANCHOR0@ha
 3751 000e 1FFF0000 		e_la %r31,.LANCHOR0@l(%r31)
 3752 0012 50FF00A4 		e_lwz %r7,164(%r31)
 3753 0016 2A07     		se_cmpi %r7,0
 3754 0018 7A120022 		e_beq %cr0,.L143
 3755              		.loc 1 1068 0
 3756 001c 4A95     		se_li %r5,41
 3757 001e 70DEE40A 		e_lis %r6,0xf40a
 3758              		.loc 1 1069 0
 3759 0022 4A93     		se_li %r3,41
 3760              		.loc 1 1068 0
 3761 0024 6516     		se_bseti %r6,17
 3762 0026 34A6001C 		e_stb %r5,28(%r6)
GAS LISTING C:\Users\Vipuls\AppData\Local\Temp\ccvVtvud.s 			page 67


 3763              		.loc 1 1072 0
 3764 002a C501     		se_lwz %r0,20(%r1)
 3765              		.loc 1 1069 0
 3766 002c C267     		se_lwz %r6,8(%r7)
 3767              		.loc 1 1072 0
 3768 002e C3F1     		se_lwz %r31,12(%r1)
 3769              		.loc 1 1069 0
 3770 0030 C447     		se_lwz %r4,16(%r7)
 3771 0032 00B6     		se_mtctr %r6
 3772              		.loc 1 1072 0
 3773 0034 0090     		se_mtlr %r0
 3774              		.cfi_remember_state
 3775              		.cfi_restore 65
 3776 0036 20F1     		se_addi %r1,16
 3777              	.LCFI167:
 3778              		.cfi_restore 31
 3779              		.cfi_def_cfa_offset 0
 3780              		.loc 1 1069 0
 3781 0038 0006     		se_bctr
 3782              	.LVL135:
 3783              	.L143:
 3784              	.LCFI168:
 3785              		.cfi_restore_state
 3786              		.loc 1 1066 0
 3787 003a 78000001 		e_bl irqSysHalt
 3788              	.LVL136:
 3789 003e 50FF00A4 		e_lwz %r7,164(%r31)
 3790              		.loc 1 1068 0
 3791 0042 4A95     		se_li %r5,41
 3792 0044 70DEE40A 		e_lis %r6,0xf40a
 3793              		.loc 1 1069 0
 3794 0048 4A93     		se_li %r3,41
 3795              		.loc 1 1068 0
 3796 004a 6516     		se_bseti %r6,17
 3797 004c 34A6001C 		e_stb %r5,28(%r6)
 3798              		.loc 1 1072 0
 3799 0050 C501     		se_lwz %r0,20(%r1)
 3800              		.loc 1 1069 0
 3801 0052 C267     		se_lwz %r6,8(%r7)
 3802              		.loc 1 1072 0
 3803 0054 C3F1     		se_lwz %r31,12(%r1)
 3804              		.loc 1 1069 0
 3805 0056 C447     		se_lwz %r4,16(%r7)
 3806 0058 00B6     		se_mtctr %r6
 3807              		.loc 1 1072 0
 3808 005a 0090     		se_mtlr %r0
 3809              		.cfi_restore 65
 3810 005c 20F1     		se_addi %r1,16
 3811              	.LCFI169:
 3812              		.cfi_restore 31
 3813              		.cfi_def_cfa_offset 0
 3814              		.loc 1 1069 0
 3815 005e 0006     		se_bctr
 3816              	.LVL137:
 3817              		.cfi_endproc
 3818              	.LFE45:
 3819              		.size	vector94, .-vector94
GAS LISTING C:\Users\Vipuls\AppData\Local\Temp\ccvVtvud.s 			page 68


 3820              		.section	.text.vector95,"axv",@progbits
 3821              		.align 1
 3822              		.p2align 4,,15
 3823              		.globl vector95
 3824              		.type	vector95, @function
 3825              	vector95:
 3826              	.LFB46:
 3827              		.loc 1 1082 0
 3828              		.cfi_startproc
 3829 0000 182106F0 		e_stwu %r1,-16(%r1)
 3830              	.LCFI170:
 3831              		.cfi_def_cfa_offset 16
 3832 0004 0080     		se_mflr %r0
 3833 0006 D3F1     		se_stw %r31,12(%r1)
 3834 0008 D501     		se_stw %r0,20(%r1)
 3835              		.cfi_offset 65, 4
 3836              		.cfi_offset 31, -4
 3837              		.loc 1 1086 0
 3838 000a 73E0E000 		e_lis %r31,.LANCHOR0@ha
 3839 000e 1FFF0000 		e_la %r31,.LANCHOR0@l(%r31)
 3840 0012 50FF00A8 		e_lwz %r7,168(%r31)
 3841 0016 2A07     		se_cmpi %r7,0
 3842 0018 7A120022 		e_beq %cr0,.L146
 3843              		.loc 1 1089 0
 3844 001c 4AA5     		se_li %r5,42
 3845 001e 70DEE40A 		e_lis %r6,0xf40a
 3846              		.loc 1 1090 0
 3847 0022 4AA3     		se_li %r3,42
 3848              		.loc 1 1089 0
 3849 0024 6516     		se_bseti %r6,17
 3850 0026 34A6001C 		e_stb %r5,28(%r6)
 3851              		.loc 1 1093 0
 3852 002a C501     		se_lwz %r0,20(%r1)
 3853              		.loc 1 1090 0
 3854 002c C267     		se_lwz %r6,8(%r7)
 3855              		.loc 1 1093 0
 3856 002e C3F1     		se_lwz %r31,12(%r1)
 3857              		.loc 1 1090 0
 3858 0030 C447     		se_lwz %r4,16(%r7)
 3859 0032 00B6     		se_mtctr %r6
 3860              		.loc 1 1093 0
 3861 0034 0090     		se_mtlr %r0
 3862              		.cfi_remember_state
 3863              		.cfi_restore 65
 3864 0036 20F1     		se_addi %r1,16
 3865              	.LCFI171:
 3866              		.cfi_restore 31
 3867              		.cfi_def_cfa_offset 0
 3868              		.loc 1 1090 0
 3869 0038 0006     		se_bctr
 3870              	.LVL138:
 3871              	.L146:
 3872              	.LCFI172:
 3873              		.cfi_restore_state
 3874              		.loc 1 1087 0
 3875 003a 78000001 		e_bl irqSysHalt
 3876              	.LVL139:
GAS LISTING C:\Users\Vipuls\AppData\Local\Temp\ccvVtvud.s 			page 69


 3877 003e 50FF00A8 		e_lwz %r7,168(%r31)
 3878              		.loc 1 1089 0
 3879 0042 4AA5     		se_li %r5,42
 3880 0044 70DEE40A 		e_lis %r6,0xf40a
 3881              		.loc 1 1090 0
 3882 0048 4AA3     		se_li %r3,42
 3883              		.loc 1 1089 0
 3884 004a 6516     		se_bseti %r6,17
 3885 004c 34A6001C 		e_stb %r5,28(%r6)
 3886              		.loc 1 1093 0
 3887 0050 C501     		se_lwz %r0,20(%r1)
 3888              		.loc 1 1090 0
 3889 0052 C267     		se_lwz %r6,8(%r7)
 3890              		.loc 1 1093 0
 3891 0054 C3F1     		se_lwz %r31,12(%r1)
 3892              		.loc 1 1090 0
 3893 0056 C447     		se_lwz %r4,16(%r7)
 3894 0058 00B6     		se_mtctr %r6
 3895              		.loc 1 1093 0
 3896 005a 0090     		se_mtlr %r0
 3897              		.cfi_restore 65
 3898 005c 20F1     		se_addi %r1,16
 3899              	.LCFI173:
 3900              		.cfi_restore 31
 3901              		.cfi_def_cfa_offset 0
 3902              		.loc 1 1090 0
 3903 005e 0006     		se_bctr
 3904              	.LVL140:
 3905              		.cfi_endproc
 3906              	.LFE46:
 3907              		.size	vector95, .-vector95
 3908              		.section	.text.vector96,"axv",@progbits
 3909              		.align 1
 3910              		.p2align 4,,15
 3911              		.globl vector96
 3912              		.type	vector96, @function
 3913              	vector96:
 3914              	.LFB47:
 3915              		.loc 1 1103 0
 3916              		.cfi_startproc
 3917 0000 182106F0 		e_stwu %r1,-16(%r1)
 3918              	.LCFI174:
 3919              		.cfi_def_cfa_offset 16
 3920 0004 0080     		se_mflr %r0
 3921 0006 D3F1     		se_stw %r31,12(%r1)
 3922 0008 D501     		se_stw %r0,20(%r1)
 3923              		.cfi_offset 65, 4
 3924              		.cfi_offset 31, -4
 3925              		.loc 1 1107 0
 3926 000a 73E0E000 		e_lis %r31,.LANCHOR0@ha
 3927 000e 1FFF0000 		e_la %r31,.LANCHOR0@l(%r31)
 3928 0012 50FF00AC 		e_lwz %r7,172(%r31)
 3929 0016 2A07     		se_cmpi %r7,0
 3930 0018 7A120022 		e_beq %cr0,.L149
 3931              		.loc 1 1110 0
 3932 001c 4AB5     		se_li %r5,43
 3933 001e 70DEE40A 		e_lis %r6,0xf40a
GAS LISTING C:\Users\Vipuls\AppData\Local\Temp\ccvVtvud.s 			page 70


 3934              		.loc 1 1111 0
 3935 0022 4AB3     		se_li %r3,43
 3936              		.loc 1 1110 0
 3937 0024 6516     		se_bseti %r6,17
 3938 0026 34A6001C 		e_stb %r5,28(%r6)
 3939              		.loc 1 1114 0
 3940 002a C501     		se_lwz %r0,20(%r1)
 3941              		.loc 1 1111 0
 3942 002c C267     		se_lwz %r6,8(%r7)
 3943              		.loc 1 1114 0
 3944 002e C3F1     		se_lwz %r31,12(%r1)
 3945              		.loc 1 1111 0
 3946 0030 C447     		se_lwz %r4,16(%r7)
 3947 0032 00B6     		se_mtctr %r6
 3948              		.loc 1 1114 0
 3949 0034 0090     		se_mtlr %r0
 3950              		.cfi_remember_state
 3951              		.cfi_restore 65
 3952 0036 20F1     		se_addi %r1,16
 3953              	.LCFI175:
 3954              		.cfi_restore 31
 3955              		.cfi_def_cfa_offset 0
 3956              		.loc 1 1111 0
 3957 0038 0006     		se_bctr
 3958              	.LVL141:
 3959              	.L149:
 3960              	.LCFI176:
 3961              		.cfi_restore_state
 3962              		.loc 1 1108 0
 3963 003a 78000001 		e_bl irqSysHalt
 3964              	.LVL142:
 3965 003e 50FF00AC 		e_lwz %r7,172(%r31)
 3966              		.loc 1 1110 0
 3967 0042 4AB5     		se_li %r5,43
 3968 0044 70DEE40A 		e_lis %r6,0xf40a
 3969              		.loc 1 1111 0
 3970 0048 4AB3     		se_li %r3,43
 3971              		.loc 1 1110 0
 3972 004a 6516     		se_bseti %r6,17
 3973 004c 34A6001C 		e_stb %r5,28(%r6)
 3974              		.loc 1 1114 0
 3975 0050 C501     		se_lwz %r0,20(%r1)
 3976              		.loc 1 1111 0
 3977 0052 C267     		se_lwz %r6,8(%r7)
 3978              		.loc 1 1114 0
 3979 0054 C3F1     		se_lwz %r31,12(%r1)
 3980              		.loc 1 1111 0
 3981 0056 C447     		se_lwz %r4,16(%r7)
 3982 0058 00B6     		se_mtctr %r6
 3983              		.loc 1 1114 0
 3984 005a 0090     		se_mtlr %r0
 3985              		.cfi_restore 65
 3986 005c 20F1     		se_addi %r1,16
 3987              	.LCFI177:
 3988              		.cfi_restore 31
 3989              		.cfi_def_cfa_offset 0
 3990              		.loc 1 1111 0
GAS LISTING C:\Users\Vipuls\AppData\Local\Temp\ccvVtvud.s 			page 71


 3991 005e 0006     		se_bctr
 3992              	.LVL143:
 3993              		.cfi_endproc
 3994              	.LFE47:
 3995              		.size	vector96, .-vector96
 3996              		.section	.text.vector97,"axv",@progbits
 3997              		.align 1
 3998              		.p2align 4,,15
 3999              		.globl vector97
 4000              		.type	vector97, @function
 4001              	vector97:
 4002              	.LFB48:
 4003              		.loc 1 1124 0
 4004              		.cfi_startproc
 4005 0000 182106F0 		e_stwu %r1,-16(%r1)
 4006              	.LCFI178:
 4007              		.cfi_def_cfa_offset 16
 4008 0004 0080     		se_mflr %r0
 4009 0006 D3F1     		se_stw %r31,12(%r1)
 4010 0008 D501     		se_stw %r0,20(%r1)
 4011              		.cfi_offset 65, 4
 4012              		.cfi_offset 31, -4
 4013              		.loc 1 1128 0
 4014 000a 73E0E000 		e_lis %r31,.LANCHOR0@ha
 4015 000e 1FFF0000 		e_la %r31,.LANCHOR0@l(%r31)
 4016 0012 50FF00B0 		e_lwz %r7,176(%r31)
 4017 0016 2A07     		se_cmpi %r7,0
 4018 0018 7A120022 		e_beq %cr0,.L152
 4019              		.loc 1 1131 0
 4020 001c 4AC5     		se_li %r5,44
 4021 001e 70DEE40A 		e_lis %r6,0xf40a
 4022              		.loc 1 1132 0
 4023 0022 4AC3     		se_li %r3,44
 4024              		.loc 1 1131 0
 4025 0024 6516     		se_bseti %r6,17
 4026 0026 34A6001C 		e_stb %r5,28(%r6)
 4027              		.loc 1 1135 0
 4028 002a C501     		se_lwz %r0,20(%r1)
 4029              		.loc 1 1132 0
 4030 002c C267     		se_lwz %r6,8(%r7)
 4031              		.loc 1 1135 0
 4032 002e C3F1     		se_lwz %r31,12(%r1)
 4033              		.loc 1 1132 0
 4034 0030 C447     		se_lwz %r4,16(%r7)
 4035 0032 00B6     		se_mtctr %r6
 4036              		.loc 1 1135 0
 4037 0034 0090     		se_mtlr %r0
 4038              		.cfi_remember_state
 4039              		.cfi_restore 65
 4040 0036 20F1     		se_addi %r1,16
 4041              	.LCFI179:
 4042              		.cfi_restore 31
 4043              		.cfi_def_cfa_offset 0
 4044              		.loc 1 1132 0
 4045 0038 0006     		se_bctr
 4046              	.LVL144:
 4047              	.L152:
GAS LISTING C:\Users\Vipuls\AppData\Local\Temp\ccvVtvud.s 			page 72


 4048              	.LCFI180:
 4049              		.cfi_restore_state
 4050              		.loc 1 1129 0
 4051 003a 78000001 		e_bl irqSysHalt
 4052              	.LVL145:
 4053 003e 50FF00B0 		e_lwz %r7,176(%r31)
 4054              		.loc 1 1131 0
 4055 0042 4AC5     		se_li %r5,44
 4056 0044 70DEE40A 		e_lis %r6,0xf40a
 4057              		.loc 1 1132 0
 4058 0048 4AC3     		se_li %r3,44
 4059              		.loc 1 1131 0
 4060 004a 6516     		se_bseti %r6,17
 4061 004c 34A6001C 		e_stb %r5,28(%r6)
 4062              		.loc 1 1135 0
 4063 0050 C501     		se_lwz %r0,20(%r1)
 4064              		.loc 1 1132 0
 4065 0052 C267     		se_lwz %r6,8(%r7)
 4066              		.loc 1 1135 0
 4067 0054 C3F1     		se_lwz %r31,12(%r1)
 4068              		.loc 1 1132 0
 4069 0056 C447     		se_lwz %r4,16(%r7)
 4070 0058 00B6     		se_mtctr %r6
 4071              		.loc 1 1135 0
 4072 005a 0090     		se_mtlr %r0
 4073              		.cfi_restore 65
 4074 005c 20F1     		se_addi %r1,16
 4075              	.LCFI181:
 4076              		.cfi_restore 31
 4077              		.cfi_def_cfa_offset 0
 4078              		.loc 1 1132 0
 4079 005e 0006     		se_bctr
 4080              	.LVL146:
 4081              		.cfi_endproc
 4082              	.LFE48:
 4083              		.size	vector97, .-vector97
 4084              		.section	.text.vector98,"axv",@progbits
 4085              		.align 1
 4086              		.p2align 4,,15
 4087              		.globl vector98
 4088              		.type	vector98, @function
 4089              	vector98:
 4090              	.LFB49:
 4091              		.loc 1 1145 0
 4092              		.cfi_startproc
 4093 0000 182106F0 		e_stwu %r1,-16(%r1)
 4094              	.LCFI182:
 4095              		.cfi_def_cfa_offset 16
 4096 0004 0080     		se_mflr %r0
 4097 0006 D3F1     		se_stw %r31,12(%r1)
 4098 0008 D501     		se_stw %r0,20(%r1)
 4099              		.cfi_offset 65, 4
 4100              		.cfi_offset 31, -4
 4101              		.loc 1 1149 0
 4102 000a 73E0E000 		e_lis %r31,.LANCHOR0@ha
 4103 000e 1FFF0000 		e_la %r31,.LANCHOR0@l(%r31)
 4104 0012 50FF00B4 		e_lwz %r7,180(%r31)
GAS LISTING C:\Users\Vipuls\AppData\Local\Temp\ccvVtvud.s 			page 73


 4105 0016 2A07     		se_cmpi %r7,0
 4106 0018 7A120022 		e_beq %cr0,.L155
 4107              		.loc 1 1152 0
 4108 001c 4AD5     		se_li %r5,45
 4109 001e 70DEE40A 		e_lis %r6,0xf40a
 4110              		.loc 1 1153 0
 4111 0022 4AD3     		se_li %r3,45
 4112              		.loc 1 1152 0
 4113 0024 6516     		se_bseti %r6,17
 4114 0026 34A6001C 		e_stb %r5,28(%r6)
 4115              		.loc 1 1156 0
 4116 002a C501     		se_lwz %r0,20(%r1)
 4117              		.loc 1 1153 0
 4118 002c C267     		se_lwz %r6,8(%r7)
 4119              		.loc 1 1156 0
 4120 002e C3F1     		se_lwz %r31,12(%r1)
 4121              		.loc 1 1153 0
 4122 0030 C447     		se_lwz %r4,16(%r7)
 4123 0032 00B6     		se_mtctr %r6
 4124              		.loc 1 1156 0
 4125 0034 0090     		se_mtlr %r0
 4126              		.cfi_remember_state
 4127              		.cfi_restore 65
 4128 0036 20F1     		se_addi %r1,16
 4129              	.LCFI183:
 4130              		.cfi_restore 31
 4131              		.cfi_def_cfa_offset 0
 4132              		.loc 1 1153 0
 4133 0038 0006     		se_bctr
 4134              	.LVL147:
 4135              	.L155:
 4136              	.LCFI184:
 4137              		.cfi_restore_state
 4138              		.loc 1 1150 0
 4139 003a 78000001 		e_bl irqSysHalt
 4140              	.LVL148:
 4141 003e 50FF00B4 		e_lwz %r7,180(%r31)
 4142              		.loc 1 1152 0
 4143 0042 4AD5     		se_li %r5,45
 4144 0044 70DEE40A 		e_lis %r6,0xf40a
 4145              		.loc 1 1153 0
 4146 0048 4AD3     		se_li %r3,45
 4147              		.loc 1 1152 0
 4148 004a 6516     		se_bseti %r6,17
 4149 004c 34A6001C 		e_stb %r5,28(%r6)
 4150              		.loc 1 1156 0
 4151 0050 C501     		se_lwz %r0,20(%r1)
 4152              		.loc 1 1153 0
 4153 0052 C267     		se_lwz %r6,8(%r7)
 4154              		.loc 1 1156 0
 4155 0054 C3F1     		se_lwz %r31,12(%r1)
 4156              		.loc 1 1153 0
 4157 0056 C447     		se_lwz %r4,16(%r7)
 4158 0058 00B6     		se_mtctr %r6
 4159              		.loc 1 1156 0
 4160 005a 0090     		se_mtlr %r0
 4161              		.cfi_restore 65
GAS LISTING C:\Users\Vipuls\AppData\Local\Temp\ccvVtvud.s 			page 74


 4162 005c 20F1     		se_addi %r1,16
 4163              	.LCFI185:
 4164              		.cfi_restore 31
 4165              		.cfi_def_cfa_offset 0
 4166              		.loc 1 1153 0
 4167 005e 0006     		se_bctr
 4168              	.LVL149:
 4169              		.cfi_endproc
 4170              	.LFE49:
 4171              		.size	vector98, .-vector98
 4172              		.section	.text.vector99,"axv",@progbits
 4173              		.align 1
 4174              		.p2align 4,,15
 4175              		.globl vector99
 4176              		.type	vector99, @function
 4177              	vector99:
 4178              	.LFB50:
 4179              		.loc 1 1166 0
 4180              		.cfi_startproc
 4181 0000 182106F0 		e_stwu %r1,-16(%r1)
 4182              	.LCFI186:
 4183              		.cfi_def_cfa_offset 16
 4184 0004 0080     		se_mflr %r0
 4185 0006 D3F1     		se_stw %r31,12(%r1)
 4186 0008 D501     		se_stw %r0,20(%r1)
 4187              		.cfi_offset 65, 4
 4188              		.cfi_offset 31, -4
 4189              		.loc 1 1170 0
 4190 000a 73E0E000 		e_lis %r31,.LANCHOR0@ha
 4191 000e 1FFF0000 		e_la %r31,.LANCHOR0@l(%r31)
 4192 0012 50FF00B8 		e_lwz %r7,184(%r31)
 4193 0016 2A07     		se_cmpi %r7,0
 4194 0018 7A120022 		e_beq %cr0,.L158
 4195              		.loc 1 1173 0
 4196 001c 4AE5     		se_li %r5,46
 4197 001e 70DEE40A 		e_lis %r6,0xf40a
 4198              		.loc 1 1174 0
 4199 0022 4AE3     		se_li %r3,46
 4200              		.loc 1 1173 0
 4201 0024 6516     		se_bseti %r6,17
 4202 0026 34A6001C 		e_stb %r5,28(%r6)
 4203              		.loc 1 1177 0
 4204 002a C501     		se_lwz %r0,20(%r1)
 4205              		.loc 1 1174 0
 4206 002c C267     		se_lwz %r6,8(%r7)
 4207              		.loc 1 1177 0
 4208 002e C3F1     		se_lwz %r31,12(%r1)
 4209              		.loc 1 1174 0
 4210 0030 C447     		se_lwz %r4,16(%r7)
 4211 0032 00B6     		se_mtctr %r6
 4212              		.loc 1 1177 0
 4213 0034 0090     		se_mtlr %r0
 4214              		.cfi_remember_state
 4215              		.cfi_restore 65
 4216 0036 20F1     		se_addi %r1,16
 4217              	.LCFI187:
 4218              		.cfi_restore 31
GAS LISTING C:\Users\Vipuls\AppData\Local\Temp\ccvVtvud.s 			page 75


 4219              		.cfi_def_cfa_offset 0
 4220              		.loc 1 1174 0
 4221 0038 0006     		se_bctr
 4222              	.LVL150:
 4223              	.L158:
 4224              	.LCFI188:
 4225              		.cfi_restore_state
 4226              		.loc 1 1171 0
 4227 003a 78000001 		e_bl irqSysHalt
 4228              	.LVL151:
 4229 003e 50FF00B8 		e_lwz %r7,184(%r31)
 4230              		.loc 1 1173 0
 4231 0042 4AE5     		se_li %r5,46
 4232 0044 70DEE40A 		e_lis %r6,0xf40a
 4233              		.loc 1 1174 0
 4234 0048 4AE3     		se_li %r3,46
 4235              		.loc 1 1173 0
 4236 004a 6516     		se_bseti %r6,17
 4237 004c 34A6001C 		e_stb %r5,28(%r6)
 4238              		.loc 1 1177 0
 4239 0050 C501     		se_lwz %r0,20(%r1)
 4240              		.loc 1 1174 0
 4241 0052 C267     		se_lwz %r6,8(%r7)
 4242              		.loc 1 1177 0
 4243 0054 C3F1     		se_lwz %r31,12(%r1)
 4244              		.loc 1 1174 0
 4245 0056 C447     		se_lwz %r4,16(%r7)
 4246 0058 00B6     		se_mtctr %r6
 4247              		.loc 1 1177 0
 4248 005a 0090     		se_mtlr %r0
 4249              		.cfi_restore 65
 4250 005c 20F1     		se_addi %r1,16
 4251              	.LCFI189:
 4252              		.cfi_restore 31
 4253              		.cfi_def_cfa_offset 0
 4254              		.loc 1 1174 0
 4255 005e 0006     		se_bctr
 4256              	.LVL152:
 4257              		.cfi_endproc
 4258              	.LFE50:
 4259              		.size	vector99, .-vector99
 4260              		.section	.text.vector100,"axv",@progbits
 4261              		.align 1
 4262              		.p2align 4,,15
 4263              		.globl vector100
 4264              		.type	vector100, @function
 4265              	vector100:
 4266              	.LFB51:
 4267              		.loc 1 1187 0
 4268              		.cfi_startproc
 4269 0000 182106F0 		e_stwu %r1,-16(%r1)
 4270              	.LCFI190:
 4271              		.cfi_def_cfa_offset 16
 4272 0004 0080     		se_mflr %r0
 4273 0006 D3F1     		se_stw %r31,12(%r1)
 4274 0008 D501     		se_stw %r0,20(%r1)
 4275              		.cfi_offset 65, 4
GAS LISTING C:\Users\Vipuls\AppData\Local\Temp\ccvVtvud.s 			page 76


 4276              		.cfi_offset 31, -4
 4277              		.loc 1 1191 0
 4278 000a 73E0E000 		e_lis %r31,.LANCHOR0@ha
 4279 000e 1FFF0000 		e_la %r31,.LANCHOR0@l(%r31)
 4280 0012 50FF00BC 		e_lwz %r7,188(%r31)
 4281 0016 2A07     		se_cmpi %r7,0
 4282 0018 7A120022 		e_beq %cr0,.L161
 4283              		.loc 1 1194 0
 4284 001c 4AF5     		se_li %r5,47
 4285 001e 70DEE40A 		e_lis %r6,0xf40a
 4286              		.loc 1 1195 0
 4287 0022 4AF3     		se_li %r3,47
 4288              		.loc 1 1194 0
 4289 0024 6516     		se_bseti %r6,17
 4290 0026 34A6001C 		e_stb %r5,28(%r6)
 4291              		.loc 1 1198 0
 4292 002a C501     		se_lwz %r0,20(%r1)
 4293              		.loc 1 1195 0
 4294 002c C267     		se_lwz %r6,8(%r7)
 4295              		.loc 1 1198 0
 4296 002e C3F1     		se_lwz %r31,12(%r1)
 4297              		.loc 1 1195 0
 4298 0030 C447     		se_lwz %r4,16(%r7)
 4299 0032 00B6     		se_mtctr %r6
 4300              		.loc 1 1198 0
 4301 0034 0090     		se_mtlr %r0
 4302              		.cfi_remember_state
 4303              		.cfi_restore 65
 4304 0036 20F1     		se_addi %r1,16
 4305              	.LCFI191:
 4306              		.cfi_restore 31
 4307              		.cfi_def_cfa_offset 0
 4308              		.loc 1 1195 0
 4309 0038 0006     		se_bctr
 4310              	.LVL153:
 4311              	.L161:
 4312              	.LCFI192:
 4313              		.cfi_restore_state
 4314              		.loc 1 1192 0
 4315 003a 78000001 		e_bl irqSysHalt
 4316              	.LVL154:
 4317 003e 50FF00BC 		e_lwz %r7,188(%r31)
 4318              		.loc 1 1194 0
 4319 0042 4AF5     		se_li %r5,47
 4320 0044 70DEE40A 		e_lis %r6,0xf40a
 4321              		.loc 1 1195 0
 4322 0048 4AF3     		se_li %r3,47
 4323              		.loc 1 1194 0
 4324 004a 6516     		se_bseti %r6,17
 4325 004c 34A6001C 		e_stb %r5,28(%r6)
 4326              		.loc 1 1198 0
 4327 0050 C501     		se_lwz %r0,20(%r1)
 4328              		.loc 1 1195 0
 4329 0052 C267     		se_lwz %r6,8(%r7)
 4330              		.loc 1 1198 0
 4331 0054 C3F1     		se_lwz %r31,12(%r1)
 4332              		.loc 1 1195 0
GAS LISTING C:\Users\Vipuls\AppData\Local\Temp\ccvVtvud.s 			page 77


 4333 0056 C447     		se_lwz %r4,16(%r7)
 4334 0058 00B6     		se_mtctr %r6
 4335              		.loc 1 1198 0
 4336 005a 0090     		se_mtlr %r0
 4337              		.cfi_restore 65
 4338 005c 20F1     		se_addi %r1,16
 4339              	.LCFI193:
 4340              		.cfi_restore 31
 4341              		.cfi_def_cfa_offset 0
 4342              		.loc 1 1195 0
 4343 005e 0006     		se_bctr
 4344              	.LVL155:
 4345              		.cfi_endproc
 4346              	.LFE51:
 4347              		.size	vector100, .-vector100
 4348              		.section	.text.vector101,"axv",@progbits
 4349              		.align 1
 4350              		.p2align 4,,15
 4351              		.globl vector101
 4352              		.type	vector101, @function
 4353              	vector101:
 4354              	.LFB52:
 4355              		.loc 1 1208 0
 4356              		.cfi_startproc
 4357 0000 182106F0 		e_stwu %r1,-16(%r1)
 4358              	.LCFI194:
 4359              		.cfi_def_cfa_offset 16
 4360 0004 0080     		se_mflr %r0
 4361 0006 D3F1     		se_stw %r31,12(%r1)
 4362 0008 D501     		se_stw %r0,20(%r1)
 4363              		.cfi_offset 65, 4
 4364              		.cfi_offset 31, -4
 4365              		.loc 1 1212 0
 4366 000a 73E0E000 		e_lis %r31,.LANCHOR0@ha
 4367 000e 1FFF0000 		e_la %r31,.LANCHOR0@l(%r31)
 4368 0012 50FF00C0 		e_lwz %r7,192(%r31)
 4369 0016 2A07     		se_cmpi %r7,0
 4370 0018 7A120022 		e_beq %cr0,.L164
 4371              		.loc 1 1215 0
 4372 001c 4B05     		se_li %r5,48
 4373 001e 70DEE40A 		e_lis %r6,0xf40a
 4374              		.loc 1 1216 0
 4375 0022 4B03     		se_li %r3,48
 4376              		.loc 1 1215 0
 4377 0024 6516     		se_bseti %r6,17
 4378 0026 34A6001C 		e_stb %r5,28(%r6)
 4379              		.loc 1 1219 0
 4380 002a C501     		se_lwz %r0,20(%r1)
 4381              		.loc 1 1216 0
 4382 002c C267     		se_lwz %r6,8(%r7)
 4383              		.loc 1 1219 0
 4384 002e C3F1     		se_lwz %r31,12(%r1)
 4385              		.loc 1 1216 0
 4386 0030 C447     		se_lwz %r4,16(%r7)
 4387 0032 00B6     		se_mtctr %r6
 4388              		.loc 1 1219 0
 4389 0034 0090     		se_mtlr %r0
GAS LISTING C:\Users\Vipuls\AppData\Local\Temp\ccvVtvud.s 			page 78


 4390              		.cfi_remember_state
 4391              		.cfi_restore 65
 4392 0036 20F1     		se_addi %r1,16
 4393              	.LCFI195:
 4394              		.cfi_restore 31
 4395              		.cfi_def_cfa_offset 0
 4396              		.loc 1 1216 0
 4397 0038 0006     		se_bctr
 4398              	.LVL156:
 4399              	.L164:
 4400              	.LCFI196:
 4401              		.cfi_restore_state
 4402              		.loc 1 1213 0
 4403 003a 78000001 		e_bl irqSysHalt
 4404              	.LVL157:
 4405 003e 50FF00C0 		e_lwz %r7,192(%r31)
 4406              		.loc 1 1215 0
 4407 0042 4B05     		se_li %r5,48
 4408 0044 70DEE40A 		e_lis %r6,0xf40a
 4409              		.loc 1 1216 0
 4410 0048 4B03     		se_li %r3,48
 4411              		.loc 1 1215 0
 4412 004a 6516     		se_bseti %r6,17
 4413 004c 34A6001C 		e_stb %r5,28(%r6)
 4414              		.loc 1 1219 0
 4415 0050 C501     		se_lwz %r0,20(%r1)
 4416              		.loc 1 1216 0
 4417 0052 C267     		se_lwz %r6,8(%r7)
 4418              		.loc 1 1219 0
 4419 0054 C3F1     		se_lwz %r31,12(%r1)
 4420              		.loc 1 1216 0
 4421 0056 C447     		se_lwz %r4,16(%r7)
 4422 0058 00B6     		se_mtctr %r6
 4423              		.loc 1 1219 0
 4424 005a 0090     		se_mtlr %r0
 4425              		.cfi_restore 65
 4426 005c 20F1     		se_addi %r1,16
 4427              	.LCFI197:
 4428              		.cfi_restore 31
 4429              		.cfi_def_cfa_offset 0
 4430              		.loc 1 1216 0
 4431 005e 0006     		se_bctr
 4432              	.LVL158:
 4433              		.cfi_endproc
 4434              	.LFE52:
 4435              		.size	vector101, .-vector101
 4436              		.section	.text.vector102,"axv",@progbits
 4437              		.align 1
 4438              		.p2align 4,,15
 4439              		.globl vector102
 4440              		.type	vector102, @function
 4441              	vector102:
 4442              	.LFB53:
 4443              		.loc 1 1229 0
 4444              		.cfi_startproc
 4445 0000 182106F0 		e_stwu %r1,-16(%r1)
 4446              	.LCFI198:
GAS LISTING C:\Users\Vipuls\AppData\Local\Temp\ccvVtvud.s 			page 79


 4447              		.cfi_def_cfa_offset 16
 4448 0004 0080     		se_mflr %r0
 4449 0006 D3F1     		se_stw %r31,12(%r1)
 4450 0008 D501     		se_stw %r0,20(%r1)
 4451              		.cfi_offset 65, 4
 4452              		.cfi_offset 31, -4
 4453              		.loc 1 1233 0
 4454 000a 73E0E000 		e_lis %r31,.LANCHOR0@ha
 4455 000e 1FFF0000 		e_la %r31,.LANCHOR0@l(%r31)
 4456 0012 50FF00C4 		e_lwz %r7,196(%r31)
 4457 0016 2A07     		se_cmpi %r7,0
 4458 0018 7A120022 		e_beq %cr0,.L167
 4459              		.loc 1 1236 0
 4460 001c 4B15     		se_li %r5,49
 4461 001e 70DEE40A 		e_lis %r6,0xf40a
 4462              		.loc 1 1237 0
 4463 0022 4B13     		se_li %r3,49
 4464              		.loc 1 1236 0
 4465 0024 6516     		se_bseti %r6,17
 4466 0026 34A6001C 		e_stb %r5,28(%r6)
 4467              		.loc 1 1240 0
 4468 002a C501     		se_lwz %r0,20(%r1)
 4469              		.loc 1 1237 0
 4470 002c C267     		se_lwz %r6,8(%r7)
 4471              		.loc 1 1240 0
 4472 002e C3F1     		se_lwz %r31,12(%r1)
 4473              		.loc 1 1237 0
 4474 0030 C447     		se_lwz %r4,16(%r7)
 4475 0032 00B6     		se_mtctr %r6
 4476              		.loc 1 1240 0
 4477 0034 0090     		se_mtlr %r0
 4478              		.cfi_remember_state
 4479              		.cfi_restore 65
 4480 0036 20F1     		se_addi %r1,16
 4481              	.LCFI199:
 4482              		.cfi_restore 31
 4483              		.cfi_def_cfa_offset 0
 4484              		.loc 1 1237 0
 4485 0038 0006     		se_bctr
 4486              	.LVL159:
 4487              	.L167:
 4488              	.LCFI200:
 4489              		.cfi_restore_state
 4490              		.loc 1 1234 0
 4491 003a 78000001 		e_bl irqSysHalt
 4492              	.LVL160:
 4493 003e 50FF00C4 		e_lwz %r7,196(%r31)
 4494              		.loc 1 1236 0
 4495 0042 4B15     		se_li %r5,49
 4496 0044 70DEE40A 		e_lis %r6,0xf40a
 4497              		.loc 1 1237 0
 4498 0048 4B13     		se_li %r3,49
 4499              		.loc 1 1236 0
 4500 004a 6516     		se_bseti %r6,17
 4501 004c 34A6001C 		e_stb %r5,28(%r6)
 4502              		.loc 1 1240 0
 4503 0050 C501     		se_lwz %r0,20(%r1)
GAS LISTING C:\Users\Vipuls\AppData\Local\Temp\ccvVtvud.s 			page 80


 4504              		.loc 1 1237 0
 4505 0052 C267     		se_lwz %r6,8(%r7)
 4506              		.loc 1 1240 0
 4507 0054 C3F1     		se_lwz %r31,12(%r1)
 4508              		.loc 1 1237 0
 4509 0056 C447     		se_lwz %r4,16(%r7)
 4510 0058 00B6     		se_mtctr %r6
 4511              		.loc 1 1240 0
 4512 005a 0090     		se_mtlr %r0
 4513              		.cfi_restore 65
 4514 005c 20F1     		se_addi %r1,16
 4515              	.LCFI201:
 4516              		.cfi_restore 31
 4517              		.cfi_def_cfa_offset 0
 4518              		.loc 1 1237 0
 4519 005e 0006     		se_bctr
 4520              	.LVL161:
 4521              		.cfi_endproc
 4522              	.LFE53:
 4523              		.size	vector102, .-vector102
 4524              		.section	.text.vector103,"axv",@progbits
 4525              		.align 1
 4526              		.p2align 4,,15
 4527              		.globl vector103
 4528              		.type	vector103, @function
 4529              	vector103:
 4530              	.LFB54:
 4531              		.loc 1 1250 0
 4532              		.cfi_startproc
 4533 0000 182106F0 		e_stwu %r1,-16(%r1)
 4534              	.LCFI202:
 4535              		.cfi_def_cfa_offset 16
 4536 0004 0080     		se_mflr %r0
 4537 0006 D3F1     		se_stw %r31,12(%r1)
 4538 0008 D501     		se_stw %r0,20(%r1)
 4539              		.cfi_offset 65, 4
 4540              		.cfi_offset 31, -4
 4541              		.loc 1 1254 0
 4542 000a 73E0E000 		e_lis %r31,.LANCHOR0@ha
 4543 000e 1FFF0000 		e_la %r31,.LANCHOR0@l(%r31)
 4544 0012 50FF00C8 		e_lwz %r7,200(%r31)
 4545 0016 2A07     		se_cmpi %r7,0
 4546 0018 7A120022 		e_beq %cr0,.L170
 4547              		.loc 1 1257 0
 4548 001c 4B25     		se_li %r5,50
 4549 001e 70DEE40A 		e_lis %r6,0xf40a
 4550              		.loc 1 1258 0
 4551 0022 4B23     		se_li %r3,50
 4552              		.loc 1 1257 0
 4553 0024 6516     		se_bseti %r6,17
 4554 0026 34A6001C 		e_stb %r5,28(%r6)
 4555              		.loc 1 1261 0
 4556 002a C501     		se_lwz %r0,20(%r1)
 4557              		.loc 1 1258 0
 4558 002c C267     		se_lwz %r6,8(%r7)
 4559              		.loc 1 1261 0
 4560 002e C3F1     		se_lwz %r31,12(%r1)
GAS LISTING C:\Users\Vipuls\AppData\Local\Temp\ccvVtvud.s 			page 81


 4561              		.loc 1 1258 0
 4562 0030 C447     		se_lwz %r4,16(%r7)
 4563 0032 00B6     		se_mtctr %r6
 4564              		.loc 1 1261 0
 4565 0034 0090     		se_mtlr %r0
 4566              		.cfi_remember_state
 4567              		.cfi_restore 65
 4568 0036 20F1     		se_addi %r1,16
 4569              	.LCFI203:
 4570              		.cfi_restore 31
 4571              		.cfi_def_cfa_offset 0
 4572              		.loc 1 1258 0
 4573 0038 0006     		se_bctr
 4574              	.LVL162:
 4575              	.L170:
 4576              	.LCFI204:
 4577              		.cfi_restore_state
 4578              		.loc 1 1255 0
 4579 003a 78000001 		e_bl irqSysHalt
 4580              	.LVL163:
 4581 003e 50FF00C8 		e_lwz %r7,200(%r31)
 4582              		.loc 1 1257 0
 4583 0042 4B25     		se_li %r5,50
 4584 0044 70DEE40A 		e_lis %r6,0xf40a
 4585              		.loc 1 1258 0
 4586 0048 4B23     		se_li %r3,50
 4587              		.loc 1 1257 0
 4588 004a 6516     		se_bseti %r6,17
 4589 004c 34A6001C 		e_stb %r5,28(%r6)
 4590              		.loc 1 1261 0
 4591 0050 C501     		se_lwz %r0,20(%r1)
 4592              		.loc 1 1258 0
 4593 0052 C267     		se_lwz %r6,8(%r7)
 4594              		.loc 1 1261 0
 4595 0054 C3F1     		se_lwz %r31,12(%r1)
 4596              		.loc 1 1258 0
 4597 0056 C447     		se_lwz %r4,16(%r7)
 4598 0058 00B6     		se_mtctr %r6
 4599              		.loc 1 1261 0
 4600 005a 0090     		se_mtlr %r0
 4601              		.cfi_restore 65
 4602 005c 20F1     		se_addi %r1,16
 4603              	.LCFI205:
 4604              		.cfi_restore 31
 4605              		.cfi_def_cfa_offset 0
 4606              		.loc 1 1258 0
 4607 005e 0006     		se_bctr
 4608              	.LVL164:
 4609              		.cfi_endproc
 4610              	.LFE54:
 4611              		.size	vector103, .-vector103
 4612              		.section	.text.vector104,"axv",@progbits
 4613              		.align 1
 4614              		.p2align 4,,15
 4615              		.globl vector104
 4616              		.type	vector104, @function
 4617              	vector104:
GAS LISTING C:\Users\Vipuls\AppData\Local\Temp\ccvVtvud.s 			page 82


 4618              	.LFB55:
 4619              		.loc 1 1271 0
 4620              		.cfi_startproc
 4621 0000 182106F0 		e_stwu %r1,-16(%r1)
 4622              	.LCFI206:
 4623              		.cfi_def_cfa_offset 16
 4624 0004 0080     		se_mflr %r0
 4625 0006 D3F1     		se_stw %r31,12(%r1)
 4626 0008 D501     		se_stw %r0,20(%r1)
 4627              		.cfi_offset 65, 4
 4628              		.cfi_offset 31, -4
 4629              		.loc 1 1275 0
 4630 000a 73E0E000 		e_lis %r31,.LANCHOR0@ha
 4631 000e 1FFF0000 		e_la %r31,.LANCHOR0@l(%r31)
 4632 0012 50FF00CC 		e_lwz %r7,204(%r31)
 4633 0016 2A07     		se_cmpi %r7,0
 4634 0018 7A120022 		e_beq %cr0,.L173
 4635              		.loc 1 1278 0
 4636 001c 4B35     		se_li %r5,51
 4637 001e 70DEE40A 		e_lis %r6,0xf40a
 4638              		.loc 1 1279 0
 4639 0022 4B33     		se_li %r3,51
 4640              		.loc 1 1278 0
 4641 0024 6516     		se_bseti %r6,17
 4642 0026 34A6001C 		e_stb %r5,28(%r6)
 4643              		.loc 1 1282 0
 4644 002a C501     		se_lwz %r0,20(%r1)
 4645              		.loc 1 1279 0
 4646 002c C267     		se_lwz %r6,8(%r7)
 4647              		.loc 1 1282 0
 4648 002e C3F1     		se_lwz %r31,12(%r1)
 4649              		.loc 1 1279 0
 4650 0030 C447     		se_lwz %r4,16(%r7)
 4651 0032 00B6     		se_mtctr %r6
 4652              		.loc 1 1282 0
 4653 0034 0090     		se_mtlr %r0
 4654              		.cfi_remember_state
 4655              		.cfi_restore 65
 4656 0036 20F1     		se_addi %r1,16
 4657              	.LCFI207:
 4658              		.cfi_restore 31
 4659              		.cfi_def_cfa_offset 0
 4660              		.loc 1 1279 0
 4661 0038 0006     		se_bctr
 4662              	.LVL165:
 4663              	.L173:
 4664              	.LCFI208:
 4665              		.cfi_restore_state
 4666              		.loc 1 1276 0
 4667 003a 78000001 		e_bl irqSysHalt
 4668              	.LVL166:
 4669 003e 50FF00CC 		e_lwz %r7,204(%r31)
 4670              		.loc 1 1278 0
 4671 0042 4B35     		se_li %r5,51
 4672 0044 70DEE40A 		e_lis %r6,0xf40a
 4673              		.loc 1 1279 0
 4674 0048 4B33     		se_li %r3,51
GAS LISTING C:\Users\Vipuls\AppData\Local\Temp\ccvVtvud.s 			page 83


 4675              		.loc 1 1278 0
 4676 004a 6516     		se_bseti %r6,17
 4677 004c 34A6001C 		e_stb %r5,28(%r6)
 4678              		.loc 1 1282 0
 4679 0050 C501     		se_lwz %r0,20(%r1)
 4680              		.loc 1 1279 0
 4681 0052 C267     		se_lwz %r6,8(%r7)
 4682              		.loc 1 1282 0
 4683 0054 C3F1     		se_lwz %r31,12(%r1)
 4684              		.loc 1 1279 0
 4685 0056 C447     		se_lwz %r4,16(%r7)
 4686 0058 00B6     		se_mtctr %r6
 4687              		.loc 1 1282 0
 4688 005a 0090     		se_mtlr %r0
 4689              		.cfi_restore 65
 4690 005c 20F1     		se_addi %r1,16
 4691              	.LCFI209:
 4692              		.cfi_restore 31
 4693              		.cfi_def_cfa_offset 0
 4694              		.loc 1 1279 0
 4695 005e 0006     		se_bctr
 4696              	.LVL167:
 4697              		.cfi_endproc
 4698              	.LFE55:
 4699              		.size	vector104, .-vector104
 4700              		.section	.text.vector105,"axv",@progbits
 4701              		.align 1
 4702              		.p2align 4,,15
 4703              		.globl vector105
 4704              		.type	vector105, @function
 4705              	vector105:
 4706              	.LFB56:
 4707              		.loc 1 1292 0
 4708              		.cfi_startproc
 4709 0000 182106F0 		e_stwu %r1,-16(%r1)
 4710              	.LCFI210:
 4711              		.cfi_def_cfa_offset 16
 4712 0004 0080     		se_mflr %r0
 4713 0006 D3F1     		se_stw %r31,12(%r1)
 4714 0008 D501     		se_stw %r0,20(%r1)
 4715              		.cfi_offset 65, 4
 4716              		.cfi_offset 31, -4
 4717              		.loc 1 1296 0
 4718 000a 73E0E000 		e_lis %r31,.LANCHOR0@ha
 4719 000e 1FFF0000 		e_la %r31,.LANCHOR0@l(%r31)
 4720 0012 50FF00D0 		e_lwz %r7,208(%r31)
 4721 0016 2A07     		se_cmpi %r7,0
 4722 0018 7A120022 		e_beq %cr0,.L176
 4723              		.loc 1 1299 0
 4724 001c 4B45     		se_li %r5,52
 4725 001e 70DEE40A 		e_lis %r6,0xf40a
 4726              		.loc 1 1300 0
 4727 0022 4B43     		se_li %r3,52
 4728              		.loc 1 1299 0
 4729 0024 6516     		se_bseti %r6,17
 4730 0026 34A6001C 		e_stb %r5,28(%r6)
 4731              		.loc 1 1303 0
GAS LISTING C:\Users\Vipuls\AppData\Local\Temp\ccvVtvud.s 			page 84


 4732 002a C501     		se_lwz %r0,20(%r1)
 4733              		.loc 1 1300 0
 4734 002c C267     		se_lwz %r6,8(%r7)
 4735              		.loc 1 1303 0
 4736 002e C3F1     		se_lwz %r31,12(%r1)
 4737              		.loc 1 1300 0
 4738 0030 C447     		se_lwz %r4,16(%r7)
 4739 0032 00B6     		se_mtctr %r6
 4740              		.loc 1 1303 0
 4741 0034 0090     		se_mtlr %r0
 4742              		.cfi_remember_state
 4743              		.cfi_restore 65
 4744 0036 20F1     		se_addi %r1,16
 4745              	.LCFI211:
 4746              		.cfi_restore 31
 4747              		.cfi_def_cfa_offset 0
 4748              		.loc 1 1300 0
 4749 0038 0006     		se_bctr
 4750              	.LVL168:
 4751              	.L176:
 4752              	.LCFI212:
 4753              		.cfi_restore_state
 4754              		.loc 1 1297 0
 4755 003a 78000001 		e_bl irqSysHalt
 4756              	.LVL169:
 4757 003e 50FF00D0 		e_lwz %r7,208(%r31)
 4758              		.loc 1 1299 0
 4759 0042 4B45     		se_li %r5,52
 4760 0044 70DEE40A 		e_lis %r6,0xf40a
 4761              		.loc 1 1300 0
 4762 0048 4B43     		se_li %r3,52
 4763              		.loc 1 1299 0
 4764 004a 6516     		se_bseti %r6,17
 4765 004c 34A6001C 		e_stb %r5,28(%r6)
 4766              		.loc 1 1303 0
 4767 0050 C501     		se_lwz %r0,20(%r1)
 4768              		.loc 1 1300 0
 4769 0052 C267     		se_lwz %r6,8(%r7)
 4770              		.loc 1 1303 0
 4771 0054 C3F1     		se_lwz %r31,12(%r1)
 4772              		.loc 1 1300 0
 4773 0056 C447     		se_lwz %r4,16(%r7)
 4774 0058 00B6     		se_mtctr %r6
 4775              		.loc 1 1303 0
 4776 005a 0090     		se_mtlr %r0
 4777              		.cfi_restore 65
 4778 005c 20F1     		se_addi %r1,16
 4779              	.LCFI213:
 4780              		.cfi_restore 31
 4781              		.cfi_def_cfa_offset 0
 4782              		.loc 1 1300 0
 4783 005e 0006     		se_bctr
 4784              	.LVL170:
 4785              		.cfi_endproc
 4786              	.LFE56:
 4787              		.size	vector105, .-vector105
 4788              		.section	.text.vector106,"axv",@progbits
GAS LISTING C:\Users\Vipuls\AppData\Local\Temp\ccvVtvud.s 			page 85


 4789              		.align 1
 4790              		.p2align 4,,15
 4791              		.globl vector106
 4792              		.type	vector106, @function
 4793              	vector106:
 4794              	.LFB57:
 4795              		.loc 1 1313 0
 4796              		.cfi_startproc
 4797 0000 182106F0 		e_stwu %r1,-16(%r1)
 4798              	.LCFI214:
 4799              		.cfi_def_cfa_offset 16
 4800 0004 0080     		se_mflr %r0
 4801 0006 D3F1     		se_stw %r31,12(%r1)
 4802 0008 D501     		se_stw %r0,20(%r1)
 4803              		.cfi_offset 65, 4
 4804              		.cfi_offset 31, -4
 4805              		.loc 1 1317 0
 4806 000a 73E0E000 		e_lis %r31,.LANCHOR0@ha
 4807 000e 1FFF0000 		e_la %r31,.LANCHOR0@l(%r31)
 4808 0012 50FF00D4 		e_lwz %r7,212(%r31)
 4809 0016 2A07     		se_cmpi %r7,0
 4810 0018 7A120022 		e_beq %cr0,.L179
 4811              		.loc 1 1320 0
 4812 001c 4B55     		se_li %r5,53
 4813 001e 70DEE40A 		e_lis %r6,0xf40a
 4814              		.loc 1 1321 0
 4815 0022 4B53     		se_li %r3,53
 4816              		.loc 1 1320 0
 4817 0024 6516     		se_bseti %r6,17
 4818 0026 34A6001C 		e_stb %r5,28(%r6)
 4819              		.loc 1 1324 0
 4820 002a C501     		se_lwz %r0,20(%r1)
 4821              		.loc 1 1321 0
 4822 002c C267     		se_lwz %r6,8(%r7)
 4823              		.loc 1 1324 0
 4824 002e C3F1     		se_lwz %r31,12(%r1)
 4825              		.loc 1 1321 0
 4826 0030 C447     		se_lwz %r4,16(%r7)
 4827 0032 00B6     		se_mtctr %r6
 4828              		.loc 1 1324 0
 4829 0034 0090     		se_mtlr %r0
 4830              		.cfi_remember_state
 4831              		.cfi_restore 65
 4832 0036 20F1     		se_addi %r1,16
 4833              	.LCFI215:
 4834              		.cfi_restore 31
 4835              		.cfi_def_cfa_offset 0
 4836              		.loc 1 1321 0
 4837 0038 0006     		se_bctr
 4838              	.LVL171:
 4839              	.L179:
 4840              	.LCFI216:
 4841              		.cfi_restore_state
 4842              		.loc 1 1318 0
 4843 003a 78000001 		e_bl irqSysHalt
 4844              	.LVL172:
 4845 003e 50FF00D4 		e_lwz %r7,212(%r31)
GAS LISTING C:\Users\Vipuls\AppData\Local\Temp\ccvVtvud.s 			page 86


 4846              		.loc 1 1320 0
 4847 0042 4B55     		se_li %r5,53
 4848 0044 70DEE40A 		e_lis %r6,0xf40a
 4849              		.loc 1 1321 0
 4850 0048 4B53     		se_li %r3,53
 4851              		.loc 1 1320 0
 4852 004a 6516     		se_bseti %r6,17
 4853 004c 34A6001C 		e_stb %r5,28(%r6)
 4854              		.loc 1 1324 0
 4855 0050 C501     		se_lwz %r0,20(%r1)
 4856              		.loc 1 1321 0
 4857 0052 C267     		se_lwz %r6,8(%r7)
 4858              		.loc 1 1324 0
 4859 0054 C3F1     		se_lwz %r31,12(%r1)
 4860              		.loc 1 1321 0
 4861 0056 C447     		se_lwz %r4,16(%r7)
 4862 0058 00B6     		se_mtctr %r6
 4863              		.loc 1 1324 0
 4864 005a 0090     		se_mtlr %r0
 4865              		.cfi_restore 65
 4866 005c 20F1     		se_addi %r1,16
 4867              	.LCFI217:
 4868              		.cfi_restore 31
 4869              		.cfi_def_cfa_offset 0
 4870              		.loc 1 1321 0
 4871 005e 0006     		se_bctr
 4872              	.LVL173:
 4873              		.cfi_endproc
 4874              	.LFE57:
 4875              		.size	vector106, .-vector106
 4876              		.section	.text.vector107,"axv",@progbits
 4877              		.align 1
 4878              		.p2align 4,,15
 4879              		.globl vector107
 4880              		.type	vector107, @function
 4881              	vector107:
 4882              	.LFB58:
 4883              		.loc 1 1334 0
 4884              		.cfi_startproc
 4885 0000 182106F0 		e_stwu %r1,-16(%r1)
 4886              	.LCFI218:
 4887              		.cfi_def_cfa_offset 16
 4888 0004 0080     		se_mflr %r0
 4889 0006 D3F1     		se_stw %r31,12(%r1)
 4890 0008 D501     		se_stw %r0,20(%r1)
 4891              		.cfi_offset 65, 4
 4892              		.cfi_offset 31, -4
 4893              		.loc 1 1338 0
 4894 000a 73E0E000 		e_lis %r31,.LANCHOR0@ha
 4895 000e 1FFF0000 		e_la %r31,.LANCHOR0@l(%r31)
 4896 0012 50FF00D8 		e_lwz %r7,216(%r31)
 4897 0016 2A07     		se_cmpi %r7,0
 4898 0018 7A120022 		e_beq %cr0,.L182
 4899              		.loc 1 1341 0
 4900 001c 4B65     		se_li %r5,54
 4901 001e 70DEE40A 		e_lis %r6,0xf40a
 4902              		.loc 1 1342 0
GAS LISTING C:\Users\Vipuls\AppData\Local\Temp\ccvVtvud.s 			page 87


 4903 0022 4B63     		se_li %r3,54
 4904              		.loc 1 1341 0
 4905 0024 6516     		se_bseti %r6,17
 4906 0026 34A6001C 		e_stb %r5,28(%r6)
 4907              		.loc 1 1345 0
 4908 002a C501     		se_lwz %r0,20(%r1)
 4909              		.loc 1 1342 0
 4910 002c C267     		se_lwz %r6,8(%r7)
 4911              		.loc 1 1345 0
 4912 002e C3F1     		se_lwz %r31,12(%r1)
 4913              		.loc 1 1342 0
 4914 0030 C447     		se_lwz %r4,16(%r7)
 4915 0032 00B6     		se_mtctr %r6
 4916              		.loc 1 1345 0
 4917 0034 0090     		se_mtlr %r0
 4918              		.cfi_remember_state
 4919              		.cfi_restore 65
 4920 0036 20F1     		se_addi %r1,16
 4921              	.LCFI219:
 4922              		.cfi_restore 31
 4923              		.cfi_def_cfa_offset 0
 4924              		.loc 1 1342 0
 4925 0038 0006     		se_bctr
 4926              	.LVL174:
 4927              	.L182:
 4928              	.LCFI220:
 4929              		.cfi_restore_state
 4930              		.loc 1 1339 0
 4931 003a 78000001 		e_bl irqSysHalt
 4932              	.LVL175:
 4933 003e 50FF00D8 		e_lwz %r7,216(%r31)
 4934              		.loc 1 1341 0
 4935 0042 4B65     		se_li %r5,54
 4936 0044 70DEE40A 		e_lis %r6,0xf40a
 4937              		.loc 1 1342 0
 4938 0048 4B63     		se_li %r3,54
 4939              		.loc 1 1341 0
 4940 004a 6516     		se_bseti %r6,17
 4941 004c 34A6001C 		e_stb %r5,28(%r6)
 4942              		.loc 1 1345 0
 4943 0050 C501     		se_lwz %r0,20(%r1)
 4944              		.loc 1 1342 0
 4945 0052 C267     		se_lwz %r6,8(%r7)
 4946              		.loc 1 1345 0
 4947 0054 C3F1     		se_lwz %r31,12(%r1)
 4948              		.loc 1 1342 0
 4949 0056 C447     		se_lwz %r4,16(%r7)
 4950 0058 00B6     		se_mtctr %r6
 4951              		.loc 1 1345 0
 4952 005a 0090     		se_mtlr %r0
 4953              		.cfi_restore 65
 4954 005c 20F1     		se_addi %r1,16
 4955              	.LCFI221:
 4956              		.cfi_restore 31
 4957              		.cfi_def_cfa_offset 0
 4958              		.loc 1 1342 0
 4959 005e 0006     		se_bctr
GAS LISTING C:\Users\Vipuls\AppData\Local\Temp\ccvVtvud.s 			page 88


 4960              	.LVL176:
 4961              		.cfi_endproc
 4962              	.LFE58:
 4963              		.size	vector107, .-vector107
 4964              		.section	.text.vector108,"axv",@progbits
 4965              		.align 1
 4966              		.p2align 4,,15
 4967              		.globl vector108
 4968              		.type	vector108, @function
 4969              	vector108:
 4970              	.LFB59:
 4971              		.loc 1 1355 0
 4972              		.cfi_startproc
 4973 0000 182106F0 		e_stwu %r1,-16(%r1)
 4974              	.LCFI222:
 4975              		.cfi_def_cfa_offset 16
 4976 0004 0080     		se_mflr %r0
 4977 0006 D3F1     		se_stw %r31,12(%r1)
 4978 0008 D501     		se_stw %r0,20(%r1)
 4979              		.cfi_offset 65, 4
 4980              		.cfi_offset 31, -4
 4981              		.loc 1 1359 0
 4982 000a 73E0E000 		e_lis %r31,.LANCHOR0@ha
 4983 000e 1FFF0000 		e_la %r31,.LANCHOR0@l(%r31)
 4984 0012 50FF00DC 		e_lwz %r7,220(%r31)
 4985 0016 2A07     		se_cmpi %r7,0
 4986 0018 7A120022 		e_beq %cr0,.L185
 4987              		.loc 1 1362 0
 4988 001c 4B75     		se_li %r5,55
 4989 001e 70DEE40A 		e_lis %r6,0xf40a
 4990              		.loc 1 1363 0
 4991 0022 4B73     		se_li %r3,55
 4992              		.loc 1 1362 0
 4993 0024 6516     		se_bseti %r6,17
 4994 0026 34A6001C 		e_stb %r5,28(%r6)
 4995              		.loc 1 1366 0
 4996 002a C501     		se_lwz %r0,20(%r1)
 4997              		.loc 1 1363 0
 4998 002c C267     		se_lwz %r6,8(%r7)
 4999              		.loc 1 1366 0
 5000 002e C3F1     		se_lwz %r31,12(%r1)
 5001              		.loc 1 1363 0
 5002 0030 C447     		se_lwz %r4,16(%r7)
 5003 0032 00B6     		se_mtctr %r6
 5004              		.loc 1 1366 0
 5005 0034 0090     		se_mtlr %r0
 5006              		.cfi_remember_state
 5007              		.cfi_restore 65
 5008 0036 20F1     		se_addi %r1,16
 5009              	.LCFI223:
 5010              		.cfi_restore 31
 5011              		.cfi_def_cfa_offset 0
 5012              		.loc 1 1363 0
 5013 0038 0006     		se_bctr
 5014              	.LVL177:
 5015              	.L185:
 5016              	.LCFI224:
GAS LISTING C:\Users\Vipuls\AppData\Local\Temp\ccvVtvud.s 			page 89


 5017              		.cfi_restore_state
 5018              		.loc 1 1360 0
 5019 003a 78000001 		e_bl irqSysHalt
 5020              	.LVL178:
 5021 003e 50FF00DC 		e_lwz %r7,220(%r31)
 5022              		.loc 1 1362 0
 5023 0042 4B75     		se_li %r5,55
 5024 0044 70DEE40A 		e_lis %r6,0xf40a
 5025              		.loc 1 1363 0
 5026 0048 4B73     		se_li %r3,55
 5027              		.loc 1 1362 0
 5028 004a 6516     		se_bseti %r6,17
 5029 004c 34A6001C 		e_stb %r5,28(%r6)
 5030              		.loc 1 1366 0
 5031 0050 C501     		se_lwz %r0,20(%r1)
 5032              		.loc 1 1363 0
 5033 0052 C267     		se_lwz %r6,8(%r7)
 5034              		.loc 1 1366 0
 5035 0054 C3F1     		se_lwz %r31,12(%r1)
 5036              		.loc 1 1363 0
 5037 0056 C447     		se_lwz %r4,16(%r7)
 5038 0058 00B6     		se_mtctr %r6
 5039              		.loc 1 1366 0
 5040 005a 0090     		se_mtlr %r0
 5041              		.cfi_restore 65
 5042 005c 20F1     		se_addi %r1,16
 5043              	.LCFI225:
 5044              		.cfi_restore 31
 5045              		.cfi_def_cfa_offset 0
 5046              		.loc 1 1363 0
 5047 005e 0006     		se_bctr
 5048              	.LVL179:
 5049              		.cfi_endproc
 5050              	.LFE59:
 5051              		.size	vector108, .-vector108
 5052              		.section	.text.vector109,"axv",@progbits
 5053              		.align 1
 5054              		.p2align 4,,15
 5055              		.globl vector109
 5056              		.type	vector109, @function
 5057              	vector109:
 5058              	.LFB60:
 5059              		.loc 1 1376 0
 5060              		.cfi_startproc
 5061 0000 182106F0 		e_stwu %r1,-16(%r1)
 5062              	.LCFI226:
 5063              		.cfi_def_cfa_offset 16
 5064 0004 0080     		se_mflr %r0
 5065 0006 D3F1     		se_stw %r31,12(%r1)
 5066 0008 D501     		se_stw %r0,20(%r1)
 5067              		.cfi_offset 65, 4
 5068              		.cfi_offset 31, -4
 5069              		.loc 1 1380 0
 5070 000a 73E0E000 		e_lis %r31,.LANCHOR0@ha
 5071 000e 1FFF0000 		e_la %r31,.LANCHOR0@l(%r31)
 5072 0012 50FF00E0 		e_lwz %r7,224(%r31)
 5073 0016 2A07     		se_cmpi %r7,0
GAS LISTING C:\Users\Vipuls\AppData\Local\Temp\ccvVtvud.s 			page 90


 5074 0018 7A120022 		e_beq %cr0,.L188
 5075              		.loc 1 1383 0
 5076 001c 4B85     		se_li %r5,56
 5077 001e 70DEE40A 		e_lis %r6,0xf40a
 5078              		.loc 1 1384 0
 5079 0022 4B83     		se_li %r3,56
 5080              		.loc 1 1383 0
 5081 0024 6516     		se_bseti %r6,17
 5082 0026 34A6001C 		e_stb %r5,28(%r6)
 5083              		.loc 1 1387 0
 5084 002a C501     		se_lwz %r0,20(%r1)
 5085              		.loc 1 1384 0
 5086 002c C267     		se_lwz %r6,8(%r7)
 5087              		.loc 1 1387 0
 5088 002e C3F1     		se_lwz %r31,12(%r1)
 5089              		.loc 1 1384 0
 5090 0030 C447     		se_lwz %r4,16(%r7)
 5091 0032 00B6     		se_mtctr %r6
 5092              		.loc 1 1387 0
 5093 0034 0090     		se_mtlr %r0
 5094              		.cfi_remember_state
 5095              		.cfi_restore 65
 5096 0036 20F1     		se_addi %r1,16
 5097              	.LCFI227:
 5098              		.cfi_restore 31
 5099              		.cfi_def_cfa_offset 0
 5100              		.loc 1 1384 0
 5101 0038 0006     		se_bctr
 5102              	.LVL180:
 5103              	.L188:
 5104              	.LCFI228:
 5105              		.cfi_restore_state
 5106              		.loc 1 1381 0
 5107 003a 78000001 		e_bl irqSysHalt
 5108              	.LVL181:
 5109 003e 50FF00E0 		e_lwz %r7,224(%r31)
 5110              		.loc 1 1383 0
 5111 0042 4B85     		se_li %r5,56
 5112 0044 70DEE40A 		e_lis %r6,0xf40a
 5113              		.loc 1 1384 0
 5114 0048 4B83     		se_li %r3,56
 5115              		.loc 1 1383 0
 5116 004a 6516     		se_bseti %r6,17
 5117 004c 34A6001C 		e_stb %r5,28(%r6)
 5118              		.loc 1 1387 0
 5119 0050 C501     		se_lwz %r0,20(%r1)
 5120              		.loc 1 1384 0
 5121 0052 C267     		se_lwz %r6,8(%r7)
 5122              		.loc 1 1387 0
 5123 0054 C3F1     		se_lwz %r31,12(%r1)
 5124              		.loc 1 1384 0
 5125 0056 C447     		se_lwz %r4,16(%r7)
 5126 0058 00B6     		se_mtctr %r6
 5127              		.loc 1 1387 0
 5128 005a 0090     		se_mtlr %r0
 5129              		.cfi_restore 65
 5130 005c 20F1     		se_addi %r1,16
GAS LISTING C:\Users\Vipuls\AppData\Local\Temp\ccvVtvud.s 			page 91


 5131              	.LCFI229:
 5132              		.cfi_restore 31
 5133              		.cfi_def_cfa_offset 0
 5134              		.loc 1 1384 0
 5135 005e 0006     		se_bctr
 5136              	.LVL182:
 5137              		.cfi_endproc
 5138              	.LFE60:
 5139              		.size	vector109, .-vector109
 5140              		.section	.text.vector110,"axv",@progbits
 5141              		.align 1
 5142              		.p2align 4,,15
 5143              		.globl vector110
 5144              		.type	vector110, @function
 5145              	vector110:
 5146              	.LFB61:
 5147              		.loc 1 1397 0
 5148              		.cfi_startproc
 5149 0000 182106F0 		e_stwu %r1,-16(%r1)
 5150              	.LCFI230:
 5151              		.cfi_def_cfa_offset 16
 5152 0004 0080     		se_mflr %r0
 5153 0006 D3F1     		se_stw %r31,12(%r1)
 5154 0008 D501     		se_stw %r0,20(%r1)
 5155              		.cfi_offset 65, 4
 5156              		.cfi_offset 31, -4
 5157              		.loc 1 1401 0
 5158 000a 73E0E000 		e_lis %r31,.LANCHOR0@ha
 5159 000e 1FFF0000 		e_la %r31,.LANCHOR0@l(%r31)
 5160 0012 50FF00E4 		e_lwz %r7,228(%r31)
 5161 0016 2A07     		se_cmpi %r7,0
 5162 0018 7A120022 		e_beq %cr0,.L191
 5163              		.loc 1 1404 0
 5164 001c 4B95     		se_li %r5,57
 5165 001e 70DEE40A 		e_lis %r6,0xf40a
 5166              		.loc 1 1405 0
 5167 0022 4B93     		se_li %r3,57
 5168              		.loc 1 1404 0
 5169 0024 6516     		se_bseti %r6,17
 5170 0026 34A6001C 		e_stb %r5,28(%r6)
 5171              		.loc 1 1408 0
 5172 002a C501     		se_lwz %r0,20(%r1)
 5173              		.loc 1 1405 0
 5174 002c C267     		se_lwz %r6,8(%r7)
 5175              		.loc 1 1408 0
 5176 002e C3F1     		se_lwz %r31,12(%r1)
 5177              		.loc 1 1405 0
 5178 0030 C447     		se_lwz %r4,16(%r7)
 5179 0032 00B6     		se_mtctr %r6
 5180              		.loc 1 1408 0
 5181 0034 0090     		se_mtlr %r0
 5182              		.cfi_remember_state
 5183              		.cfi_restore 65
 5184 0036 20F1     		se_addi %r1,16
 5185              	.LCFI231:
 5186              		.cfi_restore 31
 5187              		.cfi_def_cfa_offset 0
GAS LISTING C:\Users\Vipuls\AppData\Local\Temp\ccvVtvud.s 			page 92


 5188              		.loc 1 1405 0
 5189 0038 0006     		se_bctr
 5190              	.LVL183:
 5191              	.L191:
 5192              	.LCFI232:
 5193              		.cfi_restore_state
 5194              		.loc 1 1402 0
 5195 003a 78000001 		e_bl irqSysHalt
 5196              	.LVL184:
 5197 003e 50FF00E4 		e_lwz %r7,228(%r31)
 5198              		.loc 1 1404 0
 5199 0042 4B95     		se_li %r5,57
 5200 0044 70DEE40A 		e_lis %r6,0xf40a
 5201              		.loc 1 1405 0
 5202 0048 4B93     		se_li %r3,57
 5203              		.loc 1 1404 0
 5204 004a 6516     		se_bseti %r6,17
 5205 004c 34A6001C 		e_stb %r5,28(%r6)
 5206              		.loc 1 1408 0
 5207 0050 C501     		se_lwz %r0,20(%r1)
 5208              		.loc 1 1405 0
 5209 0052 C267     		se_lwz %r6,8(%r7)
 5210              		.loc 1 1408 0
 5211 0054 C3F1     		se_lwz %r31,12(%r1)
 5212              		.loc 1 1405 0
 5213 0056 C447     		se_lwz %r4,16(%r7)
 5214 0058 00B6     		se_mtctr %r6
 5215              		.loc 1 1408 0
 5216 005a 0090     		se_mtlr %r0
 5217              		.cfi_restore 65
 5218 005c 20F1     		se_addi %r1,16
 5219              	.LCFI233:
 5220              		.cfi_restore 31
 5221              		.cfi_def_cfa_offset 0
 5222              		.loc 1 1405 0
 5223 005e 0006     		se_bctr
 5224              	.LVL185:
 5225              		.cfi_endproc
 5226              	.LFE61:
 5227              		.size	vector110, .-vector110
 5228              		.section	.text.vector111,"axv",@progbits
 5229              		.align 1
 5230              		.p2align 4,,15
 5231              		.globl vector111
 5232              		.type	vector111, @function
 5233              	vector111:
 5234              	.LFB62:
 5235              		.loc 1 1418 0
 5236              		.cfi_startproc
 5237 0000 182106F0 		e_stwu %r1,-16(%r1)
 5238              	.LCFI234:
 5239              		.cfi_def_cfa_offset 16
 5240 0004 0080     		se_mflr %r0
 5241 0006 D3F1     		se_stw %r31,12(%r1)
 5242 0008 D501     		se_stw %r0,20(%r1)
 5243              		.cfi_offset 65, 4
 5244              		.cfi_offset 31, -4
GAS LISTING C:\Users\Vipuls\AppData\Local\Temp\ccvVtvud.s 			page 93


 5245              		.loc 1 1422 0
 5246 000a 73E0E000 		e_lis %r31,.LANCHOR0@ha
 5247 000e 1FFF0000 		e_la %r31,.LANCHOR0@l(%r31)
 5248 0012 50FF00E8 		e_lwz %r7,232(%r31)
 5249 0016 2A07     		se_cmpi %r7,0
 5250 0018 7A120022 		e_beq %cr0,.L194
 5251              		.loc 1 1425 0
 5252 001c 4BA5     		se_li %r5,58
 5253 001e 70DEE40A 		e_lis %r6,0xf40a
 5254              		.loc 1 1426 0
 5255 0022 4BA3     		se_li %r3,58
 5256              		.loc 1 1425 0
 5257 0024 6516     		se_bseti %r6,17
 5258 0026 34A6001C 		e_stb %r5,28(%r6)
 5259              		.loc 1 1429 0
 5260 002a C501     		se_lwz %r0,20(%r1)
 5261              		.loc 1 1426 0
 5262 002c C267     		se_lwz %r6,8(%r7)
 5263              		.loc 1 1429 0
 5264 002e C3F1     		se_lwz %r31,12(%r1)
 5265              		.loc 1 1426 0
 5266 0030 C447     		se_lwz %r4,16(%r7)
 5267 0032 00B6     		se_mtctr %r6
 5268              		.loc 1 1429 0
 5269 0034 0090     		se_mtlr %r0
 5270              		.cfi_remember_state
 5271              		.cfi_restore 65
 5272 0036 20F1     		se_addi %r1,16
 5273              	.LCFI235:
 5274              		.cfi_restore 31
 5275              		.cfi_def_cfa_offset 0
 5276              		.loc 1 1426 0
 5277 0038 0006     		se_bctr
 5278              	.LVL186:
 5279              	.L194:
 5280              	.LCFI236:
 5281              		.cfi_restore_state
 5282              		.loc 1 1423 0
 5283 003a 78000001 		e_bl irqSysHalt
 5284              	.LVL187:
 5285 003e 50FF00E8 		e_lwz %r7,232(%r31)
 5286              		.loc 1 1425 0
 5287 0042 4BA5     		se_li %r5,58
 5288 0044 70DEE40A 		e_lis %r6,0xf40a
 5289              		.loc 1 1426 0
 5290 0048 4BA3     		se_li %r3,58
 5291              		.loc 1 1425 0
 5292 004a 6516     		se_bseti %r6,17
 5293 004c 34A6001C 		e_stb %r5,28(%r6)
 5294              		.loc 1 1429 0
 5295 0050 C501     		se_lwz %r0,20(%r1)
 5296              		.loc 1 1426 0
 5297 0052 C267     		se_lwz %r6,8(%r7)
 5298              		.loc 1 1429 0
 5299 0054 C3F1     		se_lwz %r31,12(%r1)
 5300              		.loc 1 1426 0
 5301 0056 C447     		se_lwz %r4,16(%r7)
GAS LISTING C:\Users\Vipuls\AppData\Local\Temp\ccvVtvud.s 			page 94


 5302 0058 00B6     		se_mtctr %r6
 5303              		.loc 1 1429 0
 5304 005a 0090     		se_mtlr %r0
 5305              		.cfi_restore 65
 5306 005c 20F1     		se_addi %r1,16
 5307              	.LCFI237:
 5308              		.cfi_restore 31
 5309              		.cfi_def_cfa_offset 0
 5310              		.loc 1 1426 0
 5311 005e 0006     		se_bctr
 5312              	.LVL188:
 5313              		.cfi_endproc
 5314              	.LFE62:
 5315              		.size	vector111, .-vector111
 5316              		.section	.text.vector112,"axv",@progbits
 5317              		.align 1
 5318              		.p2align 4,,15
 5319              		.globl vector112
 5320              		.type	vector112, @function
 5321              	vector112:
 5322              	.LFB63:
 5323              		.loc 1 1439 0
 5324              		.cfi_startproc
 5325 0000 182106F0 		e_stwu %r1,-16(%r1)
 5326              	.LCFI238:
 5327              		.cfi_def_cfa_offset 16
 5328 0004 0080     		se_mflr %r0
 5329 0006 D3F1     		se_stw %r31,12(%r1)
 5330 0008 D501     		se_stw %r0,20(%r1)
 5331              		.cfi_offset 65, 4
 5332              		.cfi_offset 31, -4
 5333              		.loc 1 1443 0
 5334 000a 73E0E000 		e_lis %r31,.LANCHOR0@ha
 5335 000e 1FFF0000 		e_la %r31,.LANCHOR0@l(%r31)
 5336 0012 50FF00EC 		e_lwz %r7,236(%r31)
 5337 0016 2A07     		se_cmpi %r7,0
 5338 0018 7A120022 		e_beq %cr0,.L197
 5339              		.loc 1 1446 0
 5340 001c 4BB5     		se_li %r5,59
 5341 001e 70DEE40A 		e_lis %r6,0xf40a
 5342              		.loc 1 1447 0
 5343 0022 4BB3     		se_li %r3,59
 5344              		.loc 1 1446 0
 5345 0024 6516     		se_bseti %r6,17
 5346 0026 34A6001C 		e_stb %r5,28(%r6)
 5347              		.loc 1 1450 0
 5348 002a C501     		se_lwz %r0,20(%r1)
 5349              		.loc 1 1447 0
 5350 002c C267     		se_lwz %r6,8(%r7)
 5351              		.loc 1 1450 0
 5352 002e C3F1     		se_lwz %r31,12(%r1)
 5353              		.loc 1 1447 0
 5354 0030 C447     		se_lwz %r4,16(%r7)
 5355 0032 00B6     		se_mtctr %r6
 5356              		.loc 1 1450 0
 5357 0034 0090     		se_mtlr %r0
 5358              		.cfi_remember_state
GAS LISTING C:\Users\Vipuls\AppData\Local\Temp\ccvVtvud.s 			page 95


 5359              		.cfi_restore 65
 5360 0036 20F1     		se_addi %r1,16
 5361              	.LCFI239:
 5362              		.cfi_restore 31
 5363              		.cfi_def_cfa_offset 0
 5364              		.loc 1 1447 0
 5365 0038 0006     		se_bctr
 5366              	.LVL189:
 5367              	.L197:
 5368              	.LCFI240:
 5369              		.cfi_restore_state
 5370              		.loc 1 1444 0
 5371 003a 78000001 		e_bl irqSysHalt
 5372              	.LVL190:
 5373 003e 50FF00EC 		e_lwz %r7,236(%r31)
 5374              		.loc 1 1446 0
 5375 0042 4BB5     		se_li %r5,59
 5376 0044 70DEE40A 		e_lis %r6,0xf40a
 5377              		.loc 1 1447 0
 5378 0048 4BB3     		se_li %r3,59
 5379              		.loc 1 1446 0
 5380 004a 6516     		se_bseti %r6,17
 5381 004c 34A6001C 		e_stb %r5,28(%r6)
 5382              		.loc 1 1450 0
 5383 0050 C501     		se_lwz %r0,20(%r1)
 5384              		.loc 1 1447 0
 5385 0052 C267     		se_lwz %r6,8(%r7)
 5386              		.loc 1 1450 0
 5387 0054 C3F1     		se_lwz %r31,12(%r1)
 5388              		.loc 1 1447 0
 5389 0056 C447     		se_lwz %r4,16(%r7)
 5390 0058 00B6     		se_mtctr %r6
 5391              		.loc 1 1450 0
 5392 005a 0090     		se_mtlr %r0
 5393              		.cfi_restore 65
 5394 005c 20F1     		se_addi %r1,16
 5395              	.LCFI241:
 5396              		.cfi_restore 31
 5397              		.cfi_def_cfa_offset 0
 5398              		.loc 1 1447 0
 5399 005e 0006     		se_bctr
 5400              	.LVL191:
 5401              		.cfi_endproc
 5402              	.LFE63:
 5403              		.size	vector112, .-vector112
 5404              		.section	.text.vector113,"axv",@progbits
 5405              		.align 1
 5406              		.p2align 4,,15
 5407              		.globl vector113
 5408              		.type	vector113, @function
 5409              	vector113:
 5410              	.LFB64:
 5411              		.loc 1 1460 0
 5412              		.cfi_startproc
 5413 0000 182106F0 		e_stwu %r1,-16(%r1)
 5414              	.LCFI242:
 5415              		.cfi_def_cfa_offset 16
GAS LISTING C:\Users\Vipuls\AppData\Local\Temp\ccvVtvud.s 			page 96


 5416 0004 0080     		se_mflr %r0
 5417 0006 D3F1     		se_stw %r31,12(%r1)
 5418 0008 D501     		se_stw %r0,20(%r1)
 5419              		.cfi_offset 65, 4
 5420              		.cfi_offset 31, -4
 5421              		.loc 1 1464 0
 5422 000a 73E0E000 		e_lis %r31,.LANCHOR0@ha
 5423 000e 1FFF0000 		e_la %r31,.LANCHOR0@l(%r31)
 5424 0012 50FF00F0 		e_lwz %r7,240(%r31)
 5425 0016 2A07     		se_cmpi %r7,0
 5426 0018 7A120022 		e_beq %cr0,.L200
 5427              		.loc 1 1467 0
 5428 001c 4BC5     		se_li %r5,60
 5429 001e 70DEE40A 		e_lis %r6,0xf40a
 5430              		.loc 1 1468 0
 5431 0022 4BC3     		se_li %r3,60
 5432              		.loc 1 1467 0
 5433 0024 6516     		se_bseti %r6,17
 5434 0026 34A6001C 		e_stb %r5,28(%r6)
 5435              		.loc 1 1471 0
 5436 002a C501     		se_lwz %r0,20(%r1)
 5437              		.loc 1 1468 0
 5438 002c C267     		se_lwz %r6,8(%r7)
 5439              		.loc 1 1471 0
 5440 002e C3F1     		se_lwz %r31,12(%r1)
 5441              		.loc 1 1468 0
 5442 0030 C447     		se_lwz %r4,16(%r7)
 5443 0032 00B6     		se_mtctr %r6
 5444              		.loc 1 1471 0
 5445 0034 0090     		se_mtlr %r0
 5446              		.cfi_remember_state
 5447              		.cfi_restore 65
 5448 0036 20F1     		se_addi %r1,16
 5449              	.LCFI243:
 5450              		.cfi_restore 31
 5451              		.cfi_def_cfa_offset 0
 5452              		.loc 1 1468 0
 5453 0038 0006     		se_bctr
 5454              	.LVL192:
 5455              	.L200:
 5456              	.LCFI244:
 5457              		.cfi_restore_state
 5458              		.loc 1 1465 0
 5459 003a 78000001 		e_bl irqSysHalt
 5460              	.LVL193:
 5461 003e 50FF00F0 		e_lwz %r7,240(%r31)
 5462              		.loc 1 1467 0
 5463 0042 4BC5     		se_li %r5,60
 5464 0044 70DEE40A 		e_lis %r6,0xf40a
 5465              		.loc 1 1468 0
 5466 0048 4BC3     		se_li %r3,60
 5467              		.loc 1 1467 0
 5468 004a 6516     		se_bseti %r6,17
 5469 004c 34A6001C 		e_stb %r5,28(%r6)
 5470              		.loc 1 1471 0
 5471 0050 C501     		se_lwz %r0,20(%r1)
 5472              		.loc 1 1468 0
GAS LISTING C:\Users\Vipuls\AppData\Local\Temp\ccvVtvud.s 			page 97


 5473 0052 C267     		se_lwz %r6,8(%r7)
 5474              		.loc 1 1471 0
 5475 0054 C3F1     		se_lwz %r31,12(%r1)
 5476              		.loc 1 1468 0
 5477 0056 C447     		se_lwz %r4,16(%r7)
 5478 0058 00B6     		se_mtctr %r6
 5479              		.loc 1 1471 0
 5480 005a 0090     		se_mtlr %r0
 5481              		.cfi_restore 65
 5482 005c 20F1     		se_addi %r1,16
 5483              	.LCFI245:
 5484              		.cfi_restore 31
 5485              		.cfi_def_cfa_offset 0
 5486              		.loc 1 1468 0
 5487 005e 0006     		se_bctr
 5488              	.LVL194:
 5489              		.cfi_endproc
 5490              	.LFE64:
 5491              		.size	vector113, .-vector113
 5492              		.section	.text.vector114,"axv",@progbits
 5493              		.align 1
 5494              		.p2align 4,,15
 5495              		.globl vector114
 5496              		.type	vector114, @function
 5497              	vector114:
 5498              	.LFB65:
 5499              		.loc 1 1481 0
 5500              		.cfi_startproc
 5501 0000 182106F0 		e_stwu %r1,-16(%r1)
 5502              	.LCFI246:
 5503              		.cfi_def_cfa_offset 16
 5504 0004 0080     		se_mflr %r0
 5505 0006 D3F1     		se_stw %r31,12(%r1)
 5506 0008 D501     		se_stw %r0,20(%r1)
 5507              		.cfi_offset 65, 4
 5508              		.cfi_offset 31, -4
 5509              		.loc 1 1485 0
 5510 000a 73E0E000 		e_lis %r31,.LANCHOR0@ha
 5511 000e 1FFF0000 		e_la %r31,.LANCHOR0@l(%r31)
 5512 0012 50FF00F4 		e_lwz %r7,244(%r31)
 5513 0016 2A07     		se_cmpi %r7,0
 5514 0018 7A120022 		e_beq %cr0,.L203
 5515              		.loc 1 1488 0
 5516 001c 4BD5     		se_li %r5,61
 5517 001e 70DEE40A 		e_lis %r6,0xf40a
 5518              		.loc 1 1489 0
 5519 0022 4BD3     		se_li %r3,61
 5520              		.loc 1 1488 0
 5521 0024 6516     		se_bseti %r6,17
 5522 0026 34A6001C 		e_stb %r5,28(%r6)
 5523              		.loc 1 1492 0
 5524 002a C501     		se_lwz %r0,20(%r1)
 5525              		.loc 1 1489 0
 5526 002c C267     		se_lwz %r6,8(%r7)
 5527              		.loc 1 1492 0
 5528 002e C3F1     		se_lwz %r31,12(%r1)
 5529              		.loc 1 1489 0
GAS LISTING C:\Users\Vipuls\AppData\Local\Temp\ccvVtvud.s 			page 98


 5530 0030 C447     		se_lwz %r4,16(%r7)
 5531 0032 00B6     		se_mtctr %r6
 5532              		.loc 1 1492 0
 5533 0034 0090     		se_mtlr %r0
 5534              		.cfi_remember_state
 5535              		.cfi_restore 65
 5536 0036 20F1     		se_addi %r1,16
 5537              	.LCFI247:
 5538              		.cfi_restore 31
 5539              		.cfi_def_cfa_offset 0
 5540              		.loc 1 1489 0
 5541 0038 0006     		se_bctr
 5542              	.LVL195:
 5543              	.L203:
 5544              	.LCFI248:
 5545              		.cfi_restore_state
 5546              		.loc 1 1486 0
 5547 003a 78000001 		e_bl irqSysHalt
 5548              	.LVL196:
 5549 003e 50FF00F4 		e_lwz %r7,244(%r31)
 5550              		.loc 1 1488 0
 5551 0042 4BD5     		se_li %r5,61
 5552 0044 70DEE40A 		e_lis %r6,0xf40a
 5553              		.loc 1 1489 0
 5554 0048 4BD3     		se_li %r3,61
 5555              		.loc 1 1488 0
 5556 004a 6516     		se_bseti %r6,17
 5557 004c 34A6001C 		e_stb %r5,28(%r6)
 5558              		.loc 1 1492 0
 5559 0050 C501     		se_lwz %r0,20(%r1)
 5560              		.loc 1 1489 0
 5561 0052 C267     		se_lwz %r6,8(%r7)
 5562              		.loc 1 1492 0
 5563 0054 C3F1     		se_lwz %r31,12(%r1)
 5564              		.loc 1 1489 0
 5565 0056 C447     		se_lwz %r4,16(%r7)
 5566 0058 00B6     		se_mtctr %r6
 5567              		.loc 1 1492 0
 5568 005a 0090     		se_mtlr %r0
 5569              		.cfi_restore 65
 5570 005c 20F1     		se_addi %r1,16
 5571              	.LCFI249:
 5572              		.cfi_restore 31
 5573              		.cfi_def_cfa_offset 0
 5574              		.loc 1 1489 0
 5575 005e 0006     		se_bctr
 5576              	.LVL197:
 5577              		.cfi_endproc
 5578              	.LFE65:
 5579              		.size	vector114, .-vector114
 5580              		.section	.text.vector115,"axv",@progbits
 5581              		.align 1
 5582              		.p2align 4,,15
 5583              		.globl vector115
 5584              		.type	vector115, @function
 5585              	vector115:
 5586              	.LFB66:
GAS LISTING C:\Users\Vipuls\AppData\Local\Temp\ccvVtvud.s 			page 99


 5587              		.loc 1 1502 0
 5588              		.cfi_startproc
 5589 0000 182106F0 		e_stwu %r1,-16(%r1)
 5590              	.LCFI250:
 5591              		.cfi_def_cfa_offset 16
 5592 0004 0080     		se_mflr %r0
 5593 0006 D3F1     		se_stw %r31,12(%r1)
 5594 0008 D501     		se_stw %r0,20(%r1)
 5595              		.cfi_offset 65, 4
 5596              		.cfi_offset 31, -4
 5597              		.loc 1 1506 0
 5598 000a 73E0E000 		e_lis %r31,.LANCHOR0@ha
 5599 000e 1FFF0000 		e_la %r31,.LANCHOR0@l(%r31)
 5600 0012 50FF00F8 		e_lwz %r7,248(%r31)
 5601 0016 2A07     		se_cmpi %r7,0
 5602 0018 7A120022 		e_beq %cr0,.L206
 5603              		.loc 1 1509 0
 5604 001c 4BE5     		se_li %r5,62
 5605 001e 70DEE40A 		e_lis %r6,0xf40a
 5606              		.loc 1 1510 0
 5607 0022 4BE3     		se_li %r3,62
 5608              		.loc 1 1509 0
 5609 0024 6516     		se_bseti %r6,17
 5610 0026 34A6001C 		e_stb %r5,28(%r6)
 5611              		.loc 1 1513 0
 5612 002a C501     		se_lwz %r0,20(%r1)
 5613              		.loc 1 1510 0
 5614 002c C267     		se_lwz %r6,8(%r7)
 5615              		.loc 1 1513 0
 5616 002e C3F1     		se_lwz %r31,12(%r1)
 5617              		.loc 1 1510 0
 5618 0030 C447     		se_lwz %r4,16(%r7)
 5619 0032 00B6     		se_mtctr %r6
 5620              		.loc 1 1513 0
 5621 0034 0090     		se_mtlr %r0
 5622              		.cfi_remember_state
 5623              		.cfi_restore 65
 5624 0036 20F1     		se_addi %r1,16
 5625              	.LCFI251:
 5626              		.cfi_restore 31
 5627              		.cfi_def_cfa_offset 0
 5628              		.loc 1 1510 0
 5629 0038 0006     		se_bctr
 5630              	.LVL198:
 5631              	.L206:
 5632              	.LCFI252:
 5633              		.cfi_restore_state
 5634              		.loc 1 1507 0
 5635 003a 78000001 		e_bl irqSysHalt
 5636              	.LVL199:
 5637 003e 50FF00F8 		e_lwz %r7,248(%r31)
 5638              		.loc 1 1509 0
 5639 0042 4BE5     		se_li %r5,62
 5640 0044 70DEE40A 		e_lis %r6,0xf40a
 5641              		.loc 1 1510 0
 5642 0048 4BE3     		se_li %r3,62
 5643              		.loc 1 1509 0
GAS LISTING C:\Users\Vipuls\AppData\Local\Temp\ccvVtvud.s 			page 100


 5644 004a 6516     		se_bseti %r6,17
 5645 004c 34A6001C 		e_stb %r5,28(%r6)
 5646              		.loc 1 1513 0
 5647 0050 C501     		se_lwz %r0,20(%r1)
 5648              		.loc 1 1510 0
 5649 0052 C267     		se_lwz %r6,8(%r7)
 5650              		.loc 1 1513 0
 5651 0054 C3F1     		se_lwz %r31,12(%r1)
 5652              		.loc 1 1510 0
 5653 0056 C447     		se_lwz %r4,16(%r7)
 5654 0058 00B6     		se_mtctr %r6
 5655              		.loc 1 1513 0
 5656 005a 0090     		se_mtlr %r0
 5657              		.cfi_restore 65
 5658 005c 20F1     		se_addi %r1,16
 5659              	.LCFI253:
 5660              		.cfi_restore 31
 5661              		.cfi_def_cfa_offset 0
 5662              		.loc 1 1510 0
 5663 005e 0006     		se_bctr
 5664              	.LVL200:
 5665              		.cfi_endproc
 5666              	.LFE66:
 5667              		.size	vector115, .-vector115
 5668              		.section	.text.vector116,"axv",@progbits
 5669              		.align 1
 5670              		.p2align 4,,15
 5671              		.globl vector116
 5672              		.type	vector116, @function
 5673              	vector116:
 5674              	.LFB67:
 5675              		.loc 1 1523 0
 5676              		.cfi_startproc
 5677 0000 182106F0 		e_stwu %r1,-16(%r1)
 5678              	.LCFI254:
 5679              		.cfi_def_cfa_offset 16
 5680 0004 0080     		se_mflr %r0
 5681 0006 D3F1     		se_stw %r31,12(%r1)
 5682 0008 D501     		se_stw %r0,20(%r1)
 5683              		.cfi_offset 65, 4
 5684              		.cfi_offset 31, -4
 5685              		.loc 1 1527 0
 5686 000a 73E0E000 		e_lis %r31,.LANCHOR0@ha
 5687 000e 1FFF0000 		e_la %r31,.LANCHOR0@l(%r31)
 5688 0012 50FF00FC 		e_lwz %r7,252(%r31)
 5689 0016 2A07     		se_cmpi %r7,0
 5690 0018 7A120022 		e_beq %cr0,.L209
 5691              		.loc 1 1530 0
 5692 001c 4BF5     		se_li %r5,63
 5693 001e 70DEE40A 		e_lis %r6,0xf40a
 5694              		.loc 1 1531 0
 5695 0022 4BF3     		se_li %r3,63
 5696              		.loc 1 1530 0
 5697 0024 6516     		se_bseti %r6,17
 5698 0026 34A6001C 		e_stb %r5,28(%r6)
 5699              		.loc 1 1534 0
 5700 002a C501     		se_lwz %r0,20(%r1)
GAS LISTING C:\Users\Vipuls\AppData\Local\Temp\ccvVtvud.s 			page 101


 5701              		.loc 1 1531 0
 5702 002c C267     		se_lwz %r6,8(%r7)
 5703              		.loc 1 1534 0
 5704 002e C3F1     		se_lwz %r31,12(%r1)
 5705              		.loc 1 1531 0
 5706 0030 C447     		se_lwz %r4,16(%r7)
 5707 0032 00B6     		se_mtctr %r6
 5708              		.loc 1 1534 0
 5709 0034 0090     		se_mtlr %r0
 5710              		.cfi_remember_state
 5711              		.cfi_restore 65
 5712 0036 20F1     		se_addi %r1,16
 5713              	.LCFI255:
 5714              		.cfi_restore 31
 5715              		.cfi_def_cfa_offset 0
 5716              		.loc 1 1531 0
 5717 0038 0006     		se_bctr
 5718              	.LVL201:
 5719              	.L209:
 5720              	.LCFI256:
 5721              		.cfi_restore_state
 5722              		.loc 1 1528 0
 5723 003a 78000001 		e_bl irqSysHalt
 5724              	.LVL202:
 5725 003e 50FF00FC 		e_lwz %r7,252(%r31)
 5726              		.loc 1 1530 0
 5727 0042 4BF5     		se_li %r5,63
 5728 0044 70DEE40A 		e_lis %r6,0xf40a
 5729              		.loc 1 1531 0
 5730 0048 4BF3     		se_li %r3,63
 5731              		.loc 1 1530 0
 5732 004a 6516     		se_bseti %r6,17
 5733 004c 34A6001C 		e_stb %r5,28(%r6)
 5734              		.loc 1 1534 0
 5735 0050 C501     		se_lwz %r0,20(%r1)
 5736              		.loc 1 1531 0
 5737 0052 C267     		se_lwz %r6,8(%r7)
 5738              		.loc 1 1534 0
 5739 0054 C3F1     		se_lwz %r31,12(%r1)
 5740              		.loc 1 1531 0
 5741 0056 C447     		se_lwz %r4,16(%r7)
 5742 0058 00B6     		se_mtctr %r6
 5743              		.loc 1 1534 0
 5744 005a 0090     		se_mtlr %r0
 5745              		.cfi_restore 65
 5746 005c 20F1     		se_addi %r1,16
 5747              	.LCFI257:
 5748              		.cfi_restore 31
 5749              		.cfi_def_cfa_offset 0
 5750              		.loc 1 1531 0
 5751 005e 0006     		se_bctr
 5752              	.LVL203:
 5753              		.cfi_endproc
 5754              	.LFE67:
 5755              		.size	vector116, .-vector116
 5756              		.section	.text.edmaInit,"axv",@progbits
 5757              		.align 1
GAS LISTING C:\Users\Vipuls\AppData\Local\Temp\ccvVtvud.s 			page 102


 5758              		.p2align 4,,15
 5759              		.globl edmaInit
 5760              		.type	edmaInit, @function
 5761              	edmaInit:
 5762              	.LFB68:
 5763              		.loc 1 2223 0
 5764              		.cfi_startproc
 5765 0000 182106F8 		e_stwu %r1,-8(%r1)
 5766              	.LCFI258:
 5767              		.cfi_def_cfa_offset 8
 5768              		.loc 1 2229 0
 5769 0004 717F7FFF 		e_li %r11,-1
 5770              		.loc 1 2227 0
 5771 0008 4807     		se_li %r7,0
 5772              		.loc 1 2226 0
 5773 000a 70BC0488 		e_li %r5,58504
 5774              		.loc 1 2223 0
 5775 000e 0080     		se_mflr %r0
 5776              		.loc 1 2226 0
 5777 0010 70DEE40A 		e_lis %r6,0xf40a
 5778              		.loc 1 2223 0
 5779 0014 D301     		se_stw %r0,12(%r1)
 5780              		.cfi_offset 65, 4
 5781              		.loc 1 2226 0
 5782 0016 6516     		se_bseti %r6,17
 5783 0018 7100E000 		e_lis %r8,.LANCHOR1@ha
 5784 001c D056     		se_stw %r5,0(%r6)
 5785 001e 1D080000 		e_la %r8,.LANCHOR1@l(%r8)
 5786              		.loc 1 2227 0
 5787 0022 D376     		se_stw %r7,12(%r6)
 5788 0024 7D085A14 		add %r8,%r8,%r11
 5789              		.loc 1 2228 0
 5790 0028 D576     		se_stw %r7,20(%r6)
 5791 002a 7140E000 		e_lis %r10,.LANCHOR2@ha
 5792              		.loc 1 2229 0
 5793 002e 55660024 		e_stw %r11,36(%r6)
 5794 0032 1D4A0000 		e_la %r10,.LANCHOR2@l(%r10)
 5795              		.loc 1 2230 0
 5796 0036 5566002C 		e_stw %r11,44(%r6)
 5797 003a 7D4A5A14 		add %r10,%r10,%r11
 5798              		.loc 1 2232 0
 5799 003e D276     		se_stw %r7,8(%r6)
 5800 0040 7120E000 		e_lis %r9,.LANCHOR3@ha
 5801              		.loc 1 2233 0
 5802 0044 D476     		se_stw %r7,16(%r6)
 5803 0046 1D290000 		e_la %r9,.LANCHOR3@l(%r9)
 5804              		.loc 1 2234 0
 5805 004a 55660020 		e_stw %r11,32(%r6)
 5806 004e 7D295A14 		add %r9,%r9,%r11
 5807              		.loc 1 2235 0
 5808 0052 55660028 		e_stw %r11,40(%r6)
 5809              	.LVL204:
 5810 0056 70E0E000 		e_lis %r7,.LANCHOR4@ha
 5811 005a 4905     		se_li %r5,16
 5812 005c 1CE70000 		e_la %r7,.LANCHOR4@l(%r7)
 5813 0060 71800030 		e_li %r12,48
 5814 0064 7D675A14 		add %r11,%r7,%r11
GAS LISTING C:\Users\Vipuls\AppData\Local\Temp\ccvVtvud.s 			page 103


 5815 0068 00B5     		se_mtctr %r5
 5816 006a 4807     		se_li %r7,0
 5817              	.LVL205:
 5818              	.L211:
 5819              		.loc 1 2248 0 discriminator 3
 5820 006c 18880001 		e_lbzu %r4,1(%r8)
 5821 0070 7CA63A14 		add %r5,%r6,%r7
 5822 0074 18678010 		e_addi %r3,%r7,16
 5823 0078 34850100 		e_stb %r4,256(%r5)
 5824              		.loc 1 2250 0 discriminator 3
 5825 007c 7C661A14 		add %r3,%r6,%r3
 5826 0080 180A0001 		e_lbzu %r0,1(%r10)
 5827 0084 18878020 		e_addi %r4,%r7,32
 5828 0088 34030100 		e_stb %r0,256(%r3)
 5829 008c 7CA76214 		add %r5,%r7,%r12
 5830              		.loc 1 2253 0 discriminator 3
 5831 0090 7C862214 		add %r4,%r6,%r4
 5832 0094 18690001 		e_lbzu %r3,1(%r9)
 5833              		.loc 1 2254 0 discriminator 3
 5834 0098 7CA62A14 		add %r5,%r6,%r5
 5835              		.loc 1 2253 0 discriminator 3
 5836 009c 34640100 		e_stb %r3,256(%r4)
 5837 00a0 2007     		se_addi %r7,1
 5838              	.LVL206:
 5839              		.loc 1 2254 0 discriminator 3
 5840 00a2 188B0001 		e_lbzu %r4,1(%r11)
 5841 00a6 34850100 		e_stb %r4,256(%r5)
 5842              	.LVL207:
 5843              		.loc 1 2247 0 discriminator 3
 5844 00aa 7A20FFC2 		e_bdnz .L211
 5845              		.loc 1 2268 0
 5846 00ae 4A43     		se_li %r3,36
 5847 00b0 4914     		se_li %r4,17
 5848              		.loc 1 2265 0
 5849 00b2 48A6     		se_li %r6,10
 5850 00b4 70FEE404 		e_lis %r7,0xf404
 5851 00b8 70E8C0C8 		e_or2i %r7,16584
 5852 00bc B067     		se_sth %r6,0(%r7)
 5853              		.loc 1 2268 0
 5854 00be 78000001 		e_bl SPCSetPeripheralClockMode
 5855              	.LVL208:
 5856              		.loc 1 2282 0
 5857 00c2 C301     		se_lwz %r0,12(%r1)
 5858              		.loc 1 2273 0
 5859 00c4 706000A4 		e_li %r3,164
 5860              		.loc 1 2282 0
 5861              		.loc 1 2273 0
 5862 00c8 4914     		se_li %r4,17
 5863              		.loc 1 2282 0
 5864 00ca 0090     		se_mtlr %r0
 5865              		.cfi_restore 65
 5866 00cc 2071     		se_addi %r1,8
 5867              	.LCFI259:
 5868              		.cfi_def_cfa_offset 0
 5869              		.loc 1 2273 0
 5870 00ce 78000000 		e_b SPCSetPeripheralClockMode
 5871              	.LVL209:
GAS LISTING C:\Users\Vipuls\AppData\Local\Temp\ccvVtvud.s 			page 104


 5872              		.cfi_endproc
 5873              	.LFE68:
 5874              		.size	edmaInit, .-edmaInit
 5875              		.section	.text.edmaChannelAllocate,"axv",@progbits
 5876              		.align 1
 5877              		.p2align 4,,15
 5878              		.globl edmaChannelAllocate
 5879              		.type	edmaChannelAllocate, @function
 5880              	edmaChannelAllocate:
 5881              	.LFB70:
 5882              		.loc 1 2350 0
 5883              		.cfi_startproc
 5884              	.LVL210:
 5885              		.loc 1 2352 0
 5886 0000 C003     		se_lwz %r0,0(%r3)
 5887              		.loc 1 2350 0
 5888 0002 0134     		se_mr %r4,%r3
 5889              		.loc 1 2352 0
 5890 0004 4BF5     		se_li %r5,63
 5891              		.loc 1 2355 0
 5892 0006 70E0E000 		e_lis %r7,.LANCHOR0@ha
 5893              		.loc 1 2352 0
 5894 000a 7C0B2838 		and %r11,%r0,%r5
 5895              		.loc 1 2355 0
 5896 000e 1CE70000 		e_la %r7,.LANCHOR0@l(%r7)
 5897              		.loc 1 2352 0
 5898 0012 7566063F 		e_rlwinm %r6,%r11,0,0xff
 5899              	.LVL211:
 5900              		.loc 1 2356 0
 5901 0016 2C03     		se_bmaski %r3,0
 5902              	.LVL212:
 5903              		.loc 1 2355 0
 5904 0018 7CC91070 		e_slwi %r9,%r6,2
 5905 001c 7CE7482E 		lwzx %r7,%r7,%r9
 5906 0020 2A07     		se_cmpi %r7,0
 5907 0022 7A120006 		e_beq %cr0,.L221
 5908              		.loc 1 2387 0
 5909 0026 0004     		se_blr
 5910              	.L221:
 5911 0028 8574     		se_lbz %r7,5(%r4)
 5912              	.LVL213:
 5913              	.LBB4:
 5914              	.LBB5:
 5915              		.loc 1 2293 0
 5916 002a 1800C040 		e_andi %r0,%r0,64
 5917 002e 8434     		se_lbz %r3,4(%r4)
 5918 0030 1800D480 		e_ori %r0,%r0,-128
 5919 0034 4635     		se_and %r5,%r3
 5920              		.loc 1 2297 0
 5921 0036 2A07     		se_cmpi %r7,0
 5922              		.loc 1 2293 0
 5923 0038 4405     		se_or %r5,%r0
 5924 003a 00C5     		se_extzb %r5
 5925              	.LVL214:
 5926              		.loc 1 2297 0
 5927 003c 7A12005C 		e_beq %cr0,.L222
 5928              		.loc 1 2300 0
GAS LISTING C:\Users\Vipuls\AppData\Local\Temp\ccvVtvud.s 			page 105


 5929 0040 2207     		se_cmpli %r7,1
 5930 0042 7A120066 		e_beq %cr0,.L223
 5931              		.loc 1 2305 0
 5932 0046 2217     		se_cmpli %r7,2
 5933 0048 7A120074 		e_beq %cr0,.L224
 5934              		.loc 1 2311 0
 5935 004c 2227     		se_cmpli %r7,3
 5936 004e 7A020014 		e_bne %cr0,.L216
 5937              		.loc 1 2312 0
 5938 0052 196B84D0 		e_addi %r11,%r11,-48
 5939              	.LVL215:
 5940              		.loc 1 2315 0
 5941 0056 70FFE3F6 		e_lis %r7,0xfbf6
 5942 005a 18E7D1C2 		e_ori %r7,%r7,49664
 5943 005e 7CA759AE 		stbx %r5,%r7,%r11
 5944              	.L216:
 5945              	.LBE5:
 5946              	.LBE4:
 5947              		.loc 1 2362 0
 5948 0062 7CC71070 		e_slwi %r7,%r6,2
 5949 0066 70A0E000 		e_lis %r5,.LANCHOR0@ha
 5950              	.LVL216:
 5951 006a 1CA50000 		e_la %r5,.LANCHOR0@l(%r5)
 5952 006e 7C85392E 		stwx %r4,%r5,%r7
 5953              		.loc 1 2366 0
 5954 0072 C374     		se_lwz %r7,12(%r4)
 5955 0074 2A07     		se_cmpi %r7,0
 5956 0076 7A12000E 		e_beq %cr0,.L219
 5957              		.loc 1 2368 0
 5958 007a 70FEE40A 		e_lis %r7,0xf40a
 5959 007e 6517     		se_bseti %r7,17
 5960 0080 34C7001A 		e_stb %r6,26(%r7)
 5961              	.L219:
 5962              		.loc 1 2383 0
 5963 0084 A374     		se_lhz %r7,6(%r4)
 5964              		.loc 1 2386 0
 5965 0086 0163     		se_mr %r3,%r6
 5966              		.loc 1 2383 0
 5967 0088 70AFE202 		e_lis %r5,0x7a02
 5968 008c 70A4C065 		e_or2i %r5,8293
 5969 0090 0456     		se_add %r6,%r5
 5970              	.LVL217:
 5971 0092 6C16     		se_slwi %r6, 1
 5972 0094 B076     		se_sth %r7,0(%r6)
 5973              		.loc 1 2387 0
 5974 0096 0004     		se_blr
 5975              	.LVL218:
 5976              	.L222:
 5977              	.LBB7:
 5978              	.LBB6:
 5979              		.loc 1 2299 0
 5980 0098 70FEE7F6 		e_lis %r7,0xf7f6
 5981 009c 18E7D1C0 		e_ori %r7,%r7,49152
 5982 00a0 7CA759AE 		stbx %r5,%r7,%r11
 5983 00a4 79FFFFBE 		e_b .L216
 5984              	.L223:
 5985              		.loc 1 2301 0
GAS LISTING C:\Users\Vipuls\AppData\Local\Temp\ccvVtvud.s 			page 106


 5986 00a8 196B84F0 		e_addi %r11,%r11,-16
 5987              	.LVL219:
 5988              		.loc 1 2303 0
 5989 00ac 70FFE3F6 		e_lis %r7,0xfbf6
 5990 00b0 18E7D1C0 		e_ori %r7,%r7,49152
 5991 00b4 7CA759AE 		stbx %r5,%r7,%r11
 5992 00b8 79FFFFAA 		e_b .L216
 5993              	.LVL220:
 5994              	.L224:
 5995              		.loc 1 2306 0
 5996 00bc 196B84E0 		e_addi %r11,%r11,-32
 5997              	.LVL221:
 5998              		.loc 1 2308 0
 5999 00c0 70FEE7F6 		e_lis %r7,0xf7f6
 6000 00c4 18E7D1C2 		e_ori %r7,%r7,49664
 6001 00c8 7CA759AE 		stbx %r5,%r7,%r11
 6002 00cc 79FFFF96 		e_b .L216
 6003              	.LBE6:
 6004              	.LBE7:
 6005              		.cfi_endproc
 6006              	.LFE70:
 6007              		.size	edmaChannelAllocate, .-edmaChannelAllocate
 6008              		.section	.text.edmaChannelRelease,"axv",@progbits
 6009              		.align 1
 6010              		.p2align 4,,15
 6011              		.globl edmaChannelRelease
 6012              		.type	edmaChannelRelease, @function
 6013              	edmaChannelRelease:
 6014              	.LFB72:
 6015              		.loc 1 2452 0
 6016              		.cfi_startproc
 6017              	.LVL222:
 6018              		.loc 1 2454 0
 6019 0000 C073     		se_lwz %r7,0(%r3)
 6020              		.loc 1 2457 0
 6021 0002 70DEE40A 		e_lis %r6,0xf40a
 6022              		.loc 1 2454 0
 6023 0006 18E7C03F 		e_andi %r7,%r7,63
 6024              	.LVL223:
 6025              		.loc 1 2457 0
 6026 000a 6516     		se_bseti %r6,17
 6027 000c 34E60019 		e_stb %r7,25(%r6)
 6028 0010 34E6001F 		e_stb %r7,31(%r6)
 6029 0014 8563     		se_lbz %r6,5(%r3)
 6030              	.LVL224:
 6031              	.LBB10:
 6032              	.LBB11:
 6033              		.loc 1 2398 0
 6034 0016 C053     		se_lwz %r5,0(%r3)
 6035              		.loc 1 2400 0
 6036 0018 2A06     		se_cmpi %r6,0
 6037              		.loc 1 2398 0
 6038 001a 18A5C03F 		e_andi %r5,%r5,63
 6039              	.LVL225:
 6040              		.loc 1 2400 0
 6041 001e 7A12004E 		e_beq %cr0,.L230
 6042              		.loc 1 2403 0
GAS LISTING C:\Users\Vipuls\AppData\Local\Temp\ccvVtvud.s 			page 107


 6043 0022 2206     		se_cmpli %r6,1
 6044 0024 7A12007A 		e_beq %cr0,.L231
 6045              		.loc 1 2408 0
 6046 0028 2216     		se_cmpli %r6,2
 6047 002a 7A1200AC 		e_beq %cr0,.L232
 6048              		.loc 1 2414 0
 6049 002e 2226     		se_cmpli %r6,3
 6050 0030 7A020016 		e_bne %cr0,.L227
 6051              		.loc 1 2415 0
 6052 0034 18A584D0 		e_addi %r5,%r5,-48
 6053              	.LVL226:
 6054              		.loc 1 2418 0
 6055 0038 4804     		se_li %r4,0
 6056 003a 70DFE3F6 		e_lis %r6,0xfbf6
 6057 003e 18C6D1C2 		e_ori %r6,%r6,49664
 6058 0042 7C8629AE 		stbx %r4,%r6,%r5
 6059              	.L227:
 6060              	.LBE11:
 6061              	.LBE10:
 6062              		.loc 1 2479 0
 6063 0046 7CE51070 		e_slwi %r5,%r7,2
 6064              	.LVL227:
 6065              		.loc 1 2463 0
 6066 004a 70DEE40A 		e_lis %r6,0xf40a
 6067 004e 6516     		se_bseti %r6,17
 6068 0050 34E6001C 		e_stb %r7,28(%r6)
 6069              		.loc 1 2464 0
 6070 0054 34E6001B 		e_stb %r7,27(%r6)
 6071              		.loc 1 2465 0
 6072 0058 34E6001D 		e_stb %r7,29(%r6)
 6073              		.loc 1 2479 0
 6074 005c 4806     		se_li %r6,0
 6075 005e 70E0E000 		e_lis %r7,.LANCHOR0@ha
 6076              	.LVL228:
 6077 0062 1CE70000 		e_la %r7,.LANCHOR0@l(%r7)
 6078 0066 7CC7292E 		stwx %r6,%r7,%r5
 6079 006a 0004     		se_blr
 6080              	.LVL229:
 6081              	.L230:
 6082              	.LBB15:
 6083              	.LBB12:
 6084              		.loc 1 2402 0
 6085 006c 709EE7F6 		e_lis %r4,0xf7f6
 6086 0070 1884D1C0 		e_ori %r4,%r4,49152
 6087 0074 7CC429AE 		stbx %r6,%r4,%r5
 6088              	.LBE12:
 6089              	.LBE15:
 6090              		.loc 1 2479 0
 6091 0078 7CE51070 		e_slwi %r5,%r7,2
 6092              	.LVL230:
 6093              		.loc 1 2463 0
 6094 007c 70DEE40A 		e_lis %r6,0xf40a
 6095 0080 6516     		se_bseti %r6,17
 6096 0082 34E6001C 		e_stb %r7,28(%r6)
 6097              		.loc 1 2464 0
 6098 0086 34E6001B 		e_stb %r7,27(%r6)
 6099              		.loc 1 2465 0
GAS LISTING C:\Users\Vipuls\AppData\Local\Temp\ccvVtvud.s 			page 108


 6100 008a 34E6001D 		e_stb %r7,29(%r6)
 6101              		.loc 1 2479 0
 6102 008e 4806     		se_li %r6,0
 6103 0090 70E0E000 		e_lis %r7,.LANCHOR0@ha
 6104              	.LVL231:
 6105 0094 1CE70000 		e_la %r7,.LANCHOR0@l(%r7)
 6106 0098 7CC7292E 		stwx %r6,%r7,%r5
 6107 009c 0004     		se_blr
 6108              	.LVL232:
 6109              	.L231:
 6110              	.LBB16:
 6111              	.LBB13:
 6112              		.loc 1 2404 0
 6113 009e 18A584F0 		e_addi %r5,%r5,-16
 6114              	.LVL233:
 6115              		.loc 1 2406 0
 6116 00a2 4804     		se_li %r4,0
 6117 00a4 70DFE3F6 		e_lis %r6,0xfbf6
 6118 00a8 18C6D1C0 		e_ori %r6,%r6,49152
 6119 00ac 7C8629AE 		stbx %r4,%r6,%r5
 6120              	.LBE13:
 6121              	.LBE16:
 6122              		.loc 1 2479 0
 6123 00b0 7CE51070 		e_slwi %r5,%r7,2
 6124              	.LVL234:
 6125              		.loc 1 2463 0
 6126 00b4 70DEE40A 		e_lis %r6,0xf40a
 6127 00b8 6516     		se_bseti %r6,17
 6128 00ba 34E6001C 		e_stb %r7,28(%r6)
 6129              		.loc 1 2464 0
 6130 00be 34E6001B 		e_stb %r7,27(%r6)
 6131              		.loc 1 2465 0
 6132 00c2 34E6001D 		e_stb %r7,29(%r6)
 6133              		.loc 1 2479 0
 6134 00c6 4806     		se_li %r6,0
 6135 00c8 70E0E000 		e_lis %r7,.LANCHOR0@ha
 6136              	.LVL235:
 6137 00cc 1CE70000 		e_la %r7,.LANCHOR0@l(%r7)
 6138 00d0 7CC7292E 		stwx %r6,%r7,%r5
 6139 00d4 0004     		se_blr
 6140              	.LVL236:
 6141              	.L232:
 6142              	.LBB17:
 6143              	.LBB14:
 6144              		.loc 1 2409 0
 6145 00d6 18A584E0 		e_addi %r5,%r5,-32
 6146              	.LVL237:
 6147              		.loc 1 2411 0
 6148 00da 4804     		se_li %r4,0
 6149 00dc 70DEE7F6 		e_lis %r6,0xf7f6
 6150 00e0 18C6D1C2 		e_ori %r6,%r6,49664
 6151 00e4 7C8629AE 		stbx %r4,%r6,%r5
 6152 00e8 79FFFF5E 		e_b .L227
 6153              	.LBE14:
 6154              	.LBE17:
 6155              		.cfi_endproc
 6156              	.LFE72:
GAS LISTING C:\Users\Vipuls\AppData\Local\Temp\ccvVtvud.s 			page 109


 6157              		.size	edmaChannelRelease, .-edmaChannelRelease
 6158              		.section	.rodata.dma1_g0,"a",@progbits
 6159              		.align 2
 6160              		.set	.LANCHOR1,. + 0
 6161              		.type	dma1_g0, @object
 6162              		.size	dma1_g0, 16
 6163              	dma1_g0:
 6164 0000 00       		.byte	0
 6165 0001 01       		.byte	1
 6166 0002 02       		.byte	2
 6167 0003 03       		.byte	3
 6168 0004 04       		.byte	4
 6169 0005 05       		.byte	5
 6170 0006 06       		.byte	6
 6171 0007 07       		.byte	7
 6172 0008 08       		.byte	8
 6173 0009 09       		.byte	9
 6174 000a 0A       		.byte	10
 6175 000b 0B       		.byte	11
 6176 000c 0C       		.byte	12
 6177 000d 0D       		.byte	13
 6178 000e 0E       		.byte	14
 6179 000f 0F       		.byte	15
 6180              		.section	.rodata.dma1_g1,"a",@progbits
 6181              		.align 2
 6182              		.set	.LANCHOR2,. + 0
 6183              		.type	dma1_g1, @object
 6184              		.size	dma1_g1, 16
 6185              	dma1_g1:
 6186 0000 00       		.byte	0
 6187 0001 01       		.byte	1
 6188 0002 02       		.byte	2
 6189 0003 03       		.byte	3
 6190 0004 04       		.byte	4
 6191 0005 05       		.byte	5
 6192 0006 06       		.byte	6
 6193 0007 07       		.byte	7
 6194 0008 08       		.byte	8
 6195 0009 09       		.byte	9
 6196 000a 0A       		.byte	10
 6197 000b 0B       		.byte	11
 6198 000c 0C       		.byte	12
 6199 000d 0D       		.byte	13
 6200 000e 0E       		.byte	14
 6201 000f 0F       		.byte	15
 6202              		.section	.bss.channels,"aw",@nobits
 6203              		.align 2
 6204              		.set	.LANCHOR0,. + 0
 6205              		.type	channels, @object
 6206              		.size	channels, 256
 6207              	channels:
 6208 0000 00000000 		.zero	256
 6208      00000000 
 6208      00000000 
 6208      00000000 
 6208      00000000 
 6209              		.section	.rodata.dma1_g2,"a",@progbits
GAS LISTING C:\Users\Vipuls\AppData\Local\Temp\ccvVtvud.s 			page 110


 6210              		.align 2
 6211              		.set	.LANCHOR3,. + 0
 6212              		.type	dma1_g2, @object
 6213              		.size	dma1_g2, 16
 6214              	dma1_g2:
 6215 0000 00       		.byte	0
 6216 0001 01       		.byte	1
 6217 0002 02       		.byte	2
 6218 0003 03       		.byte	3
 6219 0004 04       		.byte	4
 6220 0005 05       		.byte	5
 6221 0006 06       		.byte	6
 6222 0007 07       		.byte	7
 6223 0008 08       		.byte	8
 6224 0009 09       		.byte	9
 6225 000a 0A       		.byte	10
 6226 000b 0B       		.byte	11
 6227 000c 0C       		.byte	12
 6228 000d 0D       		.byte	13
 6229 000e 0E       		.byte	14
 6230 000f 0F       		.byte	15
 6231              		.section	.rodata.dma1_g3,"a",@progbits
 6232              		.align 2
 6233              		.set	.LANCHOR4,. + 0
 6234              		.type	dma1_g3, @object
 6235              		.size	dma1_g3, 16
 6236              	dma1_g3:
 6237 0000 00       		.byte	0
 6238 0001 01       		.byte	1
 6239 0002 02       		.byte	2
 6240 0003 03       		.byte	3
 6241 0004 04       		.byte	4
 6242 0005 05       		.byte	5
 6243 0006 06       		.byte	6
 6244 0007 07       		.byte	7
 6245 0008 08       		.byte	8
 6246 0009 09       		.byte	9
 6247 000a 0A       		.byte	10
 6248 000b 0B       		.byte	11
 6249 000c 0C       		.byte	12
 6250 000d 0D       		.byte	13
 6251 000e 0E       		.byte	14
 6252 000f 0F       		.byte	15
 6253              		.section	".text","axv"
 6254              	.Letext0:
 6255              		.file 2 "c:\\autodevkitstudio-2.4.0\\eclipse\\plugins\\com.st.tools.spc5.tools.gnu.gcc.ppcvle.win3
 6256              		.file 3 "c:\\autodevkitstudio-2.4.0\\eclipse\\plugins\\com.st.tools.spc5.tools.gnu.gcc.ppcvle.win3
 6257              		.file 4 "./components/spc58ecxx_platform_component_rla/lib/include/typedefs.h"
 6258              		.file 5 "./components/spc58ecxx_low_level_drivers_component_rla/lib/include/spc5_edma.h"
 6259              		.file 6 "./components/spc58ecxx_irq_component_rla/lib/include/irq.h"
 6260              		.file 7 "./components/spc58ecxx_clock_component_rla/lib/include/clock.h"