GAS LISTING C:\Users\Vipuls\AppData\Local\Temp\ccDj9xAe.s 			page 1


   1              		.file	"spi_lld.c"
   2              		.section	".text","axv"
   3              	.Ltext0:
   4              		.cfi_sections	.debug_frame
   5              		.section	.text.spi_dspi_prefill_txfifo_idle,"axv",@progbits
   6              		.align 1
   7              		.p2align 4,,15
   8              		.type	spi_dspi_prefill_txfifo_idle, @function
   9              	spi_dspi_prefill_txfifo_idle:
  10              	.LFB6:
  11              		.file 1 "./components/spc58ecxx_low_level_drivers_component_rla/lib/src/spi_lld.c"
  12              		.loc 1 790 0
  13              		.cfi_startproc
  14              	.LVL0:
  15              		.loc 1 791 0
  16 0000 C073     		se_lwz %r7,0(%r3)
  17 0002 C263     		se_lwz %r6,8(%r3)
  18 0004 51470014 		e_lwz %r10,20(%r7)
  19              	.LVL1:
  20              		.loc 1 794 0
  21 0008 717F7FFF 		e_li %r11,-1
  22              		.loc 1 798 0
  23 000c 7D495378 		mr %r9,%r10
  24 0010 713FC7FF 		e_or2i %r9,65535
  25              	.L2:
  26              		.loc 1 793 0
  27 0014 CB76     		se_lwz %r7,44(%r6)
  28 0016 74E7A73F 		e_rlwinm %r7,%r7,20,28,31
  29 001a 2227     		se_cmpli %r7,3
  30 001c 7A11007E 		e_bgt %cr0,.L15
  31              		.loc 1 794 0
  32 0020 C074     		se_lwz %r7,0(%r4)
  33 0022 7CEB3A14 		add %r7,%r11,%r7
  34 0026 D074     		se_stw %r7,0(%r4)
  35 0028 2A07     		se_cmpi %r7,0
  36 002a 7A120072 		e_beq %cr0,.L16
  37              		.loc 1 798 0
  38 002e 55260034 		e_stw %r9,52(%r6)
  39              		.loc 1 802 0
  40 0032 C473     		se_lwz %r7,16(%r3)
  41 0034 C263     		se_lwz %r6,8(%r3)
  42 0036 2A07     		se_cmpi %r7,0
  43 0038 7A020020 		e_bne %cr0,.L10
  44 003c 79FFFFD8 		e_b .L2
  45              	.LVL2:
  46              	.L18:
  47              	.LBB44:
  48              		.loc 1 808 0
  49 0040 18C78001 		e_addi %r6,%r7,1
  50 0044 D363     		se_stw %r6,12(%r3)
  51 0046 9007     		se_stb %r0,0(%r7)
  52              	.L7:
  53              		.loc 1 813 0
  54 0048 C473     		se_lwz %r7,16(%r3)
  55              	.LBE44:
  56              		.loc 1 802 0
  57 004a C263     		se_lwz %r6,8(%r3)
GAS LISTING C:\Users\Vipuls\AppData\Local\Temp\ccDj9xAe.s 			page 2


  58              	.LBB45:
  59              		.loc 1 813 0
  60 004c 7CEB3A14 		add %r7,%r11,%r7
  61 0050 D473     		se_stw %r7,16(%r3)
  62              	.LBE45:
  63              		.loc 1 802 0
  64 0052 2A07     		se_cmpi %r7,0
  65 0054 7A12FFC0 		e_beq %cr0,.L2
  66              	.LVL3:
  67              	.L10:
  68              		.loc 1 802 0 is_stmt 0 discriminator 1
  69 0058 CB76     		se_lwz %r7,44(%r6)
  70 005a 74E7E73F 		e_rlwinm %r7,%r7,28,28,31
  71 005e 2A07     		se_cmpi %r7,0
  72 0060 7A12FFB4 		e_beq %cr0,.L2
  73              	.LBB46:
  74              		.loc 1 804 0 is_stmt 1
  75 0064 C373     		se_lwz %r7,12(%r3)
  76              		.loc 1 803 0
  77 0066 CE06     		se_lwz %r0,56(%r6)
  78              	.LVL4:
  79              		.loc 1 804 0
  80 0068 2A07     		se_cmpi %r7,0
  81 006a 7A12FFDE 		e_beq %cr0,.L7
  82              		.loc 1 805 0
  83 006e C056     		se_lwz %r5,0(%r6)
  84 0070 67C5     		se_btsti %r5,28
  85 0072 7A02001C 		e_bne %cr0,.L17
  86              		.loc 1 807 0
  87 0076 C366     		se_lwz %r6,12(%r6)
  88 0078 74C62F3F 		e_rlwinm %r6,%r6,5,28,31
  89 007c 2266     		se_cmpli %r6,7
  90 007e 7A01FFC2 		e_ble %cr0,.L18
  91              		.loc 1 810 0
  92 0082 18C78002 		e_addi %r6,%r7,2
  93 0086 D363     		se_stw %r6,12(%r3)
  94 0088 B007     		se_sth %r0,0(%r7)
  95 008a 79FFFFBE 		e_b .L7
  96              	.L17:
  97              		.loc 1 806 0
  98 008e 18C78004 		e_addi %r6,%r7,4
  99 0092 D363     		se_stw %r6,12(%r3)
 100 0094 D007     		se_stw %r0,0(%r7)
 101 0096 79FFFFB2 		e_b .L7
 102              	.LVL5:
 103              	.L15:
 104 009a 0004     		se_blr
 105              	.L16:
 106              	.LBE46:
 107              		.loc 1 795 0
 108 009c 714EEFFF 		e_and2is. %r10,0x77ff
 109              	.LVL6:
 110 00a0 1947D308 		e_ori %r7,%r10,134217728
 111 00a4 70FFC7FF 		e_or2i %r7,65535
 112 00a8 DD76     		se_stw %r7,52(%r6)
 113              		.loc 1 796 0
 114 00aa 0004     		se_blr
GAS LISTING C:\Users\Vipuls\AppData\Local\Temp\ccDj9xAe.s 			page 3


 115              		.cfi_endproc
 116              	.LFE6:
 117              		.size	spi_dspi_prefill_txfifo_idle, .-spi_dspi_prefill_txfifo_idle
 118              		.section	.text.spi_dspi_prefill_txfifo8,"axv",@progbits
 119              		.align 1
 120              		.p2align 4,,15
 121              		.type	spi_dspi_prefill_txfifo8, @function
 122              	spi_dspi_prefill_txfifo8:
 123              	.LFB7:
 124              		.loc 1 832 0
 125              		.cfi_startproc
 126              	.LVL7:
 127              		.loc 1 833 0
 128 0000 C073     		se_lwz %r7,0(%r3)
 129 0002 C263     		se_lwz %r6,8(%r3)
 130 0004 51270014 		e_lwz %r9,20(%r7)
 131              	.LVL8:
 132              		.loc 1 840 0
 133 0008 717F7FFF 		e_li %r11,-1
 134              	.L20:
 135              		.loc 1 836 0
 136 000c CB76     		se_lwz %r7,44(%r6)
 137 000e 74E7A73F 		e_rlwinm %r7,%r7,20,28,31
 138 0012 2227     		se_cmpli %r7,3
 139 0014 7A110066 		e_bgt %cr0,.L31
 140              	.L28:
 141              		.loc 1 837 0
 142 0018 C065     		se_lwz %r6,0(%r5)
 143              		.loc 1 840 0
 144 001a C074     		se_lwz %r7,0(%r4)
 145              		.loc 1 837 0
 146 001c 8006     		se_lbz %r0,0(%r6)
 147              	.LVL9:
 148              		.loc 1 840 0
 149 001e 7CEB3A14 		add %r7,%r11,%r7
 150              		.loc 1 838 0
 151 0022 2006     		se_addi %r6,1
 152              		.loc 1 840 0
 153 0024 2A07     		se_cmpi %r7,0
 154              		.loc 1 838 0
 155 0026 D065     		se_stw %r6,0(%r5)
 156              		.loc 1 840 0
 157 0028 D074     		se_stw %r7,0(%r4)
 158 002a 7A120052 		e_beq %cr0,.L32
 159              		.loc 1 844 0
 160 002e C273     		se_lwz %r7,8(%r3)
 161 0030 7C004B78 		or %r0,%r0,%r9
 162              	.LVL10:
 163 0034 DD07     		se_stw %r0,52(%r7)
 164              		.loc 1 848 0
 165 0036 C473     		se_lwz %r7,16(%r3)
 166 0038 C263     		se_lwz %r6,8(%r3)
 167 003a 2A07     		se_cmpi %r7,0
 168 003c 7A12FFD0 		e_beq %cr0,.L20
 169              	.L26:
 170              		.loc 1 848 0 is_stmt 0 discriminator 1
 171 0040 CB76     		se_lwz %r7,44(%r6)
GAS LISTING C:\Users\Vipuls\AppData\Local\Temp\ccDj9xAe.s 			page 4


 172 0042 74E7E73F 		e_rlwinm %r7,%r7,28,28,31
 173 0046 2A07     		se_cmpi %r7,0
 174 0048 7A12FFC4 		e_beq %cr0,.L20
 175              		.loc 1 850 0 is_stmt 1
 176 004c C373     		se_lwz %r7,12(%r3)
 177              		.loc 1 849 0
 178 004e CE66     		se_lwz %r6,56(%r6)
 179              	.LVL11:
 180              		.loc 1 850 0
 181 0050 2A07     		se_cmpi %r7,0
 182 0052 7A12000C 		e_beq %cr0,.L25
 183              		.loc 1 851 0
 184 0056 18078001 		e_addi %r0,%r7,1
 185 005a D303     		se_stw %r0,12(%r3)
 186 005c 9067     		se_stb %r6,0(%r7)
 187              	.L25:
 188              		.loc 1 853 0
 189 005e C473     		se_lwz %r7,16(%r3)
 190              		.loc 1 848 0
 191 0060 C263     		se_lwz %r6,8(%r3)
 192              	.LVL12:
 193              		.loc 1 853 0
 194 0062 7CEB3A14 		add %r7,%r11,%r7
 195 0066 D473     		se_stw %r7,16(%r3)
 196              		.loc 1 848 0
 197 0068 2A07     		se_cmpi %r7,0
 198 006a 7A02FFD6 		e_bne %cr0,.L26
 199              		.loc 1 836 0
 200 006e CB76     		se_lwz %r7,44(%r6)
 201 0070 74E7A73F 		e_rlwinm %r7,%r7,20,28,31
 202 0074 2227     		se_cmpli %r7,3
 203 0076 7A01FFA2 		e_ble %cr0,.L28
 204              	.L31:
 205 007a 0004     		se_blr
 206              	.LVL13:
 207              	.L32:
 208              		.loc 1 841 0
 209 007c C263     		se_lwz %r6,8(%r3)
 210 007e 7C094B78 		or %r9,%r0,%r9
 211              	.LVL14:
 212 0082 1927C777 		e_andi %r7,%r9,2013265919
 213 0086 6447     		se_bseti %r7,4
 214 0088 DD76     		se_stw %r7,52(%r6)
 215              		.loc 1 842 0
 216 008a 0004     		se_blr
 217              		.cfi_endproc
 218              	.LFE7:
 219              		.size	spi_dspi_prefill_txfifo8, .-spi_dspi_prefill_txfifo8
 220              		.section	.text.spi_dspi_prefill_txfifo16,"axv",@progbits
 221              		.align 1
 222              		.p2align 4,,15
 223              		.type	spi_dspi_prefill_txfifo16, @function
 224              	spi_dspi_prefill_txfifo16:
 225              	.LFB8:
 226              		.loc 1 872 0
 227              		.cfi_startproc
 228              	.LVL15:
GAS LISTING C:\Users\Vipuls\AppData\Local\Temp\ccDj9xAe.s 			page 5


 229              		.loc 1 873 0
 230 0000 C073     		se_lwz %r7,0(%r3)
 231 0002 51630008 		e_lwz %r11,8(%r3)
 232 0006 51070014 		e_lwz %r8,20(%r7)
 233              	.LVL16:
 234              		.loc 1 880 0
 235 000a 715F7FFF 		e_li %r10,-1
 236              	.L34:
 237              		.loc 1 876 0
 238 000e 50EB002C 		e_lwz %r7,44(%r11)
 239 0012 74E7A73F 		e_rlwinm %r7,%r7,20,28,31
 240 0016 2227     		se_cmpli %r7,3
 241 0018 7A11007E 		e_bgt %cr0,.L43
 242              	.L41:
 243              		.loc 1 877 0
 244 001c C065     		se_lwz %r6,0(%r5)
 245              		.loc 1 880 0
 246 001e C074     		se_lwz %r7,0(%r4)
 247              		.loc 1 877 0
 248 0020 A006     		se_lhz %r0,0(%r6)
 249              	.LVL17:
 250              		.loc 1 880 0
 251 0022 7CEA3A14 		add %r7,%r10,%r7
 252              		.loc 1 878 0
 253 0026 2016     		se_addi %r6,2
 254              		.loc 1 880 0
 255 0028 2A07     		se_cmpi %r7,0
 256              		.loc 1 878 0
 257 002a D065     		se_stw %r6,0(%r5)
 258              		.loc 1 880 0
 259 002c D074     		se_stw %r7,0(%r4)
 260 002e 7A12006A 		e_beq %cr0,.L44
 261              		.loc 1 884 0
 262 0032 C273     		se_lwz %r7,8(%r3)
 263 0034 7C004378 		or %r0,%r0,%r8
 264              	.LVL18:
 265 0038 DD07     		se_stw %r0,52(%r7)
 266              	.LVL19:
 267              		.loc 1 888 0
 268 003a C463     		se_lwz %r6,16(%r3)
 269 003c 51630008 		e_lwz %r11,8(%r3)
 270 0040 2A06     		se_cmpi %r6,0
 271 0042 7A12FFCC 		e_beq %cr0,.L34
 272 0046 50EB002C 		e_lwz %r7,44(%r11)
 273 004a 74E7E73F 		e_rlwinm %r7,%r7,28,28,31
 274 004e 2A07     		se_cmpi %r7,0
 275 0050 7A12FFBE 		e_beq %cr0,.L34
 276 0054 7CC65214 		add %r6,%r6,%r10
 277              	.L40:
 278              		.loc 1 890 0
 279 0058 C373     		se_lwz %r7,12(%r3)
 280              		.loc 1 889 0
 281 005a 500B0038 		e_lwz %r0,56(%r11)
 282              	.LVL20:
 283              		.loc 1 890 0
 284 005e 2A07     		se_cmpi %r7,0
 285 0060 7A12000E 		e_beq %cr0,.L39
GAS LISTING C:\Users\Vipuls\AppData\Local\Temp\ccDj9xAe.s 			page 6


 286              		.loc 1 891 0
 287 0064 19278002 		e_addi %r9,%r7,2
 288 0068 5523000C 		e_stw %r9,12(%r3)
 289 006c B007     		se_sth %r0,0(%r7)
 290              	.L39:
 291              		.loc 1 893 0
 292 006e D463     		se_stw %r6,16(%r3)
 293              		.loc 1 888 0
 294 0070 2A06     		se_cmpi %r6,0
 295 0072 7A12FF9C 		e_beq %cr0,.L34
 296              		.loc 1 888 0 is_stmt 0 discriminator 1
 297 0076 50EB002C 		e_lwz %r7,44(%r11)
 298 007a 7CC65214 		add %r6,%r6,%r10
 299 007e 74E7E73F 		e_rlwinm %r7,%r7,28,28,31
 300 0082 2A07     		se_cmpi %r7,0
 301 0084 7A02FFD4 		e_bne %cr0,.L40
 302              		.loc 1 876 0 is_stmt 1
 303 0088 50EB002C 		e_lwz %r7,44(%r11)
 304 008c 74E7A73F 		e_rlwinm %r7,%r7,20,28,31
 305 0090 2227     		se_cmpli %r7,3
 306 0092 7A01FF8A 		e_ble %cr0,.L41
 307              	.LVL21:
 308              	.L43:
 309 0096 0004     		se_blr
 310              	.LVL22:
 311              	.L44:
 312              		.loc 1 881 0
 313 0098 C263     		se_lwz %r6,8(%r3)
 314 009a 7C084378 		or %r8,%r0,%r8
 315              	.LVL23:
 316 009e 1907C777 		e_andi %r7,%r8,2013265919
 317 00a2 6447     		se_bseti %r7,4
 318 00a4 DD76     		se_stw %r7,52(%r6)
 319              		.loc 1 882 0
 320 00a6 0004     		se_blr
 321              		.cfi_endproc
 322              	.LFE8:
 323              		.size	spi_dspi_prefill_txfifo16, .-spi_dspi_prefill_txfifo16
 324              		.section	.text.spi_dspi_prefill_txfifo32,"axv",@progbits
 325              		.align 1
 326              		.p2align 4,,15
 327              		.type	spi_dspi_prefill_txfifo32, @function
 328              	spi_dspi_prefill_txfifo32:
 329              	.LFB9:
 330              		.loc 1 912 0
 331              		.cfi_startproc
 332              	.LVL24:
 333              		.loc 1 913 0
 334 0000 51630000 		e_lwz %r11,0(%r3)
 335              		.loc 1 916 0
 336 0004 C263     		se_lwz %r6,8(%r3)
 337              		.loc 1 913 0
 338 0006 514B0014 		e_lwz %r10,20(%r11)
 339              	.LVL25:
 340              		.loc 1 916 0
 341 000a CB76     		se_lwz %r7,44(%r6)
 342 000c 74E7A73F 		e_rlwinm %r7,%r7,20,28,31
GAS LISTING C:\Users\Vipuls\AppData\Local\Temp\ccDj9xAe.s 			page 7


 343 0010 2217     		se_cmpli %r7,2
 344 0012 7A110082 		e_bgt %cr0,.L47
 345              		.loc 1 917 0
 346 0016 C074     		se_lwz %r7,0(%r4)
 347 0018 7D4B8470 		e_srwi %r11,%r10,16
 348 001c 18E784FF 		e_addi %r7,%r7,-1
 349              		.loc 1 928 0
 350 0020 4810     		se_li %r0,1
 351              		.loc 1 917 0
 352 0022 D074     		se_stw %r7,0(%r4)
 353 0024 713F7FFF 		e_li %r9,-1
 354 0028 2A07     		se_cmpi %r7,0
 355 002a 7A12004C 		e_beq %cr0,.L48
 356              	.LVL26:
 357              	.L50:
 358              		.loc 1 923 0
 359 002e 5D660034 		e_sth %r11,52(%r6)
 360              		.loc 1 926 0
 361 0032 2035     		se_addi %r5,4
 362              	.LVL27:
 363              		.loc 1 924 0
 364 0034 C273     		se_lwz %r7,8(%r3)
 365 0036 58C5FFFC 		e_lhz %r6,-4(%r5)
 366 003a 5CC70036 		e_sth %r6,54(%r7)
 367              		.loc 1 925 0
 368 003e 58C5FFFE 		e_lhz %r6,-2(%r5)
 369              	.LVL28:
 370 0042 C273     		se_lwz %r7,8(%r3)
 371 0044 5CC70036 		e_sth %r6,54(%r7)
 372 0048 C263     		se_lwz %r6,8(%r3)
 373              	.L54:
 374              		.loc 1 927 0 discriminator 1
 375 004a CB76     		se_lwz %r7,44(%r6)
 376 004c 2A07     		se_cmpi %r7,0
 377 004e 7A00FFFC 		e_bge %cr0,.L54
 378              		.loc 1 928 0
 379 0052 CB76     		se_lwz %r7,44(%r6)
 380 0054 7407F800 		e_rlwimi %r7,%r0,31,0,0
 381 0058 DB76     		se_stw %r7,44(%r6)
 382              		.loc 1 916 0
 383 005a C263     		se_lwz %r6,8(%r3)
 384 005c CB76     		se_lwz %r7,44(%r6)
 385 005e 74E7A73F 		e_rlwinm %r7,%r7,20,28,31
 386 0062 2217     		se_cmpli %r7,2
 387 0064 7A110030 		e_bgt %cr0,.L47
 388              		.loc 1 917 0
 389 0068 C074     		se_lwz %r7,0(%r4)
 390 006a 7CE93A14 		add %r7,%r9,%r7
 391 006e D074     		se_stw %r7,0(%r4)
 392 0070 2A07     		se_cmpi %r7,0
 393 0072 7A02FFBC 		e_bne %cr0,.L50
 394              	.L48:
 395              		.loc 1 918 0
 396 0076 194AC777 		e_andi %r10,%r10,2013265919
 397              	.LVL29:
 398 007a 1947D308 		e_ori %r7,%r10,134217728
 399 007e 6907     		se_srwi %r7,16
GAS LISTING C:\Users\Vipuls\AppData\Local\Temp\ccDj9xAe.s 			page 8


 400 0080 5CE60034 		e_sth %r7,52(%r6)
 401              		.loc 1 919 0
 402 0084 C273     		se_lwz %r7,8(%r3)
 403 0086 A065     		se_lhz %r6,0(%r5)
 404 0088 5CC70036 		e_sth %r6,54(%r7)
 405              		.loc 1 920 0
 406 008c C273     		se_lwz %r7,8(%r3)
 407 008e A165     		se_lhz %r6,2(%r5)
 408 0090 5CC70036 		e_sth %r6,54(%r7)
 409              	.L47:
 410              		.loc 1 932 0
 411 0094 C463     		se_lwz %r6,16(%r3)
 412 0096 2A06     		se_cmpi %r6,0
 413 0098 7A120044 		e_beq %cr0,.L45
 414 009c C253     		se_lwz %r5,8(%r3)
 415              	.LVL30:
 416 009e 18C684FF 		e_addi %r6,%r6,-1
 417 00a2 CB75     		se_lwz %r7,44(%r5)
 418 00a4 2C00     		se_bmaski %r0,0
 419 00a6 74E7E73F 		e_rlwinm %r7,%r7,28,28,31
 420 00aa 2A07     		se_cmpi %r7,0
 421 00ac 7A020016 		e_bne %cr0,.L59
 422 00b0 7800002E 		e_b .L64
 423              	.LVL31:
 424              	.L65:
 425              		.loc 1 932 0 is_stmt 0 discriminator 1
 426 00b4 CB75     		se_lwz %r7,44(%r5)
 427 00b6 0406     		se_add %r6,%r0
 428 00b8 74E7E73F 		e_rlwinm %r7,%r7,28,28,31
 429 00bc 2A07     		se_cmpi %r7,0
 430 00be 7A12001E 		e_beq %cr0,.L45
 431              	.L59:
 432              		.loc 1 933 0 is_stmt 1
 433 00c2 C373     		se_lwz %r7,12(%r3)
 434 00c4 2A07     		se_cmpi %r7,0
 435 00c6 7A12000E 		e_beq %cr0,.L57
 436              		.loc 1 934 0
 437 00ca 18878004 		e_addi %r4,%r7,4
 438 00ce D343     		se_stw %r4,12(%r3)
 439 00d0 CE45     		se_lwz %r4,56(%r5)
 440 00d2 D047     		se_stw %r4,0(%r7)
 441              	.L57:
 442              		.loc 1 936 0
 443 00d4 D463     		se_stw %r6,16(%r3)
 444              		.loc 1 932 0
 445 00d6 2A06     		se_cmpi %r6,0
 446 00d8 7A02FFDC 		e_bne %cr0,.L65
 447              	.L45:
 448 00dc 0004     		se_blr
 449              	.LVL32:
 450              	.L64:
 451 00de 0004     		se_blr
 452              		.cfi_endproc
 453              	.LFE9:
 454              		.size	spi_dspi_prefill_txfifo32, .-spi_dspi_prefill_txfifo32
 455              		.section	.text.spi_start_tx8,"axv",@progbits
 456              		.align 1
GAS LISTING C:\Users\Vipuls\AppData\Local\Temp\ccDj9xAe.s 			page 9


 457              		.p2align 4,,15
 458              		.type	spi_start_tx8, @function
 459              	spi_start_tx8:
 460              	.LFB15:
 461              		.loc 1 1167 0
 462              		.cfi_startproc
 463              	.LVL33:
 464 0000 182106E8 		e_stwu %r1,-24(%r1)
 465              	.LCFI0:
 466              		.cfi_def_cfa_offset 24
 467 0004 0080     		se_mflr %r0
 468 0006 D5F1     		se_stw %r31,20(%r1)
 469 0008 D701     		se_stw %r0,28(%r1)
 470              		.cfi_offset 65, 4
 471              		.cfi_offset 31, -4
 472              		.loc 1 1167 0
 473 000a 013F     		se_mr %r31,%r3
 474              		.loc 1 1173 0
 475 000c C263     		se_lwz %r6,8(%r3)
 476              		.loc 1 1167 0
 477 000e D241     		se_stw %r4,8(%r1)
 478              		.loc 1 1173 0
 479 0010 C076     		se_lwz %r7,0(%r6)
 480              		.loc 1 1167 0
 481 0012 D351     		se_stw %r5,12(%r1)
 482              		.loc 1 1173 0
 483 0014 69F7     		se_srwi %r7,31
 484 0016 2207     		se_cmpli %r7,1
 485 0018 7A120036 		e_beq %cr0,.L69
 486              	.LVL34:
 487              	.L67:
 488              		.loc 1 1178 0
 489 001c 01F3     		se_mr %r3,%r31
 490              	.LVL35:
 491 001e 18818008 		e_addi %r4,%r1,8
 492              	.LVL36:
 493 0022 18A1800C 		e_addi %r5,%r1,12
 494 0026 78000001 		e_bl spi_dspi_prefill_txfifo8
 495              	.LVL37:
 496              		.loc 1 1182 0
 497 002a C271     		se_lwz %r7,8(%r1)
 498 002c 2A07     		se_cmpi %r7,0
 499 002e 7A120016 		e_beq %cr0,.L66
 500              		.loc 1 1188 0
 501 0032 D67F     		se_stw %r7,24(%r31)
 502              		.loc 1 1191 0
 503 0034 4815     		se_li %r5,1
 504              		.loc 1 1187 0
 505 0036 C371     		se_lwz %r7,12(%r1)
 506 0038 D57F     		se_stw %r7,20(%r31)
 507              		.loc 1 1191 0
 508 003a C27F     		se_lwz %r7,8(%r31)
 509 003c CC67     		se_lwz %r6,48(%r7)
 510 003e 74A6C98C 		e_rlwimi %r6,%r5,25,6,6
 511 0042 DC67     		se_stw %r6,48(%r7)
 512              	.L66:
 513              		.loc 1 1255 0
GAS LISTING C:\Users\Vipuls\AppData\Local\Temp\ccDj9xAe.s 			page 10


 514 0044 C701     		se_lwz %r0,28(%r1)
 515 0046 0090     		se_mtlr %r0
 516              		.cfi_remember_state
 517              		.cfi_restore 65
 518 0048 C5F1     		se_lwz %r31,20(%r1)
 519              	.LVL38:
 520 004a 2171     		se_addi %r1,24
 521              	.LCFI1:
 522              		.cfi_restore 31
 523              		.cfi_def_cfa_offset 0
 524 004c 0004     		se_blr
 525              	.LVL39:
 526              	.L69:
 527              	.LCFI2:
 528              		.cfi_restore_state
 529              		.loc 1 1174 0
 530 004e CC56     		se_lwz %r5,48(%r6)
 531              	.LVL40:
 532 0050 74E5E0C6 		e_rlwimi %r5,%r7,28,3,3
 533 0054 DC56     		se_stw %r5,48(%r6)
 534              	.LVL41:
 535 0056 79FFFFC6 		e_b .L67
 536              		.cfi_endproc
 537              	.LFE15:
 538              		.size	spi_start_tx8, .-spi_start_tx8
 539              		.section	.text.spi_start_tx16,"axv",@progbits
 540              		.align 1
 541              		.p2align 4,,15
 542              		.type	spi_start_tx16, @function
 543              	spi_start_tx16:
 544              	.LFB16:
 545              		.loc 1 1266 0
 546              		.cfi_startproc
 547              	.LVL42:
 548 0000 182106E8 		e_stwu %r1,-24(%r1)
 549              	.LCFI3:
 550              		.cfi_def_cfa_offset 24
 551 0004 0080     		se_mflr %r0
 552 0006 D5F1     		se_stw %r31,20(%r1)
 553 0008 D701     		se_stw %r0,28(%r1)
 554              		.cfi_offset 65, 4
 555              		.cfi_offset 31, -4
 556              		.loc 1 1266 0
 557 000a 013F     		se_mr %r31,%r3
 558              		.loc 1 1272 0
 559 000c C263     		se_lwz %r6,8(%r3)
 560              		.loc 1 1266 0
 561 000e D241     		se_stw %r4,8(%r1)
 562              		.loc 1 1272 0
 563 0010 C076     		se_lwz %r7,0(%r6)
 564              		.loc 1 1266 0
 565 0012 D351     		se_stw %r5,12(%r1)
 566              		.loc 1 1272 0
 567 0014 69F7     		se_srwi %r7,31
 568 0016 2207     		se_cmpli %r7,1
 569 0018 7A120036 		e_beq %cr0,.L73
 570              	.LVL43:
GAS LISTING C:\Users\Vipuls\AppData\Local\Temp\ccDj9xAe.s 			page 11


 571              	.L71:
 572              		.loc 1 1277 0
 573 001c 01F3     		se_mr %r3,%r31
 574              	.LVL44:
 575 001e 18818008 		e_addi %r4,%r1,8
 576              	.LVL45:
 577 0022 18A1800C 		e_addi %r5,%r1,12
 578 0026 78000001 		e_bl spi_dspi_prefill_txfifo16
 579              	.LVL46:
 580              		.loc 1 1281 0
 581 002a C271     		se_lwz %r7,8(%r1)
 582 002c 2A07     		se_cmpi %r7,0
 583 002e 7A120016 		e_beq %cr0,.L70
 584              		.loc 1 1287 0
 585 0032 D67F     		se_stw %r7,24(%r31)
 586              		.loc 1 1290 0
 587 0034 4815     		se_li %r5,1
 588              		.loc 1 1286 0
 589 0036 C371     		se_lwz %r7,12(%r1)
 590 0038 D57F     		se_stw %r7,20(%r31)
 591              		.loc 1 1290 0
 592 003a C27F     		se_lwz %r7,8(%r31)
 593 003c CC67     		se_lwz %r6,48(%r7)
 594 003e 74A6C98C 		e_rlwimi %r6,%r5,25,6,6
 595 0042 DC67     		se_stw %r6,48(%r7)
 596              	.L70:
 597              		.loc 1 1355 0
 598 0044 C701     		se_lwz %r0,28(%r1)
 599 0046 0090     		se_mtlr %r0
 600              		.cfi_remember_state
 601              		.cfi_restore 65
 602 0048 C5F1     		se_lwz %r31,20(%r1)
 603              	.LVL47:
 604 004a 2171     		se_addi %r1,24
 605              	.LCFI4:
 606              		.cfi_restore 31
 607              		.cfi_def_cfa_offset 0
 608 004c 0004     		se_blr
 609              	.LVL48:
 610              	.L73:
 611              	.LCFI5:
 612              		.cfi_restore_state
 613              		.loc 1 1273 0
 614 004e CC56     		se_lwz %r5,48(%r6)
 615              	.LVL49:
 616 0050 74E5E0C6 		e_rlwimi %r5,%r7,28,3,3
 617 0054 DC56     		se_stw %r5,48(%r6)
 618              	.LVL50:
 619 0056 79FFFFC6 		e_b .L71
 620              		.cfi_endproc
 621              	.LFE16:
 622              		.size	spi_start_tx16, .-spi_start_tx16
 623              		.section	.text.spi_start_tx32,"axv",@progbits
 624              		.align 1
 625              		.p2align 4,,15
 626              		.type	spi_start_tx32, @function
 627              	spi_start_tx32:
GAS LISTING C:\Users\Vipuls\AppData\Local\Temp\ccDj9xAe.s 			page 12


 628              	.LFB17:
 629              		.loc 1 1357 0
 630              		.cfi_startproc
 631              	.LVL51:
 632 0000 182106E8 		e_stwu %r1,-24(%r1)
 633              	.LCFI6:
 634              		.cfi_def_cfa_offset 24
 635 0004 0080     		se_mflr %r0
 636 0006 1BC10910 		e_stmw %r30,16(%r1)
 637 000a D701     		se_stw %r0,28(%r1)
 638              		.cfi_offset 65, 4
 639              		.cfi_offset 30, -8
 640              		.cfi_offset 31, -4
 641              		.loc 1 1357 0
 642 000c 013F     		se_mr %r31,%r3
 643              		.loc 1 1362 0
 644 000e C263     		se_lwz %r6,8(%r3)
 645              		.loc 1 1357 0
 646 0010 D241     		se_stw %r4,8(%r1)
 647              		.loc 1 1362 0
 648 0012 C076     		se_lwz %r7,0(%r6)
 649              		.loc 1 1357 0
 650 0014 015E     		se_mr %r30,%r5
 651              		.loc 1 1362 0
 652 0016 69F7     		se_srwi %r7,31
 653 0018 2207     		se_cmpli %r7,1
 654 001a 7A120034 		e_beq %cr0,.L77
 655              	.LVL52:
 656              	.L75:
 657              		.loc 1 1373 0
 658 001e 01F3     		se_mr %r3,%r31
 659              	.LVL53:
 660 0020 18818008 		e_addi %r4,%r1,8
 661              	.LVL54:
 662 0024 01E5     		se_mr %r5,%r30
 663 0026 78000001 		e_bl spi_dspi_prefill_txfifo32
 664              	.LVL55:
 665              		.loc 1 1377 0
 666 002a C271     		se_lwz %r7,8(%r1)
 667 002c 2A07     		se_cmpi %r7,0
 668 002e 7A120014 		e_beq %cr0,.L74
 669              		.loc 1 1383 0
 670 0032 D67F     		se_stw %r7,24(%r31)
 671              		.loc 1 1382 0
 672 0034 D5EF     		se_stw %r30,20(%r31)
 673              		.loc 1 1386 0
 674 0036 C27F     		se_lwz %r7,8(%r31)
 675 0038 4815     		se_li %r5,1
 676 003a CC67     		se_lwz %r6,48(%r7)
 677 003c 74A6C98C 		e_rlwimi %r6,%r5,25,6,6
 678 0040 DC67     		se_stw %r6,48(%r7)
 679              	.L74:
 680              		.loc 1 1442 0
 681 0042 C701     		se_lwz %r0,28(%r1)
 682 0044 0090     		se_mtlr %r0
 683              		.cfi_remember_state
 684              		.cfi_restore 65
GAS LISTING C:\Users\Vipuls\AppData\Local\Temp\ccDj9xAe.s 			page 13


 685 0046 1BC10810 		e_lmw %r30,16(%r1)
 686              	.LVL56:
 687 004a 2171     		se_addi %r1,24
 688              	.LCFI7:
 689              		.cfi_restore 31
 690              		.cfi_restore 30
 691              		.cfi_def_cfa_offset 0
 692 004c 0004     		se_blr
 693              	.LVL57:
 694              	.L77:
 695              	.LCFI8:
 696              		.cfi_restore_state
 697              		.loc 1 1363 0
 698 004e CC56     		se_lwz %r5,48(%r6)
 699              	.LVL58:
 700 0050 74E5E0C6 		e_rlwimi %r5,%r7,28,3,3
 701 0054 DC56     		se_stw %r5,48(%r6)
 702 0056 79FFFFC8 		e_b .L75
 703              		.cfi_endproc
 704              	.LFE17:
 705              		.size	spi_start_tx32, .-spi_start_tx32
 706              		.section	.text.vector263,"axv",@progbits
 707              		.align 1
 708              		.p2align 4,,15
 709              		.globl vector263
 710              		.type	vector263, @function
 711              	vector263:
 712              	.LFB21:
 713              		.loc 1 1708 0
 714              		.cfi_startproc
 715              	.LVL59:
 716 0000 182106F8 		e_stwu %r1,-8(%r1)
 717              	.LCFI9:
 718              		.cfi_def_cfa_offset 8
 719 0004 0080     		se_mflr %r0
 720              	.LBB52:
 721              	.LBB53:
 722              		.loc 1 1605 0
 723 0006 70A0E000 		e_lis %r5,.LANCHOR0@ha
 724              	.LBE53:
 725              	.LBE52:
 726              		.loc 1 1708 0
 727 000a D301     		se_stw %r0,12(%r1)
 728              		.cfi_offset 65, 4
 729              	.LBB61:
 730              	.LBB59:
 731              		.loc 1 1605 0
 732 000c 1CA50000 		e_la %r5,.LANCHOR0@l(%r5)
 733 0010 C475     		se_lwz %r7,16(%r5)
 734 0012 2A07     		se_cmpi %r7,0
 735 0014 7A120070 		e_beq %cr0,.L79
 736 0018 C265     		se_lwz %r6,8(%r5)
 737 001a CB76     		se_lwz %r7,44(%r6)
 738 001c 74E7E73F 		e_rlwinm %r7,%r7,28,28,31
 739 0020 2A07     		se_cmpi %r7,0
 740 0022 7A1200E8 		e_beq %cr0,.L80
 741              	.LBB54:
GAS LISTING C:\Users\Vipuls\AppData\Local\Temp\ccDj9xAe.s 			page 14


 742              		.loc 1 1616 0
 743 0026 2C00     		se_bmaski %r0,0
 744 0028 78000028 		e_b .L84
 745              	.LVL60:
 746              	.L98:
 747              		.loc 1 1611 0
 748 002c 18C78001 		e_addi %r6,%r7,1
 749 0030 D365     		se_stw %r6,12(%r5)
 750 0032 9037     		se_stb %r3,0(%r7)
 751              	.L81:
 752              		.loc 1 1616 0
 753 0034 C475     		se_lwz %r7,16(%r5)
 754 0036 7CE03A14 		add %r7,%r0,%r7
 755 003a D475     		se_stw %r7,16(%r5)
 756              	.LBE54:
 757              		.loc 1 1605 0
 758 003c 2A07     		se_cmpi %r7,0
 759 003e 7A120046 		e_beq %cr0,.L79
 760              	.L99:
 761 0042 C265     		se_lwz %r6,8(%r5)
 762 0044 CB76     		se_lwz %r7,44(%r6)
 763 0046 74E7E73F 		e_rlwinm %r7,%r7,28,28,31
 764 004a 2A07     		se_cmpi %r7,0
 765 004c 7A1200BE 		e_beq %cr0,.L80
 766              	.LVL61:
 767              	.L84:
 768              	.LBB55:
 769              		.loc 1 1607 0
 770 0050 C375     		se_lwz %r7,12(%r5)
 771              		.loc 1 1606 0
 772 0052 CE36     		se_lwz %r3,56(%r6)
 773              	.LVL62:
 774              		.loc 1 1607 0
 775 0054 2A07     		se_cmpi %r7,0
 776 0056 7A12FFDE 		e_beq %cr0,.L81
 777              		.loc 1 1608 0
 778 005a C046     		se_lwz %r4,0(%r6)
 779 005c 67C4     		se_btsti %r4,28
 780 005e 7A0200A0 		e_bne %cr0,.L97
 781              		.loc 1 1610 0
 782 0062 C366     		se_lwz %r6,12(%r6)
 783 0064 74C62F3F 		e_rlwinm %r6,%r6,5,28,31
 784 0068 2266     		se_cmpli %r6,7
 785 006a 7A01FFC2 		e_ble %cr0,.L98
 786              		.loc 1 1613 0
 787 006e 18C78002 		e_addi %r6,%r7,2
 788 0072 D365     		se_stw %r6,12(%r5)
 789 0074 B037     		se_sth %r3,0(%r7)
 790              		.loc 1 1616 0
 791 0076 C475     		se_lwz %r7,16(%r5)
 792 0078 7CE03A14 		add %r7,%r0,%r7
 793 007c D475     		se_stw %r7,16(%r5)
 794              	.LBE55:
 795              		.loc 1 1605 0
 796 007e 2A07     		se_cmpi %r7,0
 797 0080 7A02FFC2 		e_bne %cr0,.L99
 798              	.LVL63:
GAS LISTING C:\Users\Vipuls\AppData\Local\Temp\ccDj9xAe.s 			page 15


 799              	.L79:
 800              		.loc 1 1620 0
 801 0084 70A0E000 		e_lis %r5,.LANCHOR0@ha
 802 0088 1CE50000 		e_la %r7,.LANCHOR0@l(%r5)
 803 008c 50A50000 		e_lwz %r5,.LANCHOR0@l(%r5)
 804 0090 C267     		se_lwz %r6,8(%r7)
 805 0092 62E7     		se_bgeni %r7,14
 806 0094 DB76     		se_stw %r7,44(%r6)
 807              		.loc 1 1622 0
 808 0096 C076     		se_lwz %r7,0(%r6)
 809 0098 2A07     		se_cmpi %r7,0
 810 009a 7A100014 		e_blt %cr0,.L90
 811              		.loc 1 1627 0
 812 009e A675     		se_lhz %r7,12(%r5)
 813 00a0 C245     		se_lwz %r4,8(%r5)
 814 00a2 6C44     		se_slwi %r4, 4
 815 00a4 0447     		se_add %r7,%r4
 816 00a6 73C797FC 		e_add2is %r7,0xf7fc
 817 00aa 30E71500 		e_lbz %r7,5376(%r7)
 818              	.LVL64:
 819              	.L90:
 820              		.loc 1 1633 0
 821 00ae CC76     		se_lwz %r7,48(%r6)
 822 00b0 4804     		se_li %r4,0
 823 00b2 74878B9C 		e_rlwimi %r7,%r4,17,14,14
 824 00b6 DC76     		se_stw %r7,48(%r6)
 825              	.LVL65:
 826              	.LBB56:
 827              	.LBB57:
 828              		.loc 1 769 0
 829 00b8 C076     		se_lwz %r7,0(%r6)
 830 00ba 65F7     		se_bseti %r7,31
 831 00bc D076     		se_stw %r7,0(%r6)
 832              	.L86:
 833              		.loc 1 772 0
 834 00be CB76     		se_lwz %r7,44(%r6)
 835 00c0 6617     		se_btsti %r7,1
 836 00c2 7A02FFFC 		e_bne %cr0,.L86
 837 00c6 CB76     		se_lwz %r7,44(%r6)
 838 00c8 2A07     		se_cmpi %r7,0
 839 00ca 7A00FFF4 		e_bge %cr0,.L86
 840              		.loc 1 777 0
 841 00ce C076     		se_lwz %r7,0(%r6)
 842 00d0 18E7D10C 		e_ori %r7,%r7,3072
 843 00d4 D076     		se_stw %r7,0(%r6)
 844              	.LBE57:
 845              	.LBE56:
 846              		.loc 1 1639 0
 847 00d6 C175     		se_lwz %r7,4(%r5)
 848 00d8 2A07     		se_cmpi %r7,0
 849 00da 7A120010 		e_beq %cr0,.L88
 850              		.loc 1 1640 0
 851 00de 7060E000 		e_lis %r3,.LANCHOR0@ha
 852 00e2 00B7     		se_mtctr %r7
 853 00e4 1C630000 		e_la %r3,.LANCHOR0@l(%r3)
 854 00e8 0007     		se_bctrl
 855              	.LVL66:
GAS LISTING C:\Users\Vipuls\AppData\Local\Temp\ccDj9xAe.s 			page 16


 856              	.L88:
 857              		.loc 1 1643 0
 858 00ea 4806     		se_li %r6,0
 859 00ec 70E0E000 		e_lis %r7,.LANCHOR0@ha
 860 00f0 1CE70000 		e_la %r7,.LANCHOR0@l(%r7)
 861 00f4 9467     		se_stb %r6,4(%r7)
 862              	.LVL67:
 863              	.L78:
 864              	.LBE59:
 865              	.LBE61:
 866              		.loc 1 1715 0
 867 00f6 C301     		se_lwz %r0,12(%r1)
 868 00f8 0090     		se_mtlr %r0
 869              		.cfi_remember_state
 870              		.cfi_restore 65
 871 00fa 2071     		se_addi %r1,8
 872              	.LCFI10:
 873              		.cfi_def_cfa_offset 0
 874 00fc 0004     		se_blr
 875              	.LVL68:
 876              	.L97:
 877              	.LCFI11:
 878              		.cfi_restore_state
 879              	.LBB62:
 880              	.LBB60:
 881              	.LBB58:
 882              		.loc 1 1609 0
 883 00fe 18C78004 		e_addi %r6,%r7,4
 884 0102 D365     		se_stw %r6,12(%r5)
 885 0104 D037     		se_stw %r3,0(%r7)
 886 0106 79FFFF2E 		e_b .L81
 887              	.LVL69:
 888              	.L80:
 889              	.LBE58:
 890              		.loc 1 1620 0
 891 010a 62E7     		se_bgeni %r7,14
 892 010c DB76     		se_stw %r7,44(%r6)
 893              		.loc 1 1622 0
 894 010e C076     		se_lwz %r7,0(%r6)
 895 0110 2A07     		se_cmpi %r7,0
 896 0112 7A10FFE4 		e_blt %cr0,.L78
 897              		.loc 1 1627 0
 898 0116 70E0E000 		e_lis %r7,.LANCHOR0@ha
 899 011a 50A70000 		e_lwz %r5,.LANCHOR0@l(%r7)
 900 011e A675     		se_lhz %r7,12(%r5)
 901 0120 C245     		se_lwz %r4,8(%r5)
 902 0122 6C44     		se_slwi %r4, 4
 903 0124 0447     		se_add %r7,%r4
 904 0126 73C797FC 		e_add2is %r7,0xf7fc
 905 012a 30E71500 		e_lbz %r7,5376(%r7)
 906              	.LVL70:
 907              		.loc 1 1630 0
 908 012e 2A07     		se_cmpi %r7,0
 909 0130 7A02FF7E 		e_bne %cr0,.L90
 910              	.LBE60:
 911              	.LBE62:
 912              		.loc 1 1715 0
GAS LISTING C:\Users\Vipuls\AppData\Local\Temp\ccDj9xAe.s 			page 17


 913 0134 C301     		se_lwz %r0,12(%r1)
 914 0136 0090     		se_mtlr %r0
 915              		.cfi_restore 65
 916 0138 2071     		se_addi %r1,8
 917              	.LCFI12:
 918              		.cfi_def_cfa_offset 0
 919 013a 0004     		se_blr
 920              		.cfi_endproc
 921              	.LFE21:
 922              		.size	vector263, .-vector263
 923              		.section	.text.vector260,"axv",@progbits
 924              		.align 1
 925              		.p2align 4,,15
 926              		.globl vector260
 927              		.type	vector260, @function
 928              	vector260:
 929              	.LFB22:
 930              		.loc 1 1725 0
 931              		.cfi_startproc
 932              	.LVL71:
 933 0000 182106F8 		e_stwu %r1,-8(%r1)
 934              	.LCFI13:
 935              		.cfi_def_cfa_offset 8
 936 0004 0080     		se_mflr %r0
 937              	.LBB68:
 938              	.LBB69:
 939              		.loc 1 1558 0
 940 0006 70C0E000 		e_lis %r6,.LANCHOR0@ha
 941              	.LBE69:
 942              	.LBE68:
 943              		.loc 1 1725 0
 944 000a D301     		se_stw %r0,12(%r1)
 945              		.cfi_offset 65, 4
 946              	.LBB81:
 947              	.LBB79:
 948              		.loc 1 1558 0
 949 000c 1CC60000 		e_la %r6,.LANCHOR0@l(%r6)
 950 0010 C476     		se_lwz %r7,16(%r6)
 951 0012 2A07     		se_cmpi %r7,0
 952 0014 7A120070 		e_beq %cr0,.L101
 953 0018 C256     		se_lwz %r5,8(%r6)
 954 001a CB75     		se_lwz %r7,44(%r5)
 955 001c 74E7E73F 		e_rlwinm %r7,%r7,28,28,31
 956 0020 2A07     		se_cmpi %r7,0
 957 0022 7A1200CE 		e_beq %cr0,.L102
 958              	.LBB70:
 959              		.loc 1 1569 0
 960 0026 2C00     		se_bmaski %r0,0
 961 0028 78000028 		e_b .L106
 962              	.LVL72:
 963              	.L115:
 964              		.loc 1 1564 0
 965 002c 18A78001 		e_addi %r5,%r7,1
 966 0030 D356     		se_stw %r5,12(%r6)
 967 0032 9037     		se_stb %r3,0(%r7)
 968              	.L103:
 969              		.loc 1 1569 0
GAS LISTING C:\Users\Vipuls\AppData\Local\Temp\ccDj9xAe.s 			page 18


 970 0034 C476     		se_lwz %r7,16(%r6)
 971 0036 7CE03A14 		add %r7,%r0,%r7
 972 003a D476     		se_stw %r7,16(%r6)
 973              	.LBE70:
 974              		.loc 1 1558 0
 975 003c 2A07     		se_cmpi %r7,0
 976 003e 7A120046 		e_beq %cr0,.L101
 977              	.L116:
 978 0042 C256     		se_lwz %r5,8(%r6)
 979 0044 CB75     		se_lwz %r7,44(%r5)
 980 0046 74E7E73F 		e_rlwinm %r7,%r7,28,28,31
 981 004a 2A07     		se_cmpi %r7,0
 982 004c 7A1200A4 		e_beq %cr0,.L102
 983              	.LVL73:
 984              	.L106:
 985              	.LBB71:
 986              		.loc 1 1560 0
 987 0050 C376     		se_lwz %r7,12(%r6)
 988              		.loc 1 1559 0
 989 0052 CE35     		se_lwz %r3,56(%r5)
 990              	.LVL74:
 991              		.loc 1 1560 0
 992 0054 2A07     		se_cmpi %r7,0
 993 0056 7A12FFDE 		e_beq %cr0,.L103
 994              		.loc 1 1561 0
 995 005a C045     		se_lwz %r4,0(%r5)
 996 005c 67C4     		se_btsti %r4,28
 997 005e 7A020086 		e_bne %cr0,.L114
 998              		.loc 1 1563 0
 999 0062 C355     		se_lwz %r5,12(%r5)
 1000 0064 74A52F3F 		e_rlwinm %r5,%r5,5,28,31
 1001 0068 2265     		se_cmpli %r5,7
 1002 006a 7A01FFC2 		e_ble %cr0,.L115
 1003              		.loc 1 1566 0
 1004 006e 18A78002 		e_addi %r5,%r7,2
 1005 0072 D356     		se_stw %r5,12(%r6)
 1006 0074 B037     		se_sth %r3,0(%r7)
 1007              		.loc 1 1569 0
 1008 0076 C476     		se_lwz %r7,16(%r6)
 1009 0078 7CE03A14 		add %r7,%r0,%r7
 1010 007c D476     		se_stw %r7,16(%r6)
 1011              	.LBE71:
 1012              		.loc 1 1558 0
 1013 007e 2A07     		se_cmpi %r7,0
 1014 0080 7A02FFC2 		e_bne %cr0,.L116
 1015              	.LVL75:
 1016              	.L101:
 1017              		.loc 1 1573 0
 1018 0084 70E0E000 		e_lis %r7,.LANCHOR0+8@ha
 1019 0088 4805     		se_li %r5,0
 1020 008a 50C70000 		e_lwz %r6,.LANCHOR0+8@l(%r7)
 1021 008e CC76     		se_lwz %r7,48(%r6)
 1022 0090 74A7E0C6 		e_rlwimi %r7,%r5,28,3,3
 1023 0094 DC76     		se_stw %r7,48(%r6)
 1024              		.loc 1 1575 0
 1025 0096 6237     		se_bgeni %r7,3
 1026 0098 DB76     		se_stw %r7,44(%r6)
GAS LISTING C:\Users\Vipuls\AppData\Local\Temp\ccDj9xAe.s 			page 19


 1027              	.LVL76:
 1028              	.LBB72:
 1029              	.LBB73:
 1030              		.loc 1 769 0
 1031 009a C076     		se_lwz %r7,0(%r6)
 1032 009c 65F7     		se_bseti %r7,31
 1033 009e D076     		se_stw %r7,0(%r6)
 1034              	.L107:
 1035              		.loc 1 772 0
 1036 00a0 CB76     		se_lwz %r7,44(%r6)
 1037 00a2 6617     		se_btsti %r7,1
 1038 00a4 7A02FFFC 		e_bne %cr0,.L107
 1039 00a8 CB76     		se_lwz %r7,44(%r6)
 1040 00aa 2A07     		se_cmpi %r7,0
 1041 00ac 7A00FFF4 		e_bge %cr0,.L107
 1042              		.loc 1 777 0
 1043 00b0 C076     		se_lwz %r7,0(%r6)
 1044              	.LBE73:
 1045              	.LBE72:
 1046              		.loc 1 1583 0
 1047 00b2 70A0E000 		e_lis %r5,.LANCHOR0@ha
 1048              	.LBB76:
 1049              	.LBB74:
 1050              		.loc 1 777 0
 1051 00b6 18E7D10C 		e_ori %r7,%r7,3072
 1052              	.LBE74:
 1053              	.LBE76:
 1054              		.loc 1 1583 0
 1055 00ba 1C650000 		e_la %r3,.LANCHOR0@l(%r5)
 1056              	.LBB77:
 1057              	.LBB75:
 1058              		.loc 1 777 0
 1059 00be D076     		se_stw %r7,0(%r6)
 1060              	.LBE75:
 1061              	.LBE77:
 1062              		.loc 1 1583 0
 1063 00c0 50E50000 		e_lwz %r7,.LANCHOR0@l(%r5)
 1064 00c4 C177     		se_lwz %r7,4(%r7)
 1065 00c6 2A07     		se_cmpi %r7,0
 1066 00c8 7A120008 		e_beq %cr0,.L109
 1067              		.loc 1 1584 0
 1068 00cc 00B7     		se_mtctr %r7
 1069 00ce 0007     		se_bctrl
 1070              	.LVL77:
 1071              	.L109:
 1072              		.loc 1 1587 0
 1073 00d0 4806     		se_li %r6,0
 1074 00d2 70E0E000 		e_lis %r7,.LANCHOR0@ha
 1075 00d6 1CE70000 		e_la %r7,.LANCHOR0@l(%r7)
 1076 00da 9467     		se_stb %r6,4(%r7)
 1077              	.LBE79:
 1078              	.LBE81:
 1079              		.loc 1 1732 0
 1080 00dc C301     		se_lwz %r0,12(%r1)
 1081 00de 0090     		se_mtlr %r0
 1082              		.cfi_remember_state
 1083              		.cfi_restore 65
GAS LISTING C:\Users\Vipuls\AppData\Local\Temp\ccDj9xAe.s 			page 20


 1084 00e0 2071     		se_addi %r1,8
 1085              	.LCFI14:
 1086              		.cfi_def_cfa_offset 0
 1087 00e2 0004     		se_blr
 1088              	.LVL78:
 1089              	.L114:
 1090              	.LCFI15:
 1091              		.cfi_restore_state
 1092              	.LBB82:
 1093              	.LBB80:
 1094              	.LBB78:
 1095              		.loc 1 1562 0
 1096 00e4 18A78004 		e_addi %r5,%r7,4
 1097 00e8 D356     		se_stw %r5,12(%r6)
 1098 00ea D037     		se_stw %r3,0(%r7)
 1099 00ec 79FFFF48 		e_b .L103
 1100              	.LVL79:
 1101              	.L102:
 1102              	.LBE78:
 1103              		.loc 1 1573 0
 1104 00f0 CC75     		se_lwz %r7,48(%r5)
 1105 00f2 4806     		se_li %r6,0
 1106 00f4 74C7E0C6 		e_rlwimi %r7,%r6,28,3,3
 1107 00f8 DC75     		se_stw %r7,48(%r5)
 1108              		.loc 1 1575 0
 1109 00fa 6237     		se_bgeni %r7,3
 1110 00fc DB75     		se_stw %r7,44(%r5)
 1111              	.LBE80:
 1112              	.LBE82:
 1113              		.loc 1 1732 0
 1114 00fe C301     		se_lwz %r0,12(%r1)
 1115 0100 0090     		se_mtlr %r0
 1116              		.cfi_restore 65
 1117 0102 2071     		se_addi %r1,8
 1118              	.LCFI16:
 1119              		.cfi_def_cfa_offset 0
 1120 0104 0004     		se_blr
 1121              		.cfi_endproc
 1122              	.LFE22:
 1123              		.size	vector260, .-vector260
 1124              		.section	.text.vector261,"axv",@progbits
 1125              		.align 1
 1126              		.p2align 4,,15
 1127              		.globl vector261
 1128              		.type	vector261, @function
 1129              	vector261:
 1130              	.LFB23:
 1131              		.loc 1 2070 0
 1132              		.cfi_startproc
 1133              	.LVL80:
 1134 0000 182106F0 		e_stwu %r1,-16(%r1)
 1135              	.LCFI17:
 1136              		.cfi_def_cfa_offset 16
 1137 0004 0080     		se_mflr %r0
 1138 0006 D3F1     		se_stw %r31,12(%r1)
 1139 0008 D501     		se_stw %r0,20(%r1)
 1140              		.cfi_offset 65, 4
GAS LISTING C:\Users\Vipuls\AppData\Local\Temp\ccDj9xAe.s 			page 21


 1141              		.cfi_offset 31, -4
 1142              	.LBB85:
 1143              	.LBB86:
 1144              		.loc 1 1658 0
 1145 000a 73E0E000 		e_lis %r31,.LANCHOR0@ha
 1146 000e 1FFF0000 		e_la %r31,.LANCHOR0@l(%r31)
 1147 0012 C67F     		se_lwz %r7,24(%r31)
 1148 0014 2A07     		se_cmpi %r7,0
 1149 0016 7A12004E 		e_beq %cr0,.L118
 1150              		.loc 1 1660 0
 1151 001a C55F     		se_lwz %r5,20(%r31)
 1152 001c 2A05     		se_cmpi %r5,0
 1153 001e 7A12007A 		e_beq %cr0,.L126
 1154              		.loc 1 1663 0
 1155 0022 C26F     		se_lwz %r6,8(%r31)
 1156 0024 C076     		se_lwz %r7,0(%r6)
 1157 0026 67C7     		se_btsti %r7,28
 1158 0028 7A020060 		e_bne %cr0,.L127
 1159              		.loc 1 1666 0
 1160 002c C376     		se_lwz %r7,12(%r6)
 1161              		.loc 1 1667 0
 1162 002e 01F3     		se_mr %r3,%r31
 1163              		.loc 1 1666 0
 1164 0030 74E72F3F 		e_rlwinm %r7,%r7,5,28,31
 1165              		.loc 1 1667 0
 1166 0034 189F8018 		e_addi %r4,%r31,24
 1167 0038 18BF8014 		e_addi %r5,%r31,20
 1168              		.loc 1 1666 0
 1169 003c 2267     		se_cmpli %r7,7
 1170 003e 7A110040 		e_bgt %cr0,.L122
 1171              		.loc 1 1667 0
 1172 0042 78000001 		e_bl spi_dspi_prefill_txfifo8
 1173              	.LVL81:
 1174 0046 C66F     		se_lwz %r6,24(%r31)
 1175              	.L120:
 1176              		.loc 1 1675 0
 1177 0048 70E0E000 		e_lis %r7,.LANCHOR0+8@ha
 1178              		.loc 1 1678 0
 1179 004c 2A06     		se_cmpi %r6,0
 1180              		.loc 1 1675 0
 1181 004e 50E70000 		e_lwz %r7,.LANCHOR0+8@l(%r7)
 1182 0052 6266     		se_bgeni %r6,6
 1183 0054 DB67     		se_stw %r6,44(%r7)
 1184              		.loc 1 1678 0
 1185 0056 7A120014 		e_beq %cr0,.L124
 1186              	.LBE86:
 1187              	.LBE85:
 1188              		.loc 1 2077 0
 1189 005a C501     		se_lwz %r0,20(%r1)
 1190 005c 0090     		se_mtlr %r0
 1191              		.cfi_remember_state
 1192              		.cfi_restore 65
 1193 005e C3F1     		se_lwz %r31,12(%r1)
 1194 0060 20F1     		se_addi %r1,16
 1195              	.LCFI18:
 1196              		.cfi_restore 31
 1197              		.cfi_def_cfa_offset 0
GAS LISTING C:\Users\Vipuls\AppData\Local\Temp\ccDj9xAe.s 			page 22


 1198 0062 0004     		se_blr
 1199              	.L118:
 1200              	.LCFI19:
 1201              		.cfi_restore_state
 1202              	.LBB89:
 1203              	.LBB87:
 1204              		.loc 1 1675 0
 1205 0064 C27F     		se_lwz %r7,8(%r31)
 1206 0066 6266     		se_bgeni %r6,6
 1207 0068 DB67     		se_stw %r6,44(%r7)
 1208              	.L124:
 1209              		.loc 1 1679 0
 1210 006a CC67     		se_lwz %r6,48(%r7)
 1211 006c 4805     		se_li %r5,0
 1212 006e 74A6C98C 		e_rlwimi %r6,%r5,25,6,6
 1213 0072 DC67     		se_stw %r6,48(%r7)
 1214              	.LBE87:
 1215              	.LBE89:
 1216              		.loc 1 2077 0
 1217 0074 C501     		se_lwz %r0,20(%r1)
 1218 0076 0090     		se_mtlr %r0
 1219              		.cfi_remember_state
 1220              		.cfi_restore 65
 1221 0078 C3F1     		se_lwz %r31,12(%r1)
 1222 007a 20F1     		se_addi %r1,16
 1223              	.LCFI20:
 1224              		.cfi_restore 31
 1225              		.cfi_def_cfa_offset 0
 1226 007c 0004     		se_blr
 1227              	.L122:
 1228              	.LCFI21:
 1229              		.cfi_restore_state
 1230              	.LBB90:
 1231              	.LBB88:
 1232              		.loc 1 1669 0
 1233 007e 78000001 		e_bl spi_dspi_prefill_txfifo16
 1234              	.LVL82:
 1235 0082 C66F     		se_lwz %r6,24(%r31)
 1236 0084 79FFFFC4 		e_b .L120
 1237              	.L127:
 1238              		.loc 1 1664 0
 1239 0088 01F3     		se_mr %r3,%r31
 1240 008a 189F8018 		e_addi %r4,%r31,24
 1241 008e 78000001 		e_bl spi_dspi_prefill_txfifo32
 1242              	.LVL83:
 1243 0092 C66F     		se_lwz %r6,24(%r31)
 1244 0094 79FFFFB4 		e_b .L120
 1245              	.L126:
 1246              		.loc 1 1661 0
 1247 0098 01F3     		se_mr %r3,%r31
 1248 009a 189F8018 		e_addi %r4,%r31,24
 1249 009e 78000001 		e_bl spi_dspi_prefill_txfifo_idle
 1250              	.LVL84:
 1251 00a2 C66F     		se_lwz %r6,24(%r31)
 1252 00a4 79FFFFA4 		e_b .L120
 1253              	.LBE88:
 1254              	.LBE90:
GAS LISTING C:\Users\Vipuls\AppData\Local\Temp\ccDj9xAe.s 			page 23


 1255              		.cfi_endproc
 1256              	.LFE23:
 1257              		.size	vector261, .-vector261
 1258              		.section	.text.spi_lld_init,"axv",@progbits
 1259              		.align 1
 1260              		.p2align 4,,15
 1261              		.globl spi_lld_init
 1262              		.type	spi_lld_init, @function
 1263              	spi_lld_init:
 1264              	.LFB24:
 1265              		.loc 1 2260 0
 1266              		.cfi_startproc
 1267              		.loc 1 2267 0
 1268 0000 70E4000A 		e_li %r7,8202
 1269              		.loc 1 2264 0
 1270 0004 70C0E000 		e_lis %r6,.LANCHOR0@ha
 1271 0008 4804     		se_li %r4,0
 1272 000a 1CA60000 		e_la %r5,.LANCHOR0@l(%r6)
 1273 000e 54860000 		e_stw %r4,.LANCHOR0@l(%r6)
 1274              	.LVL85:
 1275              		.loc 1 2267 0
 1276 0012 70DEE404 		e_lis %r6,0xf404
 1277 0016 70C8C26E 		e_or2i %r6,17006
 1278 001a B076     		se_sth %r7,0(%r6)
 1279              		.loc 1 2268 0
 1280 001c 5CE6FFFC 		e_sth %r7,-4(%r6)
 1281              	.LBB91:
 1282              	.LBB92:
 1283              		.loc 1 736 0
 1284 0020 70DEE7E7 		e_lis %r6,0xf7e7
 1285 0024 D265     		se_stw %r6,8(%r5)
 1286              	.LBE92:
 1287              	.LBE91:
 1288              		.loc 1 2269 0
 1289 0026 70DEE404 		e_lis %r6,0xf404
 1290 002a 70C8C268 		e_or2i %r6,17000
 1291 002e B076     		se_sth %r7,0(%r6)
 1292 0030 0004     		se_blr
 1293              		.cfi_endproc
 1294              	.LFE24:
 1295              		.size	spi_lld_init, .-spi_lld_init
 1296              		.section	.text.spi_lld_start,"axv",@progbits
 1297              		.align 1
 1298              		.p2align 4,,15
 1299              		.globl spi_lld_start
 1300              		.type	spi_lld_start, @function
 1301              	spi_lld_start:
 1302              	.LFB25:
 1303              		.loc 1 2401 0
 1304              		.cfi_startproc
 1305              	.LVL86:
 1306 0000 182106F0 		e_stwu %r1,-16(%r1)
 1307              	.LCFI22:
 1308              		.cfi_def_cfa_offset 16
 1309 0004 0080     		se_mflr %r0
 1310 0006 D3F1     		se_stw %r31,12(%r1)
 1311 0008 D501     		se_stw %r0,20(%r1)
GAS LISTING C:\Users\Vipuls\AppData\Local\Temp\ccDj9xAe.s 			page 24


 1312              		.cfi_offset 65, 4
 1313              		.cfi_offset 31, -4
 1314              		.loc 1 2407 0
 1315 000a 70E0E000 		e_lis %r7,.LANCHOR0@ha
 1316              		.loc 1 2401 0
 1317 000e 013F     		se_mr %r31,%r3
 1318              		.loc 1 2407 0
 1319 0010 1CE70000 		e_la %r7,.LANCHOR0@l(%r7)
 1320              		.loc 1 2403 0
 1321 0014 D043     		se_stw %r4,0(%r3)
 1322              		.loc 1 2407 0
 1323 0016 0C73     		se_cmp %r3,%r7
 1324 0018 7A12007A 		e_beq %cr0,.L135
 1325              	.LVL87:
 1326              	.L130:
 1327              		.loc 1 2517 0
 1328 001c C074     		se_lwz %r7,0(%r4)
 1329 001e 2A07     		se_cmpi %r7,0
 1330              		.loc 1 2518 0
 1331 0020 C27F     		se_lwz %r7,8(%r31)
 1332 0022 C067     		se_lwz %r6,0(%r7)
 1333              		.loc 1 2517 0
 1334 0024 7A020062 		e_bne %cr0,.L131
 1335              		.loc 1 2518 0
 1336 0028 4815     		se_li %r5,1
 1337 002a 74A6F800 		e_rlwimi %r6,%r5,31,0,0
 1338 002e D067     		se_stw %r6,0(%r7)
 1339              	.L132:
 1340              		.loc 1 2525 0
 1341 0030 C27F     		se_lwz %r7,8(%r31)
 1342 0032 4805     		se_li %r5,0
 1343 0034 C067     		se_lwz %r6,0(%r7)
 1344 0036 74A67462 		e_rlwimi %r6,%r5,14,17,17
 1345 003a D067     		se_stw %r6,0(%r7)
 1346              		.loc 1 2526 0
 1347 003c C06F     		se_lwz %r6,0(%r31)
 1348 003e C27F     		se_lwz %r7,8(%r31)
 1349 0040 C466     		se_lwz %r6,16(%r6)
 1350 0042 D367     		se_stw %r6,12(%r7)
 1351              		.loc 1 2527 0
 1352 0044 C07F     		se_lwz %r7,0(%r31)
 1353 0046 C677     		se_lwz %r7,24(%r7)
 1354 0048 2A07     		se_cmpi %r7,0
 1355 004a 7A12002C 		e_beq %cr0,.L133
 1356              		.loc 1 2528 0
 1357 004e C26F     		se_lwz %r6,8(%r31)
 1358 0050 4817     		se_li %r7,1
 1359 0052 C056     		se_lwz %r5,0(%r6)
 1360 0054 74E51F38 		e_rlwimi %r5,%r7,3,28,28
 1361 0058 D056     		se_stw %r5,0(%r6)
 1362              		.loc 1 2529 0
 1363 005a C26F     		se_lwz %r6,8(%r31)
 1364 005c 50A6011C 		e_lwz %r5,284(%r6)
 1365 0060 74E5057E 		e_rlwimi %r5,%r7,0,21,31
 1366 0064 54A6011C 		e_stw %r5,284(%r6)
 1367              		.loc 1 2530 0
 1368 0068 C26F     		se_lwz %r6,8(%r31)
GAS LISTING C:\Users\Vipuls\AppData\Local\Temp\ccDj9xAe.s 			page 25


 1369 006a 50A6011C 		e_lwz %r5,284(%r6)
 1370 006e 74E583DE 		e_rlwimi %r5,%r7,16,15,15
 1371 0072 54A6011C 		e_stw %r5,284(%r6)
 1372              	.L133:
 1373              		.loc 1 2540 0
 1374 0076 C27F     		se_lwz %r7,8(%r31)
 1375 0078 2C06     		se_bmaski %r6,0
 1376 007a DB67     		se_stw %r6,44(%r7)
 1377              		.loc 1 2541 0
 1378 007c C501     		se_lwz %r0,20(%r1)
 1379 007e 0090     		se_mtlr %r0
 1380              		.cfi_remember_state
 1381              		.cfi_restore 65
 1382 0080 C3F1     		se_lwz %r31,12(%r1)
 1383              	.LVL88:
 1384 0082 20F1     		se_addi %r1,16
 1385              	.LCFI23:
 1386              		.cfi_restore 31
 1387              		.cfi_def_cfa_offset 0
 1388 0084 0004     		se_blr
 1389              	.LVL89:
 1390              	.L131:
 1391              	.LCFI24:
 1392              		.cfi_restore_state
 1393              		.loc 1 2520 0
 1394 0086 4805     		se_li %r5,0
 1395 0088 74A6F800 		e_rlwimi %r6,%r5,31,0,0
 1396 008c D067     		se_stw %r6,0(%r7)
 1397 008e 79FFFFA2 		e_b .L132
 1398              	.LVL90:
 1399              	.L135:
 1400              		.loc 1 2408 0
 1401 0092 4914     		se_li %r4,17
 1402              	.LVL91:
 1403 0094 4E33     		se_li %r3,99
 1404              	.LVL92:
 1405 0096 78000001 		e_bl SPCSetPeripheralClockMode
 1406              	.LVL93:
 1407              		.loc 1 2409 0
 1408 009a 70C0E0FF 		e_lis %r6,0xff
 1409 009e 70FEE7E7 		e_lis %r7,0xf7e7
 1410 00a2 70C8C001 		e_or2i %r6,16385
 1411 00a6 D067     		se_stw %r6,0(%r7)
 1412 00a8 C04F     		se_lwz %r4,0(%r31)
 1413 00aa 79FFFF72 		e_b .L130
 1414              		.cfi_endproc
 1415              	.LFE25:
 1416              		.size	spi_lld_start, .-spi_lld_start
 1417              		.section	.text.spi_lld_stop,"axv",@progbits
 1418              		.align 1
 1419              		.p2align 4,,15
 1420              		.globl spi_lld_stop
 1421              		.type	spi_lld_stop, @function
 1422              	spi_lld_stop:
 1423              	.LFB26:
 1424              		.loc 1 2550 0
 1425              		.cfi_startproc
GAS LISTING C:\Users\Vipuls\AppData\Local\Temp\ccDj9xAe.s 			page 26


 1426              	.LVL94:
 1427              		.loc 1 2634 0
 1428 0000 C263     		se_lwz %r6,8(%r3)
 1429 0002 4807     		se_li %r7,0
 1430              		.loc 1 2639 0
 1431 0004 4815     		se_li %r5,1
 1432              		.loc 1 2634 0
 1433 0006 D376     		se_stw %r7,12(%r6)
 1434              		.loc 1 2635 0
 1435 0008 C263     		se_lwz %r6,8(%r3)
 1436 000a DC76     		se_stw %r7,48(%r6)
 1437              		.loc 1 2642 0
 1438 000c 70E0E000 		e_lis %r7,.LANCHOR0@ha
 1439              		.loc 1 2636 0
 1440 0010 C263     		se_lwz %r6,8(%r3)
 1441              		.loc 1 2642 0
 1442 0012 1CE70000 		e_la %r7,.LANCHOR0@l(%r7)
 1443 0016 0C73     		se_cmp %r3,%r7
 1444              		.loc 1 2636 0
 1445 0018 2C07     		se_bmaski %r7,0
 1446 001a DB76     		se_stw %r7,44(%r6)
 1447              		.loc 1 2637 0
 1448 001c C263     		se_lwz %r6,8(%r3)
 1449 001e C076     		se_lwz %r7,0(%r6)
 1450 0020 70E1C401 		e_or2i %r7,3073
 1451 0024 D076     		se_stw %r7,0(%r6)
 1452              		.loc 1 2639 0
 1453 0026 C273     		se_lwz %r7,8(%r3)
 1454 0028 C067     		se_lwz %r6,0(%r7)
 1455 002a 74A67462 		e_rlwimi %r6,%r5,14,17,17
 1456 002e D067     		se_stw %r6,0(%r7)
 1457              		.loc 1 2642 0
 1458 0030 7A120006 		e_beq %cr0,.L138
 1459 0034 0004     		se_blr
 1460              	.L138:
 1461              		.loc 1 2642 0 is_stmt 0 discriminator 1
 1462 0036 4E33     		se_li %r3,99
 1463              	.LVL95:
 1464 0038 4804     		se_li %r4,0
 1465              		.loc 1 2668 0 is_stmt 1 discriminator 1
 1466              		.loc 1 2642 0 discriminator 1
 1467 003a 78000000 		e_b SPCSetPeripheralClockMode
 1468              	.LVL96:
 1469              		.cfi_endproc
 1470              	.LFE26:
 1471              		.size	spi_lld_stop, .-spi_lld_stop
 1472              		.section	.text.spi_lld_select,"axv",@progbits
 1473              		.align 1
 1474              		.p2align 4,,15
 1475              		.globl spi_lld_select
 1476              		.type	spi_lld_select, @function
 1477              	spi_lld_select:
 1478              	.LFB27:
 1479              		.loc 1 2677 0
 1480              		.cfi_startproc
 1481              	.LVL97:
 1482              		.loc 1 2679 0
GAS LISTING C:\Users\Vipuls\AppData\Local\Temp\ccDj9xAe.s 			page 27


 1483 0000 C073     		se_lwz %r7,0(%r3)
 1484 0002 A667     		se_lhz %r6,12(%r7)
 1485 0004 C277     		se_lwz %r7,8(%r7)
 1486 0006 6C47     		se_slwi %r7, 4
 1487 0008 7CE63A14 		add %r7,%r6,%r7
 1488 000c 4806     		se_li %r6,0
 1489 000e 73C797FC 		e_add2is %r7,0xf7fc
 1490 0012 34C71300 		e_stb %r6,4864(%r7)
 1491 0016 0004     		se_blr
 1492              		.cfi_endproc
 1493              	.LFE27:
 1494              		.size	spi_lld_select, .-spi_lld_select
 1495              		.section	.text.spi_lld_unselect,"axv",@progbits
 1496              		.align 1
 1497              		.p2align 4,,15
 1498              		.globl spi_lld_unselect
 1499              		.type	spi_lld_unselect, @function
 1500              	spi_lld_unselect:
 1501              	.LFB28:
 1502              		.loc 1 2690 0
 1503              		.cfi_startproc
 1504              	.LVL98:
 1505              		.loc 1 2692 0
 1506 0000 C073     		se_lwz %r7,0(%r3)
 1507 0002 A667     		se_lhz %r6,12(%r7)
 1508 0004 C277     		se_lwz %r7,8(%r7)
 1509 0006 6C47     		se_slwi %r7, 4
 1510 0008 7CE63A14 		add %r7,%r6,%r7
 1511 000c 4816     		se_li %r6,1
 1512 000e 73C797FC 		e_add2is %r7,0xf7fc
 1513 0012 34C71300 		e_stb %r6,4864(%r7)
 1514 0016 0004     		se_blr
 1515              		.cfi_endproc
 1516              	.LFE28:
 1517              		.size	spi_lld_unselect, .-spi_lld_unselect
 1518              		.section	.text.spi_lld_ignore,"axv",@progbits
 1519              		.align 1
 1520              		.p2align 4,,15
 1521              		.globl spi_lld_ignore
 1522              		.type	spi_lld_ignore, @function
 1523              	spi_lld_ignore:
 1524              	.LFB29:
 1525              		.loc 1 2706 0
 1526              		.cfi_startproc
 1527              	.LVL99:
 1528 0000 182106D8 		e_stwu %r1,-40(%r1)
 1529              	.LCFI25:
 1530              		.cfi_def_cfa_offset 40
 1531              	.LBB99:
 1532              	.LBB100:
 1533              		.loc 1 755 0
 1534 0004 C263     		se_lwz %r6,8(%r3)
 1535              	.LBE100:
 1536              	.LBE99:
 1537              		.loc 1 2706 0
 1538 0006 1BA1091C 		e_stmw %r29,28(%r1)
 1539 000a 0117     		se_mr %r7,%r1
GAS LISTING C:\Users\Vipuls\AppData\Local\Temp\ccDj9xAe.s 			page 28


 1540 000c 0080     		se_mflr %r0
 1541              		.cfi_offset 29, -12
 1542              		.cfi_offset 30, -8
 1543              		.cfi_offset 31, -4
 1544              		.cfi_register 65, 0
 1545              	.LBB105:
 1546              	.LBB101:
 1547              		.loc 1 756 0
 1548 000e 480E     		se_li %r30,0
 1549              	.LBE101:
 1550              	.LBE105:
 1551              		.loc 1 2706 0
 1552 0010 DB01     		se_stw %r0,44(%r1)
 1553              		.cfi_offset 65, 4
 1554              	.LBB106:
 1555              	.LBB102:
 1556              		.loc 1 755 0
 1557 0012 2C05     		se_bmaski %r5,0
 1558              	.LBE102:
 1559              	.LBE106:
 1560              		.loc 1 2706 0
 1561 0014 013F     		se_mr %r31,%r3
 1562              	.LVL100:
 1563              	.LBB107:
 1564              	.LBB103:
 1565              		.loc 1 755 0
 1566 0016 DB56     		se_stw %r5,44(%r6)
 1567              	.LBE103:
 1568              	.LBE107:
 1569              	.LBB108:
 1570              	.LBB109:
 1571              		.loc 1 956 0
 1572 0018 481D     		se_li %r29,1
 1573              	.LBE109:
 1574              	.LBE108:
 1575              	.LBB112:
 1576              	.LBB104:
 1577              		.loc 1 756 0
 1578 001a C263     		se_lwz %r6,8(%r3)
 1579 001c C056     		se_lwz %r5,0(%r6)
 1580 001e 77C507FE 		e_rlwimi %r5,%r30,0,31,31
 1581 0022 D056     		se_stw %r5,0(%r6)
 1582              	.LBE104:
 1583              	.LBE112:
 1584              	.LBB113:
 1585              	.LBB110:
 1586              		.loc 1 954 0
 1587 0024 D443     		se_stw %r4,16(%r3)
 1588              		.loc 1 953 0
 1589 0026 D3E3     		se_stw %r30,12(%r3)
 1590              	.LBE110:
 1591              	.LBE113:
 1592              		.loc 1 2711 0
 1593 0028 4816     		se_li %r6,1
 1594 002a 9463     		se_stb %r6,4(%r3)
 1595              	.LVL101:
 1596              	.LBB114:
GAS LISTING C:\Users\Vipuls\AppData\Local\Temp\ccDj9xAe.s 			page 29


 1597              	.LBB111:
 1598              		.loc 1 956 0
 1599 002c C263     		se_lwz %r6,8(%r3)
 1600 002e CC56     		se_lwz %r5,48(%r6)
 1601 0030 77A58B9C 		e_rlwimi %r5,%r29,17,14,14
 1602 0034 DC56     		se_stw %r5,48(%r6)
 1603              	.LVL102:
 1604 0036 18870608 		e_stwu %r4,8(%r7)
 1605              	.LVL103:
 1606              	.LBE111:
 1607              	.LBE114:
 1608              	.LBB115:
 1609              	.LBB116:
 1610              		.loc 1 1108 0
 1611 003a 0174     		se_mr %r4,%r7
 1612              	.LVL104:
 1613 003c 78000001 		e_bl spi_dspi_prefill_txfifo_idle
 1614              	.LVL105:
 1615              		.loc 1 1112 0
 1616 0040 C271     		se_lwz %r7,8(%r1)
 1617 0042 2A07     		se_cmpi %r7,0
 1618 0044 7A120012 		e_beq %cr0,.L143
 1619              		.loc 1 1118 0
 1620 0048 D67F     		se_stw %r7,24(%r31)
 1621              		.loc 1 1117 0
 1622 004a D5EF     		se_stw %r30,20(%r31)
 1623              		.loc 1 1121 0
 1624 004c C27F     		se_lwz %r7,8(%r31)
 1625 004e CC67     		se_lwz %r6,48(%r7)
 1626 0050 77A6C98C 		e_rlwimi %r6,%r29,25,6,6
 1627 0054 DC67     		se_stw %r6,48(%r7)
 1628              	.L143:
 1629              	.LBE116:
 1630              	.LBE115:
 1631              		.loc 1 2717 0 discriminator 1
 1632 0056 847F     		se_lbz %r7,4(%r31)
 1633 0058 2207     		se_cmpli %r7,1
 1634 005a 7A12FFFC 		e_beq %cr0,.L143
 1635              		.loc 1 2718 0
 1636 005e CB01     		se_lwz %r0,44(%r1)
 1637 0060 0090     		se_mtlr %r0
 1638              		.cfi_restore 65
 1639 0062 1BA1081C 		e_lmw %r29,28(%r1)
 1640              	.LVL106:
 1641 0066 18218028 		e_addi %r1,%r1,40
 1642              	.LCFI26:
 1643              		.cfi_restore 31
 1644              		.cfi_restore 30
 1645              		.cfi_restore 29
 1646              		.cfi_def_cfa_offset 0
 1647              	.LVL107:
 1648 006a 0004     		se_blr
 1649              		.cfi_endproc
 1650              	.LFE29:
 1651              		.size	spi_lld_ignore, .-spi_lld_ignore
 1652              		.section	.text.spi_lld_exchange,"axv",@progbits
 1653              		.align 1
GAS LISTING C:\Users\Vipuls\AppData\Local\Temp\ccDj9xAe.s 			page 30


 1654              		.p2align 4,,15
 1655              		.globl spi_lld_exchange
 1656              		.type	spi_lld_exchange, @function
 1657              	spi_lld_exchange:
 1658              	.LFB30:
 1659              		.loc 1 2736 0
 1660              		.cfi_startproc
 1661              	.LVL108:
 1662 0000 182106F0 		e_stwu %r1,-16(%r1)
 1663              	.LCFI27:
 1664              		.cfi_def_cfa_offset 16
 1665              	.LBB117:
 1666              	.LBB118:
 1667              		.loc 1 755 0
 1668 0004 C273     		se_lwz %r7,8(%r3)
 1669              	.LBE118:
 1670              	.LBE117:
 1671              		.loc 1 2736 0
 1672 0006 D3F1     		se_stw %r31,12(%r1)
 1673 0008 0080     		se_mflr %r0
 1674              	.LBB121:
 1675              	.LBB119:
 1676              		.loc 1 756 0
 1677 000a 71600000 		e_li %r11,0
 1678              	.LBE119:
 1679              	.LBE121:
 1680              		.loc 1 2736 0
 1681 000e D501     		se_stw %r0,20(%r1)
 1682              		.cfi_offset 31, -4
 1683              		.cfi_offset 65, 4
 1684              		.loc 1 2736 0
 1685 0010 013F     		se_mr %r31,%r3
 1686              	.LVL109:
 1687              	.LBB122:
 1688              	.LBB120:
 1689              		.loc 1 755 0
 1690 0012 2C00     		se_bmaski %r0,0
 1691 0014 DB07     		se_stw %r0,44(%r7)
 1692              		.loc 1 756 0
 1693 0016 C273     		se_lwz %r7,8(%r3)
 1694 0018 C007     		se_lwz %r0,0(%r7)
 1695 001a 756007FE 		e_rlwimi %r0,%r11,0,31,31
 1696 001e D007     		se_stw %r0,0(%r7)
 1697              	.LBE120:
 1698              	.LBE122:
 1699              		.loc 1 2741 0
 1700 0020 4817     		se_li %r7,1
 1701              		.loc 1 2744 0
 1702 0022 51630008 		e_lwz %r11,8(%r3)
 1703              		.loc 1 2741 0
 1704 0026 9473     		se_stb %r7,4(%r3)
 1705              		.loc 1 2744 0
 1706 0028 50EB0000 		e_lwz %r7,0(%r11)
 1707 002c 74E7EFFF 		e_rlwinm %r7,%r7,29,31,31
 1708 0030 2207     		se_cmpli %r7,1
 1709 0032 7A120042 		e_beq %cr0,.L151
 1710              		.loc 1 2747 0
GAS LISTING C:\Users\Vipuls\AppData\Local\Temp\ccDj9xAe.s 			page 31


 1711 0036 50EB000C 		e_lwz %r7,12(%r11)
 1712              	.LBB123:
 1713              	.LBB124:
 1714              		.loc 1 998 0
 1715 003a D363     		se_stw %r6,12(%r3)
 1716              	.LBE124:
 1717              	.LBE123:
 1718              		.loc 1 2747 0
 1719 003c 74E72F3F 		e_rlwinm %r7,%r7,5,28,31
 1720              	.LBB127:
 1721              	.LBB125:
 1722              		.loc 1 999 0
 1723 0040 D44F     		se_stw %r4,16(%r31)
 1724              	.LBE125:
 1725              	.LBE127:
 1726              		.loc 1 2747 0
 1727 0042 2267     		se_cmpli %r7,7
 1728              	.LBB128:
 1729              	.LBB126:
 1730              		.loc 1 1001 0
 1731 0044 4816     		se_li %r6,1
 1732              	.LVL110:
 1733 0046 50EB0030 		e_lwz %r7,48(%r11)
 1734 004a 74C78B9C 		e_rlwimi %r7,%r6,17,14,14
 1735 004e 54EB0030 		e_stw %r7,48(%r11)
 1736              	.LVL111:
 1737              	.LBE126:
 1738              	.LBE128:
 1739              		.loc 1 2747 0
 1740 0052 7A01001A 		e_ble %cr0,.L152
 1741              	.LVL112:
 1742              		.loc 1 2752 0
 1743 0056 78000001 		e_bl spi_start_tx16
 1744              	.LVL113:
 1745              	.L149:
 1746              		.loc 1 2755 0 discriminator 1
 1747 005a 847F     		se_lbz %r7,4(%r31)
 1748 005c 2207     		se_cmpli %r7,1
 1749 005e 7A12FFFC 		e_beq %cr0,.L149
 1750              		.loc 1 2756 0
 1751 0062 C501     		se_lwz %r0,20(%r1)
 1752 0064 0090     		se_mtlr %r0
 1753              		.cfi_remember_state
 1754              		.cfi_restore 65
 1755 0066 C3F1     		se_lwz %r31,12(%r1)
 1756              	.LVL114:
 1757 0068 20F1     		se_addi %r1,16
 1758              	.LCFI28:
 1759              		.cfi_restore 31
 1760              		.cfi_def_cfa_offset 0
 1761 006a 0004     		se_blr
 1762              	.LVL115:
 1763              	.L152:
 1764              	.LCFI29:
 1765              		.cfi_restore_state
 1766              		.loc 1 2749 0
 1767 006c 78000001 		e_bl spi_start_tx8
GAS LISTING C:\Users\Vipuls\AppData\Local\Temp\ccDj9xAe.s 			page 32


 1768              	.LVL116:
 1769 0070 79FFFFEA 		e_b .L149
 1770              	.LVL117:
 1771              	.L151:
 1772              	.LBB129:
 1773              	.LBB130:
 1774              		.loc 1 1072 0
 1775 0074 D363     		se_stw %r6,12(%r3)
 1776              		.loc 1 1073 0
 1777 0076 D44F     		se_stw %r4,16(%r31)
 1778              		.loc 1 1075 0
 1779 0078 50CB0030 		e_lwz %r6,48(%r11)
 1780              	.LVL118:
 1781 007c 74E68B9C 		e_rlwimi %r6,%r7,17,14,14
 1782 0080 54CB0030 		e_stw %r6,48(%r11)
 1783              	.LVL119:
 1784              	.LBE130:
 1785              	.LBE129:
 1786              		.loc 1 2746 0
 1787 0084 78000001 		e_bl spi_start_tx32
 1788              	.LVL120:
 1789 0088 79FFFFD2 		e_b .L149
 1790              		.cfi_endproc
 1791              	.LFE30:
 1792              		.size	spi_lld_exchange, .-spi_lld_exchange
 1793              		.section	.text.spi_lld_send,"axv",@progbits
 1794              		.align 1
 1795              		.p2align 4,,15
 1796              		.globl spi_lld_send
 1797              		.type	spi_lld_send, @function
 1798              	spi_lld_send:
 1799              	.LFB31:
 1800              		.loc 1 2771 0
 1801              		.cfi_startproc
 1802              	.LVL121:
 1803 0000 182106F0 		e_stwu %r1,-16(%r1)
 1804              	.LCFI30:
 1805              		.cfi_def_cfa_offset 16
 1806 0004 0080     		se_mflr %r0
 1807 0006 D3F1     		se_stw %r31,12(%r1)
 1808 0008 D501     		se_stw %r0,20(%r1)
 1809              		.cfi_offset 65, 4
 1810              		.cfi_offset 31, -4
 1811              		.loc 1 2773 0
 1812 000a 2A04     		se_cmpi %r4,0
 1813 000c 7A120048 		e_beq %cr0,.L153
 1814              	.LVL122:
 1815              	.LBB131:
 1816              	.LBB132:
 1817              		.loc 1 755 0
 1818 0010 C273     		se_lwz %r7,8(%r3)
 1819 0012 2C06     		se_bmaski %r6,0
 1820              		.loc 1 756 0
 1821 0014 4800     		se_li %r0,0
 1822              		.loc 1 755 0
 1823 0016 DB67     		se_stw %r6,44(%r7)
 1824              		.loc 1 756 0
GAS LISTING C:\Users\Vipuls\AppData\Local\Temp\ccDj9xAe.s 			page 33


 1825 0018 C273     		se_lwz %r7,8(%r3)
 1826 001a C067     		se_lwz %r6,0(%r7)
 1827 001c 740607FE 		e_rlwimi %r6,%r0,0,31,31
 1828 0020 D067     		se_stw %r6,0(%r7)
 1829              	.LBE132:
 1830              	.LBE131:
 1831              		.loc 1 2779 0
 1832 0022 4817     		se_li %r7,1
 1833 0024 9473     		se_stb %r7,4(%r3)
 1834              		.loc 1 2783 0
 1835 0026 C273     		se_lwz %r7,8(%r3)
 1836 0028 C067     		se_lwz %r6,0(%r7)
 1837 002a 7CC0FC71 		e_srwi. %r0,%r6,31
 1838 002e 7A120030 		e_beq %cr0,.L162
 1839              	.L155:
 1840              		.loc 1 2792 0
 1841 0032 C067     		se_lwz %r6,0(%r7)
 1842 0034 013F     		se_mr %r31,%r3
 1843 0036 67C6     		se_btsti %r6,28
 1844 0038 7A020042 		e_bne %cr0,.L163
 1845              		.loc 1 2795 0
 1846 003c C377     		se_lwz %r7,12(%r7)
 1847 003e 74E72F3F 		e_rlwinm %r7,%r7,5,28,31
 1848 0042 2267     		se_cmpli %r7,7
 1849 0044 7A01002E 		e_ble %cr0,.L164
 1850              		.loc 1 2798 0
 1851 0048 78000001 		e_bl spi_start_tx16
 1852              	.LVL123:
 1853              	.L159:
 1854              		.loc 1 2802 0 discriminator 1
 1855 004c 847F     		se_lbz %r7,4(%r31)
 1856 004e 2207     		se_cmpli %r7,1
 1857 0050 7A12FFFC 		e_beq %cr0,.L159
 1858              	.LVL124:
 1859              	.L153:
 1860              		.loc 1 2803 0
 1861 0054 C501     		se_lwz %r0,20(%r1)
 1862 0056 0090     		se_mtlr %r0
 1863              		.cfi_remember_state
 1864              		.cfi_restore 65
 1865 0058 C3F1     		se_lwz %r31,12(%r1)
 1866 005a 20F1     		se_addi %r1,16
 1867              	.LCFI31:
 1868              		.cfi_restore 31
 1869              		.cfi_def_cfa_offset 0
 1870 005c 0004     		se_blr
 1871              	.LVL125:
 1872              	.L162:
 1873              	.LCFI32:
 1874              		.cfi_restore_state
 1875              	.LBB133:
 1876              	.LBB134:
 1877              		.loc 1 953 0
 1878 005e D303     		se_stw %r0,12(%r3)
 1879              		.loc 1 954 0
 1880 0060 D443     		se_stw %r4,16(%r3)
 1881              		.loc 1 956 0
GAS LISTING C:\Users\Vipuls\AppData\Local\Temp\ccDj9xAe.s 			page 34


 1882 0062 4810     		se_li %r0,1
 1883 0064 CC67     		se_lwz %r6,48(%r7)
 1884 0066 74068B9C 		e_rlwimi %r6,%r0,17,14,14
 1885 006a DC67     		se_stw %r6,48(%r7)
 1886 006c C273     		se_lwz %r7,8(%r3)
 1887 006e 79FFFFC4 		e_b .L155
 1888              	.LVL126:
 1889              	.L164:
 1890              	.LBE134:
 1891              	.LBE133:
 1892              		.loc 1 2796 0
 1893 0072 78000001 		e_bl spi_start_tx8
 1894              	.LVL127:
 1895 0076 79FFFFD6 		e_b .L159
 1896              	.LVL128:
 1897              	.L163:
 1898              		.loc 1 2793 0
 1899 007a 78000001 		e_bl spi_start_tx32
 1900              	.LVL129:
 1901 007e 79FFFFCE 		e_b .L159
 1902              		.cfi_endproc
 1903              	.LFE31:
 1904              		.size	spi_lld_send, .-spi_lld_send
 1905              		.section	.text.spi_lld_receive,"axv",@progbits
 1906              		.align 1
 1907              		.p2align 4,,15
 1908              		.globl spi_lld_receive
 1909              		.type	spi_lld_receive, @function
 1910              	spi_lld_receive:
 1911              	.LFB32:
 1912              		.loc 1 2818 0
 1913              		.cfi_startproc
 1914              	.LVL130:
 1915 0000 182106E0 		e_stwu %r1,-32(%r1)
 1916              	.LCFI33:
 1917              		.cfi_def_cfa_offset 32
 1918              	.LBB145:
 1919              	.LBB146:
 1920              		.loc 1 755 0
 1921 0004 2C06     		se_bmaski %r6,0
 1922              	.LBE146:
 1923              	.LBE145:
 1924              		.loc 1 2818 0
 1925 0006 1BC10918 		e_stmw %r30,24(%r1)
 1926 000a 0080     		se_mflr %r0
 1927              		.cfi_offset 30, -8
 1928              		.cfi_offset 31, -4
 1929              		.cfi_register 65, 0
 1930 000c 013F     		se_mr %r31,%r3
 1931              	.LVL131:
 1932 000e D901     		se_stw %r0,36(%r1)
 1933              		.cfi_offset 65, 4
 1934              	.LBB148:
 1935              	.LBB147:
 1936              		.loc 1 755 0
 1937 0010 C273     		se_lwz %r7,8(%r3)
 1938 0012 DB67     		se_stw %r6,44(%r7)
GAS LISTING C:\Users\Vipuls\AppData\Local\Temp\ccDj9xAe.s 			page 35


 1939              		.loc 1 756 0
 1940 0014 C273     		se_lwz %r7,8(%r3)
 1941 0016 4803     		se_li %r3,0
 1942              	.LVL132:
 1943 0018 C067     		se_lwz %r6,0(%r7)
 1944 001a 746607FE 		e_rlwimi %r6,%r3,0,31,31
 1945 001e D067     		se_stw %r6,0(%r7)
 1946              	.LBE147:
 1947              	.LBE148:
 1948              		.loc 1 2823 0
 1949 0020 4817     		se_li %r7,1
 1950 0022 947F     		se_stb %r7,4(%r31)
 1951              		.loc 1 2826 0
 1952 0024 C27F     		se_lwz %r7,8(%r31)
 1953 0026 C067     		se_lwz %r6,0(%r7)
 1954 0028 74C6EFFF 		e_rlwinm %r6,%r6,29,31,31
 1955 002c 2206     		se_cmpli %r6,1
 1956 002e 7A120034 		e_beq %cr0,.L174
 1957              		.loc 1 2828 0
 1958 0032 C367     		se_lwz %r6,12(%r7)
 1959              	.LBB149:
 1960              	.LBB150:
 1961              		.loc 1 998 0
 1962 0034 D35F     		se_stw %r5,12(%r31)
 1963              		.loc 1 999 0
 1964 0036 D44F     		se_stw %r4,16(%r31)
 1965              		.loc 1 1001 0
 1966 0038 4815     		se_li %r5,1
 1967              	.LVL133:
 1968 003a CC67     		se_lwz %r6,48(%r7)
 1969 003c 74A68B9C 		e_rlwimi %r6,%r5,17,14,14
 1970 0040 DC67     		se_stw %r6,48(%r7)
 1971              	.LVL134:
 1972              	.LBE150:
 1973              	.LBE149:
 1974              		.loc 1 2836 0
 1975 0042 C27F     		se_lwz %r7,8(%r31)
 1976 0044 C0E7     		se_lwz %r30,0(%r7)
 1977 0046 69FE     		se_srwi %r30,31
 1978 0048 220E     		se_cmpli %r30,1
 1979 004a 7A120030 		e_beq %cr0,.L175
 1980              	.LVL135:
 1981              	.L172:
 1982              		.loc 1 2844 0 discriminator 1
 1983 004e 847F     		se_lbz %r7,4(%r31)
 1984 0050 2207     		se_cmpli %r7,1
 1985 0052 7A12FFFC 		e_beq %cr0,.L172
 1986              		.loc 1 2845 0
 1987 0056 C901     		se_lwz %r0,36(%r1)
 1988 0058 0090     		se_mtlr %r0
 1989              		.cfi_remember_state
 1990              		.cfi_restore 65
 1991 005a 1BC10818 		e_lmw %r30,24(%r1)
 1992              	.LVL136:
 1993 005e 21F1     		se_addi %r1,32
 1994              	.LCFI34:
 1995              		.cfi_restore 31
GAS LISTING C:\Users\Vipuls\AppData\Local\Temp\ccDj9xAe.s 			page 36


 1996              		.cfi_restore 30
 1997              		.cfi_def_cfa_offset 0
 1998 0060 0004     		se_blr
 1999              	.LVL137:
 2000              	.L174:
 2001              	.LCFI35:
 2002              		.cfi_restore_state
 2003              	.LBB151:
 2004              	.LBB152:
 2005              		.loc 1 1072 0
 2006 0062 D35F     		se_stw %r5,12(%r31)
 2007              		.loc 1 1073 0
 2008 0064 D44F     		se_stw %r4,16(%r31)
 2009              		.loc 1 1075 0
 2010 0066 CC57     		se_lwz %r5,48(%r7)
 2011              	.LVL138:
 2012 0068 74C58B9C 		e_rlwimi %r5,%r6,17,14,14
 2013 006c DC57     		se_stw %r5,48(%r7)
 2014              	.LVL139:
 2015              	.LBE152:
 2016              	.LBE151:
 2017              		.loc 1 2836 0
 2018 006e C27F     		se_lwz %r7,8(%r31)
 2019 0070 C0E7     		se_lwz %r30,0(%r7)
 2020 0072 69FE     		se_srwi %r30,31
 2021 0074 220E     		se_cmpli %r30,1
 2022 0076 7A02FFD8 		e_bne %cr0,.L172
 2023              	.LVL140:
 2024              	.L175:
 2025 007a 0117     		se_mr %r7,%r1
 2026              	.LBB153:
 2027              	.LBB154:
 2028              		.loc 1 1108 0
 2029 007c 01F3     		se_mr %r3,%r31
 2030 007e 18870608 		e_stwu %r4,8(%r7)
 2031              	.LVL141:
 2032 0082 0174     		se_mr %r4,%r7
 2033              	.LVL142:
 2034 0084 78000001 		e_bl spi_dspi_prefill_txfifo_idle
 2035              	.LVL143:
 2036              		.loc 1 1112 0
 2037 0088 C271     		se_lwz %r7,8(%r1)
 2038 008a 2A07     		se_cmpi %r7,0
 2039 008c 7A12FFC2 		e_beq %cr0,.L172
 2040              		.loc 1 1118 0
 2041 0090 D67F     		se_stw %r7,24(%r31)
 2042              		.loc 1 1117 0
 2043 0092 4806     		se_li %r6,0
 2044              		.loc 1 1121 0
 2045 0094 C27F     		se_lwz %r7,8(%r31)
 2046              		.loc 1 1117 0
 2047 0096 D56F     		se_stw %r6,20(%r31)
 2048              		.loc 1 1121 0
 2049 0098 CC67     		se_lwz %r6,48(%r7)
 2050 009a 77C6C98C 		e_rlwimi %r6,%r30,25,6,6
 2051 009e DC67     		se_stw %r6,48(%r7)
 2052 00a0 79FFFFAE 		e_b .L172
GAS LISTING C:\Users\Vipuls\AppData\Local\Temp\ccDj9xAe.s 			page 37


 2053              	.LBE154:
 2054              	.LBE153:
 2055              		.cfi_endproc
 2056              	.LFE32:
 2057              		.size	spi_lld_receive, .-spi_lld_receive
 2058              		.section	.text.spi_lld_polled_exchange,"axv",@progbits
 2059              		.align 1
 2060              		.p2align 4,,15
 2061              		.globl spi_lld_polled_exchange
 2062              		.type	spi_lld_polled_exchange, @function
 2063              	spi_lld_polled_exchange:
 2064              	.LFB33:
 2065              		.loc 1 2861 0
 2066              		.cfi_startproc
 2067              	.LVL144:
 2068              	.LBB155:
 2069              	.LBB156:
 2070              		.loc 1 755 0
 2071 0000 C273     		se_lwz %r7,8(%r3)
 2072 0002 2C06     		se_bmaski %r6,0
 2073              		.loc 1 756 0
 2074 0004 4805     		se_li %r5,0
 2075              		.loc 1 755 0
 2076 0006 DB67     		se_stw %r6,44(%r7)
 2077              		.loc 1 756 0
 2078 0008 C273     		se_lwz %r7,8(%r3)
 2079 000a C067     		se_lwz %r6,0(%r7)
 2080 000c 74A607FE 		e_rlwimi %r6,%r5,0,31,31
 2081 0010 D067     		se_stw %r6,0(%r7)
 2082              	.LBE156:
 2083              	.LBE155:
 2084              		.loc 1 2868 0
 2085 0012 C073     		se_lwz %r7,0(%r3)
 2086 0014 C263     		se_lwz %r6,8(%r3)
 2087 0016 C577     		se_lwz %r7,20(%r7)
 2088 0018 4474     		se_or %r4,%r7
 2089              	.LVL145:
 2090              		.loc 1 2869 0
 2091 001a 1887C777 		e_andi %r7,%r4,2013265919
 2092 001e 6447     		se_bseti %r7,4
 2093              		.loc 1 2868 0
 2094 0020 DD76     		se_stw %r7,52(%r6)
 2095 0022 C263     		se_lwz %r6,8(%r3)
 2096              	.L177:
 2097              		.loc 1 2870 0 discriminator 1
 2098 0024 CB76     		se_lwz %r7,44(%r6)
 2099 0026 66E7     		se_btsti %r7,14
 2100 0028 7A12FFFC 		e_beq %cr0,.L177
 2101              		.loc 1 2872 0
 2102 002c CE56     		se_lwz %r5,56(%r6)
 2103              	.LVL146:
 2104              	.LBB157:
 2105              	.LBB158:
 2106              		.loc 1 769 0
 2107 002e C076     		se_lwz %r7,0(%r6)
 2108 0030 65F7     		se_bseti %r7,31
 2109 0032 D076     		se_stw %r7,0(%r6)
GAS LISTING C:\Users\Vipuls\AppData\Local\Temp\ccDj9xAe.s 			page 38


 2110 0034 C263     		se_lwz %r6,8(%r3)
 2111              	.L178:
 2112              		.loc 1 772 0
 2113 0036 CB76     		se_lwz %r7,44(%r6)
 2114 0038 6617     		se_btsti %r7,1
 2115 003a 7A02FFFC 		e_bne %cr0,.L178
 2116 003e CB76     		se_lwz %r7,44(%r6)
 2117 0040 2A07     		se_cmpi %r7,0
 2118 0042 7A00FFF4 		e_bge %cr0,.L178
 2119              		.loc 1 777 0
 2120 0046 C076     		se_lwz %r7,0(%r6)
 2121              	.LBE158:
 2122              	.LBE157:
 2123              		.loc 1 2878 0
 2124 0048 74A3043F 		e_rlwinm %r3,%r5,0,0xffff
 2125              	.LVL147:
 2126              	.LBB160:
 2127              	.LBB159:
 2128              		.loc 1 777 0
 2129 004c 18E7D10C 		e_ori %r7,%r7,3072
 2130 0050 D076     		se_stw %r7,0(%r6)
 2131              	.LBE159:
 2132              	.LBE160:
 2133              		.loc 1 2878 0
 2134 0052 0004     		se_blr
 2135              		.cfi_endproc
 2136              	.LFE33:
 2137              		.size	spi_lld_polled_exchange, .-spi_lld_polled_exchange
 2138              		.globl SPID1
 2139              		.section	.bss.SPID1,"aw",@nobits
 2140              		.align 2
 2141              		.set	.LANCHOR0,. + 0
 2142              		.type	SPID1, @object
 2143              		.size	SPID1, 28
 2144              	SPID1:
 2145 0000 00000000 		.zero	28
 2145      00000000 
 2145      00000000 
 2145      00000000 
 2145      00000000 
 2146              		.section	".text","axv"
 2147              	.Letext0:
 2148              		.file 2 "c:\\autodevkitstudio-2.4.0\\eclipse\\plugins\\com.st.tools.spc5.tools.gnu.gcc.ppcvle.win3
 2149              		.file 3 "c:\\autodevkitstudio-2.4.0\\eclipse\\plugins\\com.st.tools.spc5.tools.gnu.gcc.ppcvle.win3
 2150              		.file 4 "c:\\autodevkitstudio-2.4.0\\eclipse\\plugins\\com.st.tools.spc5.tools.gnu.gcc.ppcvle.win3
 2151              		.file 5 "./components/spc58ecxx_platform_component_rla/lib/include/typedefs.h"
 2152              		.file 6 "./components/spc58ecxx_platform_component_rla/lib/include/spc58xcxx.h"
 2153              		.file 7 "./components/spc58ecxx_board_initialization_component_rla/lib/include/pal.h"
 2154              		.file 8 "./components/spc58ecxx_low_level_drivers_component_rla/lib/include/spc5_dspi.h"
 2155              		.file 9 "./components/spc58ecxx_low_level_drivers_component_rla/lib/include/spi_lld.h"
 2156              		.file 10 "./components/spc58ecxx_clock_component_rla/lib/include/clock.h"