GAS LISTING C:\Users\Vipuls\AppData\Local\Temp\cczU40wf.s 			page 1


   1              		.file	"AEK_POW_BMS63EN_Appl.c"
   2              		.section	".text","axv"
   3              	.Ltext0:
   4              		.cfi_sections	.debug_frame
   5              		.section	.text.AEK_POW_BMS63EN_GetSOC_Elab_Sts,"axv",@progbits
   6              		.align 1
   7              		.p2align 4,,15
   8              		.globl AEK_POW_BMS63EN_GetSOC_Elab_Sts
   9              		.type	AEK_POW_BMS63EN_GetSOC_Elab_Sts, @function
  10              	AEK_POW_BMS63EN_GetSOC_Elab_Sts:
  11              	.LFB3:
  12              		.file 1 "./source/AEK_POW_BMS63EN_Appl.c"
  13              		.loc 1 14 0
  14              		.cfi_startproc
  15              		.loc 1 15 0
  16 0000 70E0E000 		e_lis %r7,.LANCHOR0@ha
  17              		.loc 1 16 0
  18 0004 50670000 		e_lwz %r3,.LANCHOR0@l(%r7)
  19 0008 0004     		se_blr
  20              		.cfi_endproc
  21              	.LFE3:
  22              		.size	AEK_POW_BMS63EN_GetSOC_Elab_Sts, .-AEK_POW_BMS63EN_GetSOC_Elab_Sts
  23              		.section	.text.AEK_POW_BMS63EN_GetModule,"axv",@progbits
  24              		.align 1
  25              		.p2align 4,,15
  26              		.globl AEK_POW_BMS63EN_GetModule
  27              		.type	AEK_POW_BMS63EN_GetModule, @function
  28              	AEK_POW_BMS63EN_GetModule:
  29              	.LFB4:
  30              		.loc 1 18 0
  31              		.cfi_startproc
  32              	.LVL0:
  33 0000 182106F8 		e_stwu %r1,-8(%r1)
  34              	.LCFI0:
  35              		.cfi_def_cfa_offset 8
  36 0004 0080     		se_mflr %r0
  37              		.loc 1 19 0
  38 0006 7004A13C 		e_mull2i %r4,316
  39              	.LVL1:
  40              		.loc 1 18 0
  41 000a D301     		se_stw %r0,12(%r1)
  42              		.cfi_offset 65, 4
  43              		.loc 1 19 0
  44 000c 70A0013C 		e_li %r5,316
  45 0010 70E0E000 		e_lis %r7,.LANCHOR1@ha
  46 0014 1CE70000 		e_la %r7,.LANCHOR1@l(%r7)
  47 0018 7C872214 		add %r4,%r7,%r4
  48 001c 78000001 		e_bl memcpy
  49              	.LVL2:
  50              		.loc 1 20 0
  51 0020 C301     		se_lwz %r0,12(%r1)
  52 0022 0090     		se_mtlr %r0
  53              		.cfi_restore 65
  54 0024 2071     		se_addi %r1,8
  55              	.LCFI1:
  56              		.cfi_def_cfa_offset 0
  57 0026 0004     		se_blr
GAS LISTING C:\Users\Vipuls\AppData\Local\Temp\cczU40wf.s 			page 2


  58              		.cfi_endproc
  59              	.LFE4:
  60              		.size	AEK_POW_BMS63EN_GetModule, .-AEK_POW_BMS63EN_GetModule
  61              		.section	.text.AEK_POW_BMS63EN_Balancing,"axv",@progbits
  62              		.align 1
  63              		.p2align 4,,15
  64              		.globl AEK_POW_BMS63EN_Balancing
  65              		.type	AEK_POW_BMS63EN_Balancing, @function
  66              	AEK_POW_BMS63EN_Balancing:
  67              	.LFB5:
  68              		.loc 1 23 0
  69              		.cfi_startproc
  70              	.LVL3:
  71 0000 182106D0 		e_stwu %r1,-48(%r1)
  72              	.LCFI2:
  73              		.cfi_def_cfa_offset 48
  74 0004 0080     		se_mflr %r0
  75 0006 1AC10908 		e_stmw %r22,8(%r1)
  76 000a DD01     		se_stw %r0,52(%r1)
  77              		.cfi_offset 65, 4
  78              		.cfi_offset 22, -40
  79              		.cfi_offset 23, -36
  80              		.cfi_offset 24, -32
  81              		.cfi_offset 25, -28
  82              		.cfi_offset 26, -24
  83              		.cfi_offset 27, -20
  84              		.cfi_offset 28, -16
  85              		.cfi_offset 29, -12
  86              		.cfi_offset 30, -8
  87              		.cfi_offset 31, -4
  88 000c 7360E000 		e_lis %r27,.LANCHOR1@ha
  89              		.loc 1 23 0
  90 0010 4807     		se_li %r7,0
  91 0012 1F7B0000 		e_la %r27,.LANCHOR1@l(%r27)
  92              		.loc 1 57 0
  93 0016 72FEE7FC 		e_lis %r23,0xf7fc
  94 001a 1B7B80E7 		e_addi %r27,%r27,231
  95 001e 481A     		se_li %r26,1
  96 0020 4808     		se_li %r24,0
  97              		.loc 1 51 0
  98 0022 72C00000 		e_li %r22,0
  99 0026 4819     		se_li %r25,1
 100              	.LVL4:
 101              	.L12:
 102 0028 1B878001 		e_addi %r28,%r7,1
 103              		.loc 1 27 0
 104 002c 01C3     		se_mr %r3,%r28
 105 002e 78000001 		e_bl AEK_POW_BMS63EN_GetBalancingStatus
 106              	.LVL5:
 107              		.loc 1 28 0
 108 0032 30FB001D 		e_lbz %r7,29(%r27)
 109              		.loc 1 27 0
 110 0036 547B0051 		e_stw %r3,81(%r27)
 111              		.loc 1 28 0
 112 003a 2A07     		se_cmpi %r7,0
 113 003c 7A12004E 		e_beq %cr0,.L4
 114 0040 01BE     		se_mr %r30,%r27
GAS LISTING C:\Users\Vipuls\AppData\Local\Temp\cczU40wf.s 			page 3


 115 0042 018F     		se_mr %r31,%r24
 116              		.loc 1 29 0
 117 0044 2213     		se_cmpli %r3,2
 118 0046 7A02001A 		e_bne %cr0,.L14
 119 004a 78000060 		e_b .L19
 120              	.LVL6:
 121              	.L21:
 122              		.loc 1 42 0
 123 004e 01F4     		se_mr %r4,%r31
 124 0050 01C3     		se_mr %r3,%r28
 125 0052 200F     		se_addi %r31,1
 126              	.LVL7:
 127 0054 78000001 		e_bl AEK_POW_BMS63EN_EnableCellBalancing
 128              	.LVL8:
 129              		.loc 1 43 0
 130 0058 9EAE     		se_stb %r26,14(%r30)
 131              	.LVL9:
 132              		.loc 1 40 0
 133 005a 22DF     		se_cmpli %r31,14
 134 005c 7A120020 		e_beq %cr0,.L20
 135              	.L14:
 136              	.LVL10:
 137              		.loc 1 41 0
 138 0060 1BBE0001 		e_lbzu %r29,1(%r30)
 139 0064 2A0D     		se_cmpi %r29,0
 140 0066 7A02FFE8 		e_bne %cr0,.L21
 141              		.loc 1 46 0
 142 006a 01F4     		se_mr %r4,%r31
 143 006c 01C3     		se_mr %r3,%r28
 144 006e 200F     		se_addi %r31,1
 145              	.LVL11:
 146 0070 78000001 		e_bl AEK_POW_BMS63EN_DisableCellBalancing
 147              	.LVL12:
 148              		.loc 1 47 0
 149 0074 9EDE     		se_stb %r29,14(%r30)
 150              	.LVL13:
 151              		.loc 1 40 0
 152 0076 22DF     		se_cmpli %r31,14
 153 0078 7A02FFE8 		e_bne %cr0,.L14
 154              	.L20:
 155              		.loc 1 50 0
 156 007c 01C3     		se_mr %r3,%r28
 157 007e 78000001 		e_bl AEK_POW_BMS63EN_StartCellBalancing
 158              	.LVL14:
 159              		.loc 1 51 0
 160 0082 36D71358 		e_stb %r22,4952(%r23)
 161 0086 7800000A 		e_b .L9
 162              	.L4:
 163              		.loc 1 55 0
 164 008a 2213     		se_cmpli %r3,2
 165 008c 7A12004C 		e_beq %cr0,.L22
 166              	.L9:
 167 0090 1F7B013C 		e_add16i %r27,%r27,316
 168              	.LVL15:
 169 0094 0197     		se_mr %r7,%r25
 170              		.loc 1 26 0 discriminator 2
 171 0096 221C     		se_cmpli %r28,2
GAS LISTING C:\Users\Vipuls\AppData\Local\Temp\cczU40wf.s 			page 4


 172 0098 7A02FF90 		e_bne %cr0,.L12
 173              	.LVL16:
 174              	.L3:
 175              		.loc 1 63 0
 176 009c CD01     		se_lwz %r0,52(%r1)
 177 009e 0090     		se_mtlr %r0
 178              		.cfi_remember_state
 179              		.cfi_restore 65
 180 00a0 1AC10808 		e_lmw %r22,8(%r1)
 181 00a4 18218030 		e_addi %r1,%r1,48
 182              	.LCFI3:
 183              		.cfi_restore 31
 184              		.cfi_restore 30
 185              		.cfi_restore 29
 186              		.cfi_restore 28
 187              		.cfi_restore 27
 188              		.cfi_restore 26
 189              		.cfi_restore 25
 190              		.cfi_restore 24
 191              		.cfi_restore 23
 192              		.cfi_restore 22
 193              		.cfi_def_cfa_offset 0
 194 00a8 0004     		se_blr
 195              	.L19:
 196              	.LCFI4:
 197              		.cfi_restore_state
 198              		.loc 1 29 0
 199 00aa 48E7     		se_li %r7,14
 200 00ac 01B6     		se_mr %r6,%r27
 201 00ae 00B7     		se_mtctr %r7
 202 00b0 78000008 		e_b .L8
 203              	.L6:
 204              		.loc 1 30 0 discriminator 2
 205 00b4 7A30FFDC 		e_bdz .L9
 206              	.L8:
 207              		.loc 1 31 0
 208 00b8 18E60001 		e_lbzu %r7,1(%r6)
 209 00bc 8E56     		se_lbz %r5,14(%r6)
 210 00be 0C57     		se_cmp %r7,%r5
 211 00c0 7A12FFF4 		e_beq %cr0,.L6
 212              		.loc 1 32 0
 213 00c4 01C3     		se_mr %r3,%r28
 214 00c6 78000001 		e_bl AEK_POW_BMS63EN_StopCellBalancing
 215              	.LVL17:
 216              		.loc 1 33 0
 217 00ca 4816     		se_li %r6,1
 218 00cc 70FEE7FC 		e_lis %r7,0xf7fc
 219 00d0 34C71358 		e_stb %r6,4952(%r7)
 220              		.loc 1 34 0
 221 00d4 79FFFFC8 		e_b .L3
 222              	.L22:
 223              		.loc 1 56 0
 224 00d8 01C3     		se_mr %r3,%r28
 225 00da 78000001 		e_bl AEK_POW_BMS63EN_StopCellBalancing
 226              	.LVL18:
 227              		.loc 1 57 0
 228 00de 37571358 		e_stb %r26,4952(%r23)
GAS LISTING C:\Users\Vipuls\AppData\Local\Temp\cczU40wf.s 			page 5


 229              		.loc 1 58 0
 230 00e2 01C3     		se_mr %r3,%r28
 231 00e4 48E4     		se_li %r4,14
 232 00e6 78000001 		e_bl AEK_POW_BMS63EN_DisableCellBalancing
 233              	.LVL19:
 234 00ea 79FFFFA6 		e_b .L9
 235              		.cfi_endproc
 236              	.LFE5:
 237              		.size	AEK_POW_BMS63EN_Balancing, .-AEK_POW_BMS63EN_Balancing
 238              		.section	.text.AEK_POW_BMS63EN_init,"axv",@progbits
 239              		.align 1
 240              		.p2align 4,,15
 241              		.globl AEK_POW_BMS63EN_init
 242              		.type	AEK_POW_BMS63EN_init, @function
 243              	AEK_POW_BMS63EN_init:
 244              	.LFB6:
 245              		.loc 1 67 0
 246              		.cfi_startproc
 247              	.LVL20:
 248 0000 182106D8 		e_stwu %r1,-40(%r1)
 249              	.LCFI5:
 250              		.cfi_def_cfa_offset 40
 251 0004 0080     		se_mflr %r0
 252 0006 1B21090C 		e_stmw %r25,12(%r1)
 253 000a DB01     		se_stw %r0,44(%r1)
 254              		.cfi_offset 65, 4
 255              		.cfi_offset 25, -28
 256              		.cfi_offset 26, -24
 257              		.cfi_offset 27, -20
 258              		.cfi_offset 28, -16
 259              		.cfi_offset 29, -12
 260              		.cfi_offset 30, -8
 261              		.cfi_offset 31, -4
 262 000c 73A0E000 		e_lis %r29,.LANCHOR1@ha
 263              		.loc 1 71 0
 264 0010 78000001 		e_bl AEK_POW_BMS63EN_Init
 265              	.LVL21:
 266 0014 1FBD0000 		e_la %r29,.LANCHOR1@l(%r29)
 267 0018 481E     		se_li %r30,1
 268              		.loc 1 67 0
 269 001a 480A     		se_li %r26,0
 270 001c 1FBD013C 		e_add16i %r29,%r29,316
 271              		.loc 1 77 0
 272 0020 481C     		se_li %r28,1
 273              		.loc 1 81 0
 274 0022 7368E0A0 		e_lis %r27,0x40a0
 275 0026 4829     		se_li %r25,2
 276              	.LVL22:
 277              	.L24:
 278              		.loc 1 67 0
 279 0028 01AF     		se_mr %r31,%r26
 280              	.LVL23:
 281              	.L26:
 282              		.loc 1 76 0
 283 002a 01F4     		se_mr %r4,%r31
 284 002c 01E3     		se_mr %r3,%r30
 285 002e 78000001 		e_bl AEK_POW_BMS63EN_isEnabled
GAS LISTING C:\Users\Vipuls\AppData\Local\Temp\cczU40wf.s 			page 6


 286              	.LVL24:
 287 0032 2A03     		se_cmpi %r3,0
 288 0034 7A12000C 		e_beq %cr0,.L25
 289 0038 7CFDFA14 		add %r7,%r29,%r31
 290              		.loc 1 77 0
 291 003c 3787FFD4 		e_stb %r28,-44(%r7)
 292              	.L25:
 293 0040 200F     		se_addi %r31,1
 294              	.LVL25:
 295              		.loc 1 75 0 discriminator 2
 296 0042 22DF     		se_cmpli %r31,14
 297 0044 7A02FFE6 		e_bne %cr0,.L26
 298              		.loc 1 81 0 discriminator 2
 299 0048 01E3     		se_mr %r3,%r30
 300 004a 4E44     		se_li %r4,100
 301 004c 01B5     		se_mr %r5,%r27
 302 004e 1FBD013C 		e_add16i %r29,%r29,316
 303 0052 78000001 		e_bl AEK_POW_BMS63EN_SetOvercurrentThreshold
 304              	.LVL26:
 305              		.loc 1 73 0 discriminator 2
 306 0056 221E     		se_cmpli %r30,2
 307 0058 7A12000A 		e_beq %cr0,.L27
 308 005c 019E     		se_mr %r30,%r25
 309              	.LVL27:
 310 005e 79FFFFCA 		e_b .L24
 311              	.LVL28:
 312              	.L27:
 313              	.LBB4:
 314              	.LBB5:
 315              		.loc 1 99 0
 316 0062 70E0E000 		e_lis %r7,.LANCHOR2@ha
 317 0066 70C0E000 		e_lis %r6,.LANCHOR3@ha
 318 006a 1CE70000 		e_la %r7,.LANCHOR2@l(%r7)
 319 006e 1CC60000 		e_la %r6,.LANCHOR3@l(%r6)
 320              		.loc 1 100 0
 321 0072 0173     		se_mr %r3,%r7
 322              		.loc 1 99 0
 323 0074 D167     		se_stw %r6,4(%r7)
 324              		.loc 1 100 0
 325 0076 78000001 		e_bl BMS_Controller_initialize
 326              	.LVL29:
 327              	.LBE5:
 328              	.LBE4:
 329              		.loc 1 86 0
 330 007a 7060E000 		e_lis %r3,PITD1@ha
 331 007e 7080E000 		e_lis %r4,pit0_config@ha
 332 0082 1C630000 		e_la %r3,PITD1@l(%r3)
 333 0086 1C840000 		e_la %r4,pit0_config@l(%r4)
 334 008a 78000001 		e_bl pit_lld_start
 335              	.LVL30:
 336              		.loc 1 88 0
 337 008e 4816     		se_li %r6,1
 338 0090 70FEE7FC 		e_lis %r7,0xf7fc
 339              		.loc 1 90 0
 340 0094 4813     		se_li %r3,1
 341              		.loc 1 88 0
 342 0096 34C71358 		e_stb %r6,4952(%r7)
GAS LISTING C:\Users\Vipuls\AppData\Local\Temp\cczU40wf.s 			page 7


 343              	.LVL31:
 344              		.loc 1 90 0
 345 009a 78000001 		e_bl AEK_POW_BMS63EN_StopCellBalancing
 346              	.LVL32:
 347 009e 4823     		se_li %r3,2
 348 00a0 78000001 		e_bl AEK_POW_BMS63EN_StopCellBalancing
 349              	.LVL33:
 350              		.loc 1 93 0
 351 00a4 CB01     		se_lwz %r0,44(%r1)
 352 00a6 1B21080C 		e_lmw %r25,12(%r1)
 353              	.LVL34:
 354              		.loc 1 92 0
 355 00aa 4833     		se_li %r3,3
 356              		.loc 1 93 0
 357              		.loc 1 92 0
 358 00ac 48E4     		se_li %r4,14
 359              		.loc 1 93 0
 360 00ae 0090     		se_mtlr %r0
 361              		.cfi_restore 65
 362 00b0 18218028 		e_addi %r1,%r1,40
 363              	.LCFI6:
 364              		.cfi_restore 31
 365              		.cfi_restore 30
 366              		.cfi_restore 29
 367              		.cfi_restore 28
 368              		.cfi_restore 27
 369              		.cfi_restore 26
 370              		.cfi_restore 25
 371              		.cfi_def_cfa_offset 0
 372              		.loc 1 92 0
 373 00b4 78000000 		e_b AEK_POW_BMS63EN_DisableCellBalancing
 374              	.LVL35:
 375              		.cfi_endproc
 376              	.LFE6:
 377              		.size	AEK_POW_BMS63EN_init, .-AEK_POW_BMS63EN_init
 378              		.section	.text.AEK_POW_BMS63EN_InitModel,"axv",@progbits
 379              		.align 1
 380              		.p2align 4,,15
 381              		.globl AEK_POW_BMS63EN_InitModel
 382              		.type	AEK_POW_BMS63EN_InitModel, @function
 383              	AEK_POW_BMS63EN_InitModel:
 384              	.LFB7:
 385              		.loc 1 96 0
 386              		.cfi_startproc
 387              	.LVL36:
 388              		.loc 1 99 0
 389 0000 70E0E000 		e_lis %r7,.LANCHOR2@ha
 390 0004 70C0E000 		e_lis %r6,.LANCHOR3@ha
 391 0008 1CE70000 		e_la %r7,.LANCHOR2@l(%r7)
 392 000c 1CC60000 		e_la %r6,.LANCHOR3@l(%r6)
 393              		.loc 1 100 0
 394 0010 0173     		se_mr %r3,%r7
 395              		.loc 1 99 0
 396 0012 D167     		se_stw %r6,4(%r7)
 397              		.loc 1 101 0
 398              		.loc 1 100 0
 399 0014 78000000 		e_b BMS_Controller_initialize
GAS LISTING C:\Users\Vipuls\AppData\Local\Temp\cczU40wf.s 			page 8


 400              	.LVL37:
 401              		.cfi_endproc
 402              	.LFE7:
 403              		.size	AEK_POW_BMS63EN_InitModel, .-AEK_POW_BMS63EN_InitModel
 404              		.section	.text.AEK_POW_BMS63EN_Start_Mgn_exec,"axv",@progbits
 405              		.align 1
 406              		.p2align 4,,15
 407              		.globl AEK_POW_BMS63EN_Start_Mgn_exec
 408              		.type	AEK_POW_BMS63EN_Start_Mgn_exec, @function
 409              	AEK_POW_BMS63EN_Start_Mgn_exec:
 410              	.LFB8:
 411              		.loc 1 104 0
 412              		.cfi_startproc
 413              		.loc 1 106 0
 414 0000 7060E000 		e_lis %r3,PITD1@ha
 415 0004 4834     		se_li %r4,3
 416 0006 1C630000 		e_la %r3,PITD1@l(%r3)
 417              		.loc 1 107 0
 418              		.loc 1 106 0
 419 000a 78000000 		e_b pit_lld_channel_start
 420              	.LVL38:
 421              		.cfi_endproc
 422              	.LFE8:
 423              		.size	AEK_POW_BMS63EN_Start_Mgn_exec, .-AEK_POW_BMS63EN_Start_Mgn_exec
 424              		.section	.text.AEK_POW_BMS63EN_VA_Measurement,"axv",@progbits
 425              		.align 1
 426              		.p2align 4,,15
 427              		.globl AEK_POW_BMS63EN_VA_Measurement
 428              		.type	AEK_POW_BMS63EN_VA_Measurement, @function
 429              	AEK_POW_BMS63EN_VA_Measurement:
 430              	.LFB10:
 431              		.loc 1 125 0
 432              		.cfi_startproc
 433              	.LVL39:
 434 0000 182106E0 		e_stwu %r1,-32(%r1)
 435              	.LCFI7:
 436              		.cfi_def_cfa_offset 32
 437 0004 0080     		se_mflr %r0
 438 0006 1B410908 		e_stmw %r26,8(%r1)
 439 000a D901     		se_stw %r0,36(%r1)
 440              		.cfi_offset 65, 4
 441              		.cfi_offset 26, -24
 442              		.cfi_offset 27, -20
 443              		.cfi_offset 28, -16
 444              		.cfi_offset 29, -12
 445              		.cfi_offset 30, -8
 446              		.cfi_offset 31, -4
 447 000c 7380E000 		e_lis %r28,.LANCHOR1@ha
 448              		.loc 1 125 0
 449 0010 4807     		se_li %r7,0
 450 0012 1F9C0000 		e_la %r28,.LANCHOR1@l(%r28)
 451              		.loc 1 131 0
 452 0016 480A     		se_li %r26,0
 453 0018 1B9C8038 		e_addi %r28,%r28,56
 454              	.LVL40:
 455              	.L34:
 456 001c 1BA78001 		e_addi %r29,%r7,1
GAS LISTING C:\Users\Vipuls\AppData\Local\Temp\cczU40wf.s 			page 9


 457              		.loc 1 129 0
 458 0020 4814     		se_li %r4,1
 459 0022 4825     		se_li %r5,2
 460 0024 4846     		se_li %r6,4
 461 0026 4867     		se_li %r7,6
 462 0028 71000008 		e_li %r8,8
 463 002c 7120000A 		e_li %r9,10
 464 0030 01D3     		se_mr %r3,%r29
 465 0032 01CB     		se_mr %r27,%r28
 466 0034 78000001 		e_bl AEK_POW_BMS63EN_StartManualConversion
 467              	.LVL41:
 468              		.loc 1 131 0
 469 0038 01CE     		se_mr %r30,%r28
 470 003a 01D3     		se_mr %r3,%r29
 471 003c 01AF     		se_mr %r31,%r26
 472 003e 78000001 		e_bl AEK_POW_BMS63EN_GetBatteryPackVoltMeasurement
 473              	.LVL42:
 474 0042 547C00D0 		e_stw %r3,208(%r28)
 475              	.LVL43:
 476 0046 7800000E 		e_b .L33
 477              	.LVL44:
 478              	.L32:
 479 004a 200F     		se_addi %r31,1
 480              	.LVL45:
 481 004c 203E     		se_addi %r30,4
 482              		.loc 1 133 0 discriminator 2
 483 004e 22DF     		se_cmpli %r31,14
 484 0050 7A120028 		e_beq %cr0,.L37
 485              	.LVL46:
 486              	.L33:
 487              		.loc 1 134 0
 488 0054 01F4     		se_mr %r4,%r31
 489 0056 01D3     		se_mr %r3,%r29
 490 0058 78000001 		e_bl AEK_POW_BMS63EN_isEnabled
 491              	.LVL47:
 492 005c 2A03     		se_cmpi %r3,0
 493 005e 7A12FFEC 		e_beq %cr0,.L32
 494              		.loc 1 135 0
 495 0062 01F4     		se_mr %r4,%r31
 496 0064 01D3     		se_mr %r3,%r29
 497 0066 200F     		se_addi %r31,1
 498              	.LVL48:
 499 0068 78000001 		e_bl AEK_POW_BMS63EN_GetCellVoltMeasurement
 500              	.LVL49:
 501 006c 203E     		se_addi %r30,4
 502 006e 547EFFFC 		e_stw %r3,-4(%r30)
 503              	.LVL50:
 504              		.loc 1 133 0
 505 0072 22DF     		se_cmpli %r31,14
 506 0074 7A02FFE0 		e_bne %cr0,.L33
 507              	.L37:
 508              		.loc 1 139 0 discriminator 2
 509 0078 01D3     		se_mr %r3,%r29
 510 007a 4E44     		se_li %r4,100
 511 007c 1F9C013C 		e_add16i %r28,%r28,316
 512 0080 78000001 		e_bl AEK_POW_BMS63EN_GetInstCurrentMeasurement
 513              	.LVL51:
GAS LISTING C:\Users\Vipuls\AppData\Local\Temp\cczU40wf.s 			page 10


 514 0084 4817     		se_li %r7,1
 515 0086 547B0038 		e_stw %r3,56(%r27)
 516              	.LVL52:
 517              		.loc 1 128 0 discriminator 2
 518 008a 221D     		se_cmpli %r29,2
 519 008c 7A02FF90 		e_bne %cr0,.L34
 520              		.loc 1 141 0
 521 0090 C901     		se_lwz %r0,36(%r1)
 522 0092 0090     		se_mtlr %r0
 523              		.cfi_restore 65
 524 0094 1B410808 		e_lmw %r26,8(%r1)
 525 0098 21F1     		se_addi %r1,32
 526              	.LCFI8:
 527              		.cfi_restore 31
 528              		.cfi_restore 30
 529              		.cfi_restore 29
 530              		.cfi_restore 28
 531              		.cfi_restore 27
 532              		.cfi_restore 26
 533              		.cfi_def_cfa_offset 0
 534 009a 0004     		se_blr
 535              		.cfi_endproc
 536              	.LFE10:
 537              		.size	AEK_POW_BMS63EN_VA_Measurement, .-AEK_POW_BMS63EN_VA_Measurement
 538              		.section	.text.AEK_POW_BMS63EN_TEMP_Measurement,"axv",@progbits
 539              		.align 1
 540              		.p2align 4,,15
 541              		.globl AEK_POW_BMS63EN_TEMP_Measurement
 542              		.type	AEK_POW_BMS63EN_TEMP_Measurement, @function
 543              	AEK_POW_BMS63EN_TEMP_Measurement:
 544              	.LFB11:
 545              		.loc 1 143 0
 546              		.cfi_startproc
 547              	.LVL53:
 548 0000 182106F0 		e_stwu %r1,-16(%r1)
 549              	.LCFI9:
 550              		.cfi_def_cfa_offset 16
 551 0004 0080     		se_mflr %r0
 552 0006 1BC10908 		e_stmw %r30,8(%r1)
 553 000a D501     		se_stw %r0,20(%r1)
 554              		.cfi_offset 65, 4
 555              		.cfi_offset 30, -8
 556              		.cfi_offset 31, -4
 557 000c 73E0E000 		e_lis %r31,.LANCHOR1@ha
 558              		.loc 1 143 0
 559 0010 4807     		se_li %r7,0
 560 0012 1FFF0000 		e_la %r31,.LANCHOR1@l(%r31)
 561              	.LVL54:
 562              	.L39:
 563 0016 1FFF013C 		e_add16i %r31,%r31,316
 564 001a 1BC78001 		e_addi %r30,%r7,1
 565              		.loc 1 146 0 discriminator 3
 566 001e 71000008 		e_li %r8,8
 567 0022 4867     		se_li %r7,6
 568 0024 7120000A 		e_li %r9,10
 569 0028 4814     		se_li %r4,1
 570 002a 4825     		se_li %r5,2
GAS LISTING C:\Users\Vipuls\AppData\Local\Temp\cczU40wf.s 			page 11


 571 002c 4846     		se_li %r6,4
 572 002e 01E3     		se_mr %r3,%r30
 573 0030 78000001 		e_bl AEK_POW_BMS63EN_StartManualConversion
 574              	.LVL55:
 575              		.loc 1 149 0 discriminator 3
 576 0034 01E3     		se_mr %r3,%r30
 577 0036 78000001 		e_bl AEK_POW_BMS63EN_GetVTREFVoltMeasurement
 578              	.LVL56:
 579              		.loc 1 151 0 discriminator 3
 580 003a 4804     		se_li %r4,0
 581              		.loc 1 149 0 discriminator 3
 582 003c 0135     		se_mr %r5,%r3
 583 003e 547FFFD0 		e_stw %r3,-48(%r31)
 584              		.loc 1 151 0 discriminator 3
 585 0042 4816     		se_li %r6,1
 586 0044 01E3     		se_mr %r3,%r30
 587 0046 78000001 		e_bl AEK_POW_BMS63EN_GetNTCMeasurement
 588              	.LVL57:
 589              		.loc 1 154 0 discriminator 3
 590 004a 50BFFFD0 		e_lwz %r5,-48(%r31)
 591              		.loc 1 151 0 discriminator 3
 592 004e 547FFEC4 		e_stw %r3,-316(%r31)
 593              		.loc 1 152 0 discriminator 3
 594 0052 547FFEC8 		e_stw %r3,-312(%r31)
 595              		.loc 1 153 0 discriminator 3
 596 0056 547FFECC 		e_stw %r3,-308(%r31)
 597              		.loc 1 154 0 discriminator 3
 598 005a 4814     		se_li %r4,1
 599 005c 4816     		se_li %r6,1
 600 005e 01E3     		se_mr %r3,%r30
 601 0060 78000001 		e_bl AEK_POW_BMS63EN_GetNTCMeasurement
 602              	.LVL58:
 603              		.loc 1 157 0 discriminator 3
 604 0064 50BFFFD0 		e_lwz %r5,-48(%r31)
 605              		.loc 1 154 0 discriminator 3
 606 0068 547FFED0 		e_stw %r3,-304(%r31)
 607              		.loc 1 155 0 discriminator 3
 608 006c 547FFED4 		e_stw %r3,-300(%r31)
 609              		.loc 1 156 0 discriminator 3
 610 0070 547FFED8 		e_stw %r3,-296(%r31)
 611              		.loc 1 157 0 discriminator 3
 612 0074 4824     		se_li %r4,2
 613 0076 4816     		se_li %r6,1
 614 0078 01E3     		se_mr %r3,%r30
 615 007a 78000001 		e_bl AEK_POW_BMS63EN_GetNTCMeasurement
 616              	.LVL59:
 617              		.loc 1 160 0 discriminator 3
 618 007e 50BFFFD0 		e_lwz %r5,-48(%r31)
 619              		.loc 1 157 0 discriminator 3
 620 0082 547FFEDC 		e_stw %r3,-292(%r31)
 621              		.loc 1 158 0 discriminator 3
 622 0086 547FFEE0 		e_stw %r3,-288(%r31)
 623              		.loc 1 159 0 discriminator 3
 624 008a 547FFEE4 		e_stw %r3,-284(%r31)
 625              		.loc 1 160 0 discriminator 3
 626 008e 4834     		se_li %r4,3
 627 0090 4816     		se_li %r6,1
GAS LISTING C:\Users\Vipuls\AppData\Local\Temp\cczU40wf.s 			page 12


 628 0092 01E3     		se_mr %r3,%r30
 629 0094 78000001 		e_bl AEK_POW_BMS63EN_GetNTCMeasurement
 630              	.LVL60:
 631              		.loc 1 163 0 discriminator 3
 632 0098 50BFFFD0 		e_lwz %r5,-48(%r31)
 633              		.loc 1 160 0 discriminator 3
 634 009c 547FFEE8 		e_stw %r3,-280(%r31)
 635              		.loc 1 161 0 discriminator 3
 636 00a0 547FFEEC 		e_stw %r3,-276(%r31)
 637              		.loc 1 162 0 discriminator 3
 638 00a4 547FFEF0 		e_stw %r3,-272(%r31)
 639              		.loc 1 163 0 discriminator 3
 640 00a8 4864     		se_li %r4,6
 641 00aa 01E3     		se_mr %r3,%r30
 642 00ac 4816     		se_li %r6,1
 643 00ae 78000001 		e_bl AEK_POW_BMS63EN_GetNTCMeasurement
 644              	.LVL61:
 645 00b2 4817     		se_li %r7,1
 646 00b4 547FFEF4 		e_stw %r3,-268(%r31)
 647              		.loc 1 164 0 discriminator 3
 648 00b8 547FFEF8 		e_stw %r3,-264(%r31)
 649              	.LVL62:
 650              		.loc 1 145 0 discriminator 3
 651 00bc 221E     		se_cmpli %r30,2
 652 00be 7A02FF58 		e_bne %cr0,.L39
 653              		.loc 1 166 0
 654 00c2 C501     		se_lwz %r0,20(%r1)
 655 00c4 0090     		se_mtlr %r0
 656              		.cfi_restore 65
 657 00c6 1BC10808 		e_lmw %r30,8(%r1)
 658 00ca 20F1     		se_addi %r1,16
 659              	.LCFI10:
 660              		.cfi_restore 31
 661              		.cfi_restore 30
 662              		.cfi_def_cfa_offset 0
 663 00cc 0004     		se_blr
 664              		.cfi_endproc
 665              	.LFE11:
 666              		.size	AEK_POW_BMS63EN_TEMP_Measurement, .-AEK_POW_BMS63EN_TEMP_Measurement
 667              		.section	.text.AEK_POW_BMS63EN_DIAG_Measurement,"axv",@progbits
 668              		.align 1
 669              		.p2align 4,,15
 670              		.globl AEK_POW_BMS63EN_DIAG_Measurement
 671              		.type	AEK_POW_BMS63EN_DIAG_Measurement, @function
 672              	AEK_POW_BMS63EN_DIAG_Measurement:
 673              	.LFB12:
 674              		.loc 1 175 0
 675              		.cfi_startproc
 676              	.LVL63:
 677 0000 182106E8 		e_stwu %r1,-24(%r1)
 678              	.LCFI11:
 679              		.cfi_def_cfa_offset 24
 680 0004 0080     		se_mflr %r0
 681 0006 1B810908 		e_stmw %r28,8(%r1)
 682 000a D701     		se_stw %r0,28(%r1)
 683              		.cfi_offset 65, 4
 684              		.cfi_offset 28, -16
GAS LISTING C:\Users\Vipuls\AppData\Local\Temp\cczU40wf.s 			page 13


 685              		.cfi_offset 29, -12
 686              		.cfi_offset 30, -8
 687              		.cfi_offset 31, -4
 688 000c 73E0E000 		e_lis %r31,.LANCHOR1@ha
 689              		.loc 1 178 0
 690 0010 4803     		se_li %r3,0
 691 0012 480E     		se_li %r30,0
 692              	.LVL64:
 693 0014 78000001 		e_bl AEK_COM_ISOSPI_GetFault
 694              	.LVL65:
 695 0018 1FFF0000 		e_la %r31,.LANCHOR1@l(%r31)
 696 001c 481C     		se_li %r28,1
 697 001e 2A03     		se_cmpi %r3,0
 698 0020 7A020028 		e_bne %cr0,.L45
 699              	.LVL66:
 700              	.L42:
 701              		.loc 1 177 0 discriminator 2
 702 0024 220E     		se_cmpli %r30,1
 703 0026 1FFF013C 		e_add16i %r31,%r31,316
 704 002a 7A020010 		e_bne %cr0,.L44
 705              		.loc 1 189 0
 706 002e C701     		se_lwz %r0,28(%r1)
 707 0030 0090     		se_mtlr %r0
 708              		.cfi_remember_state
 709              		.cfi_restore 65
 710 0032 1B810808 		e_lmw %r28,8(%r1)
 711              	.LVL67:
 712 0036 2171     		se_addi %r1,24
 713              	.LCFI12:
 714              		.cfi_restore 31
 715              		.cfi_restore 30
 716              		.cfi_restore 29
 717              		.cfi_restore 28
 718              		.cfi_def_cfa_offset 0
 719 0038 0004     		se_blr
 720              	.LVL68:
 721              	.L44:
 722              	.LCFI13:
 723              		.cfi_restore_state
 724              		.loc 1 178 0
 725 003a 4803     		se_li %r3,0
 726 003c 01CE     		se_mr %r30,%r28
 727              	.LVL69:
 728 003e 78000001 		e_bl AEK_COM_ISOSPI_GetFault
 729              	.LVL70:
 730 0042 2A03     		se_cmpi %r3,0
 731 0044 7A12FFE0 		e_beq %cr0,.L42
 732              	.LVL71:
 733              	.L45:
 734 0048 1BBE8001 		e_addi %r29,%r30,1
 735              		.loc 1 180 0
 736 004c 01D3     		se_mr %r3,%r29
 737 004e 78000001 		e_bl AEK_POW_BMS63EN_GetFaults1
 738              	.LVL72:
 739 0052 547F0120 		e_stw %r3,288(%r31)
 740              		.loc 1 181 0
 741 0056 01D3     		se_mr %r3,%r29
GAS LISTING C:\Users\Vipuls\AppData\Local\Temp\cczU40wf.s 			page 14


 742 0058 78000001 		e_bl AEK_POW_BMS63EN_GetFaults2
 743              	.LVL73:
 744 005c 547F0124 		e_stw %r3,292(%r31)
 745              		.loc 1 182 0
 746 0060 01D3     		se_mr %r3,%r29
 747 0062 78000001 		e_bl AEK_POW_BMS63EN_GetVCELLOVFaults
 748              	.LVL74:
 749 0066 547F0128 		e_stw %r3,296(%r31)
 750              		.loc 1 183 0
 751 006a 01D3     		se_mr %r3,%r29
 752 006c 78000001 		e_bl AEK_POW_BMS63EN_GetVCELLUVFaults
 753              	.LVL75:
 754 0070 547F012C 		e_stw %r3,300(%r31)
 755              		.loc 1 184 0
 756 0074 01D3     		se_mr %r3,%r29
 757 0076 78000001 		e_bl AEK_POW_BMS63EN_GetGPIOOTUTFaults
 758              	.LVL76:
 759 007a 547F0130 		e_stw %r3,304(%r31)
 760              		.loc 1 186 0
 761 007e 01D3     		se_mr %r3,%r29
 762 0080 78000001 		e_bl AEK_POW_BMS63EN_Get_Conf_OVL
 763              	.LVL77:
 764 0084 347F0134 		e_stb %r3,308(%r31)
 765 0088 79FFFF9C 		e_b .L42
 766              		.cfi_endproc
 767              	.LFE12:
 768              		.size	AEK_POW_BMS63EN_DIAG_Measurement, .-AEK_POW_BMS63EN_DIAG_Measurement
 769              		.section	.text.AEK_POW_BMS63EN_Model_exec,"axv",@progbits
 770              		.align 1
 771              		.p2align 4,,15
 772              		.globl AEK_POW_BMS63EN_Model_exec
 773              		.type	AEK_POW_BMS63EN_Model_exec, @function
 774              	AEK_POW_BMS63EN_Model_exec:
 775              	.LFB13:
 776              		.loc 1 192 0
 777              		.cfi_startproc
 778              	.LVL78:
 779 0000 182106E8 		e_stwu %r1,-24(%r1)
 780              	.LCFI14:
 781              		.cfi_def_cfa_offset 24
 782 0004 0080     		se_mflr %r0
 783              		.loc 1 195 0
 784 0006 7060E000 		e_lis %r3,.LANCHOR2@ha
 785              		.loc 1 192 0
 786 000a D701     		se_stw %r0,28(%r1)
 787              		.cfi_offset 65, 4
 788              		.loc 1 195 0
 789 000c 1C630000 		e_la %r3,.LANCHOR2@l(%r3)
 790              		.loc 1 197 0
 791 0010 7080E000 		e_lis %r4,.LANCHOR1@ha
 792              		.loc 1 195 0
 793 0014 70E0E000 		e_lis %r7,.LANCHOR3@ha
 794              		.loc 1 197 0
 795 0018 1C840000 		e_la %r4,.LANCHOR1@l(%r4)
 796              		.loc 1 195 0
 797 001c 1CE70000 		e_la %r7,.LANCHOR3@l(%r7)
 798              		.loc 1 200 0
GAS LISTING C:\Users\Vipuls\AppData\Local\Temp\cczU40wf.s 			page 15


 799 0020 50C40070 		e_lwz %r6,112(%r4)
 800              		.loc 1 195 0
 801 0024 D173     		se_stw %r7,4(%r3)
 802              		.loc 1 200 0
 803 0026 180480E8 		e_addi %r0,%r4,232
 804 002a 1CA40104 		e_add16i %r5,%r4,260
 805 002e 196480B0 		e_addi %r11,%r4,176
 806              		.loc 1 197 0
 807 0032 4817     		se_li %r7,1
 808              		.loc 1 200 0
 809 0034 71000000 		e_li %r8,0
 810              		.loc 1 197 0
 811 0038 34E40074 		e_stb %r7,116(%r4)
 812              		.loc 1 200 0
 813 003c 1D240110 		e_add16i %r9,%r4,272
 814              		.loc 1 198 0
 815 0040 4807     		se_li %r7,0
 816              		.loc 1 200 0
 817 0042 19448078 		e_addi %r10,%r4,120
 818              		.loc 1 198 0
 819 0046 34E4011E 		e_stb %r7,286(%r4)
 820              		.loc 1 200 0
 821 004a D301     		se_stw %r0,12(%r1)
 822 004c D451     		se_stw %r5,16(%r1)
 823 004e 55610008 		e_stw %r11,8(%r1)
 824 0052 18A48038 		e_addi %r5,%r4,56
 825 0056 4817     		se_li %r7,1
 826 0058 78000001 		e_bl BMS_Controller_step
 827              	.LVL79:
 828              		.loc 1 211 0
 829 005c C701     		se_lwz %r0,28(%r1)
 830 005e 0090     		se_mtlr %r0
 831              		.cfi_restore 65
 832 0060 2171     		se_addi %r1,24
 833              	.LCFI15:
 834              		.cfi_def_cfa_offset 0
 835 0062 0004     		se_blr
 836              		.cfi_endproc
 837              	.LFE13:
 838              		.size	AEK_POW_BMS63EN_Model_exec, .-AEK_POW_BMS63EN_Model_exec
 839              		.section	.text.AEK_POW_BMS63EN_Mgn_exec,"axv",@progbits
 840              		.align 1
 841              		.p2align 4,,15
 842              		.globl AEK_POW_BMS63EN_Mgn_exec
 843              		.type	AEK_POW_BMS63EN_Mgn_exec, @function
 844              	AEK_POW_BMS63EN_Mgn_exec:
 845              	.LFB9:
 846              		.loc 1 111 0
 847              		.cfi_startproc
 848 0000 182106F8 		e_stwu %r1,-8(%r1)
 849              	.LCFI16:
 850              		.cfi_def_cfa_offset 8
 851 0004 0080     		se_mflr %r0
 852              		.loc 1 112 0
 853 0006 70DEE7FC 		e_lis %r6,0xf7fc
 854              		.loc 1 111 0
 855 000a D301     		se_stw %r0,12(%r1)
GAS LISTING C:\Users\Vipuls\AppData\Local\Temp\cczU40wf.s 			page 16


 856              		.cfi_offset 65, 4
 857              		.loc 1 112 0
 858 000c 30E6135A 		e_lbz %r7,4954(%r6)
 859 0010 0027     		se_not %r7
 860 0012 00C7     		se_extzb %r7
 861 0014 34E6135A 		e_stb %r7,4954(%r6)
 862              		.loc 1 113 0
 863 0018 4806     		se_li %r6,0
 864 001a 70E0E000 		e_lis %r7,.LANCHOR0@ha
 865 001e 54C70000 		e_stw %r6,.LANCHOR0@l(%r7)
 866              		.loc 1 114 0
 867 0022 78000001 		e_bl AEK_POW_BMS63EN_VA_Measurement
 868              	.LVL80:
 869              		.loc 1 115 0
 870 0026 78000001 		e_bl AEK_POW_BMS63EN_TEMP_Measurement
 871              	.LVL81:
 872              		.loc 1 116 0
 873 002a 4803     		se_li %r3,0
 874 002c 78000001 		e_bl AEK_COM_ISOSPI_GetFault
 875              	.LVL82:
 876 0030 2A03     		se_cmpi %r3,0
 877 0032 7A120008 		e_beq %cr0,.L48
 878              		.loc 1 117 0
 879 0036 78000001 		e_bl AEK_POW_BMS63EN_DIAG_Measurement
 880              	.LVL83:
 881              	.L48:
 882              		.loc 1 119 0
 883 003a 78000001 		e_bl AEK_POW_BMS63EN_Model_exec
 884              	.LVL84:
 885              		.loc 1 120 0
 886 003e 78000001 		e_bl AEK_POW_BMS63EN_Balancing
 887              	.LVL85:
 888              		.loc 1 122 0
 889 0042 70DEE7FC 		e_lis %r6,0xf7fc
 890              		.loc 1 121 0
 891 0046 70E0E000 		e_lis %r7,.LANCHOR0@ha
 892 004a 4815     		se_li %r5,1
 893 004c 54A70000 		e_stw %r5,.LANCHOR0@l(%r7)
 894              		.loc 1 122 0
 895 0050 30E6135A 		e_lbz %r7,4954(%r6)
 896 0054 0027     		se_not %r7
 897 0056 00C7     		se_extzb %r7
 898 0058 34E6135A 		e_stb %r7,4954(%r6)
 899              		.loc 1 123 0
 900 005c C301     		se_lwz %r0,12(%r1)
 901 005e 0090     		se_mtlr %r0
 902              		.cfi_restore 65
 903 0060 2071     		se_addi %r1,8
 904              	.LCFI17:
 905              		.cfi_def_cfa_offset 0
 906 0062 0004     		se_blr
 907              		.cfi_endproc
 908              	.LFE9:
 909              		.size	AEK_POW_BMS63EN_Mgn_exec, .-AEK_POW_BMS63EN_Mgn_exec
 910              		.globl AEK_POW_BMS63EN_soc_elab_sts
 911              		.globl AEK_POW_BMS63EN_BatteryModules
 912              		.globl buffer
GAS LISTING C:\Users\Vipuls\AppData\Local\Temp\cczU40wf.s 			page 17


 913              		.section	.bss.AEK_POW_BMS63EN_soc_elab_sts,"aw",@nobits
 914              		.align 2
 915              		.set	.LANCHOR0,. + 0
 916              		.type	AEK_POW_BMS63EN_soc_elab_sts, @object
 917              		.size	AEK_POW_BMS63EN_soc_elab_sts, 4
 918              	AEK_POW_BMS63EN_soc_elab_sts:
 919 0000 00000000 		.zero	4
 920              		.section	.bss.buffer,"aw",@nobits
 921              		.align 2
 922              		.type	buffer, @object
 923              		.size	buffer, 28
 924              	buffer:
 925 0000 00000000 		.zero	28
 925      00000000 
 925      00000000 
 925      00000000 
 925      00000000 
 926              		.section	.bss.rtDWdev1,"aw",@nobits
 927              		.align 2
 928              		.set	.LANCHOR3,. + 0
 929              		.type	rtDWdev1, @object
 930              		.size	rtDWdev1, 1484
 931              	rtDWdev1:
 932 0000 00000000 		.zero	1484
 932      00000000 
 932      00000000 
 932      00000000 
 932      00000000 
 933              		.section	.bss.rtMdev1_,"aw",@nobits
 934              		.align 2
 935              		.set	.LANCHOR2,. + 0
 936              		.type	rtMdev1_, @object
 937              		.size	rtMdev1_, 8
 938              	rtMdev1_:
 939 0000 00000000 		.zero	8
 939      00000000 
 940              		.section	.bss.AEK_POW_BMS63EN_BatteryModules,"aw",@nobits
 941              		.align 2
 942              		.set	.LANCHOR1,. + 0
 943              		.type	AEK_POW_BMS63EN_BatteryModules, @object
 944              		.size	AEK_POW_BMS63EN_BatteryModules, 632
 945              	AEK_POW_BMS63EN_BatteryModules:
 946 0000 00000000 		.zero	632
 946      00000000 
 946      00000000 
 946      00000000 
 946      00000000 
 947              		.section	".text","axv"
 948              	.Letext0:
 949              		.file 2 "c:\\autodevkitstudio-2.4.0\\eclipse\\plugins\\com.st.tools.spc5.tools.gnu.gcc.ppcvle.win3
 950              		.file 3 "c:\\autodevkitstudio-2.4.0\\eclipse\\plugins\\com.st.tools.spc5.tools.gnu.gcc.ppcvle.win3
 951              		.file 4 "./components/spc58ecxx_platform_component_rla/lib/include/typedefs.h"
 952              		.file 5 "./components/spc58ecxx_platform_component_rla/lib/include/spc58xcxx.h"
 953              		.file 6 "./components/spc58ecxx_low_level_drivers_component_rla/lib/include/spc5_pit.h"
 954              		.file 7 "./components/spc58ecxx_low_level_drivers_component_rla/lib/include/pit_lld.h"
 955              		.file 8 "./components/aek_pow_bms63en_component_rla/lib/include/AEK_POW_BMS63EN_lld.h"
 956              		.file 9 "./components/aek_pow_bms63en_component_rla/lib/include/AEK_POW_BMS63EN_diag.h"
GAS LISTING C:\Users\Vipuls\AppData\Local\Temp\cczU40wf.s 			page 18


 957              		.file 10 "./components/aek_com_isospi1_component_rla/cfg/AEK_COM_ISOSPI1_cfg.h"
 958              		.file 11 "./components/aek_pow_bms63en_component_rla/lib/include/AEK_POW_BMS63EN_id.h"
 959              		.file 12 "./source/ModelBMS/rtwtypes.h"
 960              		.file 13 "./source/ModelBMS/BMS_Controller_types.h"
 961              		.file 14 "./source/ModelBMS/BMS_Controller.h"
 962              		.file 15 "./source/AEK_POW_BMS63EN_Appl.h"
 963              		.file 16 "./components/spc58ecxx_low_level_drivers_component_rla/cfg/pit_lld_cfg.h"
 964              		.file 17 "./components/aek_com_isospi1_component_rla/lib/include/AEK_COM_ISOSPI1_lld.h"