GAS LISTING C:\Users\Vipuls\AppData\Local\Temp\ccXQCREv.s 			page 1


   1              		.file	"clock.c"
   2              		.section	".text","axv"
   3              	.Ltext0:
   4              		.cfi_sections	.debug_frame
   5              		.section	.text.clockInit,"axv",@progbits
   6              		.align 1
   7              		.p2align 4,,15
   8              		.globl clockInit
   9              		.type	clockInit, @function
  10              	clockInit:
  11              	.LFB5:
  12              		.file 1 "./components/spc58ecxx_clock_component_rla/lib/src/clock.c"
  13              		.loc 1 143 0
  14              		.cfi_startproc
  15              	.LVL0:
  16              	.LBB12:
  17              	.LBB13:
  18              		.loc 1 327 0
  19 0000 4BF6     		se_li %r6,63
  20 0002 70FEE7FB 		e_lis %r7,0xf7fb
  21              		.loc 1 331 0
  22 0006 6215     		se_bgeni %r5,1
  23              		.loc 1 327 0
  24 0008 6507     		se_bseti %r7,16
  25              		.loc 1 331 0
  26 000a 70B4C50F 		e_or2i %r5,42255
  27              		.loc 1 327 0
  28 000e D367     		se_stw %r6,12(%r7)
  29              		.loc 1 330 0
  30 0010 6216     		se_bgeni %r6,1
  31 0012 70CBC2F0 		e_or2i %r6,23280
  32 0016 D167     		se_stw %r6,4(%r7)
  33              		.loc 1 334 0
  34 0018 0176     		se_mr %r6,%r7
  35              		.loc 1 331 0
  36 001a D157     		se_stw %r5,4(%r7)
  37              	.L2:
  38              		.loc 1 334 0
  39 001c C376     		se_lwz %r7,12(%r6)
  40 001e 2A07     		se_cmpi %r7,0
  41 0020 7A12FFFC 		e_beq %cr0,.L2
  42              		.loc 1 338 0
  43 0024 C376     		se_lwz %r7,12(%r6)
  44 0026 67F7     		se_btsti %r7,31
  45 0028 7A020008 		e_bne %cr0,.L5
  46              	.LBE13:
  47              	.LBE12:
  48              		.loc 1 149 0
  49              		.loc 1 147 0
  50 002c 78000000 		e_b irqSysHalt
  51              	.LVL1:
  52              	.L5:
  53 0030 0004     		se_blr
  54              		.cfi_endproc
  55              	.LFE5:
  56              		.size	clockInit, .-clockInit
  57              		.section	.text.spc_clock_init,"axv",@progbits
GAS LISTING C:\Users\Vipuls\AppData\Local\Temp\ccXQCREv.s 			page 2


  58              		.align 1
  59              		.p2align 4,,15
  60              		.globl spc_clock_init
  61              		.type	spc_clock_init, @function
  62              	spc_clock_init:
  63              	.LFB6:
  64              		.loc 1 158 0
  65              		.cfi_startproc
  66 0000 182106F8 		e_stwu %r1,-8(%r1)
  67              	.LCFI0:
  68              		.cfi_def_cfa_offset 8
  69 0004 0080     		se_mflr %r0
  70              		.loc 1 161 0
  71 0006 70DEE7FB 		e_lis %r6,0xf7fb
  72              		.loc 1 158 0
  73 000a D301     		se_stw %r0,12(%r1)
  74              		.cfi_offset 65, 4
  75              		.loc 1 161 0
  76 000c 6506     		se_bseti %r6,16
  77              	.L8:
  78              		.loc 1 161 0 is_stmt 0 discriminator 1
  79 000e C076     		se_lwz %r7,0(%r6)
  80 0010 67B7     		se_btsti %r7,27
  81 0012 7A12FFFC 		e_beq %cr0,.L8
  82              		.loc 1 166 0 is_stmt 1
  83 0016 4836     		se_li %r6,3
  84 0018 70FEE7FF 		e_lis %r7,0xf7ff
  85              	.LBB24:
  86              	.LBB25:
  87              		.loc 1 44 0
  88 001c 70B5E334 		e_lis %r5,0xab34
  89              	.LBE25:
  90              	.LBE24:
  91              		.loc 1 166 0
  92 0020 6507     		se_bseti %r7,16
  93              	.LBB28:
  94              	.LBB26:
  95              		.loc 1 44 0
  96 0022 70B3C0FE 		e_or2i %r5,39166
  97              	.LBE26:
  98              	.LBE28:
  99              		.loc 1 166 0
 100 0026 B367     		se_sth %r6,6(%r7)
 101              	.LBB29:
 102              	.LBB27:
 103              		.loc 1 44 0
 104 0028 700793F6 		e_add2is %r7,0x3f6
 105 002c 54A70090 		e_stw %r5,144(%r7)
 106              		.loc 1 46 0
 107 0030 0176     		se_mr %r6,%r7
 108              		.loc 1 45 0
 109 0032 2C05     		se_bmaski %r5,0
 110 0034 54A70080 		e_stw %r5,128(%r7)
 111              	.L9:
 112              		.loc 1 46 0
 113 0038 C076     		se_lwz %r7,0(%r6)
 114 003a 74E7D7BF 		e_rlwinm %r7,%r7,26,30,31
GAS LISTING C:\Users\Vipuls\AppData\Local\Temp\ccXQCREv.s 			page 3


 115 003e 2227     		se_cmpli %r7,3
 116 0040 7A02FFF8 		e_bne %cr0,.L9
 117              		.loc 1 50 0
 118 0044 70F5E334 		e_lis %r7,0xab34
 119              		.loc 1 52 0
 120 0048 70BFE3F5 		e_lis %r5,0xfbf5
 121              		.loc 1 50 0
 122 004c 70F3C0FE 		e_or2i %r7,39166
 123              		.loc 1 52 0
 124 0050 6505     		se_bseti %r5,16
 125              		.loc 1 50 0
 126 0052 54E60090 		e_stw %r7,144(%r6)
 127              		.loc 1 51 0
 128 0056 2C07     		se_bmaski %r7,0
 129 0058 54E60084 		e_stw %r7,132(%r6)
 130              	.L10:
 131              		.loc 1 52 0
 132 005c C075     		se_lwz %r7,0(%r5)
 133 005e 74E7D7BF 		e_rlwinm %r7,%r7,26,30,31
 134 0062 2227     		se_cmpli %r7,3
 135 0064 7A02FFF8 		e_bne %cr0,.L10
 136              		.loc 1 56 0
 137 0068 70F5E334 		e_lis %r7,0xab34
 138              		.loc 1 58 0
 139 006c 70DFE3F5 		e_lis %r6,0xfbf5
 140              		.loc 1 56 0
 141 0070 70F3C0FE 		e_or2i %r7,39166
 142              		.loc 1 58 0
 143 0074 6506     		se_bseti %r6,16
 144              		.loc 1 56 0
 145 0076 54E50090 		e_stw %r7,144(%r5)
 146              		.loc 1 57 0
 147 007a 2C07     		se_bmaski %r7,0
 148 007c 54E50088 		e_stw %r7,136(%r5)
 149              	.L11:
 150              		.loc 1 58 0
 151 0080 C076     		se_lwz %r7,0(%r6)
 152 0082 74E7D7BF 		e_rlwinm %r7,%r7,26,30,31
 153 0086 2227     		se_cmpli %r7,3
 154 0088 7A02FFF8 		e_bne %cr0,.L11
 155              		.loc 1 62 0
 156 008c 70F5E334 		e_lis %r7,0xab34
 157              		.loc 1 64 0
 158 0090 70BFE3F5 		e_lis %r5,0xfbf5
 159              		.loc 1 62 0
 160 0094 70F3C0FE 		e_or2i %r7,39166
 161              		.loc 1 64 0
 162 0098 6505     		se_bseti %r5,16
 163              		.loc 1 62 0
 164 009a 54E60090 		e_stw %r7,144(%r6)
 165              		.loc 1 63 0
 166 009e 2C07     		se_bmaski %r7,0
 167 00a0 54E6008C 		e_stw %r7,140(%r6)
 168              	.L12:
 169              		.loc 1 64 0
 170 00a4 C075     		se_lwz %r7,0(%r5)
 171 00a6 74E7D7BF 		e_rlwinm %r7,%r7,26,30,31
GAS LISTING C:\Users\Vipuls\AppData\Local\Temp\ccXQCREv.s 			page 4


 172 00aa 2227     		se_cmpli %r7,3
 173 00ac 7A02FFF8 		e_bne %cr0,.L12
 174              		.loc 1 68 0
 175 00b0 2D06     		se_bmaski %r6,16
 176 00b2 70FEE7FA 		e_lis %r7,0xf7fa
 177 00b6 6507     		se_bseti %r7,16
 178 00b8 54C70300 		e_stw %r6,768(%r7)
 179              		.loc 1 69 0
 180 00bc D067     		se_stw %r6,0(%r7)
 181              	.LBE27:
 182              	.LBE29:
 183              		.loc 1 176 0
 184 00be 18E78201 		e_addi %r7,%r7,65536
 185 00c2 C077     		se_lwz %r7,0(%r7)
 186 00c4 69C7     		se_srwi %r7,28
 187 00c6 2227     		se_cmpli %r7,3
 188 00c8 7A120008 		e_beq %cr0,.L13
 189              		.loc 1 177 0
 190 00cc 78000001 		e_bl irqSysHalt
 191              	.LVL2:
 192              	.L13:
 193              		.loc 1 201 0
 194 00d0 7070E003 		e_lis %r3,0x8003
 195              		.loc 1 221 0
 196 00d4 6274     		se_bgeni %r4,7
 197              		.loc 1 200 0
 198 00d6 7010E001 		e_lis %r0,0x8001
 199              		.loc 1 210 0
 200 00da 70D0E004 		e_lis %r6,0x8004
 201              		.loc 1 220 0
 202 00de 7160E200 		e_lis %r11,0x200
 203              		.loc 1 199 0
 204 00e2 6205     		se_bgeni %r5,0
 205              		.loc 1 209 0
 206 00e4 71400000 		e_li %r10,0
 207              		.loc 1 190 0
 208 00e8 713EE7FB 		e_lis %r9,0xf7fb
 209              		.loc 1 199 0
 210 00ec 70FEE7FB 		e_lis %r7,0xf7fb
 211              		.loc 1 190 0
 212 00f0 1929D102 		e_ori %r9,%r9,512
 213              		.loc 1 199 0
 214 00f4 18E7D106 		e_ori %r7,%r7,1536
 215              		.loc 1 190 0
 216 00f8 51090000 		e_lwz %r8,0(%r9)
 217 00fc 71800003 		e_li %r12,3
 218 0100 75880F7C 		e_rlwimi %r8,%r12,1,29,30
 219 0104 55090000 		e_stw %r8,0(%r9)
 220              		.loc 1 199 0
 221 0108 54A701E8 		e_stw %r5,488(%r7)
 222              		.loc 1 206 0
 223 010c 7110E018 		e_lis %r8,0x8018
 224              		.loc 1 200 0
 225 0110 540701EC 		e_stw %r0,492(%r7)
 226              		.loc 1 223 0
 227 0114 713EE7F9 		e_lis %r9,0xf7f9
 228              		.loc 1 201 0
GAS LISTING C:\Users\Vipuls\AppData\Local\Temp\ccXQCREv.s 			page 5


 229 0118 546701F0 		e_stw %r3,496(%r7)
 230              		.loc 1 223 0
 231 011c 1929D140 		e_ori %r9,%r9,16384
 232              		.loc 1 202 0
 233 0120 54A701F4 		e_stw %r5,500(%r7)
 234              		.loc 1 203 0
 235 0124 546701F8 		e_stw %r3,504(%r7)
 236              		.loc 1 233 0
 237 0128 70BEE7FB 		e_lis %r5,0xf7fb
 238              		.loc 1 206 0
 239 012c 55070208 		e_stw %r8,520(%r7)
 240              		.loc 1 233 0
 241 0130 6505     		se_bseti %r5,16
 242              		.loc 1 207 0
 243 0132 5467020C 		e_stw %r3,524(%r7)
 244              		.loc 1 208 0
 245 0136 7110E009 		e_lis %r8,0x8009
 246 013a 55070248 		e_stw %r8,584(%r7)
 247              		.loc 1 209 0
 248 013e 554702C8 		e_stw %r10,712(%r7)
 249              		.loc 1 210 0
 250 0142 54C70308 		e_stw %r6,776(%r7)
 251              		.loc 1 211 0
 252 0146 54C70328 		e_stw %r6,808(%r7)
 253              		.loc 1 212 0
 254 014a 54C70368 		e_stw %r6,872(%r7)
 255              		.loc 1 213 0
 256 014e 54670388 		e_stw %r3,904(%r7)
 257              	.LBB30:
 258              	.LBB31:
 259              		.loc 1 334 0
 260 0152 0156     		se_mr %r6,%r5
 261              	.LBE31:
 262              	.LBE30:
 263              		.loc 1 214 0
 264 0154 5467038C 		e_stw %r3,908(%r7)
 265              		.loc 1 215 0
 266 0158 54070390 		e_stw %r0,912(%r7)
 267              		.loc 1 216 0
 268 015c 54070394 		e_stw %r0,916(%r7)
 269              		.loc 1 217 0
 270 0160 54070398 		e_stw %r0,920(%r7)
 271              		.loc 1 220 0
 272 0164 55670200 		e_stw %r11,512(%r7)
 273              		.loc 1 221 0
 274 0168 54870260 		e_stw %r4,608(%r7)
 275              		.loc 1 222 0
 276 016c 54870280 		e_stw %r4,640(%r7)
 277              		.loc 1 223 0
 278 0170 50690004 		e_lwz %r3,4(%r9)
 279 0174 754364A6 		e_rlwimi %r3,%r10,12,18,19
 280 0178 54690004 		e_stw %r3,4(%r9)
 281              		.loc 1 224 0
 282 017c 556702C0 		e_stw %r11,704(%r7)
 283              		.loc 1 225 0
 284 0180 54870300 		e_stw %r4,768(%r7)
 285              		.loc 1 226 0
GAS LISTING C:\Users\Vipuls\AppData\Local\Temp\ccXQCREv.s 			page 6


 286 0184 54870320 		e_stw %r4,800(%r7)
 287              		.loc 1 227 0
 288 0188 54870360 		e_stw %r4,864(%r7)
 289              		.loc 1 228 0
 290 018c 55670380 		e_stw %r11,896(%r7)
 291              		.loc 1 233 0
 292 0190 70E0E013 		e_lis %r7,0x13
 293 0194 18E7D030 		e_ori %r7,%r7,48
 294 0198 DB75     		se_stw %r7,44(%r5)
 295              	.LVL3:
 296              	.LBB33:
 297              	.LBB32:
 298              		.loc 1 327 0
 299 019a 4BF7     		se_li %r7,63
 300 019c D375     		se_stw %r7,12(%r5)
 301              		.loc 1 330 0
 302 019e 70E6E000 		e_lis %r7,0x3000
 303 01a2 70EBC2F0 		e_or2i %r7,23280
 304 01a6 D175     		se_stw %r7,4(%r5)
 305              		.loc 1 331 0
 306 01a8 70E6E000 		e_lis %r7,0x3000
 307 01ac 70F4C50F 		e_or2i %r7,42255
 308 01b0 D175     		se_stw %r7,4(%r5)
 309              	.L14:
 310              		.loc 1 334 0
 311 01b2 C376     		se_lwz %r7,12(%r6)
 312 01b4 2A07     		se_cmpi %r7,0
 313 01b6 7A12FFFC 		e_beq %cr0,.L14
 314              		.loc 1 338 0
 315 01ba C376     		se_lwz %r7,12(%r6)
 316 01bc 67F7     		se_btsti %r7,31
 317 01be 7A020008 		e_bne %cr0,.L19
 318              	.LBE32:
 319              	.LBE33:
 320              		.loc 1 237 0
 321 01c2 78000001 		e_bl irqSysHalt
 322              	.LVL4:
 323              	.L19:
 324              		.loc 1 242 0
 325 01c6 4807     		se_li %r7,0
 326 01c8 70DEE7FB 		e_lis %r6,0xf7fb
 327              		.loc 1 243 0
 328 01cc 70AAE004 		e_lis %r5,0x5004
 329              		.loc 1 242 0
 330 01d0 6576     		se_bseti %r6,23
 331              		.loc 1 243 0
 332 01d2 70A2C010 		e_or2i %r5,4112
 333              		.loc 1 242 0
 334 01d6 D076     		se_stw %r7,0(%r6)
 335              		.loc 1 243 0
 336 01d8 D256     		se_stw %r5,8(%r6)
 337              		.loc 1 247 0
 338 01da D876     		se_stw %r7,32(%r6)
 339              		.loc 1 248 0
 340 01dc 70A01012 		e_li %r5,131090
 341              		.loc 1 254 0
 342 01e0 70FEE7FB 		e_lis %r7,0xf7fb
GAS LISTING C:\Users\Vipuls\AppData\Local\Temp\ccXQCREv.s 			page 7


 343              		.loc 1 248 0
 344 01e4 DA56     		se_stw %r5,40(%r6)
 345              		.loc 1 254 0
 346 01e6 6507     		se_bseti %r7,16
 347 01e8 4886     		se_li %r6,8
 348              		.loc 1 257 0
 349 01ea 70A0E013 		e_lis %r5,0x13
 350              		.loc 1 254 0
 351 01ee D367     		se_stw %r6,12(%r7)
 352              		.loc 1 257 0
 353 01f0 18A5D0F4 		e_ori %r5,%r5,244
 354              		.loc 1 255 0
 355 01f4 70C405FD 		e_li %r6,9725
 356 01f8 D267     		se_stw %r6,8(%r7)
 357              		.loc 1 256 0
 358 01fa 70C0E093 		e_lis %r6,0x93
 359 01fe 65B6     		se_bseti %r6,27
 360 0200 DA67     		se_stw %r6,40(%r7)
 361              		.loc 1 257 0
 362 0202 DB57     		se_stw %r5,44(%r7)
 363              		.loc 1 259 0
 364 0204 70C0E013 		e_lis %r6,0x13
 365              		.loc 1 258 0
 366 0208 DC57     		se_stw %r5,48(%r7)
 367              		.loc 1 259 0
 368 020a 65B6     		se_bseti %r6,27
 369 020c DD67     		se_stw %r6,52(%r7)
 370              		.loc 1 260 0
 371 020e DE67     		se_stw %r6,56(%r7)
 372              		.loc 1 261 0
 373 0210 DF67     		se_stw %r6,60(%r7)
 374              		.loc 1 262 0
 375 0212 70C0E012 		e_lis %r6,0x12
 376 0216 65B6     		se_bseti %r6,27
 377 0218 54C70040 		e_stw %r6,64(%r7)
 378              		.loc 1 263 0
 379 021c 70C0E011 		e_lis %r6,0x11
 380 0220 65B6     		se_bseti %r6,27
 381 0222 54C70048 		e_stw %r6,72(%r7)
 382              		.loc 1 264 0
 383 0226 70C0E081 		e_lis %r6,0x81
 384 022a 18C6D01F 		e_ori %r6,%r6,31
 385 022e 54C70054 		e_stw %r6,84(%r7)
 386              		.loc 1 265 0
 387 0232 C377     		se_lwz %r7,12(%r7)
 388 0234 67C7     		se_btsti %r7,28
 389 0236 7A0200EA 		e_bne %cr0,.L29
 390              	.L16:
 391              		.loc 1 271 0
 392 023a 4805     		se_li %r5,0
 393              	.LBB34:
 394              	.LBB35:
 395              		.loc 1 84 0
 396 023c 4813     		se_li %r3,1
 397              	.LBE35:
 398              	.LBE34:
 399              		.loc 1 272 0
GAS LISTING C:\Users\Vipuls\AppData\Local\Temp\ccXQCREv.s 			page 8


 400 023e 70C000FC 		e_li %r6,252
 401              		.loc 1 271 0
 402 0242 70FEE7FB 		e_lis %r7,0xf7fb
 403              	.LBB39:
 404              	.LBB36:
 405              		.loc 1 83 0
 406 0246 709EE403 		e_lis %r4,0xf403
 407              	.LBE36:
 408              	.LBE39:
 409              		.loc 1 271 0
 410 024a 6507     		se_bseti %r7,16
 411              	.LBB40:
 412              	.LBB37:
 413              		.loc 1 83 0
 414 024c 6514     		se_bseti %r4,17
 415              	.LBE37:
 416              	.LBE40:
 417              		.loc 1 271 0
 418 024e 54A70080 		e_stw %r5,128(%r7)
 419              	.LBB41:
 420              	.LBB42:
 421              		.loc 1 124 0
 422 0252 713EE40A 		e_lis %r9,0xf40a
 423              	.LBE42:
 424              	.LBE41:
 425              		.loc 1 272 0
 426 0256 54C70084 		e_stw %r6,132(%r7)
 427              	.LBB47:
 428              	.LBB43:
 429              		.loc 1 124 0
 430 025a 1929D180 		e_ori %r9,%r9,32768
 431              	.LBE43:
 432              	.LBE47:
 433              		.loc 1 273 0
 434 025e 70C000F8 		e_li %r6,248
 435              	.LBB48:
 436              	.LBB44:
 437              		.loc 1 125 0
 438 0262 717EE40A 		e_lis %r11,0xf40a
 439              	.LBE44:
 440              	.LBE48:
 441              		.loc 1 273 0
 442 0266 54C70088 		e_stw %r6,136(%r7)
 443              	.LBB49:
 444              	.LBB45:
 445              		.loc 1 125 0
 446 026a 196BD1C0 		e_ori %r11,%r11,49152
 447              	.LBE45:
 448              	.LBE49:
 449              		.loc 1 274 0
 450 026e 54A7008C 		e_stw %r5,140(%r7)
 451              		.loc 1 280 0
 452 0272 70C40500 		e_li %r6,9472
 453              		.loc 1 275 0
 454 0276 54A70090 		e_stw %r5,144(%r7)
 455              		.loc 1 276 0
 456 027a 54A70094 		e_stw %r5,148(%r7)
GAS LISTING C:\Users\Vipuls\AppData\Local\Temp\ccXQCREv.s 			page 9


 457              		.loc 1 277 0
 458 027e 54A70098 		e_stw %r5,152(%r7)
 459              		.loc 1 278 0
 460 0282 54A7009C 		e_stw %r5,156(%r7)
 461              		.loc 1 279 0
 462 0286 54A700A0 		e_stw %r5,160(%r7)
 463              		.loc 1 280 0
 464 028a 54C700A4 		e_stw %r6,164(%r7)
 465              		.loc 1 281 0
 466 028e 6376     		se_bgeni %r6,23
 467 0290 54C700A8 		e_stw %r6,168(%r7)
 468              		.loc 1 282 0
 469 0294 6356     		se_bgeni %r6,21
 470 0296 54C700AC 		e_stw %r6,172(%r7)
 471              		.loc 1 283 0
 472 029a 54A700B0 		e_stw %r5,176(%r7)
 473              	.LBB50:
 474              	.LBB51:
 475              		.loc 1 334 0
 476 029e 0176     		se_mr %r6,%r7
 477              	.LBE51:
 478              	.LBE50:
 479              		.loc 1 284 0
 480 02a0 54A700B4 		e_stw %r5,180(%r7)
 481              		.loc 1 285 0
 482 02a4 54A700B8 		e_stw %r5,184(%r7)
 483              		.loc 1 286 0
 484 02a8 54A700BC 		e_stw %r5,188(%r7)
 485              	.LVL5:
 486              	.LBB53:
 487              	.LBB38:
 488              		.loc 1 83 0
 489 02ac C004     		se_lwz %r0,0(%r4)
 490 02ae 74A06C24 		e_rlwimi %r0,%r5,13,16,18
 491 02b2 D004     		se_stw %r0,0(%r4)
 492              		.loc 1 103 0
 493 02b4 4850     		se_li %r0,5
 494              		.loc 1 84 0
 495 02b6 C054     		se_lwz %r5,0(%r4)
 496 02b8 746507FE 		e_rlwimi %r5,%r3,0,31,31
 497 02bc D054     		se_stw %r5,0(%r4)
 498              		.loc 1 85 0
 499 02be C154     		se_lwz %r5,4(%r4)
 500 02c0 746507FE 		e_rlwimi %r5,%r3,0,31,31
 501 02c4 D154     		se_stw %r5,4(%r4)
 502              		.loc 1 103 0
 503 02c6 C054     		se_lwz %r5,0(%r4)
 504 02c8 740544EE 		e_rlwimi %r5,%r0,8,19,23
 505 02cc D054     		se_stw %r5,0(%r4)
 506              	.LVL6:
 507              	.LBE38:
 508              	.LBE53:
 509              	.LBB54:
 510              	.LBB46:
 511              		.loc 1 124 0
 512 02ce 50A90000 		e_lwz %r5,0(%r9)
 513 02d2 746507FE 		e_rlwimi %r5,%r3,0,31,31
GAS LISTING C:\Users\Vipuls\AppData\Local\Temp\ccXQCREv.s 			page 10


 514 02d6 54A90000 		e_stw %r5,0(%r9)
 515              		.loc 1 125 0
 516 02da 50AB0000 		e_lwz %r5,0(%r11)
 517 02de 746507FE 		e_rlwimi %r5,%r3,0,31,31
 518 02e2 54AB0000 		e_stw %r5,0(%r11)
 519              	.LVL7:
 520              	.LBE46:
 521              	.LBE54:
 522              	.LBB55:
 523              	.LBB52:
 524              		.loc 1 327 0
 525 02e6 4BF5     		se_li %r5,63
 526 02e8 D357     		se_stw %r5,12(%r7)
 527              		.loc 1 330 0
 528 02ea 70A6E000 		e_lis %r5,0x3000
 529 02ee 70ABC2F0 		e_or2i %r5,23280
 530 02f2 D157     		se_stw %r5,4(%r7)
 531              		.loc 1 331 0
 532 02f4 70A6E000 		e_lis %r5,0x3000
 533 02f8 70B4C50F 		e_or2i %r5,42255
 534 02fc D157     		se_stw %r5,4(%r7)
 535              	.L17:
 536              		.loc 1 334 0
 537 02fe C376     		se_lwz %r7,12(%r6)
 538 0300 2A07     		se_cmpi %r7,0
 539 0302 7A12FFFC 		e_beq %cr0,.L17
 540              		.loc 1 338 0
 541 0306 C376     		se_lwz %r7,12(%r6)
 542 0308 67F7     		se_btsti %r7,31
 543 030a 7A02000E 		e_bne %cr0,.L30
 544              	.LBE52:
 545              	.LBE55:
 546              		.loc 1 301 0
 547 030e C301     		se_lwz %r0,12(%r1)
 548 0310 0090     		se_mtlr %r0
 549              		.cfi_remember_state
 550              		.cfi_restore 65
 551 0312 2071     		se_addi %r1,8
 552              	.LCFI1:
 553              		.cfi_def_cfa_offset 0
 554              		.loc 1 297 0
 555 0314 78000000 		e_b irqSysHalt
 556              	.LVL8:
 557              	.L30:
 558              	.LCFI2:
 559              		.cfi_restore_state
 560              		.loc 1 301 0
 561 0318 C301     		se_lwz %r0,12(%r1)
 562 031a 0090     		se_mtlr %r0
 563              		.cfi_remember_state
 564              		.cfi_restore 65
 565 031c 2071     		se_addi %r1,8
 566              	.LCFI3:
 567              		.cfi_def_cfa_offset 0
 568 031e 0004     		se_blr
 569              	.LVL9:
 570              	.L29:
GAS LISTING C:\Users\Vipuls\AppData\Local\Temp\ccXQCREv.s 			page 11


 571              	.LCFI4:
 572              		.cfi_restore_state
 573              		.loc 1 267 0
 574 0320 78000001 		e_bl irqSysHalt
 575              	.LVL10:
 576 0324 79FFFF16 		e_b .L16
 577              		.cfi_endproc
 578              	.LFE6:
 579              		.size	spc_clock_init, .-spc_clock_init
 580              		.section	.text.__early_init,"axv",@progbits
 581              		.align 1
 582              		.p2align 4,,15
 583              		.globl __early_init
 584              		.type	__early_init, @function
 585              	__early_init:
 586              	.LFB7:
 587              		.loc 1 310 0
 588              		.cfi_startproc
 589              		.loc 1 313 0
 590              		.loc 1 312 0
 591 0000 78000000 		e_b spc_clock_init
 592              	.LVL11:
 593              		.cfi_endproc
 594              	.LFE7:
 595              		.size	__early_init, .-__early_init
 596              		.section	.text.SPCSetRunMode,"axv",@progbits
 597              		.align 1
 598              		.p2align 4,,15
 599              		.globl SPCSetRunMode
 600              		.type	SPCSetRunMode, @function
 601              	SPCSetRunMode:
 602              	.LFB8:
 603              		.loc 1 324 0
 604              		.cfi_startproc
 605              	.LVL12:
 606              		.loc 1 330 0
 607 0000 6DC3     		se_slwi %r3, 28
 608              	.LVL13:
 609              		.loc 1 327 0
 610 0002 70FEE7FB 		e_lis %r7,0xf7fb
 611              		.loc 1 330 0
 612 0006 0136     		se_mr %r6,%r3
 613              		.loc 1 327 0
 614 0008 6507     		se_bseti %r7,16
 615              		.loc 1 330 0
 616 000a 70CBC2F0 		e_or2i %r6,23280
 617              		.loc 1 327 0
 618 000e 4BF5     		se_li %r5,63
 619              		.loc 1 331 0
 620 0010 7074C50F 		e_or2i %r3,42255
 621              		.loc 1 327 0
 622 0014 D357     		se_stw %r5,12(%r7)
 623              		.loc 1 330 0
 624 0016 D167     		se_stw %r6,4(%r7)
 625              		.loc 1 334 0
 626 0018 0176     		se_mr %r6,%r7
 627              		.loc 1 331 0
GAS LISTING C:\Users\Vipuls\AppData\Local\Temp\ccXQCREv.s 			page 12


 628 001a D137     		se_stw %r3,4(%r7)
 629              	.L33:
 630              		.loc 1 334 0 discriminator 1
 631 001c C376     		se_lwz %r7,12(%r6)
 632 001e 2A07     		se_cmpi %r7,0
 633 0020 7A12FFFC 		e_beq %cr0,.L33
 634              		.loc 1 338 0
 635 0024 C336     		se_lwz %r3,12(%r6)
 636 0026 2E13     		se_andi %r3,1
 637              		.loc 1 343 0
 638 0028 1863E001 		e_xori %r3,%r3,1
 639 002c 0004     		se_blr
 640              		.cfi_endproc
 641              	.LFE8:
 642              		.size	SPCSetRunMode, .-SPCSetRunMode
 643              		.section	.text.SPCSetPeripheralClockMode,"axv",@progbits
 644              		.align 1
 645              		.p2align 4,,15
 646              		.globl SPCSetPeripheralClockMode
 647              		.type	SPCSetPeripheralClockMode, @function
 648              	SPCSetPeripheralClockMode:
 649              	.LFB9:
 650              		.loc 1 353 0
 651              		.cfi_startproc
 652              	.LVL14:
 653              		.loc 1 356 0
 654 0000 00C4     		se_extzb %r4
 655              	.LVL15:
 656 0002 70FEE7FB 		e_lis %r7,0xf7fb
 657 0006 6507     		se_bseti %r7,16
 658 0008 7C671A14 		add %r3,%r7,%r3
 659              	.LVL16:
 660              	.LBB56:
 661              	.LBB57:
 662              		.loc 1 334 0
 663 000c 0176     		se_mr %r6,%r7
 664              	.LBE57:
 665              	.LBE56:
 666              		.loc 1 356 0
 667 000e 348300C0 		e_stb %r4,192(%r3)
 668              	.LBB60:
 669              	.LBB58:
 670              		.loc 1 327 0
 671 0012 4BF4     		se_li %r4,63
 672              	.LBE58:
 673              	.LBE60:
 674              		.loc 1 357 0
 675 0014 C157     		se_lwz %r5,4(%r7)
 676              	.LVL17:
 677              	.LBB61:
 678              	.LBB59:
 679              		.loc 1 327 0
 680 0016 D347     		se_stw %r4,12(%r7)
 681              		.loc 1 330 0
 682 0018 18A5C3F0 		e_andi %r5,%r5,-268435456
 683              	.LVL18:
 684 001c 0154     		se_mr %r4,%r5
GAS LISTING C:\Users\Vipuls\AppData\Local\Temp\ccXQCREv.s 			page 13


 685              		.loc 1 331 0
 686 001e 70B4C50F 		e_or2i %r5,42255
 687              		.loc 1 330 0
 688 0022 708BC2F0 		e_or2i %r4,23280
 689 0026 D147     		se_stw %r4,4(%r7)
 690              		.loc 1 331 0
 691 0028 D157     		se_stw %r5,4(%r7)
 692              	.L36:
 693              		.loc 1 334 0
 694 002a C376     		se_lwz %r7,12(%r6)
 695 002c 2A07     		se_cmpi %r7,0
 696 002e 7A12FFFC 		e_beq %cr0,.L36
 697              		.loc 1 338 0
 698 0032 C376     		se_lwz %r7,12(%r6)
 699 0034 67F7     		se_btsti %r7,31
 700 0036 7A020008 		e_bne %cr0,.L39
 701              	.LBE59:
 702              	.LBE61:
 703              		.loc 1 361 0
 704              		.loc 1 359 0
 705 003a 78000000 		e_b irqSysHalt
 706              	.LVL19:
 707              	.L39:
 708 003e 0004     		se_blr
 709              		.cfi_endproc
 710              	.LFE9:
 711              		.size	SPCSetPeripheralClockMode, .-SPCSetPeripheralClockMode
 712              		.section	.text.SPCGetSystemClock,"axv",@progbits
 713              		.align 1
 714              		.p2align 4,,15
 715              		.globl SPCGetSystemClock
 716              		.type	SPCGetSystemClock, @function
 717              	SPCGetSystemClock:
 718              	.LFB10:
 719              		.loc 1 369 0
 720              		.cfi_startproc
 721              		.loc 1 373 0
 722 0000 70DEE7FB 		e_lis %r6,0xf7fb
 723              		.loc 1 374 0
 724 0004 4813     		se_li %r3,1
 725              		.loc 1 373 0
 726 0006 18C6D106 		e_ori %r6,%r6,1536
 727 000a 50E601E8 		e_lwz %r7,488(%r6)
 728 000e 2A07     		se_cmpi %r7,0
 729 0010 7A00000E 		e_bge %cr0,.L41
 730              		.loc 1 376 0
 731 0014 506601E8 		e_lwz %r3,488(%r6)
 732 0018 746386BF 		e_rlwinm %r3,%r3,16,26,31
 733 001c 2003     		se_addi %r3,1
 734              	.LVL20:
 735              	.L41:
 736              		.loc 1 379 0
 737 001e 70FEE7FB 		e_lis %r7,0xf7fb
 738 0022 6507     		se_bseti %r7,16
 739 0024 C077     		se_lwz %r7,0(%r7)
 740 0026 2EF7     		se_andi %r7,15
 741              	.LVL21:
GAS LISTING C:\Users\Vipuls\AppData\Local\Temp\ccXQCREv.s 			page 14


 742              		.loc 1 380 0
 743 0028 2237     		se_cmpli %r7,4
 744 002a 7A110052 		e_bgt %cr0,.L49
 745 002e 6C27     		se_slwi %r7, 2
 746              	.LVL22:
 747 0030 70C0E000 		e_lis %r6,.L44@ha
 748 0034 1CC60000 		e_la %r6,.L44@l(%r6)
 749 0038 7CE6382E 		lwzx %r7,%r6,%r7
 750 003c 7CC73214 		add %r6,%r7,%r6
 751 0040 00B6     		se_mtctr %r6
 752 0042 0006     		se_bctr
 753              		.section	.rodata.SPCGetSystemClock,"a",@progbits
 754              		.align 2
 755              		.align 2
 756              	.L44:
 757 0000 00000000 		.long .L43-.L44
 758 0004 00000000 		.long .L45-.L44
 759 0008 00000000 		.long .L46-.L44
 760 000c 00000000 		.long .L49-.L44
 761 0010 00000000 		.long .L47-.L44
 762              		.section	.text.SPCGetSystemClock
 763              	.L47:
 764              		.loc 1 388 0
 765 0044 70E1E2BA 		e_lis %r7,0xaba
 766 0048 18E7D195 		e_ori %r7,%r7,38144
 767 004c 7C671B96 		divwu %r3,%r7,%r3
 768              	.LVL23:
 769 0050 0004     		se_blr
 770              	.LVL24:
 771              	.L46:
 772              		.loc 1 386 0
 773 0052 70E1E189 		e_lis %r7,0x989
 774 0056 18E7D168 		e_ori %r7,%r7,26624
 775 005a 7C671B96 		divwu %r3,%r7,%r3
 776              	.LVL25:
 777 005e 0004     		se_blr
 778              	.LVL26:
 779              	.L45:
 780              		.loc 1 384 0
 781 0060 70E0E262 		e_lis %r7,0x262
 782 0064 18E7D15A 		e_ori %r7,%r7,23040
 783 0068 7C671B96 		divwu %r3,%r7,%r3
 784              	.LVL27:
 785 006c 0004     		se_blr
 786              	.LVL28:
 787              	.L43:
 788              		.loc 1 382 0
 789 006e 70E0E0F4 		e_lis %r7,0xf4
 790 0072 18E7D124 		e_ori %r7,%r7,9216
 791 0076 7C671B96 		divwu %r3,%r7,%r3
 792              	.LVL29:
 793 007a 0004     		se_blr
 794              	.LVL30:
 795              	.L49:
 796              		.loc 1 390 0
 797 007c 4803     		se_li %r3,0
 798              	.LVL31:
GAS LISTING C:\Users\Vipuls\AppData\Local\Temp\ccXQCREv.s 			page 15


 799              		.loc 1 392 0
 800 007e 0004     		se_blr
 801              		.cfi_endproc
 802              	.LFE10:
 803              		.size	SPCGetSystemClock, .-SPCGetSystemClock
 804              		.section	.text.SPCGetPeripheralClock,"axv",@progbits
 805              		.align 1
 806              		.p2align 4,,15
 807              		.globl SPCGetPeripheralClock
 808              		.type	SPCGetPeripheralClock, @function
 809              	SPCGetPeripheralClock:
 810              	.LFB11:
 811              		.loc 1 402 0
 812              		.cfi_startproc
 813              	.LVL32:
 814              		.loc 1 404 0
 815 0000 2203     		se_cmpli %r3,1
 816              		.loc 1 407 0
 817 0002 70E0E4C4 		e_lis %r7,0x4c4
 818 0006 18E7D1B4 		e_ori %r7,%r7,46080
 819 000a 7C60385E 		isel %r3,0,%r7,1
 820              	.LVL33:
 821              		.loc 1 411 0
 822 000e 0004     		se_blr
 823              		.cfi_endproc
 824              	.LFE11:
 825              		.size	SPCGetPeripheralClock, .-SPCGetPeripheralClock
 826              		.section	".text","axv"
 827              	.Letext0:
 828              		.file 2 "c:\\autodevkitstudio-2.4.0\\eclipse\\plugins\\com.st.tools.spc5.tools.gnu.gcc.ppcvle.win3
 829              		.file 3 "c:\\autodevkitstudio-2.4.0\\eclipse\\plugins\\com.st.tools.spc5.tools.gnu.gcc.ppcvle.win3
 830              		.file 4 "./components/spc58ecxx_platform_component_rla/lib/include/typedefs.h"
 831              		.file 5 "./components/spc58ecxx_platform_component_rla/lib/include/spc58xcxx.h"
 832              		.file 6 "./components/spc58ecxx_clock_component_rla/lib/include/clock.h"
 833              		.file 7 "./components/spc58ecxx_irq_component_rla/lib/include/irq.h"