GAS LISTING C:\Users\Vipuls\AppData\Local\Temp\ccpVwyar.s 			page 1


   1              		.file	"saradc_lld.c"
   2              		.section	".text","axv"
   3              	.Ltext0:
   4              		.cfi_sections	.debug_frame
   5              		.section	.text.vector543,"axv",@progbits
   6              		.align 1
   7              		.p2align 4,,15
   8              		.globl vector543
   9              		.type	vector543, @function
  10              	vector543:
  11              	.LFB4:
  12              		.file 1 "./components/spc58ecxx_low_level_drivers_component_rla/lib/src/saradc_lld.c"
  13              		.loc 1 497 0
  14              		.cfi_startproc
  15              	.LVL0:
  16 0000 182106E0 		e_stwu %r1,-32(%r1)
  17              	.LCFI0:
  18              		.cfi_def_cfa_offset 32
  19              	.LBB9:
  20              	.LBB10:
  21              		.loc 1 332 0
  22 0004 70C0E000 		e_lis %r6,.LANCHOR0@ha
  23              	.LBE10:
  24              	.LBE9:
  25              		.loc 1 497 0
  26 0008 1B61090C 		e_stmw %r27,12(%r1)
  27 000c 0080     		se_mflr %r0
  28              		.cfi_offset 27, -20
  29              		.cfi_offset 28, -16
  30              		.cfi_offset 29, -12
  31              		.cfi_offset 30, -8
  32              		.cfi_offset 31, -4
  33              		.cfi_register 65, 0
  34              	.LBB17:
  35              	.LBB14:
  36              		.loc 1 332 0
  37 000e 1FC60000 		e_la %r30,.LANCHOR0@l(%r6)
  38              	.LBE14:
  39              	.LBE17:
  40              		.loc 1 497 0
  41 0012 D901     		se_stw %r0,36(%r1)
  42              		.cfi_offset 65, 4
  43              	.LBB18:
  44              	.LBB15:
  45              		.loc 1 332 0
  46 0014 C14E     		se_lwz %r4,4(%r30)
  47              	.LBB11:
  48              		.loc 1 338 0
  49 0016 50C60000 		e_lwz %r6,.LANCHOR0@l(%r6)
  50              	.LBE11:
  51              		.loc 1 332 0
  52 001a CC74     		se_lwz %r7,48(%r4)
  53 001c 2A07     		se_cmpi %r7,0
  54 001e 7A1200AE 		e_beq %cr0,.L3
  55              	.LVL1:
  56              	.LBB12:
  57              		.loc 1 338 0
GAS LISTING C:\Users\Vipuls\AppData\Local\Temp\ccpVwyar.s 			page 2


  58 0022 58E60024 		e_lhz %r7,36(%r6)
  59 0026 2A07     		se_cmpi %r7,0
  60 0028 7A1200A0 		e_beq %cr0,.L4
  61 002c 480F     		se_li %r31,0
  62              		.loc 1 351 0
  63 002e 481B     		se_li %r27,1
  64 0030 7800003E 		e_b .L7
  65              	.LVL2:
  66              	.L12:
  67              		.loc 1 339 0
  68 0034 8776     		se_lbz %r7,7(%r6)
  69 0036 700798FF 		e_cmp16i %r7,255
  70 003a 7A120024 		e_beq %cr0,.L6
  71              		.loc 1 340 0
  72 003e A176     		se_lhz %r7,2(%r6)
  73 0040 74FCDE3F 		e_rlwinm %r28,%r7,27,24,31
  74              	.LVL3:
  75              		.loc 1 342 0
  76 0044 2FF7     		se_andi %r7,31
  77              	.LVL4:
  78 0046 18BC80BC 		e_addi %r5,%r28,188
  79 004a 7F7D3830 		slw %r29,%r27,%r7
  80 004e 7CA71070 		e_slwi %r7,%r5,2
  81 0052 7CE4382E 		lwzx %r7,%r4,%r7
  82 0056 46D7     		se_and %r7,%r29
  83 0058 0D7D     		se_cmpl %r29,%r7
  84 005a 7A12009E 		e_beq %cr0,.L11
  85              	.LVL5:
  86              	.L6:
  87              		.loc 1 338 0
  88 005e 200F     		se_addi %r31,1
  89              	.LVL6:
  90 0060 C06E     		se_lwz %r6,0(%r30)
  91 0062 00CF     		se_extzb %r31
  92              	.LVL7:
  93 0064 58E60024 		e_lhz %r7,36(%r6)
  94 0068 0DF7     		se_cmpl %r7,%r31
  95 006a 7A01005E 		e_ble %cr0,.L4
  96              	.LVL8:
  97              	.L7:
  98              		.loc 1 339 0
  99 006e C856     		se_lwz %r5,32(%r6)
 100 0070 7FE71070 		e_slwi %r7,%r31,2
 101 0074 7FE62070 		e_slwi %r6,%r31,4
 102 0078 0767     		se_subf %r7, %r6
 103 007a 7CC53A14 		add %r6,%r5,%r7
 104 007e 7CE53A2E 		lhzx %r7,%r5,%r7
 105 0082 2A07     		se_cmpi %r7,0
 106 0084 7A12FFB0 		e_beq %cr0,.L12
 107              		.loc 1 349 0
 108 0088 2217     		se_cmpli %r7,2
 109 008a 7A02FFD4 		e_bne %cr0,.L6
 110              	.LVL9:
 111 008e 8776     		se_lbz %r7,7(%r6)
 112 0090 700798FF 		e_cmp16i %r7,255
 113 0094 7A12FFCA 		e_beq %cr0,.L6
 114              		.loc 1 351 0
GAS LISTING C:\Users\Vipuls\AppData\Local\Temp\ccpVwyar.s 			page 3


 115 0098 50E40428 		e_lwz %r7,1064(%r4)
 116              		.loc 1 350 0
 117 009c 8356     		se_lbz %r5,3(%r6)
 118 009e 18A584A0 		e_addi %r5,%r5,-96
 119              		.loc 1 351 0
 120 00a2 00C5     		se_extzb %r5
 121 00a4 7F7D2830 		slw %r29,%r27,%r5
 122 00a8 46D7     		se_and %r7,%r29
 123 00aa 0D7D     		se_cmpl %r29,%r7
 124 00ac 7A02FFB2 		e_bne %cr0,.L6
 125              		.loc 1 353 0
 126 00b0 C276     		se_lwz %r7,8(%r6)
 127 00b2 01E3     		se_mr %r3,%r30
 128 00b4 00B7     		se_mtctr %r7
 129 00b6 0007     		se_bctrl
 130              	.LVL10:
 131              		.loc 1 355 0
 132 00b8 C14E     		se_lwz %r4,4(%r30)
 133 00ba 50E40428 		e_lwz %r7,1064(%r4)
 134 00be 447D     		se_or %r29,%r7
 135 00c0 57A40428 		e_stw %r29,1064(%r4)
 136 00c4 79FFFF9A 		e_b .L6
 137              	.LVL11:
 138              	.L4:
 139              		.loc 1 363 0
 140 00c8 2C07     		se_bmaski %r7,0
 141 00ca DC74     		se_stw %r7,48(%r4)
 142              	.L3:
 143              	.LBE12:
 144              		.loc 1 367 0
 145 00cc CA76     		se_lwz %r7,40(%r6)
 146 00ce 2A07     		se_cmpi %r7,0
 147 00d0 7A120010 		e_beq %cr0,.L8
 148              		.loc 1 368 0
 149 00d4 7060E000 		e_lis %r3,.LANCHOR0@ha
 150 00d8 00B7     		se_mtctr %r7
 151 00da 1C630000 		e_la %r3,.LANCHOR0@l(%r3)
 152 00de 0007     		se_bctrl
 153              	.LVL12:
 154              	.L8:
 155              		.loc 1 371 0
 156 00e0 70E0E000 		e_lis %r7,.LANCHOR0+4@ha
 157 00e4 2C06     		se_bmaski %r6,0
 158 00e6 50E70000 		e_lwz %r7,.LANCHOR0+4@l(%r7)
 159 00ea D467     		se_stw %r6,16(%r7)
 160              	.LBE15:
 161              	.LBE18:
 162              		.loc 1 504 0
 163 00ec C901     		se_lwz %r0,36(%r1)
 164 00ee 0090     		se_mtlr %r0
 165              		.cfi_remember_state
 166              		.cfi_restore 65
 167 00f0 1B61080C 		e_lmw %r27,12(%r1)
 168 00f4 21F1     		se_addi %r1,32
 169              	.LCFI1:
 170              		.cfi_restore 31
 171              		.cfi_restore 30
GAS LISTING C:\Users\Vipuls\AppData\Local\Temp\ccpVwyar.s 			page 4


 172              		.cfi_restore 29
 173              		.cfi_restore 28
 174              		.cfi_restore 27
 175              		.cfi_def_cfa_offset 0
 176 00f6 0004     		se_blr
 177              	.LVL13:
 178              	.L11:
 179              	.LCFI2:
 180              		.cfi_restore_state
 181              	.LBB19:
 182              	.LBB16:
 183              	.LBB13:
 184              		.loc 1 344 0
 185 00f8 C276     		se_lwz %r7,8(%r6)
 186 00fa 01E3     		se_mr %r3,%r30
 187 00fc 00B7     		se_mtctr %r7
 188 00fe 6C2C     		se_slwi %r28, 2
 189              	.LVL14:
 190 0100 0007     		se_bctrl
 191              	.LVL15:
 192              		.loc 1 346 0
 193 0102 C14E     		se_lwz %r4,4(%r30)
 194 0104 7F84E214 		add %r28,%r4,%r28
 195 0108 50FC02F0 		e_lwz %r7,752(%r28)
 196 010c 447D     		se_or %r29,%r7
 197 010e 57BC02F0 		e_stw %r29,752(%r28)
 198 0112 79FFFF4C 		e_b .L6
 199              	.LBE13:
 200              	.LBE16:
 201              	.LBE19:
 202              		.cfi_endproc
 203              	.LFE4:
 204              		.size	vector543, .-vector543
 205              		.section	.text.saradc_lld_init,"axv",@progbits
 206              		.align 1
 207              		.p2align 4,,15
 208              		.globl saradc_lld_init
 209              		.type	saradc_lld_init, @function
 210              	saradc_lld_init:
 211              	.LFB5:
 212              		.loc 1 580 0
 213              		.cfi_startproc
 214              		.loc 1 618 0
 215 0000 70A0E000 		e_lis %r5,.LANCHOR0@ha
 216 0004 4806     		se_li %r6,0
 217 0006 1CE50000 		e_la %r7,.LANCHOR0@l(%r5)
 218 000a 54C50000 		e_stw %r6,.LANCHOR0@l(%r5)
 219              		.loc 1 620 0
 220 000e 9867     		se_stb %r6,8(%r7)
 221              		.loc 1 619 0
 222 0010 70BEE7E3 		e_lis %r5,0xf7e3
 223              		.loc 1 621 0
 224 0014 70C4000A 		e_li %r6,8202
 225              		.loc 1 619 0
 226 0018 18A5D1C0 		e_ori %r5,%r5,49152
 227 001c D157     		se_stw %r5,4(%r7)
 228              		.loc 1 621 0
GAS LISTING C:\Users\Vipuls\AppData\Local\Temp\ccpVwyar.s 			page 5


 229 001e 70FEE404 		e_lis %r7,0xf404
 230 0022 70E8C49E 		e_or2i %r7,17566
 231 0026 B067     		se_sth %r6,0(%r7)
 232 0028 0004     		se_blr
 233              		.cfi_endproc
 234              	.LFE5:
 235              		.size	saradc_lld_init, .-saradc_lld_init
 236              		.globl __divsf3
 237              		.globl __mulsf3
 238              		.globl __fixunssfsi
 239              		.globl __lesf2
 240              		.section	.text.saradc_lld_start,"axv",@progbits
 241              		.align 1
 242              		.p2align 4,,15
 243              		.globl saradc_lld_start
 244              		.type	saradc_lld_start, @function
 245              	saradc_lld_start:
 246              	.LFB6:
 247              		.loc 1 653 0
 248              		.cfi_startproc
 249              	.LVL16:
 250 0000 182106D0 		e_stwu %r1,-48(%r1)
 251              	.LCFI3:
 252              		.cfi_def_cfa_offset 48
 253 0004 0080     		se_mflr %r0
 254 0006 1AC10908 		e_stmw %r22,8(%r1)
 255 000a DD01     		se_stw %r0,52(%r1)
 256              		.cfi_offset 65, 4
 257              		.cfi_offset 22, -40
 258              		.cfi_offset 23, -36
 259              		.cfi_offset 24, -32
 260              		.cfi_offset 25, -28
 261              		.cfi_offset 26, -24
 262              		.cfi_offset 27, -20
 263              		.cfi_offset 28, -16
 264              		.cfi_offset 29, -12
 265              		.cfi_offset 30, -8
 266              		.cfi_offset 31, -4
 267              		.loc 1 737 0
 268 000c 70E0E000 		e_lis %r7,.LANCHOR0@ha
 269              		.loc 1 653 0
 270 0010 013F     		se_mr %r31,%r3
 271              		.loc 1 737 0
 272 0012 1CE70000 		e_la %r7,.LANCHOR0@l(%r7)
 273              		.loc 1 657 0
 274 0016 D043     		se_stw %r4,0(%r3)
 275              		.loc 1 737 0
 276 0018 0C73     		se_cmp %r3,%r7
 277 001a 7A120376 		e_beq %cr0,.L46
 278              	.LVL17:
 279              	.L15:
 280              		.loc 1 792 0
 281 001e C17F     		se_lwz %r7,4(%r31)
 282              		.loc 1 796 0
 283 0020 4816     		se_li %r6,1
 284              		.loc 1 792 0
 285 0022 C057     		se_lwz %r5,0(%r7)
GAS LISTING C:\Users\Vipuls\AppData\Local\Temp\ccpVwyar.s 			page 6


 286 0024 4804     		se_li %r4,0
 287 0026 748507FE 		e_rlwimi %r5,%r4,0,31,31
 288 002a D057     		se_stw %r5,0(%r7)
 289              		.loc 1 794 0
 290 002c C17F     		se_lwz %r7,4(%r31)
 291 002e C04F     		se_lwz %r4,0(%r31)
 292 0030 C057     		se_lwz %r5,0(%r7)
 293 0032 8044     		se_lbz %r4,0(%r4)
 294 0034 7485E884 		e_rlwimi %r5,%r4,29,2,2
 295 0038 D057     		se_stw %r5,0(%r7)
 296              		.loc 1 796 0
 297 003a C17F     		se_lwz %r7,4(%r31)
 298 003c C057     		se_lwz %r5,0(%r7)
 299 003e 74C5F800 		e_rlwimi %r5,%r6,31,0,0
 300 0042 D057     		se_stw %r5,0(%r7)
 301              		.loc 1 798 0
 302 0044 C17F     		se_lwz %r7,4(%r31)
 303 0046 C057     		se_lwz %r5,0(%r7)
 304 0048 74C526F6 		e_rlwimi %r5,%r6,4,27,27
 305 004c D057     		se_stw %r5,0(%r7)
 306              		.loc 1 801 0
 307 004e C03F     		se_lwz %r3,0(%r31)
 308 0050 8173     		se_lbz %r7,1(%r3)
 309 0052 700798FF 		e_cmp16i %r7,255
 310 0056 7A12001E 		e_beq %cr0,.L17
 311              		.loc 1 802 0
 312 005a C17F     		se_lwz %r7,4(%r31)
 313 005c C057     		se_lwz %r5,0(%r7)
 314 005e 74C5D14A 		e_rlwimi %r5,%r6,26,5,5
 315 0062 D057     		se_stw %r5,0(%r7)
 316              		.loc 1 803 0
 317 0064 C17F     		se_lwz %r7,4(%r31)
 318 0066 C05F     		se_lwz %r5,0(%r31)
 319 0068 C067     		se_lwz %r6,0(%r7)
 320 006a 8155     		se_lbz %r5,1(%r5)
 321 006c 74A6C18E 		e_rlwimi %r6,%r5,24,6,7
 322 0070 D067     		se_stw %r6,0(%r7)
 323 0072 C03F     		se_lwz %r3,0(%r31)
 324              	.L17:
 325              	.LVL18:
 326              		.loc 1 808 0 discriminator 1
 327 0074 4847     		se_li %r7,4
 328              		.loc 1 653 0 discriminator 1
 329 0076 4805     		se_li %r5,0
 330              		.loc 1 808 0 discriminator 1
 331 0078 4A4E     		se_li %r30,36
 332 007a 00B7     		se_mtctr %r7
 333              	.LVL19:
 334              	.L19:
 335              		.loc 1 808 0 is_stmt 0 discriminator 3
 336 007c C14F     		se_lwz %r4,4(%r31)
 337 007e 7CA70870 		e_slwi %r7,%r5,1
 338 0082 7CC5F214 		add %r6,%r5,%r30
 339 0086 0457     		se_add %r7,%r5
 340 0088 6C26     		se_slwi %r6, 2
 341 008a 0473     		se_add %r3,%r7
 342 008c 0464     		se_add %r4,%r6
GAS LISTING C:\Users\Vipuls\AppData\Local\Temp\ccpVwyar.s 			page 7


 343 008e 8203     		se_lbz %r0,2(%r3)
 344 0090 2005     		se_addi %r5,1
 345              	.LVL20:
 346 0092 C134     		se_lwz %r3,4(%r4)
 347 0094 7403F800 		e_rlwimi %r3,%r0,31,0,0
 348 0098 D134     		se_stw %r3,4(%r4)
 349              		.loc 1 809 0 is_stmt 1 discriminator 3
 350 009a C14F     		se_lwz %r4,4(%r31)
 351 009c C03F     		se_lwz %r3,0(%r31)
 352 009e 0464     		se_add %r4,%r6
 353 00a0 0473     		se_add %r3,%r7
 354 00a2 C104     		se_lwz %r0,4(%r4)
 355 00a4 8333     		se_lbz %r3,3(%r3)
 356 00a6 7460452E 		e_rlwimi %r0,%r3,8,20,23
 357 00aa D104     		se_stw %r0,4(%r4)
 358              		.loc 1 810 0 discriminator 3
 359 00ac C14F     		se_lwz %r4,4(%r31)
 360 00ae C03F     		se_lwz %r3,0(%r31)
 361 00b0 7CC43214 		add %r6,%r4,%r6
 362 00b4 7CE33A14 		add %r7,%r3,%r7
 363 00b8 8477     		se_lbz %r7,4(%r7)
 364 00ba 9776     		se_stb %r7,7(%r6)
 365              	.LVL21:
 366              		.loc 1 807 0 discriminator 3
 367 00bc 7A30000A 		e_bdz .L44
 368 00c0 C03F     		se_lwz %r3,0(%r31)
 369 00c2 79FFFFBA 		e_b .L19
 370              	.L44:
 371              	.LVL22:
 372              		.loc 1 819 0 discriminator 1
 373 00c6 C0DF     		se_lwz %r29,0(%r31)
 374 00c8 30FD0038 		e_lbz %r7,56(%r29)
 375 00cc 2A07     		se_cmpi %r7,0
 376 00ce 7A12008E 		e_beq %cr0,.L20
 377              		.loc 1 819 0 is_stmt 0
 378 00d2 480C     		se_li %r28,0
 379              	.LBB26:
 380              		.loc 1 824 0 is_stmt 1
 381 00d4 7328E580 		e_lis %r25,0x4580
 382 00d8 2CCA     		se_bmaski %r26,12
 383 00da 2CCB     		se_bmaski %r27,12
 384              	.LVL23:
 385              	.L22:
 386 00dc 531D0034 		e_lwz %r24,52(%r29)
 387 00e0 0193     		se_mr %r3,%r25
 388 00e2 0184     		se_mr %r4,%r24
 389              		.loc 1 825 0
 390 00e4 01CE     		se_mr %r30,%r28
 391              		.loc 1 824 0
 392 00e6 78000001 		e_bl __divsf3
 393              	.LVL24:
 394 00ea 7F871870 		e_slwi %r7,%r28,3
 395 00ee 023E     		se_mtar %r22,%r3
 396              	.LVL25:
 397 00f0 047D     		se_add %r29,%r7
 398              	.LVL26:
 399              		.loc 1 825 0
GAS LISTING C:\Users\Vipuls\AppData\Local\Temp\ccpVwyar.s 			page 8


 400 00f2 509D002C 		e_lwz %r4,44(%r29)
 401 00f6 78000001 		e_bl __mulsf3
 402              	.LVL27:
 403              		.loc 1 826 0
 404 00fa 78000001 		e_bl __fixunssfsi
 405              	.LVL28:
 406              		.loc 1 827 0
 407 00fe 52FD0030 		e_lwz %r23,48(%r29)
 408              		.loc 1 826 0
 409 0102 747D043F 		e_rlwinm %r29,%r3,0,0xffff
 410              	.LVL29:
 411              		.loc 1 827 0
 412 0106 03F4     		se_mfar %r4,%r23
 413 0108 0183     		se_mr %r3,%r24
 414              	.LVL30:
 415 010a 78000001 		e_bl __lesf2
 416              	.LVL31:
 417 010e 01A6     		se_mr %r6,%r26
 418 0110 2A03     		se_cmpi %r3,0
 419 0112 7A010016 		e_ble %cr0,.L21
 420              		.loc 1 831 0
 421 0116 03F4     		se_mfar %r4,%r23
 422 0118 03E3     		se_mfar %r3,%r22
 423 011a 78000001 		e_bl __mulsf3
 424              	.LVL32:
 425              		.loc 1 832 0
 426 011e 78000001 		e_bl __fixunssfsi
 427              	.LVL33:
 428 0122 46B3     		se_and %r3,%r27
 429 0124 7466043F 		e_rlwinm %r6,%r3,0,0xffff
 430              	.L21:
 431              	.LVL34:
 432              		.loc 1 834 0 discriminator 2
 433 0128 C15F     		se_lwz %r5,4(%r31)
 434 012a 46BD     		se_and %r29,%r27
 435              	.LVL35:
 436 012c 18FE8018 		e_addi %r7,%r30,24
 437              	.LBE26:
 438              		.loc 1 819 0 discriminator 2
 439 0130 200C     		se_addi %r28,1
 440              	.LVL36:
 441              	.LBB27:
 442              		.loc 1 834 0 discriminator 2
 443 0132 6C27     		se_slwi %r7, 2
 444              	.LBE27:
 445              		.loc 1 819 0 discriminator 2
 446 0134 00EC     		se_extzh %r28
 447              	.LVL37:
 448              	.LBB28:
 449              		.loc 1 834 0 discriminator 2
 450 0136 7C85382E 		lwzx %r4,%r5,%r7
 451 013a 77A4053E 		e_rlwimi %r4,%r29,0,20,31
 452 013e 7C85392E 		stwx %r4,%r5,%r7
 453              		.loc 1 835 0 discriminator 2
 454 0142 C15F     		se_lwz %r5,4(%r31)
 455 0144 7C85382E 		lwzx %r4,%r5,%r7
 456 0148 74C4811E 		e_rlwimi %r4,%r6,16,4,15
GAS LISTING C:\Users\Vipuls\AppData\Local\Temp\ccpVwyar.s 			page 9


 457 014c 7C85392E 		stwx %r4,%r5,%r7
 458              	.LBE28:
 459              		.loc 1 819 0 discriminator 2
 460 0150 C0DF     		se_lwz %r29,0(%r31)
 461 0152 30FD0038 		e_lbz %r7,56(%r29)
 462 0156 0DC7     		se_cmpl %r7,%r28
 463 0158 7A11FF84 		e_bgt %cr0,.L22
 464              	.LVL38:
 465              	.L20:
 466              		.loc 1 838 0
 467 015c 8E7D     		se_lbz %r7,14(%r29)
 468 015e 2A07     		se_cmpi %r7,0
 469 0160 7A120012 		e_beq %cr0,.L47
 470              	.L14:
 471              		.loc 1 861 0
 472 0164 CD01     		se_lwz %r0,52(%r1)
 473 0166 0090     		se_mtlr %r0
 474              		.cfi_remember_state
 475              		.cfi_restore 65
 476 0168 1AC10808 		e_lmw %r22,8(%r1)
 477              	.LVL39:
 478 016c 18218030 		e_addi %r1,%r1,48
 479              	.LCFI4:
 480              		.cfi_restore 31
 481              		.cfi_restore 30
 482              		.cfi_restore 29
 483              		.cfi_restore 28
 484              		.cfi_restore 27
 485              		.cfi_restore 26
 486              		.cfi_restore 25
 487              		.cfi_restore 24
 488              		.cfi_restore 23
 489              		.cfi_restore 22
 490              		.cfi_def_cfa_offset 0
 491 0170 0004     		se_blr
 492              	.LVL40:
 493              	.L47:
 494              	.LCFI5:
 495              		.cfi_restore_state
 496              	.LBB29:
 497              	.LBB30:
 498              		.loc 1 1213 0
 499 0172 C05F     		se_lwz %r5,0(%r31)
 500 0174 4806     		se_li %r6,0
 501 0176 58E50024 		e_lhz %r7,36(%r5)
 502              	.LBB31:
 503              		.loc 1 1226 0
 504 017a 4C0E     		se_li %r30,64
 505              		.loc 1 1237 0
 506 017c 4810     		se_li %r0,1
 507              	.LBE31:
 508              		.loc 1 1213 0
 509 017e 2A07     		se_cmpi %r7,0
 510 0180 7A0200D8 		e_bne %cr0,.L39
 511 0184 78000102 		e_b .L35
 512              	.LVL41:
 513              	.L48:
GAS LISTING C:\Users\Vipuls\AppData\Local\Temp\ccpVwyar.s 			page 10


 514              	.LBB32:
 515              		.loc 1 1217 0
 516 0188 A144     		se_lhz %r4,2(%r4)
 517              		.loc 1 1220 0
 518 018a CA35     		se_lwz %r3,40(%r5)
 519              		.loc 1 1217 0
 520 018c 7485DE3F 		e_rlwinm %r5,%r4,27,24,31
 521              	.LVL42:
 522              		.loc 1 1220 0
 523 0190 2A03     		se_cmpi %r3,0
 524              		.loc 1 1218 0
 525 0192 2FF4     		se_andi %r4,31
 526              	.LVL43:
 527 0194 7C1D2030 		slw %r29,%r0,%r4
 528              		.loc 1 1220 0
 529 0198 7A120018 		e_beq %cr0,.L29
 530 019c C13F     		se_lwz %r3,4(%r31)
 531              		.loc 1 1221 0
 532 019e 7C1D2030 		slw %r29,%r0,%r4
 533 01a2 7CA41070 		e_slwi %r4,%r5,2
 534              	.LVL44:
 535 01a6 7C832214 		add %r4,%r3,%r4
 536 01aa C934     		se_lwz %r3,36(%r4)
 537 01ac 44D3     		se_or %r3,%r29
 538 01ae D934     		se_stw %r3,36(%r4)
 539              	.L29:
 540 01b0 C14F     		se_lwz %r4,4(%r31)
 541 01b2 6C25     		se_slwi %r5, 2
 542              	.LVL45:
 543 01b4 7CA42A14 		add %r5,%r4,%r5
 544              		.loc 1 1224 0
 545 01b8 508500A4 		e_lwz %r4,164(%r5)
 546 01bc 44D4     		se_or %r4,%r29
 547 01be 548500A4 		e_stw %r4,164(%r5)
 548              		.loc 1 1226 0
 549 01c2 C13F     		se_lwz %r3,4(%r31)
 550 01c4 C05F     		se_lwz %r5,0(%r31)
 551 01c6 C845     		se_lwz %r4,32(%r5)
 552 01c8 0474     		se_add %r4,%r7
 553 01ca 85D4     		se_lbz %r29,5(%r4)
 554 01cc A154     		se_lhz %r5,2(%r4)
 555 01ce 04E5     		se_add %r5,%r30
 556 01d0 6C25     		se_slwi %r5, 2
 557 01d2 7C83282E 		lwzx %r4,%r3,%r5
 558 01d6 77A4D908 		e_rlwimi %r4,%r29,27,4,4
 559 01da 7C83292E 		stwx %r4,%r3,%r5
 560              		.loc 1 1228 0
 561 01de C13F     		se_lwz %r3,4(%r31)
 562 01e0 C05F     		se_lwz %r5,0(%r31)
 563 01e2 C845     		se_lwz %r4,32(%r5)
 564 01e4 0474     		se_add %r4,%r7
 565 01e6 A154     		se_lhz %r5,2(%r4)
 566 01e8 86D4     		se_lbz %r29,6(%r4)
 567 01ea 04E5     		se_add %r5,%r30
 568 01ec 6C25     		se_slwi %r5, 2
 569 01ee 7C83282E 		lwzx %r4,%r3,%r5
 570 01f2 77A4C18E 		e_rlwimi %r4,%r29,24,6,7
GAS LISTING C:\Users\Vipuls\AppData\Local\Temp\ccpVwyar.s 			page 11


 571 01f6 7C83292E 		stwx %r4,%r3,%r5
 572              		.loc 1 1231 0
 573 01fa C05F     		se_lwz %r5,0(%r31)
 574 01fc C845     		se_lwz %r4,32(%r5)
 575 01fe 0474     		se_add %r4,%r7
 576 0200 8734     		se_lbz %r3,7(%r4)
 577 0202 7003A8FF 		e_cmpl16i %r3,255
 578 0206 7A120044 		e_beq %cr0,.L30
 579              		.loc 1 1232 0
 580 020a A144     		se_lhz %r4,2(%r4)
 581              	.LVL46:
 582 020c C15F     		se_lwz %r5,4(%r31)
 583 020e 749DFDBB 		e_rlwinm %r29,%r4,31,22,29
 584              		.loc 1 1234 0
 585 0212 748416FB 		e_rlwinm %r4,%r4,2,27,29
 586              	.LVL47:
 587 0216 04D5     		se_add %r5,%r29
 588 0218 4243     		se_slw %r3, %r4
 589 021a 508502B0 		e_lwz %r4,688(%r5)
 590 021e 4443     		se_or %r3,%r4
 591 0220 546502B0 		e_stw %r3,688(%r5)
 592              	.LVL48:
 593 0224 C15F     		se_lwz %r5,4(%r31)
 594              		.loc 1 1235 0
 595 0226 C04F     		se_lwz %r4,0(%r31)
 596 0228 C844     		se_lwz %r4,32(%r4)
 597 022a 7CE43A14 		add %r7,%r4,%r7
 598 022e A147     		se_lhz %r4,2(%r7)
 599              	.LVL49:
 600 0230 7487EDBB 		e_rlwinm %r7,%r4,29,22,29
 601              		.loc 1 1237 0
 602 0234 2FF4     		se_andi %r4,31
 603              	.LVL50:
 604 0236 7CE53A14 		add %r7,%r5,%r7
 605 023a 7C042030 		slw %r4,%r0,%r4
 606 023e 50A702E0 		e_lwz %r5,736(%r7)
 607 0242 4445     		se_or %r5,%r4
 608 0244 54A702E0 		e_stw %r5,736(%r7)
 609              	.LVL51:
 610 0248 C05F     		se_lwz %r5,0(%r31)
 611              	.L30:
 612              	.LBE32:
 613              		.loc 1 1213 0
 614 024a 2006     		se_addi %r6,1
 615              	.LVL52:
 616 024c 58E50024 		e_lhz %r7,36(%r5)
 617 0250 00C6     		se_extzb %r6
 618              	.LVL53:
 619 0252 0D67     		se_cmpl %r7,%r6
 620 0254 7A010032 		e_ble %cr0,.L35
 621              	.LVL54:
 622              	.L39:
 623              		.loc 1 1214 0
 624 0258 C845     		se_lwz %r4,32(%r5)
 625 025a 7CC32070 		e_slwi %r3,%r6,4
 626 025e 7CC71070 		e_slwi %r7,%r6,2
 627 0262 0737     		se_subf %r7, %r3
GAS LISTING C:\Users\Vipuls\AppData\Local\Temp\ccpVwyar.s 			page 12


 628 0264 7C643A2E 		lhzx %r3,%r4,%r7
 629 0268 0474     		se_add %r4,%r7
 630 026a 2A03     		se_cmpi %r3,0
 631 026c 7A12FF1C 		e_beq %cr0,.L48
 632              		.loc 1 1243 0
 633 0270 2213     		se_cmpli %r3,2
 634 0272 7A12006E 		e_beq %cr0,.L49
 635 0276 C05F     		se_lwz %r5,0(%r31)
 636              	.L51:
 637              		.loc 1 1213 0
 638 0278 2006     		se_addi %r6,1
 639              	.LVL55:
 640 027a 58E50024 		e_lhz %r7,36(%r5)
 641 027e 00C6     		se_extzb %r6
 642              	.LVL56:
 643 0280 0D67     		se_cmpl %r7,%r6
 644 0282 7A11FFD6 		e_bgt %cr0,.L39
 645              	.LVL57:
 646              	.L35:
 647              	.LBE30:
 648              	.LBE29:
 649              		.loc 1 846 0
 650 0286 C17F     		se_lwz %r7,4(%r31)
 651 0288 4BF6     		se_li %r6,63
 652 028a D467     		se_stw %r6,16(%r7)
 653              		.loc 1 849 0
 654 028c C07F     		se_lwz %r7,0(%r31)
 655 028e CA77     		se_lwz %r7,40(%r7)
 656 0290 2A07     		se_cmpi %r7,0
 657 0292 7A12000A 		e_beq %cr0,.L26
 658              		.loc 1 850 0
 659 0296 C17F     		se_lwz %r7,4(%r31)
 660 0298 4816     		se_li %r6,1
 661 029a D867     		se_stw %r6,32(%r7)
 662              	.L26:
 663              		.loc 1 854 0
 664 029c C17F     		se_lwz %r7,4(%r31)
 665 029e 2C86     		se_bmaski %r6,8
 666 02a0 DC67     		se_stw %r6,48(%r7)
 667              	.LVL58:
 668              		.loc 1 857 0
 669 02a2 C07F     		se_lwz %r7,0(%r31)
 670 02a4 30E70038 		e_lbz %r7,56(%r7)
 671 02a8 2A07     		se_cmpi %r7,0
 672 02aa 7A12FEBA 		e_beq %cr0,.L14
 673 02ae 4807     		se_li %r7,0
 674              		.loc 1 858 0
 675 02b0 4833     		se_li %r3,3
 676              	.LVL59:
 677              	.L37:
 678              		.loc 1 858 0 is_stmt 0 discriminator 3
 679 02b2 C15F     		se_lwz %r5,4(%r31)
 680 02b4 7CE40870 		e_slwi %r4,%r7,1
 681 02b8 CD65     		se_lwz %r6,52(%r5)
 682 02ba 7C642030 		slw %r4,%r3,%r4
 683              		.loc 1 857 0 is_stmt 1 discriminator 3
 684 02be 2007     		se_addi %r7,1
GAS LISTING C:\Users\Vipuls\AppData\Local\Temp\ccpVwyar.s 			page 13


 685              	.LVL60:
 686              		.loc 1 858 0 discriminator 3
 687 02c0 4446     		se_or %r6,%r4
 688              		.loc 1 857 0 discriminator 3
 689 02c2 00E7     		se_extzh %r7
 690              	.LVL61:
 691              		.loc 1 858 0 discriminator 3
 692 02c4 DD65     		se_stw %r6,52(%r5)
 693              		.loc 1 857 0 discriminator 3
 694 02c6 C06F     		se_lwz %r6,0(%r31)
 695 02c8 30C60038 		e_lbz %r6,56(%r6)
 696 02cc 0D76     		se_cmpl %r6,%r7
 697 02ce 7A11FFE4 		e_bgt %cr0,.L37
 698              		.loc 1 861 0
 699 02d2 CD01     		se_lwz %r0,52(%r1)
 700 02d4 0090     		se_mtlr %r0
 701              		.cfi_remember_state
 702              		.cfi_restore 65
 703 02d6 1AC10808 		e_lmw %r22,8(%r1)
 704              	.LVL62:
 705 02da 18218030 		e_addi %r1,%r1,48
 706              	.LCFI6:
 707              		.cfi_restore 22
 708              		.cfi_restore 23
 709              		.cfi_restore 24
 710              		.cfi_restore 25
 711              		.cfi_restore 26
 712              		.cfi_restore 27
 713              		.cfi_restore 28
 714              		.cfi_restore 29
 715              		.cfi_restore 30
 716              		.cfi_restore 31
 717              		.cfi_def_cfa_offset 0
 718 02de 0004     		se_blr
 719              	.LVL63:
 720              	.L49:
 721              	.LCFI7:
 722              		.cfi_restore_state
 723              	.LBB36:
 724              	.LBB35:
 725              	.LBB33:
 726              		.loc 1 1248 0
 727 02e0 CA35     		se_lwz %r3,40(%r5)
 728              		.loc 1 1246 0
 729 02e2 8344     		se_lbz %r4,3(%r4)
 730              		.loc 1 1248 0
 731 02e4 2A03     		se_cmpi %r3,0
 732              		.loc 1 1246 0
 733 02e6 18A484A0 		e_addi %r5,%r4,-96
 734 02ea 00C5     		se_extzb %r5
 735              	.LVL64:
 736              		.loc 1 1248 0
 737 02ec 7A1200BE 		e_beq %cr0,.L50
 738              		.loc 1 1249 0
 739 02f0 C1DF     		se_lwz %r29,4(%r31)
 740 02f2 7C032830 		slw %r3,%r0,%r5
 741 02f6 509D0404 		e_lwz %r4,1028(%r29)
GAS LISTING C:\Users\Vipuls\AppData\Local\Temp\ccpVwyar.s 			page 14


 742 02fa 4434     		se_or %r4,%r3
 743 02fc 549D0404 		e_stw %r4,1028(%r29)
 744              	.L33:
 745              		.loc 1 1252 0
 746 0300 C14F     		se_lwz %r4,4(%r31)
 747 0302 50A4040C 		e_lwz %r5,1036(%r4)
 748              	.LVL65:
 749 0306 4435     		se_or %r5,%r3
 750 0308 54A4040C 		e_stw %r5,1036(%r4)
 751              		.loc 1 1254 0
 752 030c C13F     		se_lwz %r3,4(%r31)
 753 030e C05F     		se_lwz %r5,0(%r31)
 754 0310 C845     		se_lwz %r4,32(%r5)
 755 0312 0474     		se_add %r4,%r7
 756 0314 85D4     		se_lbz %r29,5(%r4)
 757 0316 A154     		se_lhz %r5,2(%r4)
 758 0318 18A580B4 		e_addi %r5,%r5,180
 759 031c 6C25     		se_slwi %r5, 2
 760 031e 7C83282E 		lwzx %r4,%r3,%r5
 761 0322 77A4D908 		e_rlwimi %r4,%r29,27,4,4
 762 0326 7C83292E 		stwx %r4,%r3,%r5
 763              		.loc 1 1256 0
 764 032a C05F     		se_lwz %r5,0(%r31)
 765 032c C13F     		se_lwz %r3,4(%r31)
 766 032e C845     		se_lwz %r4,32(%r5)
 767 0330 0474     		se_add %r4,%r7
 768 0332 A154     		se_lhz %r5,2(%r4)
 769 0334 86D4     		se_lbz %r29,6(%r4)
 770 0336 18A580B4 		e_addi %r5,%r5,180
 771 033a 6C25     		se_slwi %r5, 2
 772 033c 7C83282E 		lwzx %r4,%r3,%r5
 773 0340 77A4C18E 		e_rlwimi %r4,%r29,24,6,7
 774 0344 7C83292E 		stwx %r4,%r3,%r5
 775              		.loc 1 1262 0
 776 0348 C05F     		se_lwz %r5,0(%r31)
 777 034a C845     		se_lwz %r4,32(%r5)
 778 034c 7CE43A14 		add %r7,%r4,%r7
 779 0350 8747     		se_lbz %r4,7(%r7)
 780 0352 7004A8FF 		e_cmpl16i %r4,255
 781 0356 7A12FEF4 		e_beq %cr0,.L30
 782              	.LBB34:
 783              		.loc 1 1264 0
 784 035a 8377     		se_lbz %r7,3(%r7)
 785 035c C15F     		se_lwz %r5,4(%r31)
 786 035e 18E784A0 		e_addi %r7,%r7,-96
 787 0362 00C7     		se_extzb %r7
 788              	.LVL66:
 789 0364 74FDFE7B 		e_rlwinm %r29,%r7,31,25,29
 790              		.loc 1 1267 0
 791 0368 74E316FB 		e_rlwinm %r3,%r7,2,27,29
 792 036c 04D5     		se_add %r5,%r29
 793 036e 4234     		se_slw %r4, %r3
 794              		.loc 1 1269 0
 795 0370 7C1D3830 		slw %r29,%r0,%r7
 796              		.loc 1 1267 0
 797 0374 50650414 		e_lwz %r3,1044(%r5)
 798 0378 4434     		se_or %r4,%r3
GAS LISTING C:\Users\Vipuls\AppData\Local\Temp\ccpVwyar.s 			page 15


 799 037a 54850414 		e_stw %r4,1044(%r5)
 800              	.LVL67:
 801              		.loc 1 1269 0
 802 037e C15F     		se_lwz %r5,4(%r31)
 803 0380 50E50424 		e_lwz %r7,1060(%r5)
 804              	.LVL68:
 805 0384 44D7     		se_or %r7,%r29
 806 0386 54E50424 		e_stw %r7,1060(%r5)
 807 038a C05F     		se_lwz %r5,0(%r31)
 808 038c 79FFFEEC 		e_b .L51
 809              	.LVL69:
 810              	.L46:
 811              	.LBE34:
 812              	.LBE33:
 813              	.LBE35:
 814              	.LBE36:
 815              		.loc 1 738 0
 816 0390 8873     		se_lbz %r7,8(%r3)
 817 0392 2A07     		se_cmpi %r7,0
 818 0394 7A12001E 		e_beq %cr0,.L52
 819              	.LVL70:
 820              	.L16:
 821              		.loc 1 741 0
 822 0398 70E0E000 		e_lis %r7,.LANCHOR0@ha
 823 039c 1CE70000 		e_la %r7,.LANCHOR0@l(%r7)
 824 03a0 8867     		se_lbz %r6,8(%r7)
 825 03a2 2006     		se_addi %r6,1
 826 03a4 9867     		se_stb %r6,8(%r7)
 827 03a6 79FFFC78 		e_b .L15
 828              	.LVL71:
 829              	.L50:
 830 03aa 7C032830 		slw %r3,%r0,%r5
 831 03ae 79FFFF52 		e_b .L33
 832              	.LVL72:
 833              	.L52:
 834              		.loc 1 739 0
 835 03b2 4F03     		se_li %r3,112
 836              	.LVL73:
 837 03b4 4924     		se_li %r4,18
 838              	.LVL74:
 839 03b6 78000001 		e_bl SPCSetPeripheralClockMode
 840              	.LVL75:
 841 03ba 79FFFFDE 		e_b .L16
 842              		.cfi_endproc
 843              	.LFE6:
 844              		.size	saradc_lld_start, .-saradc_lld_start
 845              		.section	.text.saradc_lld_stop,"axv",@progbits
 846              		.align 1
 847              		.p2align 4,,15
 848              		.globl saradc_lld_stop
 849              		.type	saradc_lld_stop, @function
 850              	saradc_lld_stop:
 851              	.LFB7:
 852              		.loc 1 870 0
 853              		.cfi_startproc
 854              	.LVL76:
 855 0000 182106F0 		e_stwu %r1,-16(%r1)
GAS LISTING C:\Users\Vipuls\AppData\Local\Temp\ccpVwyar.s 			page 16


 856              	.LCFI8:
 857              		.cfi_def_cfa_offset 16
 858 0004 0080     		se_mflr %r0
 859              		.loc 1 877 0
 860 0006 70C0E000 		e_lis %r6,.LANCHOR0@ha
 861              		.loc 1 870 0
 862 000a D501     		se_stw %r0,20(%r1)
 863              		.loc 1 877 0
 864 000c 1CC60000 		e_la %r6,.LANCHOR0@l(%r6)
 865              		.loc 1 870 0
 866 0010 1BC10908 		e_stmw %r30,8(%r1)
 867              		.cfi_offset 65, 4
 868              		.cfi_offset 30, -8
 869              		.cfi_offset 31, -4
 870 0014 4807     		se_li %r7,0
 871              		.loc 1 877 0
 872 0016 0C63     		se_cmp %r3,%r6
 873 0018 7A120076 		e_beq %cr0,.L62
 874              	.L54:
 875              		.loc 1 886 0 discriminator 3
 876 001c 18C7B003 		e_subfic %r6, %r7, 3
 877              		.loc 1 885 0 discriminator 3
 878 0020 480E     		se_li %r30,0
 879              		.loc 1 886 0 discriminator 3
 880 0022 4A8F     		se_li %r31,40
 881 0024 00B6     		se_mtctr %r6
 882              	.L59:
 883              	.LVL77:
 884              		.loc 1 885 0 discriminator 3
 885 0026 C143     		se_lwz %r4,4(%r3)
 886              		.loc 1 886 0 discriminator 3
 887 0028 7CC7FA14 		add %r6,%r7,%r31
 888              		.loc 1 885 0 discriminator 3
 889 002c 18078008 		e_addi %r0,%r7,8
 890              		.loc 1 886 0 discriminator 3
 891 0030 7CC51070 		e_slwi %r5,%r6,2
 892              		.loc 1 885 0 discriminator 3
 893 0034 6C20     		se_slwi %r0, 2
 894 0036 2007     		se_addi %r7,1
 895              	.LVL78:
 896 0038 7CC40214 		add %r6,%r4,%r0
 897 003c D1E6     		se_stw %r30,4(%r6)
 898              		.loc 1 886 0 discriminator 3
 899 003e C163     		se_lwz %r6,4(%r3)
 900 0040 0456     		se_add %r6,%r5
 901 0042 D1E6     		se_stw %r30,4(%r6)
 902              	.LVL79:
 903              		.loc 1 884 0 discriminator 3
 904 0044 7A20FFE2 		e_bdnz .L59
 905              		.loc 1 889 0
 906 0048 C173     		se_lwz %r7,4(%r3)
 907 004a 4815     		se_li %r5,1
 908 004c C067     		se_lwz %r6,0(%r7)
 909 004e 74A607FE 		e_rlwimi %r6,%r5,0,31,31
 910 0052 D067     		se_stw %r6,0(%r7)
 911              		.loc 1 964 0
 912 0054 70E0E000 		e_lis %r7,.LANCHOR0@ha
GAS LISTING C:\Users\Vipuls\AppData\Local\Temp\ccpVwyar.s 			page 17


 913 0058 1CE70000 		e_la %r7,.LANCHOR0@l(%r7)
 914 005c 0C73     		se_cmp %r3,%r7
 915 005e 7A120010 		e_beq %cr0,.L63
 916              	.LVL80:
 917              	.L53:
 918              		.loc 1 1009 0
 919 0062 C501     		se_lwz %r0,20(%r1)
 920 0064 0090     		se_mtlr %r0
 921              		.cfi_remember_state
 922              		.cfi_restore 65
 923 0066 1BC10808 		e_lmw %r30,8(%r1)
 924 006a 20F1     		se_addi %r1,16
 925              	.LCFI9:
 926              		.cfi_restore 31
 927              		.cfi_restore 30
 928              		.cfi_def_cfa_offset 0
 929 006c 0004     		se_blr
 930              	.LVL81:
 931              	.L63:
 932              	.LCFI10:
 933              		.cfi_restore_state
 934 006e 8863     		se_lbz %r6,8(%r3)
 935              		.loc 1 970 0
 936 0070 2206     		se_cmpli %r6,1
 937 0072 7A120034 		e_beq %cr0,.L64
 938              		.loc 1 975 0
 939 0076 18C684FF 		e_addi %r6,%r6,-1
 940 007a 70E0E000 		e_lis %r7,.LANCHOR0+8@ha
 941 007e 34C70000 		e_stb %r6,.LANCHOR0+8@l(%r7)
 942              	.L65:
 943              		.loc 1 1009 0
 944 0082 C501     		se_lwz %r0,20(%r1)
 945 0084 0090     		se_mtlr %r0
 946              		.cfi_remember_state
 947              		.cfi_restore 65
 948 0086 1BC10808 		e_lmw %r30,8(%r1)
 949 008a 20F1     		se_addi %r1,16
 950              	.LCFI11:
 951              		.cfi_restore 30
 952              		.cfi_restore 31
 953              		.cfi_def_cfa_offset 0
 954 008c 0004     		se_blr
 955              	.L62:
 956              	.LCFI12:
 957              		.cfi_restore_state
 958              		.loc 1 877 0 discriminator 1
 959 008e 8863     		se_lbz %r6,8(%r3)
 960 0090 2206     		se_cmpli %r6,1
 961 0092 7A01FF8A 		e_ble %cr0,.L54
 962              		.loc 1 975 0
 963 0096 18C684FF 		e_addi %r6,%r6,-1
 964 009a 70E0E000 		e_lis %r7,.LANCHOR0+8@ha
 965 009e 34C70000 		e_stb %r6,.LANCHOR0+8@l(%r7)
 966 00a2 79FFFFE0 		e_b .L65
 967              	.L64:
 968 00a6 013F     		se_mr %r31,%r3
 969              		.loc 1 971 0
GAS LISTING C:\Users\Vipuls\AppData\Local\Temp\ccpVwyar.s 			page 18


 970 00a8 4804     		se_li %r4,0
 971 00aa 4F03     		se_li %r3,112
 972              	.LVL82:
 973 00ac 78000001 		e_bl SPCSetPeripheralClockMode
 974              	.LVL83:
 975              		.loc 1 972 0
 976 00b0 98EF     		se_stb %r30,8(%r31)
 977 00b2 79FFFFB0 		e_b .L53
 978              		.cfi_endproc
 979              	.LFE7:
 980              		.size	saradc_lld_stop, .-saradc_lld_stop
 981              		.section	.text.saradc_lld_start_conversion,"axv",@progbits
 982              		.align 1
 983              		.p2align 4,,15
 984              		.globl saradc_lld_start_conversion
 985              		.type	saradc_lld_start_conversion, @function
 986              	saradc_lld_start_conversion:
 987              	.LFB8:
 988              		.loc 1 1018 0
 989              		.cfi_startproc
 990              	.LVL84:
 991              		.loc 1 1021 0
 992 0000 C173     		se_lwz %r7,4(%r3)
 993 0002 4815     		se_li %r5,1
 994 0004 C067     		se_lwz %r6,0(%r7)
 995 0006 74A6D908 		e_rlwimi %r6,%r5,27,4,4
 996 000a D067     		se_stw %r6,0(%r7)
 997 000c 0004     		se_blr
 998              		.cfi_endproc
 999              	.LFE8:
 1000              		.size	saradc_lld_start_conversion, .-saradc_lld_start_conversion
 1001              		.section	.text.saradc_lld_stop_conversion,"axv",@progbits
 1002              		.align 1
 1003              		.p2align 4,,15
 1004              		.globl saradc_lld_stop_conversion
 1005              		.type	saradc_lld_stop_conversion, @function
 1006              	saradc_lld_stop_conversion:
 1007              	.LFB9:
 1008              		.loc 1 1032 0
 1009              		.cfi_startproc
 1010              	.LVL85:
 1011              		.loc 1 1035 0
 1012 0000 C173     		se_lwz %r7,4(%r3)
 1013 0002 4805     		se_li %r5,0
 1014 0004 C067     		se_lwz %r6,0(%r7)
 1015 0006 74A6D908 		e_rlwimi %r6,%r5,27,4,4
 1016 000a D067     		se_stw %r6,0(%r7)
 1017 000c 0004     		se_blr
 1018              		.cfi_endproc
 1019              	.LFE9:
 1020              		.size	saradc_lld_stop_conversion, .-saradc_lld_stop_conversion
 1021              		.section	.text.saradc_lld_readchannel,"axv",@progbits
 1022              		.align 1
 1023              		.p2align 4,,15
 1024              		.globl saradc_lld_readchannel
 1025              		.type	saradc_lld_readchannel, @function
 1026              	saradc_lld_readchannel:
GAS LISTING C:\Users\Vipuls\AppData\Local\Temp\ccpVwyar.s 			page 19


 1027              	.LFB10:
 1028              		.loc 1 1052 0
 1029              		.cfi_startproc
 1030              	.LVL86:
 1031              		.loc 1 1058 0
 1032 0000 C173     		se_lwz %r7,4(%r3)
 1033              		.loc 1 1055 0
 1034 0002 7004A85F 		e_cmpl16i %r4,95
 1035 0006 7A11001C 		e_bgt %cr0,.L69
 1036              		.loc 1 1058 0
 1037 000a 18848040 		e_addi %r4,%r4,64
 1038              	.LVL87:
 1039              		.loc 1 1063 0
 1040 000e 6C24     		se_slwi %r4, 2
 1041 0010 7CC7202E 		lwzx %r6,%r7,%r4
 1042 0014 7C872214 		add %r4,%r7,%r4
 1043 0018 66C6     		se_btsti %r6,12
 1044 001a 7A02001C 		e_bne %cr0,.L72
 1045              	.L76:
 1046              		.loc 1 1059 0
 1047 001e 6323     		se_bgeni %r3,18
 1048              	.LVL88:
 1049 0020 0004     		se_blr
 1050              	.LVL89:
 1051              	.L69:
 1052              		.loc 1 1063 0
 1053 0022 188480B4 		e_addi %r4,%r4,180
 1054              	.LVL90:
 1055 0026 6C24     		se_slwi %r4, 2
 1056 0028 7CC7202E 		lwzx %r6,%r7,%r4
 1057 002c 7C872214 		add %r4,%r7,%r4
 1058 0030 66C6     		se_btsti %r6,12
 1059 0032 7A12FFEC 		e_beq %cr0,.L76
 1060              	.L72:
 1061              		.loc 1 1074 0
 1062 0036 A134     		se_lhz %r3,2(%r4)
 1063              	.LVL91:
 1064              		.loc 1 1077 0
 1065 0038 0004     		se_blr
 1066              		.cfi_endproc
 1067              	.LFE10:
 1068              		.size	saradc_lld_readchannel, .-saradc_lld_readchannel
 1069              		.globl SARADC12DSV
 1070              		.section	.bss.SARADC12DSV,"aw",@nobits
 1071              		.align 2
 1072              		.set	.LANCHOR0,. + 0
 1073              		.type	SARADC12DSV, @object
 1074              		.size	SARADC12DSV, 12
 1075              	SARADC12DSV:
 1076 0000 00000000 		.zero	12
 1076      00000000 
 1076      00000000 
 1077              		.section	".text","axv"
 1078              	.Letext0:
 1079              		.file 2 "c:\\autodevkitstudio-2.4.0\\eclipse\\plugins\\com.st.tools.spc5.tools.gnu.gcc.ppcvle.win3
 1080              		.file 3 "c:\\autodevkitstudio-2.4.0\\eclipse\\plugins\\com.st.tools.spc5.tools.gnu.gcc.ppcvle.win3
 1081              		.file 4 "./components/spc58ecxx_platform_component_rla/lib/include/typedefs.h"
GAS LISTING C:\Users\Vipuls\AppData\Local\Temp\ccpVwyar.s 			page 20


 1082              		.file 5 "./components/spc58ecxx_platform_component_rla/lib/include/spc58xcxx.h"
 1083              		.file 6 "./components/spc58ecxx_low_level_drivers_component_rla/lib/include/saradc_lld.h"
 1084              		.file 7 "./components/spc58ecxx_clock_component_rla/lib/include/clock.h"